0000  .byte 00 05 00 AA B1 91 B3 00 07 00 00 00 00 00 00 00 ; ................
0010  .byte 00 00 00 00 00 00 00 00 00 71 EB 86 00 00 00 00 ; .........q......
0020  .byte 00 00 00 00 00 00 00 00 00 00 00 00 00 2C 08 00 ; .............,..
0030  .byte 00 00 00 00 00 00 00 00 00 00 00 00 00 00 00 00 ; ................
0040  .byte 00 00 00 00 00 00 00 00 00 00 00 00 00 00 00 00 ; ................
0050  .byte 00 00 00 00 4C 00 00 00 00 00 00 00 00 00 00 00 ; ....L...........
0060  .byte 00 00 00 00 00 00 00 00 00 00 00 00 00 00 00 00 ; ................
0070  .byte 00 00 00 00 00 00 00 00 00 00 00 00 00 00 00 00 ; ................
0080  .byte 00 00 00 00 00 00 00 00 00 00 00 00 00 00 00 00 ; ................
0090  .byte 40 00 00 00 00 00 00 00 00 00 00 00 00 00 00 00 ; @...............
00A0  .byte 00 00 00 00 00 00 00 00 00 00 00 00 DB 03 DB 03 ; ................
00B0  .byte CA 00 00 00 00 00 00 00 00 00 00 8D 00 00 00 00 ; ................
00C0  .byte 00 00 00 00 00 00 00 00 00 00 00 00 00 00 00 00 ; ................
00D0  .byte 00 00 00 00 00 00 00 00 00 00 00 00 00 00 00 00 ; ................
00E0  .byte 00 00 00 00 00 00 00 00 00 00 00 00 00 00 00 00 ; ................
00F0  .byte 00 00 00 00 00 00 00 00 00 00 00 00 60 00 DC 00 ; ............`...
0100  .byte 00 00 00 00 00 00 00 00 00 00 00 00 00 00 00 00 ; ................
0110  .byte 00 00 00 00 00 00 00 00 00 00 00 00 00 00 00 00 ; ................
0120  .byte 00 00 00 00 00 00 00 00 00 00 00 00 00 00 00 00 ; ................
0130  .byte 00 00 00 00 00 00 00 00 00 00 00 00 00 00 00 00 ; ................
0140  .byte 00 00 00 00 00 00 00 00 00 00 00 00 00 00 00 00 ; ................
0150  .byte 00 00 00 00 00 00 00 00 00 00 00 00 00 00 00 00 ; ................
0160  .byte 00 00 00 00 00 00 00 00 00 00 00 00 00 00 00 00 ; ................
0170  .byte 00 00 00 00 00 00 00 00 00 00 00 00 00 00 00 00 ; ................
0180  .byte 00 00 00 00 00 00 00 00 00 00 00 00 00 00 00 00 ; ................
0190  .byte 00 00 00 00 00 00 00 00 00 00 00 00 00 00 00 00 ; ................
01A0  .byte 00 00 00 00 00 00 00 00 00 00 00 00 00 00 00 00 ; ................
01B0  .byte 00 00 00 00 00 00 00 00 00 00 00 00 00 00 00 00 ; ................
01C0  .byte 00 00 00 00 00 00 00 00 00 00 00 00 00 00 00 00 ; ................
01D0  .byte 00 00 00 00 00 00 00 00 00 00 00 00 00 00 00 00 ; ................
01E0  .byte 00 00 00 00 00 00 00 00 00 00 00 00 00 00 00 00 ; ................
01F0  .byte 00 00 00 00 00 00 00 00 4E 03 DF B3 2F 1D 00 00 ; ........N.../...
0200  .byte 00 00 00 00 00 00 00 00 00 00 00 00 00 00 00 00 ; ................
0210  .byte 00 00 00 00 00 00 00 00 00 00 00 00 00 00 00 00 ; ................
0220  .byte 00 00 00 00 00 00 00 00 00 00 00 00 00 00 00 00 ; ................
0230  .byte 00 00 00 00 00 00 00 00 00 00 00 00 00 00 00 00 ; ................
0240  .byte 00 00 00 00 00 00 00 00 00 00 00 00 00 00 00 00 ; ................
0250  .byte 00 00 00 00 00 00 00 00 00 00 00 00 00 00 00 00 ; ................
0260  .byte 00 00 00 00 00 00 00 00 00 00 00 00 00 00 00 00 ; ................
0270  .byte 00 00 00 00 00 00 00 00 00 00 00 00 00 00 00 00 ; ................
0280  .byte 00 00 00 00 00 00 00 00 00 00 00 00 00 00 00 48 ; ...............H
0290  .byte EB 00 00 00 00 00 00 00 00 00 00 00 00 00 00 A8 ; ................
02A0  .byte 02 00 11 90 11 00 01 00 A9 20 A2 08 A0 00 91 AC ; ......... ......
02B0  .byte 20 DB FC E4 AD D0 F7 A2 D0 B9 D1 FC 91 AC C8 D0 ;  ...............
02C0  .byte F8 E6 AD E4 AD D0 F2 A9 80 85 9D A9 00 8D 00 08 ; ................
02D0  .byte 85 C6 4C 78 03 00 AD 01 DD 29 01 85 A7 AD 06 DD ; ..Lx.....)......
02E0  .byte E9 1C 6D 99 02 8D 06 DD AD 07 DD 6D 9A 02 8D 07 ; ..m........m....
02F0  .byte DD A9 11 8D 0F DD AD A1 02 8D 0D DD D0 DF 4C D4 ; ..............L.
0300  .byte 8B E3 83 A4 7C A5 1A A7 E4 A7 86 AE 00 00 00 00 ; ....|...........
0310  .byte 4C 48 B2 00 31 EA 28 80 33 B4 4A F3 91 F2 0E F2 ; LH..1.(.3.J.....
0320  .byte 50 F2 33 F3 57 F1 61 BA ED F6 3E F1 2F F3 66 FE ; P.3.W.a...>./.f.
0330  .byte A5 F4 ED F5 A9 10 2C 0D DC F0 FB A9 11 8D 0E DD ; ......,.........
0340  .byte AD 0D DD 4A 2C 0D DC 66 FC 60 A2 0A 20 34 03 EE ; ...J,..f.`.. 4..
0350  .byte 20 D0 CA D0 F7 A5 FC 60 EA EA A9 81 8D 0D DC 58 ;  ......`.......X
0360  .byte A9 00 20 71 A8 4C EA A7 DC 58 A9 00 20 71 A8 4C ; .. q.L...X.. q.L
0370  .byte EA A7 00 00 00 00 00 8D A9 43 8D 04 DD A9 02 8D ; .........C......
0380  .byte 05 DD A0 7F 8C 0D DD 8C 0D DC A9 07 85 01 84 FC ; ................
0390  .byte 20 34 03 D0 FB 20 4A 03 D0 F4 20 4A 03 F0 FB C9 ;  4... J... J....
03A0  .byte 16 D0 EB A0 04 20 4A 03 99 AC 00 88 10 F7 20 4A ; ..... J....... J
03B0  .byte 03 81 AC 20 DB FC 20 D1 FC 90 F3 B0 E6 A9 B0 8D ; ... .. .........
03C0  .byte BB 03 A9 81 8D 0D DC 58 20 CA FC 2C 53 E4 A2 00 ; .......X ..,S...
03D0  .byte A0 64 A9 40 85 90 18 60 00 00 00 1C BD A2 E3 24 ; .d.@...`.......$
03E0  .byte 73 CA 10 F8 A9 48 A0 EB 8D 8F 02 8C 90 02 4C 78 ; s....H........Lx
03F0  .byte 03 00 5F 94 60 00 FF 1C 63 63 1F 20 20 20 20 20 ; .._.`...cc.     
0400  .byte 00 00 00 00 00 00 00 00 00 00 00 00 00 00 00 00 ; ................
0410  .byte 00 00 00 00 00 00 00 00 00 00 00 00 00 00 00 00 ; ................
0420  .byte 00 00 00 00 00 00 00 00 00 00 00 00 00 00 00 00 ; ................
0430  .byte 00 00 00 00 00 00 00 00 00 00 00 00 00 00 00 00 ; ................
0440  .byte 00 00 00 00 00 00 00 00 00 00 00 00 00 00 00 00 ; ................
0450  .byte 00 00 00 00 00 00 00 00 00 00 00 00 00 00 00 00 ; ................
0460  .byte 00 00 00 00 00 00 00 00 00 00 00 00 00 00 00 00 ; ................
0470  .byte 00 00 00 00 00 00 00 00 00 00 00 00 00 00 00 00 ; ................
0480  .byte 00 00 00 00 00 00 00 00 00 00 00 00 00 00 00 00 ; ................
0490  .byte 00 00 00 00 00 00 00 00 00 00 00 00 00 00 00 00 ; ................
04A0  .byte 00 00 00 00 00 00 00 00 00 00 00 00 00 00 00 00 ; ................
04B0  .byte 00 00 00 00 00 00 00 00 00 00 00 00 00 00 00 00 ; ................
04C0  .byte 00 00 00 00 00 00 00 00 00 00 00 00 00 00 00 00 ; ................
04D0  .byte 00 00 00 00 00 00 00 00 00 00 00 00 00 00 00 00 ; ................
04E0  .byte 00 00 00 00 00 00 00 00 00 00 00 00 00 00 00 00 ; ................
04F0  .byte 00 00 00 00 00 00 00 00 00 00 00 00 00 00 00 00 ; ................
0500  .byte 00 00 00 00 00 00 00 00 00 00 00 00 00 00 00 00 ; ................
0510  .byte 00 00 00 00 00 00 00 00 00 00 00 00 00 00 00 00 ; ................
0520  .byte 00 00 00 00 00 00 00 00 00 00 00 00 00 00 00 00 ; ................
0530  .byte 00 00 00 00 00 00 00 00 00 00 00 00 00 00 00 00 ; ................
0540  .byte 00 00 00 00 00 00 00 00 00 00 00 00 00 00 00 00 ; ................
0550  .byte 00 00 00 00 00 00 00 00 00 00 00 00 00 00 00 00 ; ................
0560  .byte 00 00 00 00 00 00 00 00 00 00 00 00 00 00 00 00 ; ................
0570  .byte 00 00 00 00 00 00 00 00 00 00 00 00 00 00 00 00 ; ................
0580  .byte 00 00 00 00 00 00 00 00 00 00 00 00 00 00 00 00 ; ................
0590  .byte 00 00 00 00 00 00 00 00 00 00 00 00 00 00 00 00 ; ................
05A0  .byte 00 00 00 00 00 00 00 00 00 00 00 00 00 00 00 00 ; ................
05B0  .byte 00 00 00 00 00 00 00 00 00 00 00 00 00 00 00 00 ; ................
05C0  .byte 00 00 00 00 00 00 00 00 00 00 00 00 00 00 00 00 ; ................
05D0  .byte 00 00 00 00 00 00 00 00 00 00 00 00 00 00 00 00 ; ................
05E0  .byte 00 00 00 00 00 00 00 00 00 00 00 00 00 00 00 00 ; ................
05F0  .byte 00 00 00 00 00 00 00 00 00 00 00 00 00 00 00 00 ; ................
0600  .byte 00 00 00 00 00 00 00 00 00 00 00 00 00 00 00 00 ; ................
0610  .byte 00 00 00 00 00 00 00 00 00 00 00 00 00 00 00 00 ; ................
0620  .byte 00 00 00 00 00 00 00 00 00 00 00 00 00 00 00 00 ; ................
0630  .byte 00 00 00 00 00 00 00 00 00 00 00 00 00 00 00 00 ; ................
0640  .byte 00 00 00 00 00 00 00 00 00 00 00 00 00 00 00 00 ; ................
0650  .byte 00 00 00 00 00 00 00 00 00 00 00 00 00 00 00 00 ; ................
0660  .byte 00 00 00 00 00 00 00 00 00 00 00 00 00 00 00 00 ; ................
0670  .byte 00 00 00 00 00 00 00 00 00 00 00 00 00 00 00 00 ; ................
0680  .byte 00 00 00 00 00 00 00 00 00 00 00 00 00 00 00 00 ; ................
0690  .byte 00 00 00 00 00 00 00 00 00 00 00 00 00 00 00 00 ; ................
06A0  .byte 00 00 00 00 00 00 00 00 00 00 00 00 00 00 00 00 ; ................
06B0  .byte 00 00 00 00 00 00 00 00 00 00 00 00 00 00 00 00 ; ................
06C0  .byte 00 00 00 00 00 00 00 00 00 00 00 00 00 00 00 00 ; ................
06D0  .byte 00 00 00 00 00 00 00 00 00 00 00 00 00 00 00 00 ; ................
06E0  .byte 00 00 00 00 00 00 00 00 00 00 00 00 00 00 00 00 ; ................
06F0  .byte 00 00 00 00 00 00 00 00 00 00 00 00 00 00 00 00 ; ................

; --- token_strings  $0700 — string/name dictionary (EOR-$23, $00-separated, nested token refs): trade goods, equipment, governments, economies, races, combat ranks, legal status, UI labels (data) ---
0700  .byte 4C 32 24 00 03 60 6B A9 77 00 64 6C B5 71 6D 6E ; L2$..`k.w.dl.qmn
0710  .byte B1 77 00 67 B2 62 32 20 00 AF B5 6D 77 BA 7A 2F ; .w.g.b2 ...mw.z/
0720  .byte 00 70 7A 70 BF 6E 00 73 BD A6 00 21 03 A8 71 68 ; .pzp.n.s...!..qh
0730  .byte 66 77 03 85 70 00 AF 67 AB 77 BD A3 00 62 64 BD ; fw..p..g.w...bd.
0740  .byte 60 76 6F 77 76 B7 6F 00 BD 60 6B 03 00 62 B5 B7 ; `vowv.o..`k..b..
0750  .byte A0 03 00 73 6C BA 03 00 A8 AF 6F 7A 03 00 76 6D ; ...sl.....oz..vm
0760  .byte 6A 77 00 75 6A 66 74 03 00 B9 B8 B4 77 7A 00 B8 ; jw.ujft.....wz..
0770  .byte A9 60 6B 7A 00 65 66 76 67 A3 00 6E 76 6F B4 0E ; .`kz.efvg..nvo..
0780  .byte 81 00 AE 60 77 B2 BA 9A 00 D8 6E 76 6D BE 77 00 ; ...`w.....nvm.w.
0790  .byte 60 BC 65 BB B3 62 60 7A 00 67 66 6E 6C 60 B7 60 ; `.e..b`z.gfnl`.`
07A0  .byte 7A 00 60 BA 73 BA B2 66 03 E8 B2 66 00 70 6B 6A ; z.`.s..f...f.pkj
07B0  .byte 73 00 73 DD 67 76 60 77 00 03 B6 70 B3 00 6B 76 ; s.s.gv`w...p..kv
07C0  .byte 6E B8 03 60 6C 6F BC 6A A3 00 6B 7A 73 B3 70 73 ; n..`lo.j..kzs.ps
07D0  .byte 62 A6 03 00 70 6B BA 77 03 E9 82 00 AE E8 B8 A6 ; b...pk.w........
07E0  .byte 00 73 6C 73 76 6F B2 6A BC 00 64 DD 70 70 03 99 ; .slsvo.j..d.pp..
07F0  .byte 6A 75 6A 77 7A 00 66 60 BC 6C 6E 7A 00 03 6F 6A ; jujwz.f`.lnz..oj
0800  .byte 64 6B 77 03 7A 66 A9 70 00 BF 60 6B 0D A2 B5 6F ; dkw.zf.p..`k...o
0810  .byte 00 60 62 70 6B 00 03 A5 2C 6A BC 00 59 82 22 00 ; .`bpk...,j..Y.".
0820  .byte 77 A9 A0 77 03 6F 6C E8 00 49 03 69 62 6E 6E BB ; w..w.ol..I.ibnn.
0830  .byte 00 71 B8 A0 00 70 77 00 93 03 6C 65 03 00 70 66 ; .q...pw...le..pf
0840  .byte 2C 00 03 60 A9 64 6C 25 00 66 B9 6A 73 00 65 6C ; ,..`.dl%.f.js.el
0850  .byte 6C 67 00 BF 7B B4 6F AA 00 B7 AE 6C 62 60 B4 B5 ; lg..{.o....lb`..
0860  .byte 70 00 70 B6 B5 70 00 6F 6A B9 BA 0C 74 AF AA 00 ; p.p..p.oj...t...
0870  .byte 6F 76 7B 76 BD AA 00 6D A9 60 6C B4 60 70 00 D8 ; ov{v...m.`l.`p..
0880  .byte 73 76 77 B3 70 00 A8 60 6B AF B3 7A 00 62 6F 6F ; svw.p..`k..z.boo
0890  .byte 6C 7A 70 00 65 6A AD A9 6E 70 00 65 76 71 70 00 ; lzp.ej..np.evqp.
08A0  .byte 6E AF B3 A3 70 00 64 6C 6F 67 00 73 6F B2 AF 76 ; n...p.dlog.so..v
08B0  .byte 6E 00 A0 6E 0E E8 BC AA 00 A3 6A B1 03 5C 70 00 ; n..n......j..\p.
08C0  .byte 2F 12 13 23 16 23 00 03 60 71 00 6F A9 A0 00 65 ; /..#.#..`q.o...e
08D0  .byte 6A B3 A6 00 70 A8 2C 00 64 AD B1 00 71 BB 00 7A ; j...p.,.d...q..z
08E0  .byte 66 2C 6C 74 00 61 6F 76 66 00 61 B6 60 68 00 35 ; f,lt.aovf.a.`h.5
08F0  .byte 00 70 6F 6A 6E 7A 00 61 76 64 0E 66 7A BB 00 6B ; .pojnz.avd.fz..k
0900  .byte BA 6D BB 00 61 BC 7A 00 65 B2 00 65 76 71 71 7A ; .m..a.z.e..evqqz
0910  .byte 00 DD 67 B1 77 00 65 DD 64 00 6F 6A A7 71 67 00 ; ..g.w.e.d.oj.qg.
0920  .byte 6F 6C 61 E8 B3 00 A5 71 67 00 6B 76 6E B8 6C 6A ; ola....qg.kvn.lj
0930  .byte 67 00 65 66 6F AF 66 00 AF 70 66 60 77 00 88 B7 ; g.efo.f..pf`w...
0940  .byte AE AB 00 60 6C 6E 00 D8 6E B8 67 B3 00 03 67 AA ; ...`ln..n.g...g.
0950  .byte 77 DD 7A BB 00 71 6C 00 8D 03 03 93 2F 03 99 03 ; w.z..ql...../...
0960  .byte 03 03 8D 03 85 03 65 BA 03 70 62 A2 2F 29 00 65 ; ......e..pb./).e
0970  .byte 71 BC 77 00 AD A9 00 A2 65 77 00 BD 64 6B 77 00 ; q.w.....ew..dkw.
0980  .byte 5A 6F 6C 74 24 00 40 32 DF 02 00 66 7B 77 B7 03 ; Zolt$.@2...f{w..
0990  .byte 00 73 76 6F 70 66 98 00 B0 62 6E 98 00 65 76 66 ; .svopf...bn..evf
09A0  .byte 6F 00 6E BE 70 6A A2 00 C0 ED 03 61 62 7A 00 66 ; o.n.pj.....abz.f
09B0  .byte 0D 60 0D 6E 0D 86 00 45 44 70 00 45 4B 70 00 4A ; .`.n...EDp.EKp.J
09C0  .byte 03 70 60 6C 6C 73 70 00 AA 60 62 73 66 03 73 6C ; .p`llsp..`bsf.sl
09D0  .byte 67 00 5A 61 6C 6E 61 00 45 5A 8D 00 67 6C 60 68 ; g.Zalna.EZ..gl`h
09E0  .byte AF 64 03 F4 00 59 03 9E 00 6E 6A 6F 6A 77 A9 7A ; .d...Y...njojw.z
09F0  .byte 03 98 00 6E AF AF 64 03 98 00 E6 19 23 00 AF D8 ; ...n..d.....#...
0A00  .byte AF 64 03 49 00 B1 B3 64 7A 03 00 64 62 B6 60 B4 ; .d.I...dz..db.`.
0A10  .byte 60 00 50 03 6C 6D 00 62 2C 00 26 A2 64 A3 03 E8 ; `.P.lm.b,.&.d...
0A20  .byte B2 AB 19 00 DF 03 27 2F 2F 2F 25 3C 03 86 2A 21 ; ......'///%<..*!
0A30  .byte 2F 9E 86 2A 20 2F 60 BC AE B4 BC 2A 00 6A BF 6E ; /..* /`....*.j.n
0A40  .byte 00 00 6F 6F 00 B7 B4 6D 64 19 00 03 BC 03 00 2F ; ..oo...md....../
0A50  .byte 2B EC 6E B1 77 19 25 00 60 A2 B8 00 6C 65 65 B1 ; +.n.w.%.`...lee.
0A60  .byte 67 B3 00 65 76 64 6A B4 B5 00 6B A9 6E A2 70 70 ; g..evdj...k.n.pp
0A70  .byte 00 6E 6C E8 6F 7A 03 35 00 8F 00 88 00 62 61 6C ; .nl.oz.5.....bal
0A80  .byte B5 03 88 00 D8 73 66 77 B1 77 00 67 B8 A0 DD AB ; .....sfw.w.g....
0A90  .byte 00 67 66 62 67 6F 7A 00 0E 0E 0E 0E 03 66 03 6F ; .gfbgoz......f.o
0AA0  .byte 03 6A 03 77 03 66 03 0E 0E 0E 0E 00 73 AD 70 B1 ; .j.w.f......s.p.
0AB0  .byte 77 00 2B 64 62 6E 66 03 6C B5 71 00 00 00 00 00 ; w.+dbnf.l.q.....
0AC0  .byte 00 19 32 4A 62 79 8E A2 B5 C6 D5 E2 ED F5 FB FF ; ..2Jby..........
0AD0  .byte FF FF FB F5 ED E2 D5 C6 B5 A2 8E 79 62 4A 32 19 ; ...........ybJ2.
0AE0  .byte 00 01 03 04 05 06 08 09 0A 0B 0C 0D 0F 10 11 12 ; ................
0AF0  .byte 13 14 15 16 17 18 19 19 1A 1B 1C 1D 1D 1E 1F 1F ; ................
0B00  .byte 00 00 00 00 00 00 00 00 18 18 18 18 18 00 18 00 ; ................
0B10  .byte 6C 6C 6C 00 00 00 00 00 36 36 7F 36 7F 36 36 00 ; lll.....66.6.66.
0B20  .byte 0C 3F 68 3E 0B 7E 18 00 60 66 0C 18 30 66 06 00 ; .?h>.~..`f..0f..
0B30  .byte 38 6C 6C 38 6D 66 3B 00 0C 18 30 00 00 00 00 00 ; 8ll8mf;...0.....
0B40  .byte 0C 18 30 30 30 18 0C 00 30 18 0C 0C 0C 18 30 00 ; ..000...0.....0.
0B50  .byte 00 18 7E 3C 7E 18 00 00 00 18 18 7E 18 18 00 00 ; ..~<~......~....
0B60  .byte 00 00 00 00 00 18 18 30 00 00 00 7E 00 00 00 00 ; .......0...~....
0B70  .byte 00 00 00 00 00 18 18 00 00 06 0C 18 30 60 00 00 ; ............0`..
0B80  .byte 3C 66 6E 7E 76 66 3C 00 18 38 18 18 18 18 7E 00 ; <fn~vf<..8....~.
0B90  .byte 3C 66 06 0C 18 30 7E 00 3C 66 06 1C 06 66 3C 00 ; <f...0~.<f...f<.
0BA0  .byte 0C 1C 3C 6C 7E 0C 0C 00 7E 60 7C 06 06 66 3C 00 ; ..<l~...~`|..f<.
0BB0  .byte 1C 30 60 7C 66 66 3C 00 7E 06 0C 18 30 30 30 00 ; .0`|ff<.~...000.
0BC0  .byte 3C 66 66 3C 66 66 3C 00 3C 66 66 3E 06 0C 38 00 ; <ff<ff<.<ff>..8.
0BD0  .byte 00 00 18 18 00 18 18 00 00 00 18 18 00 18 18 30 ; ...............0
0BE0  .byte 0C 18 30 60 30 18 0C 00 00 00 7E 00 7E 00 00 00 ; ..0`0.....~.~...
0BF0  .byte 30 18 0C 06 0C 18 30 00 3C 66 0C 18 18 00 18 00 ; 0.....0.<f......
0C00  .byte 3C 66 6E 6A 6E 60 3C 00 3C 66 66 7E 66 66 66 00 ; <fnjn`<.<ff~fff.
0C10  .byte 7C 66 66 7C 66 66 7C 00 3C 66 60 60 60 66 3C 00 ; |ff|ff|.<f```f<.
0C20  .byte 78 6C 66 66 66 6C 78 00 7E 60 60 7C 60 60 7E 00 ; xlffflx.~``|``~.
0C30  .byte 7E 60 60 7C 60 60 60 00 3C 66 60 6E 66 66 3C 00 ; ~``|```.<f`nff<.
0C40  .byte 66 66 66 7E 66 66 66 00 7E 18 18 18 18 18 7E 00 ; fff~fff.~.....~.
0C50  .byte 3E 0C 0C 0C 0C 6C 38 00 66 6C 78 70 78 6C 66 00 ; >....l8.flxpxlf.
0C60  .byte 60 60 60 60 60 60 7E 00 63 77 7F 6B 6B 63 63 00 ; ``````~.cw.kkcc.
0C70  .byte 66 66 76 7E 6E 66 66 00 3C 66 66 66 66 66 3C 00 ; ffv~nff.<fffff<.
0C80  .byte 7C 66 66 7C 60 60 60 00 3C 66 66 66 6A 6C 36 00 ; |ff|```.<fffjl6.
0C90  .byte 7C 66 66 7C 6C 66 66 00 3C 66 60 3C 06 66 3C 00 ; |ff|lff.<f`<.f<.
0CA0  .byte 7E 18 18 18 18 18 18 00 66 66 66 66 66 66 3C 00 ; ~.......ffffff<.
0CB0  .byte 66 66 66 66 66 3C 18 00 63 63 6B 6B 7F 77 63 00 ; fffff<..cckk.wc.
0CC0  .byte 66 66 3C 18 3C 66 66 00 66 66 66 3C 18 18 18 00 ; ff<.<ff.fff<....
0CD0  .byte 7E 06 0C 18 30 60 7E 00 7C 60 60 60 60 60 7C 00 ; ~...0`~.|`````|.
0CE0  .byte 00 60 30 18 0C 06 00 00 3E 06 06 06 06 06 3E 00 ; .`0.....>.....>.
0CF0  .byte 18 3C 66 42 00 00 00 00 00 00 00 00 00 00 00 FF ; .<fB............
0D00  .byte 1C 36 30 7C 30 30 7E 00 00 00 3C 06 3E 66 3E 00 ; .60|00~...<.>f>.
0D10  .byte 60 60 7C 66 66 66 7C 00 00 00 3C 66 60 66 3C 00 ; ``|fff|...<f`f<.
0D20  .byte 06 06 3E 66 66 66 3E 00 00 00 3C 66 7E 60 3C 00 ; ..>fff>...<f~`<.
0D30  .byte 1C 30 30 7C 30 30 30 00 00 00 3E 66 66 3E 06 3C ; .00|000...>ff>.<
0D40  .byte 60 60 7C 66 66 66 66 00 18 00 38 18 18 18 3C 00 ; ``|ffff...8...<.
0D50  .byte 18 00 38 18 18 18 18 70 60 60 66 6C 78 6C 66 00 ; ..8....p``flxlf.
0D60  .byte 38 18 18 18 18 18 3C 00 00 00 36 7F 6B 6B 63 00 ; 8.....<...6.kkc.
0D70  .byte 00 00 7C 66 66 66 66 00 00 00 3C 66 66 66 3C 00 ; ..|ffff...<fff<.
0D80  .byte 00 00 7C 66 66 7C 60 60 00 00 3E 66 66 3E 06 07 ; ..|ff|``..>ff>..
0D90  .byte 00 00 6C 76 60 60 60 00 00 00 3E 60 3C 06 7C 00 ; ..lv```...>`<.|.
0DA0  .byte 30 30 7C 30 30 30 1C 00 00 00 66 66 66 66 3E 00 ; 00|000....ffff>.
0DB0  .byte 00 00 66 66 66 3C 18 00 00 00 63 6B 6B 7F 36 00 ; ..fff<....ckk.6.
0DC0  .byte 00 00 66 3C 18 3C 66 00 00 00 66 66 66 3E 06 3C ; ..f<.<f...fff>.<
0DD0  .byte 00 00 7E 0C 18 30 7E 00 0C 18 18 70 18 18 0C 00 ; ..~..0~....p....
0DE0  .byte 18 18 18 00 18 18 18 00 30 18 18 0E 18 18 30 00 ; ........0.....0.
0DF0  .byte 31 6B 46 00 00 00 00 00 FF FF FF FF FF FF FF FF ; 1kF.............
0E00  .byte 57 5E 5C 56 5F 77 49 77 16 14 BE 04 04 77 1A 12 ; W^\V_wIw.....w..
0E10  .byte B6 80 5D 55 66 79 77 C2 80 65 79 77 04 16 AD 77 ; ..]Ufyw..eyw...w
0E20  .byte CD 77 53 80 64 79 77 14 1F A8 B0 9E 48 80 63 79 ; .wS.dyw.....H.cy
0E30  .byte 77 13 12 11 16 02 1B 03 77 56 1D 16 1A 12 04 18 ; w.......wV......
0E40  .byte 19 55 80 62 79 77 12 0F 8C 80 57 A6 04 1C 57 03 ; .U.byw....W...W.
0E50  .byte 16 07 12 57 14 18 1A 07 12 AC AC 88 77 B6 1A 15 ; ...W........w...
0E60  .byte A3 6D 57 E7 3A 9D 39 E6 57 77 77 C2 77 56 7F 0E ; .mW.:.9.Www.wV..
0E70  .byte 78 19 7E 68 55 5B 5B 57 07 A5 04 04 77 04 07 16 ; x.~hU[[W....w...
0E80  .byte BE 77 AA 77 11 1E A5 7B CD 79 5B 5B 57 CD 70 04 ; .w.w...{.y[[W.p.
0E90  .byte 9F 57 5B 56 8B B2 10 B3 77 12 1B 1E 03 12 77 1E ; .W[V....w.....w.
0EA0  .byte 1E 77 11 1E B2 57 40 59 55 10 A5 8A A7 10 04 82 ; .w...W@YU.......
0EB0  .byte E5 44 1E 77 A0 10 87 1A 18 1A A1 03 77 18 11 77 ; .D.w........w..w
0EC0  .byte E4 05 77 01 B3 02 8F B2 77 AC 1A 12 9B 00 12 77 ; ..w.....w......w
0ED0  .byte 00 8E 1B 13 77 1B 1E 1C 12 77 E4 9E 13 18 87 1B ; ....w....w......
0EE0  .byte 8C 03 B2 77 1D 18 15 77 11 AA 77 BB 9B C4 98 77 ; ...w...w..w....w
0EF0  .byte E4 77 8D 12 77 1F 12 A5 9D 16 85 1A 18 13 12 1B ; .w..w...........
0F00  .byte 7B 77 C4 44 14 88 89 05 1E 14 03 AA 7B 77 12 A9 ; {w.D........{w..
0F10  .byte 1E 07 93 00 1E B5 87 03 18 07 77 8D 14 05 8A 85 ; ..........w.....
0F20  .byte 04 1F 1E 12 1B 13 77 10 A1 A3 A2 AA 9B 02 19 11 ; ......w.........
0F30  .byte AA 03 02 19 A2 12 1B 0E 77 8C 70 04 77 A0 A1 77 ; ........w.p.w..w
0F40  .byte 89 18 1B A1 9B 41 8C 77 00 A1 03 77 1A 1E 04 04 ; .....A.w...w....
0F50  .byte 94 11 05 18 1A 77 8E 05 77 98 77 0E B9 13 77 88 ; .....w..w.w...w.
0F60  .byte 77 44 B1 A3 77 11 1E AD 77 1A 88 B5 04 77 16 10 ; wD..w...w....w..
0F70  .byte 18 E5 4B 9B E4 05 77 1A 1E 04 04 1E 88 7B 77 04 ; ..K...w......{w.
0F80  .byte 1F 8E 1B 13 77 E4 77 13 12 14 1E 13 12 9E 16 14 ; ....w.w.........
0F90  .byte BE 07 03 77 8C 7B 77 1E 04 9E 8D 12 1C E5 13 BA ; ...w.{w.........
0FA0  .byte 03 05 18 0E 77 C3 98 9B E4 77 16 A5 77 14 16 02 ; ....w....w..w...
0FB0  .byte AC 88 93 B5 A2 77 88 1B 0E 77 51 22 52 04 77 00 ; .....w...wQ"R.w.
0FC0  .byte 8B 1B 77 07 A1 8A AF 03 12 77 C4 19 12 00 77 04 ; ..w......w....w.
0FD0  .byte 1F 1E 12 1B 13 04 E5 B5 A2 77 C4 44 14 88 89 05 ; .........w.D....
0FE0  .byte 1E 14 03 AA 9D 11 8C 03 93 00 1E B5 77 A8 77 51 ; ............w.wQ
0FF0  .byte 3B 52 E6 55 5F 10 18 18 13 77 1B 02 14 1C 7B 77 ; ;R.U_....w....{w
1000  .byte CD 83 41 57 4E 5E 40 59 55 77 77 A2 03 A1 AC 88 ; ..AWN^@YUww.....
1010  .byte 82 79 77 44 00 12 77 1F 16 AD 77 19 12 93 18 11 ; .ywD..w...w.....
1020  .byte 77 E4 05 77 8D 05 01 1E 14 BA 77 16 10 16 A7 9B ; w..w......w.....
1030  .byte 1E 11 77 E4 77 00 8E 1B 13 77 A0 77 BC 77 10 18 ; ..w.w....w.w.w..
1040  .byte 18 13 77 16 04 9E 10 18 9E 44 BE A3 A6 77 E4 77 ; ..w......D...w.w
1050  .byte 00 8B 1B 77 A0 77 15 05 1E 12 11 AB 9B 1E 11 77 ; ...w.w.........w
1060  .byte 04 02 14 BE 04 04 11 02 1B 7B 77 E4 77 00 8B 1B ; .........{w.w...
1070  .byte 77 A0 77 00 12 1B 1B 77 A5 00 B9 13 AB 83 4F 57 ; w.w....w......OW
1080  .byte 7F 44 14 7E 92 77 66 6E 6F 62 57 15 0E 92 57 42 ; .D.~.wfnobW...WB
1090  .byte C6 9F 4D 57 4E 5E 40 59 55 77 77 14 88 10 AF 03 ; ..MWN^@YUww.....
10A0  .byte 02 AE AC 88 04 77 CD 76 5B 5B B5 A3 12 5A 77 00 ; .....w.v[[...Zw.
10B0  .byte 8B 1B 77 B3 00 16 0E 04 77 A0 87 07 AE BE 77 11 ; ..w.....w.....w.
10C0  .byte AA 77 E4 77 A7 84 9B A8 13 77 B8 0E A0 77 BC 88 ; .w.w.....w...w..
10D0  .byte A3 77 B5 A8 77 E4 77 B5 A7 1C 79 79 83 4F 57 11 ; .w..w.w...yy.OW.
10E0  .byte 8F B2 13 57 B4 03 8F B2 57 00 12 1B 1B 77 1C B4 ; ...W....W....w..
10F0  .byte 00 19 57 11 16 1A 18 BB 57 B4 03 AB 57 AD 05 0E ; ..W.....W...W...
1100  .byte 57 1A 8B 13 1B 0E 57 1A 18 89 57 A5 16 04 88 8F ; W.....W...W.....
1110  .byte 1B 0E 57 57 F2 57 25 57 10 A5 A2 57 01 16 89 57 ; ..WW.W%W...W...W
1120  .byte 07 A7 1C 57 55 20 77 21 5A 77 EE 16 AC 88 04 57 ; ...WU w!Zw.....W
1130  .byte CB 04 57 22 57 D7 77 11 AA BA 03 04 57 18 BE A8 ; ..W"W.w.....W...
1140  .byte 04 57 04 1F 0E 19 BA 04 57 04 8B 1B A7 BA 04 57 ; .W......W......W
1150  .byte B8 03 94 03 AF A6 AC 88 04 57 B7 A2 1F 94 18 11 ; .........W......
1160  .byte 77 33 57 B7 AD 77 11 AA 77 33 57 11 18 18 13 77 ; w3W..w..w3W....w
1170  .byte 15 B2 19 13 A3 04 57 03 8E 05 1E 89 04 57 07 18 ; ......W......W..
1180  .byte 8A 05 0E 57 A6 04 14 18 04 57 3B 57 00 B3 1C 94 ; ...W.....W;W....
1190  .byte C9 57 14 AF 15 57 15 A2 57 B7 15 89 57 45 57 A0 ; .W...W..W...WEW.
11A0  .byte 04 8A 57 07 AE 10 02 AB 57 AF 01 16 10 AB 57 14 ; ..W.....W.....W.
11B0  .byte 02 05 04 AB 57 04 14 8E 05 10 AB 57 26 77 14 1E ; ....W......W&w..
11C0  .byte 01 8B 77 00 B9 57 3F 77 08 77 37 04 57 16 77 3F ; ..w..W?w.w7.W.w?
11D0  .byte 77 A6 8D 16 8D 57 26 77 12 B9 B5 A9 16 1C BA 57 ; w....W&w.......W
11E0  .byte 26 77 BC AE 05 77 16 14 AC 01 8C 0E 57 F8 0A 77 ; &w...w......W..w
11F0  .byte 09 57 C4 46 77 08 77 37 57 F8 96 04 70 77 35 77 ; .W.Fw.w7W...pw5w
1200  .byte 34 57 55 2D 5A 57 F8 3C 77 3B 57 1D 02 1E BE 57 ; 4WU-ZW.<w;W....W
1210  .byte 15 AF 19 13 0E 57 00 A2 A3 57 15 A5 00 57 10 B9 ; .....W...W...W..
1220  .byte 10 B2 77 15 AE 89 A3 04 57 45 57 46 77 37 57 46 ; ..w.....WEWFw7WF
1230  .byte 77 45 57 46 77 3F 57 3F 77 45 57 11 8F 02 B7 BB ; wEWFw?W?wEW.....
1240  .byte 57 12 0F 18 AC 14 57 1F 18 18 07 0E 57 02 B6 04 ; W.....W.....W...
1250  .byte 02 B3 57 12 0F 14 8C A7 10 57 14 02 1E 04 A7 12 ; ..W......W......
1260  .byte 57 19 1E 10 1F 03 77 1B 1E 11 12 57 14 16 04 1E ; W.....w....W....
1270  .byte B4 04 57 04 8C 77 14 18 1A 04 57 55 2D 5A 57 54 ; ..W..w....WU-ZWT
1280  .byte 57 C4 C6 77 54 57 C4 C5 77 54 57 C3 C6 57 C3 C5 ; W..wTW..wTW..W..
1290  .byte 57 04 88 77 18 11 87 15 8C 14 1F 57 04 14 8E 19 ; W..w.......W....
12A0  .byte 13 A5 1B 57 15 AE 14 1C 10 02 B9 13 57 05 18 10 ; ...W........W...
12B0  .byte 02 12 57 00 1F AA BA 88 77 A0 8A B2 77 1F 12 16 ; ..W.....w...w...
12C0  .byte 13 93 11 AE 07 77 12 B9 70 13 77 1C 19 16 AD 57 ; .....w..p.w....W
12D0  .byte 19 77 02 19 A5 B8 05 1C 8F B2 57 77 15 AA A7 10 ; .w........Ww....
12E0  .byte 57 77 13 02 1B 1B 57 77 03 12 A6 18 BB 57 77 A5 ; Ww....Ww.....Ww.
12F0  .byte 01 18 1B 03 A7 10 57 C6 57 C5 57 07 AE BE 57 1B ; ......W.W.W...W.
1300  .byte 8C 03 B2 77 C6 57 13 02 1A 07 57 1E 77 1F 12 B9 ; ...w.W....W.w...
1310  .byte 87 25 77 B7 18 1C 94 98 77 16 07 07 12 B9 93 A2 ; .%w.....w.......
1320  .byte 86 57 0E 12 16 1F 7B 77 1E 77 1F 12 B9 87 25 77 ; .W....{w.w....%w
1330  .byte 98 77 B2 11 03 86 87 77 00 1F 1E B2 77 15 16 14 ; .w.....w....w...
1340  .byte 1C 57 10 8A 77 E4 05 77 1E 05 88 77 16 04 04 77 ; .W..w..w...w...w
1350  .byte 18 01 A3 77 03 18 86 57 BC 1A 12 77 24 85 98 77 ; ...w...W...w$..w
1360  .byte 00 16 04 77 8D A1 77 A2 86 57 03 05 0E 86 57 77 ; ...w..w..W....Ww
1370  .byte 14 02 13 13 1B 0E 57 77 14 02 03 12 57 77 11 02 ; ......Ww....Ww..
1380  .byte 05 05 0E 57 77 11 05 1E A1 13 1B 0E 57 00 16 04 ; ...Ww.......W...
1390  .byte 07 57 1A 18 B5 57 10 05 02 15 57 A8 03 57 45 57 ; .W...W....W..WEW
13A0  .byte 07 18 8A 57 B9 03 04 77 10 AF 13 02 A2 12 57 0E ; ...W...w......W.
13B0  .byte 16 1C 57 04 19 16 8B 57 04 1B 02 10 57 03 05 18 ; ..W....W....W...
13C0  .byte 07 1E 14 B3 57 13 A1 8D 57 AF A7 57 1E 1A 07 A1 ; ....W...W..W....
13D0  .byte 8A AF 15 B2 57 12 0F 02 A0 AF 19 03 57 11 02 19 ; ....W.......W...
13E0  .byte 19 0E 57 00 12 1E 05 13 57 02 B6 04 02 B3 57 89 ; ..W.....W.....W.
13F0  .byte AF 19 B0 57 07 12 14 02 1B 1E B9 57 11 A5 A9 A1 ; ...W.......W....
1400  .byte 03 57 18 14 14 16 04 1E 88 B3 57 02 19 07 A5 A6 ; .W........W.....
1410  .byte 14 03 8F B2 57 13 A5 16 13 11 02 1B 57 FC 57 0B ; ....W.......W.W.
1420  .byte 77 0C 77 11 AA 77 32 57 DB E5 32 57 31 77 15 0E ; w.w..w2W..2W1w..
1430  .byte 77 30 57 DB 77 15 02 03 77 D9 57 77 16 38 77 27 ; w0W.w...w.Ww.8w'
1440  .byte 57 07 1B A8 8A 57 00 AA 1B 13 57 B5 12 77 57 B5 ; W....W....W..wW.
1450  .byte 1E 04 77 57 B7 16 13 85 CD 57 5E 5C 56 5F 57 13 ; ..wW.....W^\V_W.
1460  .byte 05 1E AD 57 77 14 A2 16 B7 10 02 12 57 1E A8 57 ; ...Ww.......W..W
1470  .byte 44 14 18 1A 1A A8 13 A3 57 3F 57 1A 8E 19 03 16 ; D.......W?W.....
1480  .byte A7 57 AB 1E 15 B2 57 03 A5 12 57 04 07 18 03 03 ; .W....W...W.....
1490  .byte AB 57 2F 57 2E 57 36 18 1E 13 57 28 57 29 57 A8 ; .W/W.W6...W(W)W.
14A0  .byte 14 1E A1 03 57 12 0F BE 07 AC 88 B3 57 12 14 BE ; ....W.......W...
14B0  .byte 19 03 05 1E 14 57 A7 10 AF A7 AB 57 25 57 1C 8B ; .....W.....W%W..
14C0  .byte 1B A3 57 13 12 16 13 1B 0E 57 12 01 8B 57 B2 B5 ; ..W......W...W..
14D0  .byte B3 57 01 1E 14 1E 18 BB 57 8C 04 77 57 5A 59 44 ; .W......W..wWZYD
14E0  .byte 57 79 5B 58 57 77 A8 13 77 57 0E 8E 57 07 B9 1C ; Wy[XWw..wW..W...
14F0  .byte 94 1A 8A A3 04 57 13 BB 03 77 14 B7 02 13 04 57 ; .....W...w.....W
1500  .byte 1E BE 77 A0 05 10 04 57 05 18 14 1C 77 11 AA B8 ; ..w....W....w...
1510  .byte AC 88 04 57 01 18 1B 14 16 B4 BA 57 07 1B A8 03 ; ...W.......W....
1520  .byte 57 03 02 1B 1E 07 57 15 A8 A8 16 57 14 AA 19 57 ; W.....W....W...W
1530  .byte 45 00 12 AB 57 45 57 46 77 45 57 46 77 3F 57 A7 ; E...WEWFwEWFw?W.
1540  .byte 1F 16 BD 03 A8 03 57 E8 57 A7 10 77 57 AB 77 57 ; ......W.W..wW.wW
1550  .byte 77 13 79 15 AF A0 19 77 71 77 1E 79 A0 1B 1B 57 ; w.y....wqw.y...W
1560  .byte 77 1B 8C 03 B2 77 03 05 02 1A 15 B2 57 4E 5E 4A ; w....w......WN^J
1570  .byte 59 44 10 18 18 13 5A 77 13 16 0E 77 CD 77 53 7B ; YD....Zw...w.wS{
1580  .byte 77 B3 B7 00 77 1A 12 9E A7 03 05 18 13 02 BE 77 ; w...w..........w
1590  .byte 1A 0E 8D 1B 11 79 77 44 1E 77 16 1A 55 77 C4 1A ; .....ywD.w..Uw..
15A0  .byte A3 14 1F A8 03 77 07 05 A7 BE 77 18 11 77 B5 05 ; .....w....w..w..
15B0  .byte 02 19 5A E5 44 1E 77 11 A7 13 77 1A 0E 8D 1B 11 ; ..Z.D.w...w.....
15C0  .byte 77 11 AA BE 13 9E 8D 1B 1B 77 1A 0E 77 1A 18 89 ; w........w..w...
15D0  .byte 77 03 A5 16 04 02 05 AB 77 07 18 04 04 BA 04 1E ; w.......w.......
15E0  .byte 88 9B 1E 77 16 1A 77 18 11 11 A3 94 0E 8E 7B 77 ; ...w..w.......{w
15F0  .byte 11 AA 77 C4 07 16 1B 03 05 0E 77 04 02 1A 77 18 ; ..w.......w...w.
1600  .byte 11 77 1D 02 89 77 62 67 67 67 44 14 44 05 77 C4 ; .w...wbgggD.D.w.
1610  .byte AF A5 89 77 B5 94 77 A7 77 C4 55 1C B4 00 19 77 ; ...w..w.w.U....w
1620  .byte 02 19 1E AD 05 8D 9B 5A 00 8B 1B 77 0E 8E 77 03 ; .......Z...w..w.
1630  .byte 16 1C 12 77 8C 56 7F 0E 78 19 7E 68 5B 58 56 5F ; ...w.V..x.~h[XV_
1640  .byte 57 77 19 16 1A 12 68 77 57 77 03 18 77 57 77 1E ; Ww....hwWw..wWw.
1650  .byte 04 77 57 00 16 04 77 AE 89 77 8D A1 77 A2 77 44 ; .wW...w..w..w.wD
1660  .byte 57 79 5B 77 44 57 13 18 14 1C AB 57 56 7F 0E 78 ; Wy[wDW.....WV..x
1670  .byte 19 7E 68 57 04 1F 1E 07 57 77 16 77 57 77 A3 05 ; .~hW....Ww.wWw..
1680  .byte 1E BB 57 77 19 12 00 77 57 55 77 1F A3 77 B8 1D ; ..Ww...wWUw..w..
1690  .byte BA 03 0E 70 04 77 04 07 16 BE 77 19 16 01 0E 5A ; ...p.w....w....Z
16A0  .byte 57 E6 5F 56 77 77 1A BA 04 16 B0 77 A1 13 04 57 ; W._Vww.....w...W
16B0  .byte 77 CD 77 53 7B 77 1E 77 5A 16 1A 55 77 14 16 07 ; w.wS{w.wZ..Uw...
16C0  .byte 03 16 A7 77 4C 77 5A 18 11 84 57 57 58 77 02 19 ; ...wLwZ...WWXw..
16D0  .byte 1C B4 00 19 77 C6 57 5E 5F 40 56 77 A7 14 18 1A ; ....w.W^_@Vw....
16E0  .byte 94 1A BA 04 16 B0 57 14 02 05 05 02 B5 A3 04 57 ; ......W........W
16F0  .byte 11 18 04 13 0E 1C 12 77 04 1A 0E B5 12 57 11 AA ; .......w.....W..
1700  .byte 03 BA A9 12 57 9C A5 BA A6 BE 57 1E 04 77 A0 1B ; ....W.....W..w..
1710  .byte 1E 12 01 AB 9E 1F 16 AD 77 1D 02 1A 07 AB 9E C3 ; ........w.......
1720  .byte 10 B3 16 0F 0E 57 4E 5E 4A 59 55 10 18 18 13 77 ; .....WN^JYU....w
1730  .byte 13 16 0E 77 CD 77 53 9B 1E 5A 77 16 1A 77 44 16 ; ...w.wS..Zw..wD.
1740  .byte 10 A1 03 77 44 15 AE 1C 12 77 18 11 77 44 19 16 ; ...wD....w..wD..
1750  .byte 01 B3 77 44 A7 03 12 1B B2 10 A1 BE 9B 16 04 77 ; ..wD...........w
1760  .byte E4 77 1C B4 00 7B 77 C4 44 19 16 01 0E 77 1F 16 ; .w...{w.D....w..
1770  .byte AD 77 A0 A1 77 1C 12 12 07 94 C4 44 B5 B9 10 18 ; .w..w......D....
1780  .byte 1E 13 04 77 18 11 11 77 E4 05 77 16 04 04 77 8E ; ...w...w..w...w.
1790  .byte 03 77 A7 77 13 12 12 07 77 04 07 16 BE 77 11 AA ; .w.w....w....w..
17A0  .byte 77 B8 19 0E 77 0E 12 B9 04 77 B4 00 79 77 44 00 ; w...w....w..ywD.
17B0  .byte 12 1B 1B 77 C4 04 8C 02 16 AC 88 77 1F 16 04 77 ; ...w.......w...w
17C0  .byte 14 1F A8 10 AB 9B 8E 05 77 15 18 0E 04 77 B9 12 ; ........w....w..
17D0  .byte 77 A5 16 13 0E 77 11 AA 87 07 02 04 1F 77 05 1E ; w....w.......w..
17E0  .byte 10 1F 03 9E C4 1F 18 1A 12 77 04 0E 04 03 12 1A ; .........w......
17F0  .byte 77 18 11 77 B5 18 8D 77 1A 02 05 13 A3 A3 04 9B ; w..w...w........
1800  .byte 4F 5E 4A 1E 5A 77 1F 16 AD 77 18 15 03 16 A7 93 ; O^J.Zw...w......
1810  .byte C4 13 12 11 A1 BE 77 07 AE 19 04 77 11 AA 77 B5 ; ......w....w..w.
1820  .byte 12 1E 05 77 44 1F 1E AD 77 44 00 AA 1B 13 04 9B ; ...wD...wD......
1830  .byte C4 A0 8A B2 04 77 1C B4 00 77 00 12 70 AD 77 10 ; .....w...w..p.w.
1840  .byte 18 03 77 BC 1A 12 B5 94 15 02 03 77 B4 03 77 00 ; ..w........w..w.
1850  .byte 1F A2 9B 1E 11 77 44 1E 77 03 AF 19 04 1A 8C 77 ; .....wD.w......w
1860  .byte C4 07 AE 19 04 9E 8E 05 77 15 16 8D 77 88 77 44 ; ........w...w.wD
1870  .byte BD A5 AF 77 B5 12 0E 70 1B 1B 77 A7 03 A3 BE 07 ; ...w...p..w.....
1880  .byte 03 77 C4 03 05 A8 04 1A 1E 04 04 1E 88 79 77 44 ; .w...........ywD
1890  .byte 1E 77 19 12 AB 87 98 9E B8 1C 12 77 C4 05 02 19 ; .w.........w....
18A0  .byte 9B E4 70 A5 77 12 B2 14 03 AB 9B C4 07 AE 19 04 ; ..p.w...........
18B0  .byte 77 16 A5 77 02 19 1E 07 02 1B 8D 77 14 18 13 93 ; w..w.......w....
18C0  .byte 00 1E B5 A7 77 C3 03 05 A8 04 1A 1E 04 04 1E 88 ; ....w...........
18D0  .byte 9B 5F E4 77 00 8B 1B 77 A0 77 07 16 1E 13 9B 77 ; ._.w...w.w.....w
18E0  .byte 77 77 77 44 10 18 18 13 77 1B 02 14 1C 77 CD 83 ; wwwD....w....w..
18F0  .byte 4F 57 4E 5E 4A 5F 59 5A 44 00 12 1B 1B 77 13 88 ; OWN^J_YZD....w..
1900  .byte 12 77 CD 9B E4 77 1F 16 AD 77 8D 05 01 93 02 04 ; .w...w...w......
1910  .byte 77 00 12 1B 1B E5 00 12 77 04 1F B3 1B 77 A5 1A ; w.......w....w..
1920  .byte 12 1A 15 A3 9B 00 12 77 13 1E 13 77 B4 03 77 12 ; .......w...w..w.
1930  .byte 0F 07 12 14 03 77 C4 44 B5 B9 10 18 1E 13 04 9E ; .....w.D........
1940  .byte 11 A7 13 77 8E 03 77 16 15 8E 03 77 E4 9B 11 AA ; ...w..w....w....
1950  .byte 77 C4 1A 18 1A A1 03 77 07 B2 16 8D 77 16 14 BE ; w......w....w...
1960  .byte 07 03 77 C3 44 19 16 01 0E 77 51 25 52 77 16 04 ; ..w.D....wQ%Rw..
1970  .byte 77 07 16 0E 1A A1 03 83 4F 57 16 A5 77 E4 77 04 ; w.......OW..w.w.
1980  .byte 02 A5 68 57 04 1F A5 00 57 A0 16 89 57 15 1E 04 ; ..hW....W...W...
1990  .byte 88 57 04 19 16 1C 12 57 00 18 1B 11 57 B2 18 07 ; .W.....W....W...
19A0  .byte B9 13 57 14 A2 57 1A 88 1C 12 0E 57 10 18 A2 57 ; ..W..W.....W...W
19B0  .byte 11 1E 04 1F 57 3D 77 3E 57 46 77 2F 77 2C 57 F8 ; ....W=w>WFw/w,W.
19C0  .byte 3C 77 2E 77 2C 57 2B 77 2A 57 3D 77 3E 57 1A 12 ; <w.w,W+w*W=w>W..
19D0  .byte A2 57 14 02 03 1B 8A 57 89 12 16 1C 57 15 02 05 ; .W.....W....W...
19E0  .byte 10 A3 04 57 BC 02 07 57 1E BE 57 1A 02 13 57 0D ; ...W...W..W...W.
19F0  .byte A3 18 7A 44 10 57 01 16 14 02 02 1A 57 46 77 02 ; ..zD.W......WFw.
1A00  .byte 1B 03 AF 57 1F 18 14 1C 12 0E 57 14 05 1E 14 1C ; ...W......W.....
1A10  .byte 8A 57 1C B9 A2 12 57 07 18 B7 57 03 A1 19 1E 04 ; .W....W...W.....
1A20  .byte 57 5B 49 77 A3 05 AA 57 D3 96 24 1C FD 4F 35 76 ; W[Iw...W..$..O5v
1A30  .byte 64 20 44 A4 DC 6A 10 A2 03 6B 1A C0 B8 05 65 C1 ; d D..j...k....e.
1A40  .byte 29 01 80 00 00 00 01 01 01 01 82 01 01 01 01 01 ; )...............
1A50  .byte 01 01 01 01 01 01 01 01 02 01 82 90 57 C4 14 18 ; ............W...
1A60  .byte B7 19 1E 89 04 77 1F 12 A5 77 1F 16 AD 77 01 1E ; .....w...w...w..
1A70  .byte 18 1B A2 AB 55 77 A7 03 A3 10 B3 16 14 AC 14 77 ; ....Uw.........w
1A80  .byte 14 B7 19 94 07 05 18 03 18 14 18 1B 5A E5 04 1F ; ............Z...
1A90  .byte 8E 1B 13 77 A0 77 16 01 18 1E 13 AB 57 C4 14 88 ; ...w.w......W...
1AA0  .byte 89 05 1E 14 03 AA 77 9C A5 BA A6 BE 7B 77 CD 57 ; ......w.....{w.W
1AB0  .byte 16 77 25 77 B7 18 1C 94 98 77 B2 11 03 77 1F 12 ; .w%w.....w...w..
1AC0  .byte A5 87 00 1F 1E B2 77 15 16 14 1C 79 77 1B 18 18 ; ......w....yw...
1AD0  .byte 1C 93 15 8E 19 13 77 11 AA 77 B9 12 B1 57 0E 12 ; ......w..w...W..
1AE0  .byte 07 7B 87 25 85 98 77 1F 16 13 87 10 B3 16 14 AC ; .{.%..w.........
1AF0  .byte 14 77 1F 0E 07 A3 13 05 1E AD 77 11 8C 03 93 1F ; .w........w.....
1B00  .byte 12 A5 79 77 BB 93 8C 77 03 18 18 57 C3 77 25 77 ; ..yw...w...W.w%w
1B10  .byte 98 77 13 12 1F 0E 07 93 1F 12 A5 77 11 05 18 1A ; .w.........w....
1B20  .byte 77 B4 00 1F 12 A5 7B 77 04 02 19 77 04 1C 1E 1A ; w.....{w...w....
1B30  .byte 1A AB E5 1D 02 1A 07 AB 79 77 1E 77 1F 12 B9 77 ; ........yw.w...w
1B40  .byte 8C 77 00 A1 03 9E A7 BD A0 57 24 77 98 77 00 A1 ; .w.......W$w.w..
1B50  .byte 03 77 11 AA 77 1A 12 77 A2 77 16 BB B9 79 77 1A ; .w..w..w.w...yw.
1B60  .byte 0E 77 AE 04 A3 04 77 13 1E 13 19 70 03 77 12 01 ; .w....w....p.w..
1B70  .byte A1 77 04 14 AF 03 14 1F 77 C4 24 57 18 1F 77 13 ; .w......w.$W..w.
1B80  .byte 12 B9 77 1A 12 77 0E BA 79 87 11 05 1E 10 1F 03 ; ..w..w..y.......
1B90  .byte 11 02 1B 77 05 18 10 02 12 77 00 1E B5 77 00 1F ; ...w.....w...w..
1BA0  .byte A2 77 1E 77 A0 1B 1E 12 AD 77 E4 77 07 12 18 07 ; .w.w.....w.w....
1BB0  .byte B2 77 14 B3 1B 87 B2 16 13 77 07 18 89 A3 1E AA ; .w.......w......
1BC0  .byte 77 04 1F 18 03 77 02 07 77 B7 03 04 77 18 11 77 ; w....w..w...w..w
1BD0  .byte B5 18 8D 77 A0 16 89 1B 0E 77 07 1E AF 03 BA E5 ; ...w.....w......
1BE0  .byte 00 A1 03 9E BB B2 05 1E 57 E4 77 14 A8 77 03 16 ; ........W.w..w..
1BF0  .byte 14 1C B2 77 C4 3F 77 24 77 1E 11 77 E4 77 1B 1E ; ...w.?w$w..w.w..
1C00  .byte 1C 12 79 77 1F 12 70 04 77 A2 77 AA B9 AF 57 56 ; ..yw..p.w.w...WV
1C10  .byte 14 18 1A 94 BC 88 6D 77 12 1B 8C 12 77 1E 1E 57 ; ......mw....w..W
1C20  .byte 23 57 23 57 23 57 23 57 23 57 23 57 23 57 23 57 ; #W#W#W#W#W#W#W#W
1C30  .byte 23 57 23 57 23 57 23 57 23 57 15 18 0E 77 16 A5 ; #W#W#W#W#W...w..
1C40  .byte 77 E4 77 A7 77 C4 00 05 88 10 77 10 B3 16 0F 0E ; w.w.w.....w.....
1C50  .byte 76 57 B5 A3 12 70 04 87 A5 B3 77 24 77 07 1E AF ; vW...p....w$w...
1C60  .byte 03 12 77 8E 03 77 B5 A3 12 57 C4 96 04 77 18 11 ; ..w..w...W...w..
1C70  .byte 77 3A 77 16 A5 77 BC 77 16 B8 0D A7 10 1B 0E 77 ; w:w..w.w.......w
1C80  .byte 07 05 1E 1A 1E AC AD 77 B5 A2 77 B5 12 0E 77 89 ; .......w..w...w.
1C90  .byte 8B 1B 77 B5 A7 1C 77 44 7D 7D 7D 7D 7D 77 7D 7D ; ..w...wD}}}}}w}}
1CA0  .byte 7D 7D 7D 7D 9D 77 64 13 57 56 00 12 1B 14 18 1A ; }}}}.wd.WV......
1CB0  .byte 12 77 03 18 77 03 1F 12 77 04 12 01 12 19 03 12 ; .w..w...w.......
1CC0  .byte 12 19 03 1F 77 10 16 1B 16 0F 0E 76 57 3A 4C 44 ; ....w......vW:LD
1CD0  .byte 41 58 58 31 2B 31 3A 41 44 43 23 30 3A 53 54 41 ; AXX1+1:ADC#0:STA
1CE0  .byte 58 58 31 35 2B 31 3A 4A 4D 50 4C 4C 35 33 0D 21 ; XX15+1:JMPLL53.!
1CF0  .byte 7A 3D 2E 4C 4C 35 32 20 4C 44 41 58 58 31 3A 53 ; z=.LL52 LDAXX1:S
1D00  .byte 00 00 00 00 00 00 00 00 00 00 00 00 00 00 00 00 ; ................
1D10  .byte 00 00 01 36 29 2B 27 1E 1B 1C 2E 17 2C 24 60    ; ...6)+'.....,$`

; --- game_entry  $1D1F — back up zero page to $CE02, decrypt the game regions, hardware init, then start the game ---
1D1F  D8        CLD
1D20  A2 02     LDX #$02
1D22  B5 00     LDA $00,X
1D24  9D 00 CE  STA $CE00,X
1D27  E8        INX
1D28  D0 F8     BNE $1D22
1D2A  20 33 1D  JSR $1D33
1D2D  20 B2 B3  JSR $B3B2
1D30  4C 6F 91  JMP $916F

; ==== decrypt_game  $1D33  (1 caller) — in-place rolling-SBC decrypt of $1D7E-$3ECE (key $36) and $7300-$CA6C (key $49) ====
1D33  A9 7D     LDA #$7D
1D35  8D 52 04  STA $0452
1D38  A9 1D     LDA #$1D
1D3A  8D 53 04  STA $0453
1D3D  A9 3E     LDA #$3E
1D3F  A0 CE     LDY #$CE
1D41  A2 36     LDX #$36
1D43  20 56 1D  JSR $1D56
1D46  A9 FF     LDA #$FF
1D48  8D 52 04  STA $0452
1D4B  A9 72     LDA #$72
1D4D  8D 53 04  STA $0453
1D50  A9 CA     LDA #$CA
1D52  A0 6C     LDY #$6C
1D54  A2 49     LDX #$49

; ==== decrypt_pass  $1D56  (1 caller) — one descending rolling-SBC decrypt pass (shared by decrypt_game) ====
1D56  86 BB     STX $BB
1D58  85 08     STA $08
1D5A  A9 00     LDA #$00
1D5C  85 07     STA $07
1D5E  B1 07     LDA ($07),Y
1D60  38        SEC
1D61  E5 BB     SBC $BB
1D63  91 07     STA ($07),Y
1D65  85 BB     STA $BB
1D67  98        TYA
1D68  D0 02     BNE $1D6C
1D6A  C6 08     DEC $08
1D6C  88        DEY
1D6D  CC 52 04  CPY $0452
1D70  D0 EC     BNE $1D5E
1D72  A5 08     LDA $08
1D74  CD 53 04  CMP $0453
1D77  D0 E5     BNE $1D5E
1D79  60        RTS
1D7A  .byte B7 AA 45 23                                     ; ..E#
1D7E  20 EB 8C  JSR $8CEB
1D81  20 9B 37  JSR $379B
1D84  A9 00     LDA #$00
1D86  85 96     STA $96
1D88  8D 88 04  STA $0488
1D8B  85 66     STA $66
1D8D  A9 FF     LDA #$FF
1D8F  8D E7 04  STA $04E7
1D92  8D E8 04  STA $04E8
1D95  8D E9 04  STA $04E9
1D98  A0 2C     LDY #$2C
1D9A  20 9E 3E  JSR $3E9E
1D9D  AD 99 04  LDA $0499
1DA0  29 03     AND #$03
1DA2  D0 0E     BNE $1DB2
1DA4  AD E1 04  LDA $04E1
1DA7  F0 54     BEQ $1DFD
1DA9  AD A8 04  LDA $04A8
1DAC  4A        LSR A
1DAD  D0 4E     BNE $1DFD
1DAF  4C DC 3D  JMP $3DDC
1DB2  C9 03     CMP #$03
1DB4  D0 03     BNE $1DB9
1DB6  4C AC 3D  JMP $3DAC
1DB9  AD A8 04  LDA $04A8
1DBC  C9 02     CMP #$02
1DBE  D0 3D     BNE $1DFD
1DC0  AD 99 04  LDA $0499
1DC3  29 0F     AND #$0F
1DC5  C9 02     CMP #$02
1DC7  D0 0A     BNE $1DD3
1DC9  AD E1 04  LDA $04E1
1DCC  C9 05     CMP #$05
1DCE  90 2D     BCC $1DFD
1DD0  4C 7A 3D  JMP $3D7A
1DD3  C9 06     CMP #$06
1DD5  D0 11     BNE $1DE8
1DD7  AD 9A 04  LDA $049A
1DDA  C9 D7     CMP #$D7
1DDC  D0 1F     BNE $1DFD
1DDE  AD 9B 04  LDA $049B
1DE1  C9 54     CMP #$54
1DE3  D0 18     BNE $1DFD
1DE5  4C 8A 3D  JMP $3D8A
1DE8  C9 0A     CMP #$0A
1DEA  D0 11     BNE $1DFD
1DEC  AD 9A 04  LDA $049A
1DEF  C9 3F     CMP #$3F
1DF1  D0 0A     BNE $1DFD
1DF3  AD 9B 04  LDA $049B
1DF6  C9 48     CMP #$48
1DF8  D0 03     BNE $1DFD
1DFA  4C 98 3D  JMP $3D98
1DFD  AD A4 04  LDA $04A4
1E00  C9 C4     CMP #$C4
1E02  90 0A     BCC $1E0E
1E04  AD 99 04  LDA $0499
1E07  29 10     AND #$10
1E09  D0 03     BNE $1E0E
1E0B  4C BD 3D  JMP $3DBD
1E0E  4C E7 91  JMP $91E7
1E11  .byte A9 C5 78 8D 16 03 A9 90 8D 17 03 58 60 00 01 FF ; ..x........X`...
1E21  .byte 00 00 00 FF 00 FB 04 F7 08 EF 10 DF 20 BF 40 7F ; ............ .@.
1E31  .byte 80                                              ; .
1E32  A5 A3     LDA $A3
1E34  29 07     AND #$07
1E36  CD 10 05  CMP $0510
1E39  90 03     BCC $1E3E
1E3B  4C CB 1E  JMP $1ECB
1E3E  0A        ASL A
1E3F  A8        TAY
1E40  A9 05     LDA #$05
1E42  20 8B 8B  JSR $8B8B
1E45  20 BB 8D  JSR $8DBB
1E48  C9 EB     CMP #$EB
1E4A  90 1B     BCC $1E67
1E4C  29 03     AND #$03
1E4E  AA        TAX
1E4F  BD 1E 1E  LDA $1E1E,X
1E52  99 11 05  STA $0511,Y
1E55  BD 22 1E  LDA $1E22,X
1E58  99 21 05  STA $0521,Y
1E5B  20 BB 8D  JSR $8DBB
1E5E  29 03     AND #$03
1E60  AA        TAX
1E61  BD 1E 1E  LDA $1E1E,X
1E64  99 12 05  STA $0512,Y
1E67  B9 26 1E  LDA $1E26,Y
1E6A  2D 10 D0  AND $D010
1E6D  8D 10 D0  STA $D010
1E70  B9 05 D0  LDA $D005,Y
1E73  18        CLC
1E74  79 12 05  ADC $0512,Y
1E77  99 05 D0  STA $D005,Y
1E7A  18        CLC
1E7B  B9 04 D0  LDA $D004,Y
1E7E  79 11 05  ADC $0511,Y
1E81  85 BB     STA $BB
1E83  B9 31 05  LDA $0531,Y
1E86  79 21 05  ADC $0521,Y
1E89  10 06     BPL $1E91
1E8B  A9 48     LDA #$48
1E8D  85 BB     STA $BB
1E8F  A9 01     LDA #$01
1E91  29 01     AND #$01
1E93  F0 0C     BEQ $1EA1
1E95  A5 BB     LDA $BB
1E97  C9 50     CMP #$50
1E99  A9 01     LDA #$01
1E9B  90 04     BCC $1EA1
1E9D  A9 00     LDA #$00
1E9F  85 BB     STA $BB
1EA1  99 31 05  STA $0531,Y
1EA4  F0 0A     BEQ $1EB0
1EA6  B9 27 1E  LDA $1E27,Y
1EA9  0D 10 D0  ORA $D010
1EAC  78        SEI
1EAD  8D 10 D0  STA $D010
1EB0  A5 BB     LDA $BB
1EB2  99 04 D0  STA $D004,Y
1EB5  58        CLI
1EB6  A9 04     LDA #$04
1EB8  20 8B 8B  JSR $8B8B
1EBB  4C CB 1E  JMP $1ECB

; ==== universe_update  $1EBE  (3 callers) — rotate the player's frame, then iterate the slot array moving and drawing every object ====
1EBE  AD 00 F0  LDA $F000
1EC1  85 02     STA $02
1EC3  AD 10 05  LDA $0510
1EC6  F0 03     BEQ $1ECB
1EC8  4C 32 1E  JMP $1E32
1ECB  AE 8D 04  LDX $048D
1ECE  20 55 3C  JSR $3C55
1ED1  20 55 3C  JSR $3C55
1ED4  8A        TXA
1ED5  49 80     EOR #$80
1ED7  A8        TAY
1ED8  29 80     AND #$80
1EDA  85 69     STA $69
1EDC  8E 8D 04  STX $048D
1EDF  49 80     EOR #$80
1EE1  85 6A     STA $6A
1EE3  98        TYA
1EE4  10 05     BPL $1EEB
1EE6  49 FF     EOR #$FF
1EE8  18        CLC
1EE9  69 01     ADC #$01
1EEB  4A        LSR A
1EEC  4A        LSR A
1EED  C9 08     CMP #$08
1EEF  B0 01     BCS $1EF2
1EF1  4A        LSR A
1EF2  85 68     STA $68
1EF4  05 69     ORA $69
1EF6  85 A6     STA $A6
1EF8  AE 8E 04  LDX $048E
1EFB  20 55 3C  JSR $3C55
1EFE  8A        TXA
1EFF  49 80     EOR #$80
1F01  A8        TAY
1F02  29 80     AND #$80
1F04  8E 8E 04  STX $048E
1F07  85 95     STA $95
1F09  49 80     EOR #$80
1F0B  85 94     STA $94
1F0D  98        TYA
1F0E  10 02     BPL $1F12
1F10  49 FF     EOR #$FF
1F12  69 04     ADC #$04
1F14  4A        LSR A
1F15  4A        LSR A
1F16  4A        LSR A
1F17  4A        LSR A
1F18  C9 03     CMP #$03
1F1A  B0 01     BCS $1F1D
1F1C  4A        LSR A
1F1D  85 64     STA $64
1F1F  05 94     ORA $94
1F21  85 63     STA $63
1F23  AD 06 96  LDA $9606
1F26  F0 08     BEQ $1F30
1F28  A5 96     LDA $96
1F2A  C9 28     CMP #$28
1F2C  B0 02     BCS $1F30
1F2E  E6 96     INC $96
1F30  AD 0B 96  LDA $960B
1F33  F0 06     BEQ $1F3B
1F35  C6 96     DEC $96
1F37  D0 02     BNE $1F3B
1F39  E6 96     INC $96
1F3B  AD 24 96  LDA $9624
1F3E  2D CC 04  AND $04CC
1F41  F0 0F     BEQ $1F52
1F43  A0 57     LDY #$57
1F45  20 FC 85  JSR $85FC
1F48  A0 06     LDY #$06
1F4A  20 58 B1  JSR $B158
1F4D  A9 00     LDA #$00
1F4F  8D 85 04  STA $0485
1F52  A5 7C     LDA $7C
1F54  10 12     BPL $1F68
1F56  AD 2C 96  LDA $962C
1F59  F0 0D     BEQ $1F68
1F5B  AE CC 04  LDX $04CC
1F5E  F0 08     BEQ $1F68
1F60  8D 85 04  STA $0485
1F63  A0 87     LDY #$87
1F65  20 2B BA  JSR $BA2B
1F68  AD 1E 96  LDA $961E
1F6B  F0 07     BEQ $1F74
1F6D  A5 7C     LDA $7C
1F6F  30 4E     BMI $1FBF
1F71  20 A3 36  JSR $36A3
1F74  AD 05 96  LDA $9605
1F77  F0 0F     BEQ $1F88
1F79  0E C3 04  ASL $04C3
1F7C  F0 0A     BEQ $1F88
1F7E  A0 D0     LDY #$D0
1F80  8C E0 B1  STY $B1E0
1F83  A0 0D     LDY #$0D
1F85  20 58 B1  JSR $B158
1F88  AD 19 96  LDA $9619
1F8B  F0 08     BEQ $1F95
1F8D  A9 00     LDA #$00
1F8F  8D 80 04  STA $0480
1F92  20 1E 9B  JSR $9B1E
1F95  AD 09 96  LDA $9609
1F98  2D C7 04  AND $04C7
1F9B  F0 08     BEQ $1FA5
1F9D  AD 82 04  LDA $0482
1FA0  D0 03     BNE $1FA5
1FA2  4C 6B 31  JMP $316B
1FA5  AD 20 96  LDA $9620
1FA8  F0 03     BEQ $1FAD
1FAA  20 21 97  JSR $9721
1FAD  AD 34 96  LDA $9634
1FB0  2D C1 04  AND $04C1
1FB3  F0 0A     BEQ $1FBF
1FB5  A5 67     LDA $67
1FB7  D0 06     BNE $1FBF
1FB9  CE 81 04  DEC $0481
1FBC  20 00 BA  JSR $BA00
1FBF  AD 2E 96  LDA $962E
1FC2  2D C5 04  AND $04C5
1FC5  F0 0B     BEQ $1FD2
1FC7  4D 2B 96  EOR $962B
1FCA  F0 06     BEQ $1FD2
1FCC  8D 80 04  STA $0480
1FCF  20 F6 9A  JSR $9AF6
1FD2  A9 00     LDA #$00
1FD4  85 7B     STA $7B
1FD6  85 97     STA $97
1FD8  A5 96     LDA $96
1FDA  4A        LSR A
1FDB  66 97     ROR $97
1FDD  4A        LSR A
1FDE  66 97     ROR $97
1FE0  85 98     STA $98
1FE2  AD 87 04  LDA $0487
1FE5  D0 43     BNE $202A
1FE7  AD 38 96  LDA $9638
1FEA  F0 3E     BEQ $202A
1FEC  AD 88 04  LDA $0488
1FEF  C9 F2     CMP #$F2
1FF1  B0 37     BCS $202A
1FF3  AE 86 04  LDX $0486
1FF6  BD A9 04  LDA $04A9,X
1FF9  F0 2F     BEQ $202A
1FFB  48        PHA
1FFC  29 7F     AND #$7F
1FFE  85 7B     STA $7B
2000  8D 84 04  STA $0484
2003  A0 00     LDY #$00
2005  68        PLA
2006  48        PHA
2007  30 08     BMI $2011
2009  C9 32     CMP #$32
200B  D0 02     BNE $200F
200D  A0 0C     LDY #$0C
200F  D0 09     BNE $201A
2011  C9 97     CMP #$97
2013  F0 03     BEQ $2018
2015  A0 0A     LDY #$0A
2017  2C A0 0B  BIT $0BA0
201A  20 58 B1  JSR $B158
201D  20 D8 3C  JSR $3CD8
2020  68        PLA
2021  10 02     BPL $2025
2023  A9 00     LDA #$00
2025  29 FA     AND #$FA
2027  8D 87 04  STA $0487
202A  A2 00     LDX #$00
202C  86 9D     STX $9D
202E  BD 52 04  LDA $0452,X
2031  D0 03     BNE $2036
2033  4C F7 21  JMP $21F7
2036  85 A5     STA $A5
2038  20 84 3E  JSR $3E84
203B  A0 24     LDY #$24
203D  B1 59     LDA ($59),Y
203F  99 09 00  STA $0009,Y
2042  88        DEY
2043  10 F8     BPL $203D
2045  A5 A5     LDA $A5
2047  30 2D     BMI $2076
2049  0A        ASL A
204A  A8        TAY
204B  B9 FE CF  LDA $CFFE,Y
204E  85 57     STA $57
2050  B9 FF CF  LDA $CFFF,Y
2053  85 58     STA $58
2055  AD C3 04  LDA $04C3
2058  10 1C     BPL $2076
205A  C0 04     CPY #$04
205C  F0 18     BEQ $2076
205E  C0 3A     CPY #$3A
2060  F0 14     BEQ $2076
2062  C0 3E     CPY #$3E
2064  B0 10     BCS $2076
2066  A5 28     LDA $28
2068  29 20     AND #$20
206A  D0 0A     BNE $2076
206C  06 28     ASL $28
206E  38        SEC
206F  66 28     ROR $28
2071  A6 A5     LDX $A5
2073  20 A6 B0  JSR $B0A6
2076  20 A0 AB  JSR $ABA0
2079  A0 24     LDY #$24
207B  B9 09 00  LDA $0009,Y
207E  91 59     STA ($59),Y
2080  88        DEY
2081  10 F8     BPL $207B
2083  A5 28     LDA $28
2085  29 A0     AND #$A0
2087  20 BD 90  JSR $90BD
208A  D0 51     BNE $20DD
208C  A5 09     LDA $09
208E  05 0C     ORA $0C
2090  05 0F     ORA $0F
2092  30 49     BMI $20DD
2094  A6 A5     LDX $A5
2096  30 45     BMI $20DD
2098  E0 02     CPX #$02
209A  F0 44     BEQ $20E0
209C  29 C0     AND #$C0
209E  D0 3D     BNE $20DD
20A0  E0 01     CPX #$01
20A2  F0 39     BEQ $20DD
20A4  AD C2 04  LDA $04C2
20A7  25 0E     AND $0E
20A9  10 74     BPL $211F
20AB  E0 05     CPX #$05
20AD  F0 0E     BEQ $20BD
20AF  A0 00     LDY #$00
20B1  B1 57     LDA ($57),Y
20B3  4A        LSR A
20B4  4A        LSR A
20B5  4A        LSR A
20B6  4A        LSR A
20B7  F0 66     BEQ $211F
20B9  69 01     ADC #$01
20BB  D0 05     BNE $20C2
20BD  20 BB 8D  JSR $8DBB
20C0  29 07     AND #$07
20C2  20 00 73  JSR $7300
20C5  A0 4E     LDY #$4E
20C7  B0 44     BCS $210D
20C9  AC EF 04  LDY $04EF
20CC  79 B0 04  ADC $04B0,Y
20CF  99 B0 04  STA $04B0,Y
20D2  98        TYA
20D3  69 D0     ADC #$D0
20D5  20 05 99  JSR $9905
20D8  06 2D     ASL $2D
20DA  38        SEC
20DB  66 2D     ROR $2D
20DD  4C 2E 21  JMP $212E
20E0  AD 49 F0  LDA $F049
20E3  29 04     AND #$04
20E5  D0 1D     BNE $2104
20E7  A5 17     LDA $17
20E9  C9 D6     CMP #$D6
20EB  90 17     BCC $2104
20ED  20 71 95  JSR $9571
20F0  A5 6D     LDA $6D
20F2  C9 59     CMP #$59
20F4  90 0E     BCC $2104
20F6  A5 19     LDA $19
20F8  29 7F     AND #$7F
20FA  C9 50     CMP #$50
20FC  90 06     BCC $2104
20FE  20 1E 9B  JSR $9B1E
2101  4C 7E 1D  JMP $1D7E
2104  A5 96     LDA $96
2106  C9 05     CMP #$05
2108  90 0D     BCC $2117
210A  4C DC 90  JMP $90DC
210D  20 13 B1  JSR $B113
2110  06 28     ASL $28
2112  38        SEC
2113  66 28     ROR $28
2115  D0 17     BNE $212E
2117  A9 01     LDA #$01
2119  85 96     STA $96
211B  A9 05     LDA #$05
211D  D0 09     BNE $2128
211F  06 28     ASL $28
2121  38        SEC
2122  66 28     ROR $28
2124  A5 2C     LDA $2C
2126  38        SEC
2127  6A        ROR A
2128  20 C2 84  JSR $84C2
212B  20 13 B1  JSR $B113
212E  A5 2D     LDA $2D
2130  10 03     BPL $2135
2132  20 1C BD  JSR $BD1C
2135  A5 A0     LDA $A0
2137  D0 6F     BNE $21A8
2139  20 26 AF  JSR $AF26
213C  20 3C 36  JSR $363C
213F  90 64     BCC $21A5
2141  AD 85 04  LDA $0485
2144  F0 0A     BEQ $2150
2146  20 0F B1  JSR $B10F
2149  A6 9D     LDX $9D
214B  A0 27     LDY #$27
214D  20 FE 85  JSR $85FE
2150  A5 7B     LDA $7B
2152  F0 51     BEQ $21A5
2154  A2 0F     LDX #$0F
2156  20 E9 B0  JSR $B0E9
2159  A5 A5     LDA $A5
215B  C9 02     CMP #$02
215D  F0 41     BEQ $21A0
215F  C9 1F     CMP #$1F
2161  90 0A     BCC $216D
2163  A5 7B     LDA $7B
2165  C9 17     CMP #$17
2167  D0 37     BNE $21A0
2169  46 7B     LSR $7B
216B  46 7B     LSR $7B
216D  A5 2C     LDA $2C
216F  38        SEC
2170  E5 7B     SBC $7B
2172  B0 2A     BCS $219E
2174  06 28     ASL $28
2176  38        SEC
2177  66 28     ROR $28
2179  A5 A5     LDA $A5
217B  C9 07     CMP #$07
217D  D0 10     BNE $218F
217F  A5 7B     LDA $7B
2181  C9 32     CMP #$32
2183  D0 0A     BNE $218F
2185  20 BB 8D  JSR $8DBB
2188  A2 08     LDX #$08
218A  29 03     AND #$03
218C  20 56 23  JSR $2356
218F  A0 04     LDY #$04
2191  20 49 23  JSR $2349
2194  A0 05     LDY #$05
2196  20 49 23  JSR $2349
2199  A6 A5     LDX $A5
219B  20 A6 B0  JSR $B0A6
219E  85 2C     STA $2C
21A0  A5 A5     LDA $A5
21A2  20 C2 36  JSR $36C2
21A5  20 86 A3  JSR $A386
21A8  A0 23     LDY #$23
21AA  A5 2C     LDA $2C
21AC  91 59     STA ($59),Y
21AE  A5 2D     LDA $2D
21B0  30 2D     BMI $21DF
21B2  A5 28     LDA $28
21B4  10 2C     BPL $21E2
21B6  29 20     AND #$20
21B8  F0 28     BEQ $21E2
21BA  A5 2D     LDA $2D
21BC  29 40     AND #$40
21BE  0D CD 04  ORA $04CD
21C1  8D CD 04  STA $04CD
21C4  AD 8B 04  LDA $048B
21C7  0D 82 04  ORA $0482
21CA  D0 13     BNE $21DF
21CC  A0 0A     LDY #$0A
21CE  B1 57     LDA ($57),Y
21D0  F0 0D     BEQ $21DF
21D2  AA        TAX
21D3  C8        INY
21D4  B1 57     LDA ($57),Y
21D6  A8        TAY
21D7  20 81 7D  JSR $7D81
21DA  A9 00     LDA #$00
21DC  20 05 99  JSR $9905
21DF  4C A6 8B  JMP $8BA6
21E2  A5 A5     LDA $A5
21E4  30 05     BMI $21EB
21E6  20 B0 90  JSR $90B0
21E9  90 F4     BCC $21DF
21EB  A0 1F     LDY #$1F
21ED  A5 28     LDA $28
21EF  91 59     STA ($59),Y
21F1  A6 9D     LDX $9D
21F3  E8        INX
21F4  4C 2C 20  JMP $202C
21F7  AD C3 04  LDA $04C3
21FA  10 08     BPL $2204
21FC  0E C3 04  ASL $04C3
21FF  30 03     BMI $2204
2201  20 64 23  JSR $2364
2204  A5 A3     LDA $A3
2206  29 07     AND #$07
2208  D0 6D     BNE $2277
220A  AE E9 04  LDX $04E9
220D  10 12     BPL $2221
220F  AE E8 04  LDX $04E8
2212  20 51 84  JSR $8451
2215  8E E8 04  STX $04E8
2218  AE E7 04  LDX $04E7
221B  20 51 84  JSR $8451
221E  8E E7 04  STX $04E7
2221  38        SEC
2222  AD C4 04  LDA $04C4
2225  6D E9 04  ADC $04E9
2228  B0 03     BCS $222D
222A  8D E9 04  STA $04E9
222D  AD 82 04  LDA $0482
2230  D0 42     BNE $2274
2232  A5 A3     LDA $A3
2234  29 1F     AND #$1F
2236  D0 48     BNE $2280
2238  AD 5F 04  LDA $045F
223B  D0 37     BNE $2274
223D  A8        TAY
223E  20 4D 2C  JSR $2C4D
2241  D0 31     BNE $2274
2243  A2 1C     LDX #$1C
2245  BD 00 F0  LDA $F000,X
2248  95 09     STA $09,X
224A  CA        DEX
224B  10 F8     BPL $2245
224D  E8        INX
224E  A0 09     LDY #$09
2250  20 2A 2C  JSR $2C2A
2253  D0 1F     BNE $2274
2255  A2 03     LDX #$03
2257  A0 0B     LDY #$0B
2259  20 2A 2C  JSR $2C2A
225C  D0 16     BNE $2274
225E  A2 06     LDX #$06
2260  A0 0D     LDY #$0D
2262  20 2A 2C  JSR $2C2A
2265  D0 0D     BNE $2274
2267  A9 C0     LDA #$C0
2269  20 B2 90  JSR $90B2
226C  90 06     BCC $2274
226E  20 EF 89  JSR $89EF
2271  20 14 85  JSR $8514
2274  4C 19 23  JMP $2319
2277  AD 82 04  LDA $0482
227A  D0 F8     BNE $2274
227C  A5 A3     LDA $A3
227E  29 1F     AND #$1F
2280  C9 0A     CMP #$0A
2282  D0 2E     BNE $22B2
2284  A9 32     LDA #$32
2286  CD E9 04  CMP $04E9
2289  90 04     BCC $228F
228B  0A        ASL A
228C  20 05 99  JSR $9905
228F  A0 FF     LDY #$FF
2291  8C F3 06  STY $06F3
2294  C8        INY
2295  20 4B 2C  JSR $2C4B
2298  D0 7F     BNE $2319
229A  20 59 2C  JSR $2C59
229D  B0 7A     BCS $2319
229F  E9 24     SBC #$24
22A1  90 0C     BCC $22AF
22A3  85 9B     STA $9B
22A5  20 78 A2  JSR $A278
22A8  A5 9A     LDA $9A
22AA  8D F3 06  STA $06F3
22AD  D0 6A     BNE $2319
22AF  4C DC 90  JMP $90DC
22B2  C9 0F     CMP #$0F
22B4  D0 09     BNE $22BF
22B6  AD 80 04  LDA $0480
22B9  F0 5E     BEQ $2319
22BB  A9 7B     LDA #$7B
22BD  D0 57     BNE $2316
22BF  C9 14     CMP #$14
22C1  D0 56     BNE $2319
22C3  A9 1E     LDA #$1E
22C5  8D 83 04  STA $0483
22C8  AD 5F 04  LDA $045F
22CB  D0 4C     BNE $2319
22CD  A0 25     LDY #$25
22CF  20 4D 2C  JSR $2C4D
22D2  D0 45     BNE $2319
22D4  20 59 2C  JSR $2C59
22D7  49 FF     EOR #$FF
22D9  69 1E     ADC #$1E
22DB  8D 83 04  STA $0483
22DE  B0 CF     BCS $22AF
22E0  C9 E0     CMP #$E0
22E2  90 35     BCC $2319
22E4  C9 F0     CMP #$F0
22E6  90 18     BCC $2300
22E8  A9 05     LDA #$05
22EA  20 8B 8B  JSR $8B8B
22ED  AD 15 D0  LDA $D015
22F0  29 03     AND #$03
22F2  8D 15 D0  STA $D015
22F5  A9 04     LDA #$04
22F7  20 8B 8B  JSR $8B8B
22FA  4E CA 04  LSR $04CA
22FD  6E C9 04  ROR $04C9
2300  AD C2 04  LDA $04C2
2303  F0 14     BEQ $2319
2305  A5 98     LDA $98
2307  4A        LSR A
2308  6D A6 04  ADC $04A6
230B  C9 46     CMP #$46
230D  90 02     BCC $2311
230F  A9 46     LDA #$46
2311  8D A6 04  STA $04A6
2314  A9 A0     LDA #$A0
2316  20 05 99  JSR $9905
2319  AD 84 04  LDA $0484
231C  F0 0F     BEQ $232D
231E  AD 87 04  LDA $0487
2321  C9 08     CMP #$08
2323  B0 08     BCS $232D
2325  20 F7 3C  JSR $3CF7
2328  A9 00     LDA #$00
232A  8D 84 04  STA $0484
232D  AD 81 04  LDA $0481
2330  F0 05     BEQ $2337
2332  20 54 84  JSR $8454
2335  F0 08     BEQ $233F
2337  A5 67     LDA $67
2339  F0 07     BEQ $2342
233B  C6 67     DEC $67
233D  D0 03     BNE $2342
233F  20 86 B0  JSR $B086
2342  A5 A0     LDA $A0
2344  D0 1D     BNE $2363
2346  4C 2F 2A  JMP $2A2F

; ==== sub_2349 (2 callers) ====
2349  20 BB 8D  JSR $8DBB
234C  10 15     BPL $2363
234E  98        TYA
234F  AA        TAX
2350  A0 00     LDY #$00
2352  31 57     AND ($57),Y
2354  29 0F     AND #$0F

; ==== sub_2356 (1 caller) ====
2356  85 AA     STA $AA
2358  F0 09     BEQ $2363
235A  A9 00     LDA #$00
235C  20 07 37  JSR $3707
235F  C6 AA     DEC $AA
2361  D0 F7     BNE $235A
2363  60        RTS

; ==== sub_2364 (2 callers) ====
2364  A9 C0     LDA #$C0
2366  8D E0 B1  STA $B1E0
2369  A9 00     LDA #$00
236B  8D E6 B1  STA $B1E6
236E  60        RTS
236F  .byte A9 D9 D0 02 A9 DC 18 6D A8 04 D0 12             ; .......m....

; ==== sub_237B (1 caller) ====
237B  48        PHA
237C  AA        TAX
237D  98        TYA
237E  48        PHA
237F  A5 5B     LDA $5B
2381  48        PHA
2382  A5 5C     LDA $5C
2384  48        PHA
2385  A9 5C     LDA #$5C
2387  85 5B     STA $5B
2389  A9 1A     LDA #$1A
238B  D0 10     BNE $239D

; ==== print_dispatch  $238D  (18 callers) — token/character print dispatcher (the self-modified JSR at $2432 selects the handler) ====
238D  48        PHA
238E  AA        TAX
238F  98        TYA
2390  48        PHA
2391  A5 5B     LDA $5B
2393  48        PHA
2394  A5 5C     LDA $5C
2396  48        PHA
2397  A9 00     LDA #$00
2399  85 5B     STA $5B
239B  A9 0E     LDA #$0E
239D  85 5C     STA $5C
239F  A0 00     LDY #$00
23A1  B1 5B     LDA ($5B),Y
23A3  49 57     EOR #$57
23A5  D0 03     BNE $23AA
23A7  CA        DEX
23A8  F0 07     BEQ $23B1
23AA  C8        INY
23AB  D0 F4     BNE $23A1
23AD  E6 5C     INC $5C
23AF  D0 F0     BNE $23A1
23B1  C8        INY
23B2  D0 02     BNE $23B6
23B4  E6 5C     INC $5C
23B6  B1 5B     LDA ($5B),Y
23B8  49 57     EOR #$57
23BA  F0 06     BEQ $23C2
23BC  20 CC 23  JSR $23CC
23BF  4C B1 23  JMP $23B1
23C2  68        PLA
23C3  85 5C     STA $5C
23C5  68        PLA
23C6  85 5B     STA $5B
23C8  68        PLA
23C9  A8        TAY
23CA  68        PLA
23CB  60        RTS

; ==== sub_23CC (2 callers) ====
23CC  C9 20     CMP #$20
23CE  90 48     BCC $2418
23D0  2C 17 2F  BIT $2F17
23D3  10 10     BPL $23E5
23D5  AA        TAX
23D6  98        TYA
23D7  48        PHA
23D8  A5 5B     LDA $5B
23DA  48        PHA
23DB  A5 5C     LDA $5C
23DD  48        PHA
23DE  8A        TXA
23DF  20 7E 80  JSR $807E
23E2  4C 35 24  JMP $2435
23E5  C9 5B     CMP #$5B
23E7  90 18     BCC $2401
23E9  C9 81     CMP #$81
23EB  90 51     BCC $243E
23ED  C9 D7     CMP #$D7
23EF  90 9C     BCC $238D
23F1  E9 D7     SBC #$D7
23F3  0A        ASL A
23F4  48        PHA
23F5  AA        TAX
23F6  BD 49 25  LDA $2549,X
23F9  20 01 24  JSR $2401
23FC  68        PLA
23FD  AA        TAX
23FE  BD 4A 25  LDA $254A,X

; ==== sub_2401 (3 callers) ====
2401  C9 41     CMP #$41
2403  90 10     BCC $2415
2405  2C 1A 2F  BIT $2F1A
2408  30 05     BMI $240F
240A  2C 16 2F  BIT $2F16
240D  30 03     BMI $2412
240F  0D 15 2F  ORA $2F15
2412  2D 1B 2F  AND $2F1B
2415  4C 21 2F  JMP $2F21
2418  AA        TAX
2419  98        TYA
241A  48        PHA
241B  A5 5B     LDA $5B
241D  48        PHA
241E  A5 5C     LDA $5C
2420  48        PHA
2421  8A        TXA
2422  0A        ASL A
2423  AA        TAX
2424  BD 07 25  LDA $2507,X
2427  8D 33 24  STA $2433
242A  BD 08 25  LDA $2508,X
242D  8D 34 24  STA $2434
2430  8A        TXA
2431  4A        LSR A
2432  20 21 2F  JSR $2F21
2435  68        PLA
2436  85 5C     STA $5C
2438  68        PLA
2439  85 5B     STA $5B
243B  68        PLA
243C  A8        TAY
243D  60        RTS
243E  85 07     STA $07
2440  98        TYA
2441  48        PHA
2442  A5 5B     LDA $5B
2444  48        PHA
2445  A5 5C     LDA $5C
2447  48        PHA
2448  20 BB 8D  JSR $8DBB
244B  AA        TAX
244C  A9 00     LDA #$00
244E  E0 33     CPX #$33
2450  69 00     ADC #$00
2452  E0 66     CPX #$66
2454  69 00     ADC #$00
2456  E0 99     CPX #$99
2458  69 00     ADC #$00
245A  E0 CC     CPX #$CC
245C  A6 07     LDX $07
245E  7D 4E 3E  ADC $3E4E,X
2461  20 8D 23  JSR $238D
2464  4C 35 24  JMP $2435
2467  A9 00     LDA #$00
2469  2C A9 20  BIT $20A9
246C  8D 15 2F  STA $2F15
246F  A9 00     LDA #$00
2471  8D 1A 2F  STA $2F1A
2474  60        RTS
2475  A9 06     LDA #$06
2477  20 25 73  JSR $7325
247A  A9 FF     LDA #$FF
247C  8D 16 2F  STA $2F16
247F  60        RTS
2480  A9 01     LDA #$01
2482  20 25 73  JSR $7325
2485  4C 2F B0  JMP $B02F
2488  A9 80     LDA #$80
248A  8D 1A 2F  STA $2F1A
248D  A9 20     LDA #$20
248F  8D 15 2F  STA $2F15
2492  60        RTS
2493  A9 80     LDA #$80
2495  85 34     STA $34
2497  A9 FF     LDA #$FF
2499  2C A9 00  BIT $00A9
249C  8D 17 2F  STA $2F17
249F  60        RTS

; ==== sub_24A0 (2 callers) ====
24A0  A9 80     LDA #$80
24A2  2C A9 00  BIT $00A9
24A5  8D 18 2F  STA $2F18
24A8  0A        ASL A
24A9  8D 19 2F  STA $2F19
24AC  60        RTS

; --- name_from_buf  $24AD — print a name from the $0647 vowel-cache buffer ---
24AD  A5 34     LDA $34
24AF  29 BF     AND #$BF
24B1  85 34     STA $34
24B3  A9 03     LDA #$03
24B5  20 7E 80  JSR $807E
24B8  AE 19 2F  LDX $2F19
24BB  BD 47 06  LDA $0647,X
24BE  20 F0 24  JSR $24F0
24C1  90 03     BCC $24C6
24C3  CE 19 2F  DEC $2F19
24C6  A9 99     LDA #$99
24C8  4C 8D 23  JMP $238D

; --- digram_name  $24CB — digram name generator (first 32 pairs only; NOT the full system-name generator — see Elite.md Part IV §2.4) ---
24CB  20 EA 24  JSR $24EA
24CE  20 BB 8D  JSR $8DBB
24D1  29 03     AND #$03
24D3  A8        TAY
24D4  20 BB 8D  JSR $8DBB
24D7  29 3E     AND #$3E
24D9  AA        TAX
24DA  BD 4B 25  LDA $254B,X
24DD  20 01 24  JSR $2401
24E0  BD 4C 25  LDA $254C,X
24E3  20 01 24  JSR $2401
24E6  88        DEY
24E7  10 EB     BPL $24D4
24E9  60        RTS

; ==== name_case  $24EA  (1 caller) — select name output case mode ($2F1B = $DF) ====
24EA  A9 DF     LDA #$DF
24EC  8D 1B 2F  STA $2F1B
24EF  60        RTS

; ==== sub_24F0 (1 caller) ====
24F0  09 20     ORA #$20
24F2  C9 61     CMP #$61
24F4  F0 11     BEQ $2507
24F6  C9 65     CMP #$65
24F8  F0 0D     BEQ $2507
24FA  C9 69     CMP #$69
24FC  F0 09     BEQ $2507
24FE  C9 6F     CMP #$6F
2500  F0 05     BEQ $2507
2502  C9 75     CMP #$75
2504  F0 01     BEQ $2507
2506  18        CLC

; --- token_handlers  $2507 — text-token handler address table (one word per token; dispatched via self-modified JSR) ---
2507  60        RTS
2508  .byte 60 67 24 6A 24 7E 80 7E 80 9A 24 93 24 21 2F 75 ; `g$j$~.~..$.$!/u
2518  .byte 24 80 24 21 2F D9 28 21 2F 88 24 A0 24 A3 24 1F ; $.$!/.(!/.$.$.$.
2528  .byte 2F AD 24 CB 24 EA 24 21 2F E0 BC 3E 3E 54 3E 79 ; /.$.$.$!/..>>T>y
2538  .byte 3E 34 3E 51 93 6F 23 73 23 57 3E AB 93 B4 93 21 ; >4>Q.o#s#W>....!
2548  .byte 2F 0C 0A                                        ; /..

; --- digram_table  $254B — two-letter (digram) table: the alphabet for message tokens and names (data) ---
254B  .byte 41 42 4F 55 53 45 49 54 49 4C 45 54 53 54 4F 4E ; ABOUSEITILETSTON
255B  .byte 4C 4F 4E 55 54 48 4E 4F 41 4C 4C 45 58 45 47 45 ; LONUTHNOALLEXEGE
256B  .byte 5A 41 43 45 42 49 53 4F 55 53 45 53 41 52 4D 41 ; ZACEBISOUSESARMA
257B  .byte 49 4E 44 49 52 45 41 3F 45 52 41 54 45 4E 42 45 ; INDIREA?ERATENBE
258B  .byte 52 41 4C 41 56 45 54 49 45 44 4F 52 51 55 41 4E ; RALAVETIEDORQUAN
259B  .byte 54 45 49 53 52 49 4F 4E 3A 30 2E 45 2E 6A 61 6D ; TEISRION:0.E.jam
25AB  .byte 65 73 6F 6E 0D 00 00 00 00 00 00 00 00 00 00 00 ; eson............
25BB  .byte 00 00 00 00 00 00 00 00 00 00 00 00 00 00 00 00 ; ................
25CB  .byte 00 00 00 00 00 00 00 00 00 00 00 00 00 00 00 00 ; ................
25DB  .byte 00 00 00 00 00 00 00 00 00 00 10 0F 11 00 03 1C ; ................
25EB  .byte 0E 00 00 0A 00 11 3A 07 09 08 00 00 00 00 80 00 ; ......:.........
25FB  .byte 00 00 00 00 00 00 00 00 00 00 00 00 00 00 00 00 ; ................
260B  .byte 00 00 00 00 00 00 3A 30 2E                      ; ......:0.

; --- commander_def  $2614 — default commander block ("JAMESON") + galaxy seed + starting state (data) ---
2614  .byte 45 2E 4A 41 4D 45 53 4F 4E 0D 00 14 AD          ; E.JAMESON....

; --- galaxy_seed  $2621 — galaxy-1 seed $5A4A,$0248,$B753 (6 bytes, inside commander_def) (data) ---
2621  .byte 4A 5A 48 02 53 B7 00 00 03 E8 46 00 00 0F 00 00 ; JZH.S.....F.....
2631  .byte 00 00 00 16 00 00 00 00 00 00 00 00 00 00 00 00 ; ................
2641  .byte 00 00 00 00 00 00 00 00 00 00 00 00 00 00 00 00 ; ................
2651  .byte 03 00 10 0F 11 00 03 1C 0E 00 00 0A 00 11 3A 07 ; ..............:.
2661  .byte 09 08 00 00 00 00 80 AA 27 03 00 00 00 00 00 00 ; ........'.......
2671  .byte 00 00 00 00 00 00 00 00 00 00 00 FF FF AA AA AA ; ................
2681  .byte 55 55 55 AA AA AA AA AA AA 55 AA AA AA AA AA AA ; UUU......U......
2691  .byte AA AA AA AA AA AA AA 5A AA AA 00 AA 00 00 00 00 ; .......Z........
26A1  .byte 60 70 4C 40 A5 46 85 46 8B 46 88 A2 01 A5 71 85 ; `pL@.F.F.F....q.
26B1  .byte 6B A5 73 85 6D A5 75 CA 30 FE 46 6B 46 6D 4A CA ; k.s.m.u.0.FkFmJ.
26C1  .byte 10 F8 85 9B A5 76 85 9C A5 8B 85 9A A5 8D 20 0C ; .....v........ .
26D1  .byte A3 B0 D2 85 6F A5 9C 85 70 A5 6B 85 9B A5 72 85 ; ....o...p.k...r.
26E1  .byte 9C A5 85 85 9A A5 87 20 0C A3 B0 B9 85 6B A5 9C ; ....... .....k..
26F1  .byte 85 6C A5 6D 85 9B A5 74 85 9C A5 88 85 9A A5 8A ; .l.m...t........
2701  .byte 20 0C A3 B0 A0 85 6D A5 9C 85 6E A5 71 85 9A A5 ;  .....m...n.q...
2711  .byte 6B 20 E7 39 85 BB A5 72 45 6C 85 9C A5 73 85 9A ; k .9...rEl...s..
2721  .byte A5 6D 20 E7 39 85 9A A5 BB 85 9B A5 74 45 6E 20 ; .m .9.......tEn 
2731  .byte 0C A3 85 BB A5 75 85 9A A5 6F 20 E7 39 85 9A A5 ; .....u...o .9...
2741  .byte BB 85 9B A5 70 45 76 20 0C A3 48 98 4A 4A AA 68 ; ....pEv ..H.JJ.h
2751  .byte 24 9C 30 02 A9 00 95 35 C8 C4 AE B0 FE 4C F2 A4 ; $.0....5.....L..
2761  .byte A4 47 A6 48 A5 4B 85 47 A5 4C 85 48 84 4B 86 4C ; .G.H.K.G.L.H.K.L
2771  .byte A4 49 A6 4A A5 51 85 49 A5 52 85 4A 84 51 86 52 ; .I.J.Q.I.R.J.Q.R
2781  .byte A4 4F A6 50 A5 53 85 4F A5 54 85 50 84 53 86 54 ; .O.P.S.O.T.P.S.T
2791  .byte A0 08 B1 57 85 AE A5 57 18 69 14 85 5B A5 58 69 ; ...W...W.i..[.Xi
27A1  .byte 00 85 5C A0 00 84 AA 84 9F B1 5B 85 6B C8 B1 5B ; ..\.......[.k..[
27B1  .byte 85 6D C8 B1 5B 85 6F C8 B1 5B 85 BB 29 1F C5 AD ; .m..[.o..[..)...
27C1  .byte 90 FB C8 B1 5B 85 2E 29 0F AA B5 35 D0 FE A5 2E ; ....[..)...5....
27D1  .byte 4A 4A 4A 4A AA B5 35 D0 FE C8 B1 5B 85 2E 29 0F ; JJJJ..5....[..).
27E1  .byte AA B5 35 D0 FE A5 2E 4A 4A 4A 4A AA B5 35 D0 FE ; ..5....JJJJ..5..
27F1  .byte 4C 8E A6 A5 BB 85 6C 0A 85 6E 0A 85 70 20 2C A3 ; L.....l..n..p ,.
2801  .byte A5 0B 85 6D 45 72 30 FE 18 A5 71 65 09 85 6B A5 ; ...mEr0...qe..k.
2811  .byte 0A 69 00 85 6C 4C B3 A6 A5 09 38 E5 71 85 6B A5 ; .i..lL....8.q.k.
2821  .byte 0A E9 00 85 6C B0 FE 49 FF 85 6C A9 01 E5 6B 85 ; ....l..I..l...k.
2831  .byte 6B 90 02 E6 6C A5 6D 49 80 85 6D A5 0E 85 70 45 ; k...l.mI..m...pE
2841  .byte 74 30 FE 18 A5 73 65 0C 85 6E A5 0D 69 00 85 6F ; t0...se..n..i..o
2851  .byte 4C EE A6 A5 0C 38 E5 73 85 6E A5 0D E9 00 85 6F ; L....8.s.n.....o
2861  .byte B0 FE 49 FF 85 6F A5 6E 49 FF 69 01 85 6E A5 70 ; ..I..o.nI.i..n.p
2871  .byte 49 80 85 70 90 FE E6 6F A5 76 30 FE A5 75 18 65 ; I..p...o.v0..u.e
2881  .byte 0F 85 BB A5 10 69 00 85 99 4C 27 A7 A6 9A F0 FE ; .....i...L'.....
2891  .byte A2 00 4A E8 C5 9A B0 FA 86 9C 20 AF A2 A6 9C A5 ; ..J....... .....

; --- slot_ptr_tbl  $28A1 — per-slot pointers to the 37-byte ship records (two bytes per slot) (data) ---
28A1  .byte 00 F0 25 F0 4A F0 6F F0 94 F0 B9 F0 DE F0 03 F1 ; ..%.J.o.........
28B1  .byte 28 F1 4D F1 72 F1 80 40 20 10 08 04 02 01 80 40 ; (.M.r..@ ......@
28C1  .byte C0 30 0C 03 C0 C0 60 30 18 0C 06 03 C0 30 0C 03 ; .0....`0.....0..
28D1  .byte C0                                              ; .

; ==== sub_28D2 (2 callers) ====
28D2  A9 0F     LDA #$0F
28D4  AA        TAX
28D5  60        RTS

; ==== sub_28D6 (6 callers) ====
28D6  20 7E 80  JSR $807E

; ==== sub_28D9 (1 caller) ====
28D9  A9 13     LDA #$13
28DB  D0 05     BNE $28E2

; ==== sub_28DD (1 caller) ====
28DD  A9 17     LDA #$17
28DF  20 2B 73  JSR $732B

; ==== sub_28E2 (1 caller) ====
28E2  85 6C     STA $6C
28E4  85 6E     STA $6E
28E6  A2 00     LDX #$00
28E8  86 6B     STX $6B
28EA  CA        DEX
28EB  86 6D     STX $6D
28ED  4C 9D B4  JMP $B49D

; ==== sub_28F0 (3 callers) ====
28F0  20 0E 8A  JSR $8A0E
28F3  84 6C     STY $6C
28F5  A9 00     LDA #$00
28F7  99 80 05  STA $0580,Y
28FA  4C 06 B9  JMP $B906
28FD  .byte 80 C0 E0 F0 F8 FC FE FF 7F 3F 1F 0F 07 03 01    ; .........?.....

; ==== sub_290C (3 callers) ====
290C  20 CE 3A  JSR $3ACE
290F  85 60     STA $60

; --- pixel  $2911 — plot a distance-scaled point (1/2/4 px) to the multicolor view bitmap at $4000 ---
2911  8A        TXA
2912  99 C9 06  STA $06C9,Y

; ==== sub_2915 (5 callers) ====
2915  A5 6B     LDA $6B
2917  10 05     BPL $291E
2919  49 7F     EOR #$7F
291B  18        CLC
291C  69 01     ADC #$01
291E  49 80     EOR #$80
2920  AA        TAX
2921  A5 6C     LDA $6C
2923  29 7F     AND #$7F
2925  C9 48     CMP #$48
2927  B0 4A     BCS $2973
2929  A5 6C     LDA $6C
292B  10 04     BPL $2931
292D  49 7F     EOR #$7F
292F  69 01     ADC #$01
2931  85 BB     STA $BB
2933  A9 49     LDA #$49
2935  E5 BB     SBC $BB

; ==== sub_2937 (3 callers) ====
2937  84 06     STY $06
2939  A8        TAY
293A  8A        TXA
293B  29 F8     AND #$F8
293D  18        CLC
293E  79 00 A0  ADC $A000,Y
2941  85 07     STA $07
2943  B9 00 A1  LDA $A100,Y
2946  69 00     ADC #$00
2948  85 08     STA $08
294A  98        TYA
294B  29 07     AND #$07
294D  A8        TAY
294E  8A        TXA
294F  29 07     AND #$07
2951  AA        TAX
2952  A5 A1     LDA $A1
2954  C9 90     CMP #$90
2956  B0 12     BCS $296A
2958  BD C5 28  LDA $28C5,X
295B  51 07     EOR ($07),Y
295D  91 07     STA ($07),Y
295F  A5 A1     LDA $A1
2961  C9 50     CMP #$50
2963  B0 0C     BCS $2971
2965  88        DEY
2966  10 02     BPL $296A
2968  A0 01     LDY #$01
296A  BD C5 28  LDA $28C5,X
296D  51 07     EOR ($07),Y
296F  91 07     STA ($07),Y
2971  A4 06     LDY $06
2973  60        RTS

; ==== sub_2974 (2 callers) ====
2974  8A        TXA
2975  65 43     ADC $43
2977  85 8B     STA $8B
2979  A5 44     LDA $44
297B  65 BB     ADC $BB
297D  85 8C     STA $8C
297F  A5 A9     LDA $A9
2981  F0 12     BEQ $2995
2983  E6 A9     INC $A9
2985  A4 7E     LDY $7E
2987  A9 FF     LDA #$FF
2989  D9 A0 27  CMP $27A0,Y
298C  F0 69     BEQ $29F7
298E  99 A1 27  STA $27A1,Y
2991  E6 7E     INC $7E
2993  D0 62     BNE $29F7
2995  A5 85     LDA $85
2997  85 6B     STA $6B
2999  A5 86     LDA $86
299B  85 6C     STA $6C
299D  A5 87     LDA $87
299F  85 6D     STA $6D
29A1  A5 88     LDA $88
29A3  85 6E     STA $6E
29A5  A5 89     LDA $89
29A7  85 6F     STA $6F
29A9  A5 8A     LDA $8A
29AB  85 70     STA $70
29AD  A5 8B     LDA $8B
29AF  85 71     STA $71
29B1  A5 8C     LDA $8C
29B3  85 72     STA $72
29B5  20 13 A9  JSR $A913
29B8  B0 CB     BCS $2985
29BA  AD F4 06  LDA $06F4
29BD  F0 10     BEQ $29CF
29BF  A5 6B     LDA $6B
29C1  A4 6D     LDY $6D
29C3  85 6D     STA $6D
29C5  84 6B     STY $6B
29C7  A5 6C     LDA $6C
29C9  A4 6E     LDY $6E
29CB  85 6E     STA $6E
29CD  84 6C     STY $6C
29CF  A4 7E     LDY $7E
29D1  B9 A0 27  LDA $27A0,Y
29D4  C9 FF     CMP #$FF
29D6  D0 0B     BNE $29E3
29D8  A5 6B     LDA $6B
29DA  99 A1 26  STA $26A1,Y
29DD  A5 6C     LDA $6C
29DF  99 A1 27  STA $27A1,Y
29E2  C8        INY
29E3  A5 6D     LDA $6D
29E5  99 A1 26  STA $26A1,Y
29E8  A5 6E     LDA $6E
29EA  99 A1 27  STA $27A1,Y
29ED  C8        INY
29EE  84 7E     STY $7E
29F0  20 9D B4  JSR $B49D
29F3  A5 A2     LDA $A2
29F5  D0 8E     BNE $2985
29F7  A5 89     LDA $89
29F9  85 85     STA $85
29FB  A5 8A     LDA $8A
29FD  85 86     STA $86
29FF  A5 8B     LDA $8B
2A01  85 87     STA $87
2A03  A5 8C     LDA $8C
2A05  85 88     STA $88
2A07  A5 AA     LDA $AA
2A09  18        CLC
2A0A  65 AC     ADC $AC
2A0C  85 AA     STA $AA
2A0E  60        RTS

; ==== sub_2A0F (1 caller) ====
2A0F  AC 0B 05  LDY $050B
2A12  BE BC 06  LDX $06BC,Y
2A15  B9 A2 06  LDA $06A2,Y
2A18  85 6C     STA $6C
2A1A  99 BC 06  STA $06BC,Y
2A1D  8A        TXA
2A1E  85 6B     STA $6B
2A20  99 A2 06  STA $06A2,Y
2A23  B9 D6 06  LDA $06D6,Y
2A26  85 A1     STA $A1
2A28  20 15 29  JSR $2915
2A2B  88        DEY
2A2C  D0 E4     BNE $2A12
2A2E  60        RTS
2A2F  AE 86 04  LDX $0486
2A32  F0 09     BEQ $2A3D
2A34  CA        DEX
2A35  D0 03     BNE $2A3A
2A37  4C 2A 2B  JMP $2B2A
2A3A  4C E6 37  JMP $37E6
2A3D  AC 0B 05  LDY $050B
2A40  20 2D 3B  JSR $3B2D
2A43  A5 9B     LDA $9B
2A45  46 2E     LSR $2E
2A47  6A        ROR A
2A48  46 2E     LSR $2E
2A4A  6A        ROR A
2A4B  09 01     ORA #$01
2A4D  85 9A     STA $9A
2A4F  B9 E3 06  LDA $06E3,Y
2A52  E5 97     SBC $97
2A54  99 E3 06  STA $06E3,Y
2A57  B9 D6 06  LDA $06D6,Y
2A5A  85 A1     STA $A1
2A5C  E5 98     SBC $98
2A5E  99 D6 06  STA $06D6,Y
2A61  20 8F 39  JSR $398F
2A64  85 60     STA $60
2A66  A5 2E     LDA $2E
2A68  79 C9 06  ADC $06C9,Y
2A6B  85 5F     STA $5F
2A6D  85 9B     STA $9B
2A6F  A5 6C     LDA $6C
2A71  65 60     ADC $60
2A73  85 60     STA $60
2A75  85 9C     STA $9C
2A77  B9 A2 06  LDA $06A2,Y
2A7A  85 6B     STA $6B
2A7C  20 94 39  JSR $3994
2A7F  85 5E     STA $5E
2A81  A5 2E     LDA $2E
2A83  79 AF 06  ADC $06AF,Y
2A86  85 5D     STA $5D
2A88  A5 6B     LDA $6B
2A8A  65 5E     ADC $5E
2A8C  85 5E     STA $5E
2A8E  45 6A     EOR $6A
2A90  20 39 39  JSR $3939
2A93  20 CE 3A  JSR $3ACE
2A96  85 60     STA $60
2A98  86 5F     STX $5F
2A9A  45 69     EOR $69
2A9C  20 31 39  JSR $3931
2A9F  20 CE 3A  JSR $3ACE
2AA2  85 5E     STA $5E
2AA4  86 5D     STX $5D
2AA6  A6 64     LDX $64
2AA8  A5 60     LDA $60
2AAA  45 95     EOR $95
2AAC  20 3B 39  JSR $393B
2AAF  85 9A     STA $9A
2AB1  20 49 3A  JSR $3A49
2AB4  06 2E     ASL $2E
2AB6  2A        ROL A
2AB7  85 BB     STA $BB
2AB9  A9 00     LDA #$00
2ABB  6A        ROR A
2ABC  05 BB     ORA $BB
2ABE  20 CE 3A  JSR $3ACE
2AC1  85 5E     STA $5E
2AC3  8A        TXA
2AC4  99 AF 06  STA $06AF,Y
2AC7  A5 5F     LDA $5F
2AC9  85 9B     STA $9B
2ACB  A5 60     LDA $60
2ACD  85 9C     STA $9C
2ACF  A9 00     LDA #$00
2AD1  85 2E     STA $2E
2AD3  A5 63     LDA $63
2AD5  49 80     EOR #$80
2AD7  20 0C 29  JSR $290C
2ADA  A5 5E     LDA $5E
2ADC  85 6B     STA $6B
2ADE  99 A2 06  STA $06A2,Y
2AE1  29 7F     AND #$7F
2AE3  C9 78     CMP #$78
2AE5  B0 20     BCS $2B07
2AE7  A5 60     LDA $60
2AE9  99 BC 06  STA $06BC,Y
2AEC  85 6C     STA $6C
2AEE  29 7F     AND #$7F
2AF0  C9 78     CMP #$78
2AF2  B0 13     BCS $2B07
2AF4  B9 D6 06  LDA $06D6,Y
2AF7  C9 10     CMP #$10
2AF9  90 0C     BCC $2B07
2AFB  85 A1     STA $A1
2AFD  20 15 29  JSR $2915
2B00  88        DEY
2B01  F0 03     BEQ $2B06
2B03  4C 40 2A  JMP $2A40
2B06  60        RTS
2B07  20 BB 8D  JSR $8DBB
2B0A  09 04     ORA #$04
2B0C  85 6C     STA $6C
2B0E  99 BC 06  STA $06BC,Y
2B11  20 BB 8D  JSR $8DBB
2B14  09 08     ORA #$08
2B16  85 6B     STA $6B
2B18  99 A2 06  STA $06A2,Y
2B1B  20 BB 8D  JSR $8DBB
2B1E  09 90     ORA #$90
2B20  99 D6 06  STA $06D6,Y
2B23  85 A1     STA $A1
2B25  A5 6C     LDA $6C
2B27  4C FD 2A  JMP $2AFD
2B2A  AC 0B 05  LDY $050B
2B2D  20 2D 3B  JSR $3B2D
2B30  A5 9B     LDA $9B
2B32  46 2E     LSR $2E
2B34  6A        ROR A
2B35  46 2E     LSR $2E
2B37  6A        ROR A
2B38  09 01     ORA #$01
2B3A  85 9A     STA $9A
2B3C  B9 A2 06  LDA $06A2,Y
2B3F  85 6B     STA $6B
2B41  20 94 39  JSR $3994
2B44  85 5E     STA $5E
2B46  B9 AF 06  LDA $06AF,Y
2B49  E5 2E     SBC $2E
2B4B  85 5D     STA $5D
2B4D  A5 6B     LDA $6B
2B4F  E5 5E     SBC $5E
2B51  85 5E     STA $5E
2B53  20 8F 39  JSR $398F
2B56  85 60     STA $60
2B58  B9 C9 06  LDA $06C9,Y
2B5B  E5 2E     SBC $2E
2B5D  85 5F     STA $5F
2B5F  85 9B     STA $9B
2B61  A5 6C     LDA $6C
2B63  E5 60     SBC $60
2B65  85 60     STA $60
2B67  85 9C     STA $9C
2B69  B9 E3 06  LDA $06E3,Y
2B6C  65 97     ADC $97
2B6E  99 E3 06  STA $06E3,Y
2B71  B9 D6 06  LDA $06D6,Y
2B74  85 A1     STA $A1
2B76  65 98     ADC $98
2B78  99 D6 06  STA $06D6,Y
2B7B  A5 5E     LDA $5E
2B7D  45 69     EOR $69
2B7F  20 39 39  JSR $3939
2B82  20 CE 3A  JSR $3ACE
2B85  85 60     STA $60
2B87  86 5F     STX $5F
2B89  45 6A     EOR $6A
2B8B  20 31 39  JSR $3931
2B8E  20 CE 3A  JSR $3ACE
2B91  85 5E     STA $5E
2B93  86 5D     STX $5D
2B95  A5 60     LDA $60
2B97  45 95     EOR $95
2B99  A6 64     LDX $64
2B9B  20 3B 39  JSR $393B
2B9E  85 9A     STA $9A
2BA0  A5 5E     LDA $5E
2BA2  85 9C     STA $9C
2BA4  49 80     EOR #$80
2BA6  20 4D 3A  JSR $3A4D
2BA9  06 2E     ASL $2E
2BAB  2A        ROL A
2BAC  85 BB     STA $BB
2BAE  A9 00     LDA #$00
2BB0  6A        ROR A
2BB1  05 BB     ORA $BB
2BB3  20 CE 3A  JSR $3ACE
2BB6  85 5E     STA $5E
2BB8  8A        TXA
2BB9  99 AF 06  STA $06AF,Y
2BBC  A5 5F     LDA $5F
2BBE  85 9B     STA $9B
2BC0  A5 60     LDA $60
2BC2  85 9C     STA $9C
2BC4  A9 00     LDA #$00
2BC6  85 2E     STA $2E
2BC8  A5 63     LDA $63
2BCA  20 0C 29  JSR $290C
2BCD  A5 5E     LDA $5E
2BCF  85 6B     STA $6B
2BD1  99 A2 06  STA $06A2,Y
2BD4  A5 60     LDA $60
2BD6  99 BC 06  STA $06BC,Y
2BD9  85 6C     STA $6C
2BDB  29 7F     AND #$7F
2BDD  C9 6E     CMP #$6E
2BDF  B0 13     BCS $2BF4
2BE1  B9 D6 06  LDA $06D6,Y
2BE4  C9 A0     CMP #$A0
2BE6  B0 0C     BCS $2BF4
2BE8  85 A1     STA $A1
2BEA  20 15 29  JSR $2915
2BED  88        DEY
2BEE  F0 03     BEQ $2BF3
2BF0  4C 2D 2B  JMP $2B2D
2BF3  60        RTS
2BF4  20 BB 8D  JSR $8DBB
2BF7  29 7F     AND #$7F
2BF9  69 0A     ADC #$0A
2BFB  99 D6 06  STA $06D6,Y
2BFE  85 A1     STA $A1
2C00  4A        LSR A
2C01  B0 14     BCS $2C17
2C03  4A        LSR A
2C04  A9 FC     LDA #$FC
2C06  6A        ROR A
2C07  85 6B     STA $6B
2C09  99 A2 06  STA $06A2,Y
2C0C  20 BB 8D  JSR $8DBB
2C0F  85 6C     STA $6C
2C11  99 BC 06  STA $06BC,Y
2C14  4C EA 2B  JMP $2BEA
2C17  20 BB 8D  JSR $8DBB
2C1A  85 6B     STA $6B
2C1C  99 A2 06  STA $06A2,Y
2C1F  4A        LSR A
2C20  A9 E6     LDA #$E6
2C22  6A        ROR A
2C23  85 6C     STA $6C
2C25  99 BC 06  STA $06BC,Y
2C28  D0 C0     BNE $2BEA

; ==== sub_2C2A (3 callers) ====
2C2A  B9 09 00  LDA $0009,Y
2C2D  0A        ASL A
2C2E  85 78     STA $78
2C30  B9 0A 00  LDA $000A,Y
2C33  2A        ROL A
2C34  85 79     STA $79
2C36  A9 00     LDA #$00
2C38  6A        ROR A
2C39  85 7A     STA $7A
2C3B  20 66 2D  JSR $2D66
2C3E  95 0B     STA $0B,X
2C40  A4 78     LDY $78
2C42  94 09     STY $09,X
2C44  A4 79     LDY $79
2C46  94 0A     STY $0A,X
2C48  29 7F     AND #$7F
2C4A  60        RTS

; ==== sub_2C4B (2 callers) ====
2C4B  A9 00     LDA #$00

; ==== sub_2C4D (3 callers) ====
2C4D  19 02 F0  ORA $F002,Y
2C50  19 05 F0  ORA $F005,Y
2C53  19 08 F0  ORA $F008,Y
2C56  29 7F     AND #$7F
2C58  60        RTS

; ==== sub_2C59 (2 callers) ====
2C59  B9 01 F0  LDA $F001,Y
2C5C  20 85 39  JSR $3985
2C5F  85 9B     STA $9B
2C61  B9 04 F0  LDA $F004,Y
2C64  20 85 39  JSR $3985
2C67  65 9B     ADC $9B
2C69  B0 0C     BCS $2C77
2C6B  85 9B     STA $9B
2C6D  B9 07 F0  LDA $F007,Y
2C70  20 85 39  JSR $3985
2C73  65 9B     ADC $9B
2C75  90 02     BCC $2C79
2C77  A9 FF     LDA #$FF
2C79  60        RTS
2C7A  A9 CD     LDA #$CD
2C7C  20 8D 23  JSR $238D
2C7F  20 85 BA  JSR $BA85
2C82  4C C4 2C  JMP $2CC4
2C85  A2 09     LDX #$09
2C87  C9 19     CMP #$19
2C89  B0 60     BCS $2CEB
2C8B  CA        DEX
2C8C  C9 0A     CMP #$0A
2C8E  B0 5B     BCS $2CEB
2C90  CA        DEX
2C91  C9 02     CMP #$02
2C93  B0 56     BCS $2CEB
2C95  CA        DEX
2C96  D0 53     BNE $2CEB

; --- flight_hud  $2C98 — draw the cockpit dashboard / HUD for the flight view ---
2C98  A9 08     LDA #$08
2C9A  20 2F 73  JSR $732F
2C9D  20 AB 79  JSR $79AB
2CA0  A9 07     LDA #$07
2CA2  20 25 73  JSR $7325
2CA5  A9 7E     LDA #$7E
2CA7  20 D6 28  JSR $28D6
2CAA  A9 0F     LDA #$0F
2CAC  A4 A7     LDY $A7
2CAE  D0 CA     BNE $2C7A
2CB0  A9 E6     LDA #$E6
2CB2  AC 7F 04  LDY $047F
2CB5  BE 54 04  LDX $0454,Y
2CB8  F0 07     BEQ $2CC1
2CBA  AC E9 04  LDY $04E9
2CBD  C0 80     CPY #$80
2CBF  69 01     ADC #$01
2CC1  20 73 80  JSR $8073
2CC4  A9 7D     LDA #$7D
2CC6  20 9B 73  JSR $739B
2CC9  A9 13     LDA #$13
2CCB  AC CD 04  LDY $04CD
2CCE  F0 04     BEQ $2CD4
2CD0  C0 32     CPY #$32
2CD2  69 01     ADC #$01
2CD4  20 73 80  JSR $8073
2CD7  A9 10     LDA #$10
2CD9  20 9B 73  JSR $739B
2CDC  AD E1 04  LDA $04E1
2CDF  D0 A4     BNE $2C85
2CE1  AA        TAX
2CE2  AD E0 04  LDA $04E0
2CE5  4A        LSR A
2CE6  4A        LSR A
2CE7  E8        INX
2CE8  4A        LSR A
2CE9  D0 FC     BNE $2CE7
2CEB  8A        TXA
2CEC  18        CLC
2CED  69 15     ADC #$15
2CEF  20 73 80  JSR $8073
2CF2  A9 12     LDA #$12
2CF4  20 5E 2D  JSR $2D5E
2CF7  AD C7 04  LDA $04C7
2CFA  F0 05     BEQ $2D01
2CFC  A9 70     LDA #$70
2CFE  20 5E 2D  JSR $2D5E
2D01  AD C2 04  LDA $04C2
2D04  F0 05     BEQ $2D0B
2D06  A9 6F     LDA #$6F
2D08  20 5E 2D  JSR $2D5E
2D0B  AD C1 04  LDA $04C1
2D0E  F0 05     BEQ $2D15
2D10  A9 6C     LDA #$6C
2D12  20 5E 2D  JSR $2D5E
2D15  A9 71     LDA #$71
2D17  85 AD     STA $AD
2D19  A8        TAY
2D1A  BE 52 04  LDX $0452,Y
2D1D  F0 03     BEQ $2D22
2D1F  20 5E 2D  JSR $2D5E
2D22  E6 AD     INC $AD
2D24  A5 AD     LDA $AD
2D26  C9 75     CMP #$75
2D28  90 EF     BCC $2D19
2D2A  A2 00     LDX #$00
2D2C  86 AA     STX $AA
2D2E  BC A9 04  LDY $04A9,X
2D31  F0 23     BEQ $2D56
2D33  8A        TXA
2D34  18        CLC
2D35  69 60     ADC #$60
2D37  20 9B 73  JSR $739B
2D3A  A9 67     LDA #$67
2D3C  A6 AA     LDX $AA
2D3E  BC A9 04  LDY $04A9,X
2D41  C0 8F     CPY #$8F
2D43  D0 02     BNE $2D47
2D45  A9 68     LDA #$68
2D47  C0 97     CPY #$97
2D49  D0 02     BNE $2D4D
2D4B  A9 75     LDA #$75
2D4D  C0 32     CPY #$32
2D4F  D0 02     BNE $2D53
2D51  A9 76     LDA #$76
2D53  20 5E 2D  JSR $2D5E
2D56  A6 AA     LDX $AA
2D58  E8        INX
2D59  E0 04     CPX #$04
2D5B  90 CF     BCC $2D2C
2D5D  60        RTS

; ==== sub_2D5E (6 callers) ====
2D5E  20 73 80  JSR $8073
2D61  A9 06     LDA #$06
2D63  4C 25 73  JMP $7325

; ==== sub_2D66 (5 callers) ====
2D66  A5 7A     LDA $7A
2D68  85 9C     STA $9C
2D6A  29 80     AND #$80
2D6C  85 BB     STA $BB
2D6E  55 0B     EOR $0B,X
2D70  30 18     BMI $2D8A
2D72  A5 78     LDA $78
2D74  18        CLC
2D75  75 09     ADC $09,X
2D77  85 78     STA $78
2D79  A5 79     LDA $79
2D7B  75 0A     ADC $0A,X
2D7D  85 79     STA $79
2D7F  A5 7A     LDA $7A
2D81  75 0B     ADC $0B,X
2D83  29 7F     AND #$7F
2D85  05 BB     ORA $BB
2D87  85 7A     STA $7A
2D89  60        RTS
2D8A  A5 9C     LDA $9C
2D8C  29 7F     AND #$7F
2D8E  85 9C     STA $9C
2D90  B5 09     LDA $09,X
2D92  38        SEC
2D93  E5 78     SBC $78
2D95  85 78     STA $78
2D97  B5 0A     LDA $0A,X
2D99  E5 79     SBC $79
2D9B  85 79     STA $79
2D9D  B5 0B     LDA $0B,X
2D9F  29 7F     AND #$7F
2DA1  E5 9C     SBC $9C
2DA3  09 80     ORA #$80
2DA5  45 BB     EOR $BB
2DA7  85 7A     STA $7A
2DA9  B0 16     BCS $2DC1
2DAB  A9 01     LDA #$01
2DAD  E5 78     SBC $78
2DAF  85 78     STA $78
2DB1  A9 00     LDA #$00
2DB3  E5 79     SBC $79
2DB5  85 79     STA $79
2DB7  A9 00     LDA #$00
2DB9  E5 7A     SBC $7A
2DBB  29 7F     AND #$7F
2DBD  05 BB     ORA $BB
2DBF  85 7A     STA $7A
2DC1  60        RTS

; ==== sub_2DC2 (6 callers) ====
2DC2  B5 0A     LDA $0A,X
2DC4  29 7F     AND #$7F
2DC6  4A        LSR A
2DC7  85 BB     STA $BB
2DC9  B5 09     LDA $09,X
2DCB  38        SEC
2DCC  E5 BB     SBC $BB
2DCE  85 9B     STA $9B
2DD0  B5 0A     LDA $0A,X
2DD2  E9 00     SBC #$00
2DD4  85 9C     STA $9C
2DD6  B9 09 00  LDA $0009,Y
2DD9  85 2E     STA $2E
2DDB  B9 0A 00  LDA $000A,Y
2DDE  29 80     AND #$80
2DE0  85 BB     STA $BB
2DE2  B9 0A 00  LDA $000A,Y
2DE5  29 7F     AND #$7F
2DE7  4A        LSR A
2DE8  66 2E     ROR $2E
2DEA  4A        LSR A
2DEB  66 2E     ROR $2E
2DED  4A        LSR A
2DEE  66 2E     ROR $2E
2DF0  4A        LSR A
2DF1  66 2E     ROR $2E
2DF3  05 BB     ORA $BB
2DF5  45 B1     EOR $B1
2DF7  86 9A     STX $9A
2DF9  20 CE 3A  JSR $3ACE
2DFC  85 78     STA $78
2DFE  86 77     STX $77
2E00  A6 9A     LDX $9A
2E02  B9 0A 00  LDA $000A,Y
2E05  29 7F     AND #$7F
2E07  4A        LSR A
2E08  85 BB     STA $BB
2E0A  B9 09 00  LDA $0009,Y
2E0D  38        SEC
2E0E  E5 BB     SBC $BB
2E10  85 9B     STA $9B
2E12  B9 0A 00  LDA $000A,Y
2E15  E9 00     SBC #$00
2E17  85 9C     STA $9C
2E19  B5 09     LDA $09,X
2E1B  85 2E     STA $2E
2E1D  B5 0A     LDA $0A,X
2E1F  29 80     AND #$80
2E21  85 BB     STA $BB
2E23  B5 0A     LDA $0A,X
2E25  29 7F     AND #$7F
2E27  4A        LSR A
2E28  66 2E     ROR $2E
2E2A  4A        LSR A
2E2B  66 2E     ROR $2E
2E2D  4A        LSR A
2E2E  66 2E     ROR $2E
2E30  4A        LSR A
2E31  66 2E     ROR $2E
2E33  05 BB     ORA $BB
2E35  49 80     EOR #$80
2E37  45 B1     EOR $B1
2E39  86 9A     STX $9A
2E3B  20 CE 3A  JSR $3ACE
2E3E  99 0A 00  STA $000A,Y
2E41  96 09     STX $09,Y
2E43  A6 9A     LDX $9A
2E45  A5 77     LDA $77
2E47  95 09     STA $09,X
2E49  A5 78     LDA $78
2E4B  95 0A     STA $0A,X
2E4D  60        RTS
2E4E  .byte 48 76 E8 00                                     ; Hv..

; ==== sub_2E52 (5 callers) ====
2E52  A9 03     LDA #$03

; ==== sub_2E54 (1 caller) ====
2E54  A0 00     LDY #$00

; ==== sub_2E56 (2 callers) ====
2E56  85 99     STA $99
2E58  A9 00     LDA #$00
2E5A  85 77     STA $77
2E5C  85 78     STA $78
2E5E  84 79     STY $79
2E60  86 7A     STX $7A

; ==== sub_2E62 (2 callers) ====
2E62  A2 0B     LDX #$0B
2E64  86 BB     STX $BB
2E66  08        PHP
2E67  90 04     BCC $2E6D
2E69  C6 BB     DEC $BB
2E6B  C6 99     DEC $99
2E6D  A9 0B     LDA #$0B
2E6F  38        SEC
2E70  85 9F     STA $9F
2E72  E5 99     SBC $99
2E74  85 99     STA $99
2E76  E6 99     INC $99
2E78  A0 00     LDY #$00
2E7A  84 9C     STY $9C
2E7C  4C BE 2E  JMP $2EBE
2E7F  06 7A     ASL $7A
2E81  26 79     ROL $79
2E83  26 78     ROL $78
2E85  26 77     ROL $77
2E87  26 9C     ROL $9C
2E89  A2 03     LDX #$03
2E8B  B5 77     LDA $77,X
2E8D  95 6B     STA $6B,X
2E8F  CA        DEX
2E90  10 F9     BPL $2E8B
2E92  A5 9C     LDA $9C
2E94  85 6F     STA $6F
2E96  06 7A     ASL $7A
2E98  26 79     ROL $79
2E9A  26 78     ROL $78
2E9C  26 77     ROL $77
2E9E  26 9C     ROL $9C
2EA0  06 7A     ASL $7A
2EA2  26 79     ROL $79
2EA4  26 78     ROL $78
2EA6  26 77     ROL $77
2EA8  26 9C     ROL $9C
2EAA  18        CLC
2EAB  A2 03     LDX #$03
2EAD  B5 77     LDA $77,X
2EAF  75 6B     ADC $6B,X
2EB1  95 77     STA $77,X
2EB3  CA        DEX
2EB4  10 F7     BPL $2EAD
2EB6  A5 6F     LDA $6F
2EB8  65 9C     ADC $9C
2EBA  85 9C     STA $9C
2EBC  A0 00     LDY #$00
2EBE  A2 03     LDX #$03
2EC0  38        SEC
2EC1  B5 77     LDA $77,X
2EC3  FD 4E 2E  SBC $2E4E,X
2EC6  95 6B     STA $6B,X
2EC8  CA        DEX
2EC9  10 F6     BPL $2EC1
2ECB  A5 9C     LDA $9C
2ECD  E9 17     SBC #$17
2ECF  85 6F     STA $6F
2ED1  90 11     BCC $2EE4
2ED3  A2 03     LDX #$03
2ED5  B5 6B     LDA $6B,X
2ED7  95 77     STA $77,X
2ED9  CA        DEX
2EDA  10 F9     BPL $2ED5
2EDC  A5 6F     LDA $6F
2EDE  85 9C     STA $9C
2EE0  C8        INY
2EE1  4C BE 2E  JMP $2EBE
2EE4  98        TYA
2EE5  D0 0C     BNE $2EF3
2EE7  A5 BB     LDA $BB
2EE9  F0 08     BEQ $2EF3
2EEB  C6 99     DEC $99
2EED  10 0E     BPL $2EFD
2EEF  A9 20     LDA #$20
2EF1  D0 07     BNE $2EFA
2EF3  A0 00     LDY #$00
2EF5  84 BB     STY $BB
2EF7  18        CLC
2EF8  69 30     ADC #$30
2EFA  20 21 2F  JSR $2F21
2EFD  C6 BB     DEC $BB
2EFF  10 02     BPL $2F03
2F01  E6 BB     INC $BB
2F03  C6 9F     DEC $9F
2F05  30 0D     BMI $2F14
2F07  D0 08     BNE $2F11
2F09  28        PLP
2F0A  90 05     BCC $2F11
2F0C  A9 2E     LDA #$2E
2F0E  20 21 2F  JSR $2F21
2F11  4C 7F 2E  JMP $2E7F
2F14  60        RTS
2F15  .byte 20 FF 00 00 00 00 FF A9 0C 2C                   ;  ........,
2F1F  A9 41     LDA #$41

; ==== chrout  $2F21  (13 callers) — character output routine ====
2F21  86 07     STX $07
2F23  A2 FF     LDX #$FF
2F25  8E 1B 2F  STX $2F1B
2F28  C9 2E     CMP #$2E
2F2A  F0 11     BEQ $2F3D
2F2C  C9 3A     CMP #$3A
2F2E  F0 0D     BEQ $2F3D
2F30  C9 0A     CMP #$0A
2F32  F0 09     BEQ $2F3D
2F34  C9 0C     CMP #$0C
2F36  F0 05     BEQ $2F3D
2F38  C9 20     CMP #$20
2F3A  F0 01     BEQ $2F3D
2F3C  E8        INX
2F3D  8E 16 2F  STX $2F16
2F40  A6 07     LDX $07
2F42  2C 18 2F  BIT $2F18
2F45  30 03     BMI $2F4A
2F47  4C 87 BA  JMP $BA87
2F4A  2C 18 2F  BIT $2F18
2F4D  70 04     BVS $2F53
2F4F  C9 0C     CMP #$0C
2F51  F0 0D     BEQ $2F60
2F53  AE 19 2F  LDX $2F19
2F56  9D 48 06  STA $0648,X
2F59  A6 07     LDX $07
2F5B  EE 19 2F  INC $2F19
2F5E  18        CLC
2F5F  60        RTS
2F60  8A        TXA
2F61  48        PHA
2F62  98        TYA
2F63  48        PHA
2F64  AE 19 2F  LDX $2F19
2F67  F0 78     BEQ $2FE1
2F69  E0 1F     CPX #$1F
2F6B  90 71     BCC $2FDE
2F6D  46 08     LSR $08
2F6F  A5 08     LDA $08
2F71  30 04     BMI $2F77
2F73  A9 40     LDA #$40
2F75  85 08     STA $08
2F77  A0 1D     LDY #$1D
2F79  AD 66 06  LDA $0666
2F7C  C9 20     CMP #$20
2F7E  F0 2D     BEQ $2FAD
2F80  88        DEY
2F81  30 EC     BMI $2F6F
2F83  F0 EA     BEQ $2F6F
2F85  B9 48 06  LDA $0648,Y
2F88  C9 20     CMP #$20
2F8A  D0 F4     BNE $2F80
2F8C  06 08     ASL $08
2F8E  30 F0     BMI $2F80
2F90  84 07     STY $07
2F92  AC 19 2F  LDY $2F19
2F95  B9 48 06  LDA $0648,Y
2F98  99 49 06  STA $0649,Y
2F9B  88        DEY
2F9C  C4 07     CPY $07
2F9E  B0 F5     BCS $2F95
2FA0  EE 19 2F  INC $2F19
2FA3  D9 48 06  CMP $0648,Y
2FA6  D0 D1     BNE $2F79
2FA8  88        DEY
2FA9  10 F8     BPL $2FA3
2FAB  30 C2     BMI $2F6F
2FAD  A2 1E     LDX #$1E
2FAF  20 D1 2F  JSR $2FD1
2FB2  A9 0C     LDA #$0C
2FB4  20 87 BA  JSR $BA87
2FB7  AD 19 2F  LDA $2F19
2FBA  E9 1E     SBC #$1E
2FBC  8D 19 2F  STA $2F19
2FBF  AA        TAX
2FC0  F0 1F     BEQ $2FE1
2FC2  A0 00     LDY #$00
2FC4  E8        INX
2FC5  B9 67 06  LDA $0667,Y
2FC8  99 48 06  STA $0648,Y
2FCB  C8        INY
2FCC  CA        DEX
2FCD  D0 F6     BNE $2FC5
2FCF  F0 93     BEQ $2F64

; ==== sub_2FD1 (2 callers) ====
2FD1  A0 00     LDY #$00
2FD3  B9 48 06  LDA $0648,Y
2FD6  20 87 BA  JSR $BA87
2FD9  C8        INY
2FDA  CA        DEX
2FDB  D0 F6     BNE $2FD3
2FDD  60        RTS
2FDE  20 D1 2F  JSR $2FD1
2FE1  8E 19 2F  STX $2F19
2FE4  68        PLA
2FE5  A8        TAY
2FE6  68        PLA
2FE7  AA        TAX
2FE8  A9 0C     LDA #$0C
2FEA  2C A9 07  BIT $07A9
2FED  4C 87 BA  JMP $BA87

; ==== sub_2FF0 (2 callers) ====
2FF0  A9 70     LDA #$70
2FF2  85 07     STA $07
2FF4  A9 57     LDA #$57
2FF6  85 08     STA $08
2FF8  20 B8 30  JSR $30B8
2FFB  86 78     STX $78
2FFD  85 77     STA $77
2FFF  A9 0E     LDA #$0E
3001  85 06     STA $06
3003  A5 96     LDA $96
3005  20 CB 30  JSR $30CB
3008  A9 00     LDA #$00
300A  85 9B     STA $9B
300C  85 2E     STA $2E
300E  A9 08     LDA #$08
3010  85 9C     STA $9C
3012  A5 68     LDA $68
3014  4A        LSR A
3015  4A        LSR A
3016  05 69     ORA $69
3018  49 80     EOR #$80
301A  20 CE 3A  JSR $3ACE
301D  20 2D 31  JSR $312D
3020  A5 63     LDA $63
3022  A6 64     LDX $64
3024  F0 02     BEQ $3028
3026  E9 01     SBC #$01
3028  20 CE 3A  JSR $3ACE
302B  20 2D 31  JSR $312D
302E  A5 A3     LDA $A3
3030  29 03     AND #$03
3032  D0 A9     BNE $2FDD
3034  A0 00     LDY #$00
3036  20 B8 30  JSR $30B8
3039  86 77     STX $77
303B  85 78     STA $78
303D  A2 03     LDX #$03
303F  86 06     STX $06
3041  94 71     STY $71,X
3043  CA        DEX
3044  10 FB     BPL $3041
3046  A2 03     LDX #$03
3048  AD E9 04  LDA $04E9
304B  4A        LSR A
304C  4A        LSR A
304D  85 9A     STA $9A
304F  38        SEC
3050  E9 10     SBC #$10
3052  90 0D     BCC $3061
3054  85 9A     STA $9A
3056  A9 10     LDA #$10
3058  95 71     STA $71,X
305A  A5 9A     LDA $9A
305C  CA        DEX
305D  10 F0     BPL $304F
305F  30 04     BMI $3065
3061  A5 9A     LDA $9A
3063  95 71     STA $71,X
3065  B9 71 00  LDA $0071,Y
3068  84 2E     STY $2E
306A  20 CC 30  JSR $30CC
306D  A4 2E     LDY $2E
306F  C8        INY
3070  C0 04     CPY #$04
3072  D0 F1     BNE $3065
3074  A9 B0     LDA #$B0
3076  85 07     STA $07
3078  A9 56     LDA #$56
307A  85 08     STA $08
307C  A9 AA     LDA #$AA
307E  85 77     STA $77
3080  85 78     STA $78
3082  AD E7 04  LDA $04E7
3085  20 C8 30  JSR $30C8
3088  AD E8 04  LDA $04E8
308B  20 C8 30  JSR $30C8
308E  AD A6 04  LDA $04A6
3091  20 CA 30  JSR $30CA
3094  20 B8 30  JSR $30B8
3097  86 78     STX $78
3099  85 77     STA $77
309B  A2 0B     LDX #$0B
309D  86 06     STX $06
309F  AD 83 04  LDA $0483
30A2  20 C8 30  JSR $30C8
30A5  AD 88 04  LDA $0488
30A8  20 C8 30  JSR $30C8
30AB  A9 F0     LDA #$F0
30AD  85 06     STA $06
30AF  AD F3 06  LDA $06F3
30B2  20 C8 30  JSR $30C8
30B5  4C 5F 84  JMP $845F

; ==== sub_30B8 (3 callers) ====
30B8  A2 AA     LDX #$AA
30BA  A5 A3     LDA $A3
30BC  29 08     AND #$08
30BE  2D 09 1D  AND $1D09
30C1  F0 02     BEQ $30C5
30C3  8A        TXA
30C4  2C A9 55  BIT $55A9
30C7  60        RTS

; ==== sub_30C8 (5 callers) ====
30C8  4A        LSR A
30C9  4A        LSR A

; ==== sub_30CA (1 caller) ====
30CA  4A        LSR A

; ==== sub_30CB (1 caller) ====
30CB  4A        LSR A

; ==== sub_30CC (1 caller) ====
30CC  85 9A     STA $9A
30CE  A2 FF     LDX #$FF
30D0  86 9B     STX $9B
30D2  C5 06     CMP $06
30D4  B0 04     BCS $30DA
30D6  A5 78     LDA $78
30D8  D0 02     BNE $30DC
30DA  A5 77     LDA $77
30DC  85 32     STA $32
30DE  A0 02     LDY #$02
30E0  A2 03     LDX #$03
30E2  A5 9A     LDA $9A
30E4  C9 04     CMP #$04
30E6  90 1E     BCC $3106
30E8  E9 04     SBC #$04
30EA  85 9A     STA $9A
30EC  A5 9B     LDA $9B
30EE  25 32     AND $32
30F0  91 07     STA ($07),Y
30F2  C8        INY
30F3  91 07     STA ($07),Y
30F5  C8        INY
30F6  91 07     STA ($07),Y
30F8  98        TYA
30F9  18        CLC
30FA  69 06     ADC #$06
30FC  90 02     BCC $3100
30FE  E6 08     INC $08
3100  A8        TAY
3101  CA        DEX
3102  30 1B     BMI $311F
3104  10 DC     BPL $30E2
3106  49 03     EOR #$03
3108  85 9A     STA $9A
310A  A5 9B     LDA $9B
310C  0A        ASL A
310D  0A        ASL A
310E  C6 9A     DEC $9A
3110  10 FA     BPL $310C
3112  48        PHA
3113  A9 00     LDA #$00
3115  85 9B     STA $9B
3117  A9 63     LDA #$63
3119  85 9A     STA $9A
311B  68        PLA
311C  4C EE 30  JMP $30EE
311F  A5 07     LDA $07
3121  18        CLC
3122  69 40     ADC #$40
3124  85 07     STA $07
3126  A5 08     LDA $08
3128  69 01     ADC #$01
312A  85 08     STA $08
312C  60        RTS

; ==== sub_312D (2 callers) ====
312D  A0 01     LDY #$01
312F  85 9A     STA $9A
3131  38        SEC
3132  A5 9A     LDA $9A
3134  E9 04     SBC #$04
3136  B0 0E     BCS $3146
3138  A9 FF     LDA #$FF
313A  A6 9A     LDX $9A
313C  85 9A     STA $9A
313E  BD CD 28  LDA $28CD,X
3141  29 AA     AND #$AA
3143  4C 4A 31  JMP $314A
3146  85 9A     STA $9A
3148  A9 00     LDA #$00
314A  91 07     STA ($07),Y
314C  C8        INY
314D  91 07     STA ($07),Y
314F  C8        INY
3150  91 07     STA ($07),Y
3152  C8        INY
3153  91 07     STA ($07),Y
3155  98        TYA
3156  18        CLC
3157  69 05     ADC #$05
3159  A8        TAY
315A  C0 1E     CPY #$1E
315C  90 D3     BCC $3131
315E  A5 07     LDA $07
3160  69 3F     ADC #$3F
3162  85 07     STA $07
3164  A5 08     LDA $08
3166  69 01     ADC #$01
3168  85 08     STA $08
316A  60        RTS
316B  20 EB 8C  JSR $8CEB
316E  A2 0B     LDX #$0B
3170  86 A5     STX $A5
3172  20 7D 36  JSR $367D
3175  B0 05     BCS $317C
3177  A2 18     LDX #$18
3179  20 7D 36  JSR $367D
317C  A9 08     LDA #$08
317E  85 24     STA $24
3180  A9 C2     LDA #$C2
3182  85 27     STA $27
3184  4A        LSR A
3185  85 29     STA $29
3187  20 A0 AB  JSR $ABA0
318A  20 86 A3  JSR $A386
318D  C6 29     DEC $29
318F  D0 F6     BNE $3187
3191  20 1C BD  JSR $BD1C
3194  A9 00     LDA #$00
3196  A2 10     LDX #$10
3198  9D B0 04  STA $04B0,X
319B  CA        DEX
319C  10 FA     BPL $3198
319E  8D CD 04  STA $04CD
31A1  8D C7 04  STA $04C7
31A4  AD C9 04  LDA $04C9
31A7  0D CA 04  ORA $04CA
31AA  F0 0F     BEQ $31BB
31AC  20 BB 8D  JSR $8DBB
31AF  29 07     AND #$07
31B1  09 01     ORA #$01
31B3  8D C9 04  STA $04C9
31B6  A9 00     LDA #$00
31B8  8D CA 04  STA $04CA
31BB  A9 46     LDA #$46
31BD  8D A6 04  STA $04A6
31C0  4C FE 20  JMP $20FE
31C3  A9 0E     LDA #$0E
31C5  20 8D 23  JSR $238D
31C8  20 82 78  JSR $7882
31CB  20 A0 79  JSR $79A0
31CE  A9 00     LDA #$00
31D0  85 AE     STA $AE
31D2  20 A0 24  JSR $24A0
31D5  20 E9 7F  JSR $7FE9
31D8  AE 19 2F  LDX $2F19
31DB  B5 0E     LDA $0E,X
31DD  C9 0D     CMP #$0D
31DF  D0 0D     BNE $31EE
31E1  CA        DEX
31E2  B5 0E     LDA $0E,X
31E4  09 20     ORA #$20
31E6  DD 48 06  CMP $0648,X
31E9  F0 F6     BEQ $31E1
31EB  8A        TXA
31EC  30 17     BMI $3205
31EE  20 3B 73  JSR $733B
31F1  E6 AE     INC $AE
31F3  D0 DD     BNE $31D2
31F5  20 AB 79  JSR $79AB
31F8  20 82 78  JSR $7882
31FB  A0 06     LDY #$06
31FD  20 58 B1  JSR $B158
3200  A9 D7     LDA #$D7
3202  4C 8D 23  JMP $238D
3205  A5 82     LDA $82
3207  8D 09 05  STA $0509
320A  A5 80     LDA $80
320C  8D 0A 05  STA $050A
320F  20 AB 79  JSR $79AB
3212  20 82 78  JSR $7882
3215  20 A3 24  JSR $24A3
3218  4C 8A 90  JMP $908A
321B  A5 09     LDA $09
321D  05 0C     ORA $0C
321F  05 0F     ORA $0F
3221  D0 05     BNE $3228
3223  A9 50     LDA #$50
3225  20 C2 84  JSR $84C2
3228  A2 04     LDX #$04
322A  D0 61     BNE $328D
322C  A9 00     LDA #$00
322E  20 BD 90  JSR $90BD
3231  F0 03     BEQ $3236
3233  4C 62 33  JMP $3362
3236  20 90 32  JSR $3290
3239  20 13 B1  JSR $B113
323C  A9 FA     LDA #$FA
323E  4C C2 84  JMP $84C2
3241  A5 67     LDA $67
3243  D0 D6     BNE $321B
3245  A5 29     LDA $29
3247  0A        ASL A
3248  30 E2     BMI $322C
324A  4A        LSR A
324B  AA        TAX
324C  BD A1 28  LDA $28A1,X
324F  85 5B     STA $5B
3251  BD A2 28  LDA $28A2,X
3254  20 7E 35  JSR $357E
3257  A5 37     LDA $37
3259  05 3A     ORA $3A
325B  05 3D     ORA $3D
325D  29 7F     AND #$7F
325F  05 36     ORA $36
3261  05 39     ORA $39
3263  05 3C     ORA $3C
3265  D0 2F     BNE $3296
3267  A5 29     LDA $29
3269  C9 82     CMP #$82
326B  F0 AE     BEQ $321B
326D  A0 1F     LDY #$1F
326F  B1 5B     LDA ($5B),Y
3271  2C 9E 32  BIT $329E
3274  D0 04     BNE $327A
3276  09 80     ORA #$80
3278  91 5B     STA ($5B),Y
327A  A5 09     LDA $09
327C  05 0C     ORA $0C
327E  05 0F     ORA $0F
3280  D0 05     BNE $3287
3282  A9 50     LDA #$50
3284  20 C2 84  JSR $84C2
3287  A5 29     LDA $29
3289  29 7F     AND #$7F
328B  4A        LSR A
328C  AA        TAX
328D  20 A6 B0  JSR $B0A6

; ==== sub_3290 (1 caller) ====
3290  06 28     ASL $28
3292  38        SEC
3293  66 28     ROR $28
3295  60        RTS
3296  20 BB 8D  JSR $8DBB
3299  C9 10     CMP #$10
329B  B0 07     BCS $32A4
329D  A0 20     LDY #$20
329F  B1 5B     LDA ($5B),Y
32A1  4A        LSR A
32A2  B0 03     BCS $32A7
32A4  4C 6B 33  JMP $336B
32A7  4C 00 BA  JMP $BA00

; ==== ship_tactics  $32AA  (1 caller) — per-ship AI: station/escort launches and combat steering/firing (energy, aggression $2D, bounty $04CD) ====
32AA  A9 03     LDA #$03
32AC  85 B0     STA $B0
32AE  A9 04     LDA #$04
32B0  85 B1     STA $B1
32B2  A9 16     LDA #$16
32B4  85 AB     STA $AB
32B6  E0 01     CPX #$01
32B8  F0 87     BEQ $3241
32BA  E0 02     CPX #$02
32BC  D0 2E     BNE $32EC
32BE  A5 2D     LDA $2D
32C0  29 04     AND #$04
32C2  D0 13     BNE $32D7
32C4  AD 67 04  LDA $0467
32C7  D0 CC     BNE $3295
32C9  20 BB 8D  JSR $8DBB
32CC  C9 FD     CMP #$FD
32CE  90 C5     BCC $3295
32D0  29 01     AND #$01
32D2  69 08     ADC #$08
32D4  AA        TAX
32D5  D0 10     BNE $32E7
32D7  20 BB 8D  JSR $8DBB
32DA  C9 F0     CMP #$F0
32DC  90 B7     BCC $3295
32DE  AD 6D 04  LDA $046D
32E1  C9 04     CMP #$04
32E3  B0 40     BCS $3325
32E5  A2 10     LDX #$10

; ==== sub_32E7 (1 caller) ====
32E7  A9 F1     LDA #$F1
32E9  4C 07 37  JMP $3707
32EC  E0 0F     CPX #$0F
32EE  D0 1C     BNE $330C
32F0  20 BB 8D  JSR $8DBB
32F3  C9 C8     CMP #$C8
32F5  90 2E     BCC $3325
32F7  A2 00     LDX #$00
32F9  86 29     STX $29
32FB  A2 24     LDX #$24
32FD  86 2D     STX $2D
32FF  29 03     AND #$03
3301  69 11     ADC #$11
3303  AA        TAX
3304  20 E7 32  JSR $32E7
3307  A9 00     LDA #$00
3309  85 29     STA $29
330B  60        RTS
330C  A0 0E     LDY #$0E
330E  A5 2C     LDA $2C
3310  D1 57     CMP ($57),Y
3312  B0 02     BCS $3316
3314  E6 2C     INC $2C
3316  E0 1E     CPX #$1E
3318  D0 0C     BNE $3326
331A  AD 7A 04  LDA $047A
331D  D0 07     BNE $3326
331F  46 29     LSR $29
3321  06 29     ASL $29
3323  46 24     LSR $24
3325  60        RTS
3326  20 BB 8D  JSR $8DBB
3329  A5 2D     LDA $2D
332B  4A        LSR A
332C  90 04     BCC $3332
332E  E0 32     CPX #$32
3330  B0 F3     BCS $3325
3332  4A        LSR A
3333  90 0F     BCC $3344
3335  AE CD 04  LDX $04CD
3338  E0 28     CPX #$28
333A  90 08     BCC $3344
333C  A5 2D     LDA $2D
333E  09 04     ORA #$04
3340  85 2D     STA $2D
3342  4A        LSR A
3343  4A        LSR A
3344  4A        LSR A
3345  B0 0D     BCS $3354
3347  4A        LSR A
3348  4A        LSR A
3349  90 03     BCC $334E
334B  4C B9 34  JMP $34B9
334E  20 71 95  JSR $9571
3351  4C A9 34  JMP $34A9
3354  4A        LSR A
3355  90 0B     BCC $3362
3357  AD 5F 04  LDA $045F
335A  F0 06     BEQ $3362
335C  A5 29     LDA $29
335E  29 81     AND #$81
3360  85 29     STA $29
3362  A2 08     LDX #$08
3364  B5 09     LDA $09,X
3366  95 35     STA $35,X
3368  CA        DEX
3369  10 F9     BPL $3364
336B  20 80 95  JSR $9580
336E  A0 0A     LDY #$0A
3370  20 AF 3A  JSR $3AAF
3373  85 AA     STA $AA
3375  A5 A5     LDA $A5
3377  C9 01     CMP #$01
3379  D0 03     BNE $337E
337B  4C 48 34  JMP $3448
337E  C9 0E     CMP #$0E
3380  D0 15     BNE $3397
3382  20 BB 8D  JSR $8DBB
3385  C9 C8     CMP #$C8
3387  90 0E     BCC $3397
3389  20 BB 8D  JSR $8DBB
338C  A2 17     LDX #$17
338E  C9 64     CMP #$64
3390  B0 02     BCS $3394
3392  A2 11     LDX #$11
3394  4C E7 32  JMP $32E7
3397  20 BB 8D  JSR $8DBB
339A  C9 FA     CMP #$FA
339C  90 07     BCC $33A5
339E  20 BB 8D  JSR $8DBB
33A1  09 68     ORA #$68
33A3  85 26     STA $26
33A5  A0 0E     LDY #$0E
33A7  B1 57     LDA ($57),Y
33A9  4A        LSR A
33AA  C5 2C     CMP $2C
33AC  90 4C     BCC $33FA
33AE  4A        LSR A
33AF  4A        LSR A
33B0  C5 2C     CMP $2C
33B2  90 1F     BCC $33D3
33B4  20 BB 8D  JSR $8DBB
33B7  C9 E6     CMP #$E6
33B9  90 18     BCC $33D3
33BB  A6 A5     LDX $A5
33BD  BD 41 D0  LDA $D041,X
33C0  10 11     BPL $33D3
33C2  A5 2D     LDA $2D
33C4  29 F0     AND #$F0
33C6  85 2D     STA $2D
33C8  A0 24     LDY #$24
33CA  91 59     STA ($59),Y
33CC  A9 00     LDA #$00
33CE  85 29     STA $29
33D0  4C 03 37  JMP $3703
33D3  A5 28     LDA $28
33D5  29 07     AND #$07
33D7  F0 21     BEQ $33FA
33D9  85 BB     STA $BB
33DB  20 BB 8D  JSR $8DBB
33DE  29 1F     AND #$1F
33E0  C5 BB     CMP $BB
33E2  B0 16     BCS $33FA
33E4  A5 67     LDA $67
33E6  D0 12     BNE $33FA
33E8  C6 28     DEC $28
33EA  A5 A5     LDA $A5
33EC  C9 1D     CMP #$1D
33EE  D0 07     BNE $33F7
33F0  A2 1E     LDX #$1E
33F2  A5 29     LDA $29
33F4  4C 07 37  JMP $3707
33F7  4C 95 B0  JMP $B095
33FA  A9 00     LDA #$00
33FC  20 BD 90  JSR $90BD
33FF  29 E0     AND #$E0
3401  D0 2E     BNE $3431
3403  A6 AA     LDX $AA
3405  E0 A0     CPX #$A0
3407  90 28     BCC $3431
3409  A0 13     LDY #$13
340B  B1 57     LDA ($57),Y
340D  29 F8     AND #$F8
340F  F0 20     BEQ $3431
3411  A5 28     LDA $28
3413  09 40     ORA #$40
3415  85 28     STA $28
3417  E0 A3     CPX #$A3
3419  90 16     BCC $3431
341B  B1 57     LDA ($57),Y
341D  4A        LSR A
341E  20 C2 84  JSR $84C2
3421  C6 25     DEC $25
3423  A5 67     LDA $67
3425  D0 6F     BNE $3496
3427  A0 01     LDY #$01
3429  20 58 B1  JSR $B158
342C  A0 0F     LDY #$0F
342E  4C 58 B1  JMP $B158
3431  A5 10     LDA $10
3433  C9 03     CMP #$03
3435  B0 08     BCS $343F
3437  A5 0A     LDA $0A
3439  05 0D     ORA $0D
343B  29 FE     AND #$FE
343D  F0 12     BEQ $3451
343F  20 BB 8D  JSR $8DBB
3442  09 80     ORA #$80
3444  C5 29     CMP $29
3446  B0 09     BCS $3451
3448  20 D2 35  JSR $35D2
344B  A5 AA     LDA $AA
344D  49 80     EOR #$80
344F  85 AA     STA $AA
3451  A0 10     LDY #$10
3453  20 AF 3A  JSR $3AAF
3456  AA        TAX
3457  49 80     EOR #$80
3459  29 80     AND #$80
345B  85 27     STA $27
345D  8A        TXA
345E  0A        ASL A
345F  C5 B1     CMP $B1
3461  90 06     BCC $3469
3463  A5 B0     LDA $B0
3465  05 27     ORA $27
3467  85 27     STA $27
3469  A5 26     LDA $26
346B  0A        ASL A
346C  C9 20     CMP #$20
346E  B0 1A     BCS $348A
3470  A0 16     LDY #$16
3472  20 AF 3A  JSR $3AAF
3475  AA        TAX
3476  45 27     EOR $27
3478  29 80     AND #$80
347A  49 80     EOR #$80
347C  85 26     STA $26
347E  8A        TXA
347F  0A        ASL A
3480  C5 B1     CMP $B1
3482  90 06     BCC $348A
3484  A5 B0     LDA $B0
3486  05 26     ORA $26
3488  85 26     STA $26
348A  A5 AA     LDA $AA
348C  30 09     BMI $3497
348E  C5 AB     CMP $AB
3490  90 05     BCC $3497
3492  A9 03     LDA #$03
3494  85 25     STA $25
3496  60        RTS
3497  29 7F     AND #$7F
3499  C9 12     CMP #$12
349B  90 0B     BCC $34A8
349D  A9 FF     LDA #$FF
349F  A6 A5     LDX $A5
34A1  E0 01     CPX #$01
34A3  D0 01     BNE $34A6
34A5  0A        ASL A
34A6  85 25     STA $25
34A8  60        RTS

; ==== sub_34A9 (1 caller) ====
34A9  A0 0A     LDY #$0A
34AB  20 AF 3A  JSR $3AAF
34AE  C9 98     CMP #$98
34B0  90 04     BCC $34B6
34B2  A2 00     LDX #$00
34B4  86 B1     STX $B1
34B6  4C 4F 34  JMP $344F

; ==== sub_34B9 (1 caller) ====
34B9  A9 06     LDA #$06
34BB  85 B1     STA $B1
34BD  4A        LSR A
34BE  85 B0     STA $B0
34C0  A9 1D     LDA #$1D
34C2  85 AB     STA $AB
34C4  AD 5F 04  LDA $045F
34C7  D0 03     BNE $34CC
34C9  4C 4E 33  JMP $334E
34CC  20 78 35  JSR $3578
34CF  A5 37     LDA $37
34D1  05 3A     ORA $3A
34D3  05 3D     ORA $3D
34D5  29 7F     AND #$7F
34D7  D0 F0     BNE $34C9
34D9  20 A3 95  JSR $95A3
34DC  A5 9A     LDA $9A
34DE  85 77     STA $77
34E0  20 80 95  JSR $9580
34E3  A0 0A     LDY #$0A
34E5  20 B0 35  JSR $35B0
34E8  30 25     BMI $350F
34EA  C9 23     CMP #$23
34EC  90 21     BCC $350F
34EE  A0 0A     LDY #$0A
34F0  20 AF 3A  JSR $3AAF
34F3  C9 A2     CMP #$A2
34F5  B0 32     BCS $3529
34F7  A5 77     LDA $77
34F9  C9 9D     CMP #$9D
34FB  90 04     BCC $3501
34FD  A5 A5     LDA $A5
34FF  30 28     BMI $3529
3501  20 D2 35  JSR $35D2
3504  20 A9 34  JSR $34A9

; ==== sub_3507 (1 caller) ====
3507  A2 00     LDX #$00
3509  86 25     STX $25
350B  E8        INX
350C  86 24     STX $24
350E  60        RTS
350F  20 78 35  JSR $3578
3512  20 E5 35  JSR $35E5
3515  20 E5 35  JSR $35E5
3518  20 80 95  JSR $9580
351B  20 D2 35  JSR $35D2
351E  4C A9 34  JMP $34A9
3521  E6 25     INC $25
3523  A9 7F     LDA #$7F
3525  85 26     STA $26
3527  D0 45     BNE $356E
3529  A2 00     LDX #$00
352B  86 B1     STX $B1
352D  86 27     STX $27
352F  A5 A5     LDA $A5
3531  10 20     BPL $3553
3533  45 6B     EOR $6B
3535  45 6C     EOR $6C
3537  0A        ASL A
3538  A9 02     LDA #$02
353A  6A        ROR A
353B  85 26     STA $26
353D  A5 6B     LDA $6B
353F  0A        ASL A
3540  C9 0C     CMP #$0C
3542  B0 C3     BCS $3507
3544  A5 6C     LDA $6C
3546  0A        ASL A
3547  A9 02     LDA #$02
3549  6A        ROR A
354A  85 27     STA $27
354C  A5 6C     LDA $6C
354E  0A        ASL A
354F  C9 0C     CMP #$0C
3551  B0 B4     BCS $3507
3553  86 26     STX $26
3555  A5 1F     LDA $1F
3557  85 6B     STA $6B
3559  A5 21     LDA $21
355B  85 6C     STA $6C
355D  A5 23     LDA $23
355F  85 6D     STA $6D
3561  A0 10     LDY #$10
3563  20 B0 35  JSR $35B0
3566  0A        ASL A
3567  C9 42     CMP #$42
3569  B0 B6     BCS $3521
356B  20 07 35  JSR $3507
356E  A5 3F     LDA $3F
3570  D0 05     BNE $3577
3572  06 2D     ASL $2D
3574  38        SEC
3575  66 2D     ROR $2D
3577  60        RTS

; ==== sub_3578 (2 callers) ====
3578  A9 25     LDA #$25
357A  85 5B     STA $5B
357C  A9 F0     LDA #$F0

; ==== sub_357E (1 caller) ====
357E  85 5C     STA $5C
3580  A0 02     LDY #$02
3582  20 8C 35  JSR $358C
3585  A0 05     LDY #$05
3587  20 8C 35  JSR $358C
358A  A0 08     LDY #$08

; ==== sub_358C (2 callers) ====
358C  B1 5B     LDA ($5B),Y
358E  49 80     EOR #$80
3590  85 7A     STA $7A
3592  88        DEY
3593  B1 5B     LDA ($5B),Y
3595  85 79     STA $79
3597  88        DEY
3598  B1 5B     LDA ($5B),Y
359A  85 78     STA $78
359C  84 99     STY $99
359E  A6 99     LDX $99
35A0  20 66 2D  JSR $2D66
35A3  A4 99     LDY $99
35A5  95 37     STA $37,X
35A7  A5 79     LDA $79
35A9  95 36     STA $36,X
35AB  A5 78     LDA $78
35AD  95 35     STA $35,X
35AF  60        RTS

; ==== sub_35B0 (2 callers) ====
35B0  BE 25 F0  LDX $F025,Y
35B3  86 9A     STX $9A
35B5  A5 6B     LDA $6B
35B7  20 A5 3A  JSR $3AA5
35BA  BE 27 F0  LDX $F027,Y
35BD  86 9A     STX $9A
35BF  A5 6C     LDA $6C
35C1  20 CB 3A  JSR $3ACB
35C4  85 9C     STA $9C
35C6  86 9B     STX $9B
35C8  BE 29 F0  LDX $F029,Y
35CB  86 9A     STX $9A
35CD  A5 6D     LDA $6D
35CF  4C CB 3A  JMP $3ACB

; ==== sub_35D2 (3 callers) ====
35D2  A5 6B     LDA $6B
35D4  49 80     EOR #$80
35D6  85 6B     STA $6B
35D8  A5 6C     LDA $6C
35DA  49 80     EOR #$80
35DC  85 6C     STA $6C
35DE  A5 6D     LDA $6D
35E0  49 80     EOR #$80
35E2  85 6D     STA $6D
35E4  60        RTS

; ==== sub_35E5 (2 callers) ====
35E5  20 E8 35  JSR $35E8

; ==== sub_35E8 (1 caller) ====
35E8  AD 2F F0  LDA $F02F
35EB  A2 00     LDX #$00
35ED  20 FD 35  JSR $35FD
35F0  AD 31 F0  LDA $F031
35F3  A2 03     LDX #$03
35F5  20 FD 35  JSR $35FD
35F8  AD 33 F0  LDA $F033
35FB  A2 06     LDX #$06

; ==== sub_35FD (2 callers) ====
35FD  0A        ASL A
35FE  85 9B     STA $9B
3600  A9 00     LDA #$00
3602  6A        ROR A
3603  49 80     EOR #$80
3605  55 37     EOR $37,X
3607  30 0B     BMI $3614
3609  A5 9B     LDA $9B
360B  75 35     ADC $35,X
360D  95 35     STA $35,X
360F  90 02     BCC $3613
3611  F6 36     INC $36,X
3613  60        RTS
3614  B5 35     LDA $35,X
3616  38        SEC
3617  E5 9B     SBC $9B
3619  95 35     STA $35,X
361B  B5 36     LDA $36,X
361D  E9 00     SBC #$00
361F  95 36     STA $36,X
3621  B0 F0     BCS $3613
3623  B5 35     LDA $35,X
3625  49 FF     EOR #$FF
3627  69 01     ADC #$01
3629  95 35     STA $35,X
362B  B5 36     LDA $36,X
362D  49 FF     EOR #$FF
362F  69 00     ADC #$00
3631  95 36     STA $36,X
3633  B5 37     LDA $37,X
3635  49 80     EOR #$80
3637  95 37     STA $37,X
3639  4C 13 36  JMP $3613

; ==== sub_363C (1 caller) ====
363C  18        CLC
363D  A5 11     LDA $11
363F  D0 39     BNE $367A
3641  A5 A5     LDA $A5
3643  30 35     BMI $367A
3645  A5 28     LDA $28
3647  29 20     AND #$20
3649  05 0A     ORA $0A
364B  05 0D     ORA $0D
364D  D0 2B     BNE $367A
364F  A5 09     LDA $09
3651  20 85 39  JSR $3985
3654  85 9C     STA $9C
3656  A5 2E     LDA $2E
3658  85 9B     STA $9B
365A  A5 0C     LDA $0C
365C  20 85 39  JSR $3985
365F  AA        TAX
3660  A5 2E     LDA $2E
3662  65 9B     ADC $9B
3664  85 9B     STA $9B
3666  8A        TXA
3667  65 9C     ADC $9C
3669  B0 10     BCS $367B
366B  85 9C     STA $9C
366D  A0 02     LDY #$02
366F  B1 57     LDA ($57),Y
3671  C5 9C     CMP $9C
3673  D0 05     BNE $367A
3675  88        DEY
3676  B1 57     LDA ($57),Y
3678  C5 9B     CMP $9B
367A  60        RTS
367B  18        CLC
367C  60        RTS

; ==== sub_367D (3 callers) ====
367D  20 53 8D  JSR $8D53
3680  A9 1C     LDA #$1C
3682  85 0C     STA $0C
3684  4A        LSR A
3685  85 0F     STA $0F
3687  A9 80     LDA #$80
3689  85 0E     STA $0E
368B  A5 7C     LDA $7C
368D  0A        ASL A
368E  09 80     ORA #$80
3690  85 29     STA $29

; ==== sub_3692 (1 caller) ====
3692  A9 60     LDA #$60
3694  85 17     STA $17
3696  09 80     ORA #$80
3698  85 1F     STA $1F
369A  A5 96     LDA $96
369C  2A        ROL A
369D  85 24     STA $24
369F  8A        TXA
36A0  4C 5B 85  JMP $855B

; ==== sub_36A3 (1 caller) ====
36A3  A2 01     LDX #$01
36A5  20 7D 36  JSR $367D
36A8  90 54     BCC $36FE
36AA  A6 7C     LDX $7C
36AC  20 84 3E  JSR $3E84
36AF  BD 52 04  LDA $0452,X
36B2  20 C2 36  JSR $36C2
36B5  A0 B7     LDY #$B7
36B7  20 FC 85  JSR $85FC
36BA  CE CC 04  DEC $04CC
36BD  A0 04     LDY #$04
36BF  4C 58 B1  JMP $B158

; ==== sub_36C2 (2 callers) ====
36C2  C9 02     CMP #$02
36C4  F0 2F     BEQ $36F5
36C6  A0 24     LDY #$24
36C8  B1 59     LDA ($59),Y
36CA  29 20     AND #$20
36CC  F0 03     BEQ $36D1
36CE  20 F5 36  JSR $36F5
36D1  A0 20     LDY #$20
36D3  B1 59     LDA ($59),Y
36D5  F0 A3     BEQ $367A
36D7  09 80     ORA #$80
36D9  91 59     STA ($59),Y
36DB  A0 1C     LDY #$1C
36DD  A9 02     LDA #$02
36DF  91 59     STA ($59),Y
36E1  0A        ASL A
36E2  A0 1E     LDY #$1E
36E4  91 59     STA ($59),Y
36E6  A5 A5     LDA $A5
36E8  C9 0B     CMP #$0B
36EA  90 08     BCC $36F4
36EC  A0 24     LDY #$24
36EE  B1 59     LDA ($59),Y
36F0  09 04     ORA #$04
36F2  91 59     STA ($59),Y
36F4  60        RTS

; ==== sub_36F5 (1 caller) ====
36F5  AD 49 F0  LDA $F049
36F8  09 04     ORA #$04
36FA  8D 49 F0  STA $F049
36FD  60        RTS
36FE  A9 C9     LDA #$C9
3700  4C 05 99  JMP $9905
3703  A2 03     LDX #$03

; ==== sub_3705 (1 caller) ====
3705  A9 FE     LDA #$FE

; ==== sub_3707 (1 caller) ====
3707  85 06     STA $06
3709  8A        TXA
370A  48        PHA
370B  A5 57     LDA $57
370D  48        PHA
370E  A5 58     LDA $58
3710  48        PHA
3711  A5 59     LDA $59
3713  48        PHA
3714  A5 5A     LDA $5A
3716  48        PHA
3717  A0 24     LDY #$24
3719  B9 09 00  LDA $0009,Y
371C  99 00 01  STA $0100,Y
371F  B1 59     LDA ($59),Y
3721  99 09 00  STA $0009,Y
3724  88        DEY
3725  10 F2     BPL $3719
3727  A5 A5     LDA $A5
3729  C9 02     CMP #$02
372B  D0 1D     BNE $374A
372D  8A        TXA
372E  48        PHA
372F  A9 20     LDA #$20
3731  85 24     STA $24
3733  A2 00     LDX #$00
3735  A5 13     LDA $13
3737  20 89 37  JSR $3789
373A  A2 03     LDX #$03
373C  A5 15     LDA $15
373E  20 89 37  JSR $3789
3741  A2 06     LDX #$06
3743  A5 17     LDA $17
3745  20 89 37  JSR $3789
3748  68        PLA
3749  AA        TAX
374A  A5 06     LDA $06
374C  85 29     STA $29
374E  46 26     LSR $26
3750  06 26     ASL $26
3752  8A        TXA
3753  C9 09     CMP #$09
3755  B0 16     BCS $376D
3757  C9 04     CMP #$04
3759  90 12     BCC $376D
375B  48        PHA
375C  20 BB 8D  JSR $8DBB
375F  0A        ASL A
3760  85 27     STA $27
3762  8A        TXA
3763  29 0F     AND #$0F
3765  85 24     STA $24
3767  A9 FF     LDA #$FF
3769  6A        ROR A
376A  85 26     STA $26
376C  68        PLA
376D  20 5B 85  JSR $855B
3770  68        PLA
3771  85 5A     STA $5A
3773  68        PLA
3774  85 59     STA $59
3776  A2 24     LDX #$24
3778  BD 00 01  LDA $0100,X
377B  95 09     STA $09,X
377D  CA        DEX
377E  10 F8     BPL $3778
3780  68        PLA
3781  85 58     STA $58
3783  68        PLA
3784  85 57     STA $57
3786  68        PLA
3787  AA        TAX
3788  60        RTS

; ==== sub_3789 (3 callers) ====
3789  0A        ASL A
378A  85 9B     STA $9B
378C  A9 00     LDA #$00
378E  6A        ROR A
378F  4C 4C AD  JMP $AD4C

; ==== sub_3792 (2 callers) ====
3792  20 39 B1  JSR $B139
3795  A9 04     LDA #$04
3797  20 A2 37  JSR $37A2
379A  60        RTS

; ==== sub_379B (2 callers) ====
379B  A0 04     LDY #$04
379D  20 58 B1  JSR $B158
37A0  A9 08     LDA #$08

; ==== sub_37A2 (1 caller) ====
37A2  85 AC     STA $AC
37A4  A5 A0     LDA $A0
37A6  48        PHA
37A7  A9 00     LDA #$00
37A9  20 2F B0  JSR $B02F
37AC  68        PLA
37AD  85 A0     STA $A0

; ==== sub_37AF (1 caller) ====
37AF  A2 80     LDX #$80
37B1  86 35     STX $35
37B3  A2 48     LDX #$48
37B5  86 43     STX $43
37B7  A2 00     LDX #$00
37B9  86 AD     STX $AD
37BB  86 36     STX $36
37BD  86 44     STX $44
37BF  20 CB 37  JSR $37CB
37C2  E6 AD     INC $AD
37C4  A6 AD     LDX $AD
37C6  E0 08     CPX #$08
37C8  D0 F5     BNE $37BF
37CA  60        RTS

; ==== sub_37CB (1 caller) ====
37CB  A5 AD     LDA $AD
37CD  29 07     AND #$07
37CF  18        CLC
37D0  69 08     ADC #$08
37D2  85 77     STA $77
37D4  A9 01     LDA #$01
37D6  85 7E     STA $7E
37D8  20 4E 89  JSR $894E
37DB  06 77     ASL $77
37DD  B0 06     BCS $37E5
37DF  A5 77     LDA $77
37E1  C9 A0     CMP #$A0
37E3  90 EF     BCC $37D4
37E5  60        RTS
37E6  A9 00     LDA #$00
37E8  E0 02     CPX #$02
37EA  6A        ROR A
37EB  85 B0     STA $B0
37ED  49 80     EOR #$80
37EF  85 B1     STA $B1
37F1  20 A0 38  JSR $38A0
37F4  AC 0B 05  LDY $050B
37F7  B9 D6 06  LDA $06D6,Y
37FA  85 A1     STA $A1
37FC  4A        LSR A
37FD  4A        LSR A
37FE  4A        LSR A
37FF  20 30 3B  JSR $3B30
3802  A5 2E     LDA $2E
3804  85 BA     STA $BA
3806  45 B1     EOR $B1
3808  85 9C     STA $9C
380A  B9 AF 06  LDA $06AF,Y
380D  85 2E     STA $2E
380F  B9 A2 06  LDA $06A2,Y
3812  85 6B     STA $6B
3814  20 CE 3A  JSR $3ACE
3817  85 9C     STA $9C
3819  86 9B     STX $9B
381B  B9 BC 06  LDA $06BC,Y
381E  85 6C     STA $6C
3820  45 94     EOR $94
3822  A6 64     LDX $64
3824  20 3B 39  JSR $393B
3827  20 CE 3A  JSR $3ACE
382A  86 5D     STX $5D
382C  85 5E     STA $5E
382E  BE C9 06  LDX $06C9,Y
3831  86 9B     STX $9B
3833  A6 6C     LDX $6C
3835  86 9C     STX $9C
3837  A6 64     LDX $64
3839  45 95     EOR $95
383B  20 3B 39  JSR $393B
383E  20 CE 3A  JSR $3ACE
3841  86 5F     STX $5F
3843  85 60     STA $60
3845  A6 68     LDX $68
3847  45 69     EOR $69
3849  20 3B 39  JSR $393B
384C  85 9A     STA $9A
384E  A5 5D     LDA $5D
3850  85 9B     STA $9B
3852  A5 5E     LDA $5E
3854  85 9C     STA $9C
3856  49 80     EOR #$80
3858  20 CB 3A  JSR $3ACB
385B  85 5E     STA $5E
385D  8A        TXA
385E  99 AF 06  STA $06AF,Y
3861  A5 5F     LDA $5F
3863  85 9B     STA $9B
3865  A5 60     LDA $60
3867  85 9C     STA $9C
3869  20 CB 3A  JSR $3ACB
386C  85 9C     STA $9C
386E  86 9B     STX $9B
3870  A9 00     LDA #$00
3872  85 2E     STA $2E
3874  A5 A6     LDA $A6
3876  20 0C 29  JSR $290C
3879  A5 5E     LDA $5E
387B  99 A2 06  STA $06A2,Y
387E  85 6B     STA $6B
3880  29 7F     AND #$7F
3882  49 7F     EOR #$7F
3884  C5 BA     CMP $BA
3886  90 33     BCC $38BB
3888  F0 31     BEQ $38BB
388A  A5 60     LDA $60
388C  99 BC 06  STA $06BC,Y
388F  85 6C     STA $6C
3891  29 7F     AND #$7F
3893  C9 74     CMP #$74
3895  B0 37     BCS $38CE
3897  20 15 29  JSR $2915
389A  88        DEY
389B  F0 03     BEQ $38A0
389D  4C F7 37  JMP $37F7

; ==== sub_38A0 (1 caller) ====
38A0  A5 A6     LDA $A6
38A2  45 B0     EOR $B0
38A4  85 A6     STA $A6
38A6  A5 69     LDA $69
38A8  45 B0     EOR $B0
38AA  85 69     STA $69
38AC  49 80     EOR #$80
38AE  85 6A     STA $6A
38B0  A5 94     LDA $94
38B2  45 B0     EOR $B0
38B4  85 94     STA $94
38B6  49 80     EOR #$80
38B8  85 95     STA $95
38BA  60        RTS
38BB  20 BB 8D  JSR $8DBB
38BE  85 6C     STA $6C
38C0  99 BC 06  STA $06BC,Y
38C3  A9 73     LDA #$73
38C5  05 B0     ORA $B0
38C7  85 6B     STA $6B
38C9  99 A2 06  STA $06A2,Y
38CC  D0 11     BNE $38DF
38CE  20 BB 8D  JSR $8DBB
38D1  85 6B     STA $6B
38D3  99 A2 06  STA $06A2,Y
38D6  A9 6E     LDA #$6E
38D8  05 6A     ORA $6A
38DA  85 6C     STA $6C
38DC  99 BC 06  STA $06BC,Y
38DF  20 BB 8D  JSR $8DBB
38E2  09 08     ORA #$08
38E4  85 A1     STA $A1
38E6  99 D6 06  STA $06D6,Y
38E9  D0 AC     BNE $3897
38EB  85 77     STA $77
38ED  85 78     STA $78
38EF  85 79     STA $79
38F1  85 7A     STA $7A
38F3  18        CLC
38F4  60        RTS

; ==== sub_38F5 (4 callers) ====
38F5  85 9B     STA $9B
38F7  29 7F     AND #$7F
38F9  85 79     STA $79
38FB  A5 9A     LDA $9A
38FD  29 7F     AND #$7F
38FF  F0 EA     BEQ $38EB
3901  38        SEC
3902  E9 01     SBC #$01
3904  85 BB     STA $BB
3906  A5 2F     LDA $2F
3908  46 79     LSR $79
390A  6A        ROR A
390B  85 78     STA $78
390D  A5 2E     LDA $2E
390F  6A        ROR A
3910  85 77     STA $77
3912  A9 00     LDA #$00
3914  A2 18     LDX #$18
3916  90 02     BCC $391A
3918  65 BB     ADC $BB
391A  6A        ROR A
391B  66 79     ROR $79
391D  66 78     ROR $78
391F  66 77     ROR $77
3921  CA        DEX
3922  D0 F2     BNE $3916
3924  85 BB     STA $BB
3926  A5 9B     LDA $9B
3928  45 9A     EOR $9A
392A  29 80     AND #$80
392C  05 BB     ORA $BB
392E  85 7A     STA $7A
3930  60        RTS

; ==== sub_3931 (2 callers) ====
3931  A6 5D     LDX $5D
3933  86 9B     STX $9B
3935  A6 5E     LDX $5E
3937  86 9C     STX $9C

; ==== sub_3939 (2 callers) ====
3939  A6 68     LDX $68

; ==== sub_393B (5 callers) ====
393B  86 2E     STX $2E
393D  AA        TAX
393E  29 80     AND #$80
3940  85 BB     STA $BB
3942  8A        TXA
3943  29 7F     AND #$7F
3945  F0 37     BEQ $397E
3947  AA        TAX
3948  CA        DEX
3949  86 06     STX $06
394B  A9 00     LDA #$00
394D  46 2E     LSR $2E
394F  90 02     BCC $3953
3951  65 06     ADC $06
3953  6A        ROR A
3954  66 2E     ROR $2E
3956  90 02     BCC $395A
3958  65 06     ADC $06
395A  6A        ROR A
395B  66 2E     ROR $2E
395D  90 02     BCC $3961
395F  65 06     ADC $06
3961  6A        ROR A
3962  66 2E     ROR $2E
3964  90 02     BCC $3968
3966  65 06     ADC $06
3968  6A        ROR A
3969  66 2E     ROR $2E
396B  90 02     BCC $396F
396D  65 06     ADC $06
396F  6A        ROR A
3970  66 2E     ROR $2E
3972  4A        LSR A
3973  66 2E     ROR $2E
3975  4A        LSR A
3976  66 2E     ROR $2E
3978  4A        LSR A
3979  66 2E     ROR $2E
397B  05 BB     ORA $BB
397D  60        RTS
397E  85 2F     STA $2F
3980  85 2E     STA $2E
3982  60        RTS

; ==== sub_3983 (3 callers) ====
3983  29 7F     AND #$7F

; ==== sub_3985 (9 callers) ====
3985  85 2E     STA $2E
3987  AA        TAX
3988  D0 12     BNE $399C
398A  18        CLC
398B  86 2E     STX $2E
398D  8A        TXA
398E  60        RTS

; ==== sub_398F (2 callers) ====
398F  B9 BC 06  LDA $06BC,Y
3992  85 6C     STA $6C

; ==== sub_3994 (2 callers) ====
3994  29 7F     AND #$7F
3996  85 2E     STA $2E

; ==== sub_3998 (4 callers) ====
3998  A6 9A     LDX $9A
399A  F0 EE     BEQ $398A
399C  CA        DEX
399D  86 BB     STX $BB
399F  A9 00     LDA #$00
39A1  AA        TAX
39A2  46 2E     LSR $2E
39A4  90 02     BCC $39A8
39A6  65 BB     ADC $BB
39A8  6A        ROR A
39A9  66 2E     ROR $2E
39AB  90 02     BCC $39AF
39AD  65 BB     ADC $BB
39AF  6A        ROR A
39B0  66 2E     ROR $2E
39B2  90 02     BCC $39B6
39B4  65 BB     ADC $BB
39B6  6A        ROR A
39B7  66 2E     ROR $2E
39B9  90 02     BCC $39BD
39BB  65 BB     ADC $BB
39BD  6A        ROR A
39BE  66 2E     ROR $2E
39C0  90 02     BCC $39C4
39C2  65 BB     ADC $BB
39C4  6A        ROR A
39C5  66 2E     ROR $2E
39C7  90 02     BCC $39CB
39C9  65 BB     ADC $BB
39CB  6A        ROR A
39CC  66 2E     ROR $2E
39CE  90 02     BCC $39D2
39D0  65 BB     ADC $BB
39D2  6A        ROR A
39D3  66 2E     ROR $2E
39D5  90 02     BCC $39D9
39D7  65 BB     ADC $BB
39D9  6A        ROR A
39DA  66 2E     ROR $2E
39DC  60        RTS

; ==== sub_39DD (2 callers) ====
39DD  29 1F     AND #$1F
39DF  AA        TAX
39E0  BD C0 0A  LDA $0AC0,X
39E3  85 9A     STA $9A
39E5  A5 77     LDA $77

; ==== sub_39E7 (15 callers) ====
39E7  86 2E     STX $2E
39E9  85 B6     STA $B6
39EB  AA        TAX
39EC  F0 2C     BEQ $3A1A
39EE  BD 00 9D  LDA $9D00,X
39F1  A6 9A     LDX $9A
39F3  F0 28     BEQ $3A1D
39F5  18        CLC
39F6  7D 00 9D  ADC $9D00,X
39F9  30 11     BMI $3A0C
39FB  BD 00 9C  LDA $9C00,X
39FE  A6 B6     LDX $B6
3A00  7D 00 9C  ADC $9C00,X
3A03  90 18     BCC $3A1D
3A05  AA        TAX
3A06  BD 00 9E  LDA $9E00,X
3A09  A6 2E     LDX $2E
3A0B  60        RTS
3A0C  BD 00 9C  LDA $9C00,X
3A0F  A6 B6     LDX $B6
3A11  7D 00 9C  ADC $9C00,X
3A14  90 07     BCC $3A1D
3A16  AA        TAX
3A17  BD 00 9F  LDA $9F00,X
3A1A  A6 2E     LDX $2E
3A1C  60        RTS
3A1D  A9 00     LDA #$00
3A1F  A6 2E     LDX $2E
3A21  60        RTS

; ==== sub_3A22 (3 callers) ====
3A22  86 9A     STX $9A

; ==== sub_3A24 (1 caller) ====
3A24  49 FF     EOR #$FF
3A26  4A        LSR A
3A27  85 2F     STA $2F
3A29  A9 00     LDA #$00
3A2B  A2 10     LDX #$10
3A2D  66 2E     ROR $2E
3A2F  B0 0B     BCS $3A3C
3A31  65 9A     ADC $9A
3A33  6A        ROR A
3A34  66 2F     ROR $2F
3A36  66 2E     ROR $2E
3A38  CA        DEX
3A39  D0 F4     BNE $3A2F
3A3B  60        RTS
3A3C  4A        LSR A
3A3D  66 2F     ROR $2F
3A3F  66 2E     ROR $2E
3A41  CA        DEX
3A42  D0 EB     BNE $3A2F
3A44  60        RTS
3A45  .byte A6 68 86 2E                                     ; .h..

; ==== sub_3A49 (1 caller) ====
3A49  A6 5E     LDX $5E
3A4B  86 9C     STX $9C

; ==== sub_3A4D (1 caller) ====
3A4D  A6 5D     LDX $5D
3A4F  86 9B     STX $9B

; ==== sub_3A51 (2 callers) ====
3A51  AA        TAX
3A52  29 7F     AND #$7F
3A54  4A        LSR A
3A55  85 2E     STA $2E
3A57  8A        TXA
3A58  45 9A     EOR $9A
3A5A  29 80     AND #$80
3A5C  85 BB     STA $BB
3A5E  A5 9A     LDA $9A
3A60  29 7F     AND #$7F
3A62  F0 3E     BEQ $3AA2
3A64  AA        TAX
3A65  CA        DEX
3A66  86 06     STX $06
3A68  A9 00     LDA #$00
3A6A  AA        TAX
3A6B  90 02     BCC $3A6F
3A6D  65 06     ADC $06
3A6F  6A        ROR A
3A70  66 2E     ROR $2E
3A72  90 02     BCC $3A76
3A74  65 06     ADC $06
3A76  6A        ROR A
3A77  66 2E     ROR $2E
3A79  90 02     BCC $3A7D
3A7B  65 06     ADC $06
3A7D  6A        ROR A
3A7E  66 2E     ROR $2E
3A80  90 02     BCC $3A84
3A82  65 06     ADC $06
3A84  6A        ROR A
3A85  66 2E     ROR $2E
3A87  90 02     BCC $3A8B
3A89  65 06     ADC $06
3A8B  6A        ROR A
3A8C  66 2E     ROR $2E
3A8E  90 02     BCC $3A92
3A90  65 06     ADC $06
3A92  6A        ROR A
3A93  66 2E     ROR $2E
3A95  90 02     BCC $3A99
3A97  65 06     ADC $06
3A99  6A        ROR A
3A9A  66 2E     ROR $2E
3A9C  4A        LSR A
3A9D  66 2E     ROR $2E
3A9F  05 BB     ORA $BB
3AA1  60        RTS
3AA2  85 2E     STA $2E
3AA4  60        RTS

; ==== sub_3AA5 (6 callers) ====
3AA5  20 51 3A  JSR $3A51
3AA8  85 9C     STA $9C
3AAA  A5 2E     LDA $2E
3AAC  85 9B     STA $9B
3AAE  60        RTS

; ==== sub_3AAF (5 callers) ====
3AAF  B6 09     LDX $09,Y
3AB1  86 9A     STX $9A
3AB3  A5 6B     LDA $6B
3AB5  20 A5 3A  JSR $3AA5
3AB8  B6 0B     LDX $0B,Y
3ABA  86 9A     STX $9A
3ABC  A5 6C     LDA $6C
3ABE  20 CB 3A  JSR $3ACB
3AC1  85 9C     STA $9C
3AC3  86 9B     STX $9B
3AC5  B6 0D     LDX $0D,Y
3AC7  86 9A     STX $9A
3AC9  A5 6D     LDA $6D

; ==== sub_3ACB (10 callers) ====
3ACB  20 51 3A  JSR $3A51

; ==== sub_3ACE (18 callers) ====
3ACE  85 06     STA $06
3AD0  29 80     AND #$80
3AD2  85 BB     STA $BB
3AD4  45 9C     EOR $9C
3AD6  30 0D     BMI $3AE5
3AD8  A5 9B     LDA $9B
3ADA  18        CLC
3ADB  65 2E     ADC $2E
3ADD  AA        TAX
3ADE  A5 9C     LDA $9C
3AE0  65 06     ADC $06
3AE2  05 BB     ORA $BB
3AE4  60        RTS
3AE5  A5 9C     LDA $9C
3AE7  29 7F     AND #$7F
3AE9  85 99     STA $99
3AEB  A5 2E     LDA $2E
3AED  38        SEC
3AEE  E5 9B     SBC $9B
3AF0  AA        TAX
3AF1  A5 06     LDA $06
3AF3  29 7F     AND #$7F
3AF5  E5 99     SBC $99
3AF7  B0 0E     BCS $3B07
3AF9  85 99     STA $99
3AFB  8A        TXA
3AFC  49 FF     EOR #$FF
3AFE  69 01     ADC #$01
3B00  AA        TAX
3B01  A9 00     LDA #$00
3B03  E5 99     SBC $99
3B05  09 80     ORA #$80
3B07  45 BB     EOR $BB
3B09  60        RTS

; ==== sub_3B0A (3 callers) ====
3B0A  86 9A     STX $9A
3B0C  49 80     EOR #$80
3B0E  20 CB 3A  JSR $3ACB
3B11  AA        TAX
3B12  29 80     AND #$80
3B14  85 BB     STA $BB
3B16  8A        TXA
3B17  29 7F     AND #$7F
3B19  A2 FE     LDX #$FE
3B1B  86 06     STX $06
3B1D  0A        ASL A
3B1E  C9 60     CMP #$60
3B20  90 02     BCC $3B24
3B22  E9 60     SBC #$60
3B24  26 06     ROL $06
3B26  B0 F5     BCS $3B1D
3B28  A5 06     LDA $06
3B2A  05 BB     ORA $BB
3B2C  60        RTS

; ==== sub_3B2D (2 callers) ====
3B2D  B9 D6 06  LDA $06D6,Y

; ==== sub_3B30 (1 caller) ====
3B30  85 9A     STA $9A
3B32  A5 96     LDA $96

; ==== sub_3B34 (2 callers) ====
3B34  0A        ASL A
3B35  85 2E     STA $2E
3B37  A9 00     LDA #$00
3B39  2A        ROL A
3B3A  C5 9A     CMP $9A
3B3C  90 02     BCC $3B40
3B3E  E5 9A     SBC $9A
3B40  26 2E     ROL $2E
3B42  2A        ROL A
3B43  C5 9A     CMP $9A
3B45  90 02     BCC $3B49
3B47  E5 9A     SBC $9A
3B49  26 2E     ROL $2E
3B4B  2A        ROL A
3B4C  C5 9A     CMP $9A
3B4E  90 02     BCC $3B52
3B50  E5 9A     SBC $9A
3B52  26 2E     ROL $2E
3B54  2A        ROL A
3B55  C5 9A     CMP $9A
3B57  90 02     BCC $3B5B
3B59  E5 9A     SBC $9A
3B5B  26 2E     ROL $2E
3B5D  2A        ROL A
3B5E  C5 9A     CMP $9A
3B60  90 02     BCC $3B64
3B62  E5 9A     SBC $9A
3B64  26 2E     ROL $2E
3B66  2A        ROL A
3B67  C5 9A     CMP $9A
3B69  90 02     BCC $3B6D
3B6B  E5 9A     SBC $9A
3B6D  26 2E     ROL $2E
3B6F  2A        ROL A
3B70  C5 9A     CMP $9A
3B72  90 02     BCC $3B76
3B74  E5 9A     SBC $9A
3B76  26 2E     ROL $2E
3B78  2A        ROL A
3B79  C5 9A     CMP $9A
3B7B  90 02     BCC $3B7F
3B7D  E5 9A     SBC $9A
3B7F  26 2E     ROL $2E
3B81  A2 00     LDX #$00
3B83  85 B6     STA $B6
3B85  AA        TAX
3B86  F0 1B     BEQ $3BA3
3B88  BD 00 9D  LDA $9D00,X
3B8B  A6 9A     LDX $9A
3B8D  38        SEC
3B8E  FD 00 9D  SBC $9D00,X
3B91  30 18     BMI $3BAB
3B93  A6 B6     LDX $B6
3B95  BD 00 9C  LDA $9C00,X
3B98  A6 9A     LDX $9A
3B9A  FD 00 9C  SBC $9C00,X
3B9D  B0 07     BCS $3BA6
3B9F  AA        TAX
3BA0  BD 00 9E  LDA $9E00,X
3BA3  85 9B     STA $9B
3BA5  60        RTS
3BA6  A9 FF     LDA #$FF
3BA8  85 9B     STA $9B
3BAA  60        RTS
3BAB  A6 B6     LDX $B6
3BAD  BD 00 9C  LDA $9C00,X
3BB0  A6 9A     LDX $9A
3BB2  FD 00 9C  SBC $9C00,X
3BB5  B0 EF     BCS $3BA6
3BB7  AA        TAX
3BB8  BD 00 9F  LDA $9F00,X
3BBB  85 9B     STA $9B
3BBD  60        RTS

; ==== sub_3BBE (3 callers) ====
3BBE  85 30     STA $30
3BC0  A5 0F     LDA $0F
3BC2  09 01     ORA #$01
3BC4  85 9A     STA $9A
3BC6  A5 10     LDA $10
3BC8  85 9B     STA $9B
3BCA  A5 11     LDA $11
3BCC  85 9C     STA $9C
3BCE  A5 2E     LDA $2E
3BD0  09 01     ORA #$01
3BD2  85 2E     STA $2E
3BD4  A5 30     LDA $30
3BD6  45 9C     EOR $9C
3BD8  29 80     AND #$80
3BDA  85 BB     STA $BB
3BDC  A0 00     LDY #$00
3BDE  A5 30     LDA $30
3BE0  29 7F     AND #$7F
3BE2  C9 40     CMP #$40
3BE4  B0 08     BCS $3BEE
3BE6  06 2E     ASL $2E
3BE8  26 2F     ROL $2F
3BEA  2A        ROL A
3BEB  C8        INY
3BEC  D0 F4     BNE $3BE2
3BEE  85 30     STA $30
3BF0  A5 9C     LDA $9C
3BF2  29 7F     AND #$7F
3BF4  88        DEY
3BF5  06 9A     ASL $9A
3BF7  26 9B     ROL $9B
3BF9  2A        ROL A
3BFA  10 F8     BPL $3BF4
3BFC  85 9A     STA $9A
3BFE  A9 FE     LDA #$FE
3C00  85 9B     STA $9B
3C02  A5 30     LDA $30
3C04  0A        ASL A
3C05  B0 0D     BCS $3C14
3C07  C5 9A     CMP $9A
3C09  90 02     BCC $3C0D
3C0B  E5 9A     SBC $9A
3C0D  26 9B     ROL $9B
3C0F  B0 F3     BCS $3C04
3C11  4C 1D 3C  JMP $3C1D
3C14  E5 9A     SBC $9A
3C16  38        SEC
3C17  26 9B     ROL $9B
3C19  B0 E9     BCS $3C04
3C1B  A5 9B     LDA $9B
3C1D  A9 00     LDA #$00
3C1F  85 78     STA $78
3C21  85 79     STA $79
3C23  85 7A     STA $7A
3C25  98        TYA
3C26  10 1E     BPL $3C46
3C28  A5 9B     LDA $9B
3C2A  0A        ASL A
3C2B  26 78     ROL $78
3C2D  26 79     ROL $79
3C2F  26 7A     ROL $7A
3C31  C8        INY
3C32  D0 F6     BNE $3C2A
3C34  85 77     STA $77
3C36  A5 7A     LDA $7A
3C38  05 BB     ORA $BB
3C3A  85 7A     STA $7A
3C3C  60        RTS
3C3D  A5 9B     LDA $9B
3C3F  85 77     STA $77
3C41  A5 BB     LDA $BB
3C43  85 7A     STA $7A
3C45  60        RTS
3C46  F0 F5     BEQ $3C3D
3C48  A5 9B     LDA $9B
3C4A  4A        LSR A
3C4B  88        DEY
3C4C  D0 FC     BNE $3C4A
3C4E  85 77     STA $77
3C50  A5 BB     LDA $BB
3C52  85 7A     STA $7A
3C54  60        RTS

; ==== sub_3C55 (3 callers) ====
3C55  AD 80 04  LDA $0480
3C58  D0 05     BNE $3C5F
3C5A  AD 06 1D  LDA $1D06
3C5D  D0 0C     BNE $3C6B
3C5F  8A        TXA
3C60  10 03     BPL $3C65
3C62  CA        DEX
3C63  30 06     BMI $3C6B
3C65  E8        INX
3C66  D0 03     BNE $3C6B
3C68  CA        DEX
3C69  F0 FA     BEQ $3C65
3C6B  60        RTS

; ==== sub_3C6C (2 callers) ====
3C6C  85 BB     STA $BB
3C6E  8A        TXA
3C6F  18        CLC
3C70  65 BB     ADC $BB
3C72  AA        TAX
3C73  90 02     BCC $3C77
3C75  A2 FF     LDX #$FF
3C77  10 10     BPL $3C89
3C79  A5 BB     LDA $BB
3C7B  60        RTS

; ==== sub_3C7C (2 callers) ====
3C7C  85 BB     STA $BB
3C7E  8A        TXA
3C7F  38        SEC
3C80  E5 BB     SBC $BB
3C82  AA        TAX
3C83  B0 02     BCS $3C87
3C85  A2 01     LDX #$01
3C87  10 F0     BPL $3C79
3C89  AD 07 1D  LDA $1D07
3C8C  D0 EB     BNE $3C79
3C8E  A2 80     LDX #$80
3C90  30 E7     BMI $3C79

; ==== sub_3C92 (1 caller) ====
3C92  A5 2E     LDA $2E
3C94  45 9A     EOR $9A
3C96  85 06     STA $06
3C98  A5 9A     LDA $9A
3C9A  F0 25     BEQ $3CC1
3C9C  0A        ASL A
3C9D  85 9A     STA $9A
3C9F  A5 2E     LDA $2E
3CA1  0A        ASL A
3CA2  C5 9A     CMP $9A
3CA4  B0 09     BCS $3CAF
3CA6  20 CB 3C  JSR $3CCB
3CA9  38        SEC
3CAA  A6 06     LDX $06
3CAC  30 16     BMI $3CC4
3CAE  60        RTS
3CAF  A6 9A     LDX $9A
3CB1  85 9A     STA $9A
3CB3  86 2E     STX $2E
3CB5  8A        TXA
3CB6  20 CB 3C  JSR $3CCB
3CB9  85 BB     STA $BB
3CBB  A9 40     LDA #$40
3CBD  E5 BB     SBC $BB
3CBF  B0 E9     BCS $3CAA
3CC1  A9 3F     LDA #$3F
3CC3  60        RTS
3CC4  85 BB     STA $BB
3CC6  A9 80     LDA #$80
3CC8  E5 BB     SBC $BB
3CCA  60        RTS

; ==== sub_3CCB (2 callers) ====
3CCB  20 AF A2  JSR $A2AF
3CCE  A5 9B     LDA $9B
3CD0  4A        LSR A
3CD1  4A        LSR A
3CD2  4A        LSR A
3CD3  AA        TAX
3CD4  BD E0 0A  LDA $0AE0,X
3CD7  60        RTS

; ==== sub_3CD8 (1 caller) ====
3CD8  20 BB 8D  JSR $8DBB
3CDB  29 07     AND #$07
3CDD  69 44     ADC #$44
3CDF  8D F1 06  STA $06F1
3CE2  20 BB 8D  JSR $8DBB
3CE5  29 07     AND #$07
3CE7  69 7C     ADC #$7C
3CE9  8D F0 06  STA $06F0
3CEC  AD 88 04  LDA $0488
3CEF  69 08     ADC #$08
3CF1  8D 88 04  STA $0488
3CF4  20 54 84  JSR $8454

; ==== sub_3CF7 (1 caller) ====
3CF7  A5 A0     LDA $A0
3CF9  D0 DC     BNE $3CD7
3CFB  A9 20     LDA #$20
3CFD  A0 E0     LDY #$E0
3CFF  20 06 3D  JSR $3D06
3D02  A9 30     LDA #$30
3D04  A0 D0     LDY #$D0

; ==== sub_3D06 (1 caller) ====
3D06  85 6D     STA $6D
3D08  AD F0 06  LDA $06F0
3D0B  85 6B     STA $6B
3D0D  AD F1 06  LDA $06F1
3D10  85 6C     STA $6C
3D12  A9 8F     LDA #$8F
3D14  85 6E     STA $6E
3D16  20 9D B4  JSR $B49D
3D19  AD F0 06  LDA $06F0
3D1C  85 6B     STA $6B
3D1E  AD F1 06  LDA $06F1
3D21  85 6C     STA $6C
3D23  84 6D     STY $6D
3D25  A9 8F     LDA #$8F
3D27  85 6E     STA $6E
3D29  4C 9D B4  JMP $B49D
3D2C  AD 07 05  LDA $0507
3D2F  0D 08 05  ORA $0508
3D32  D0 38     BNE $3D6C
3D34  A5 A7     LDA $A7
3D36  10 34     BPL $3D6C
3D38  A0 00     LDY #$00
3D3A  B9 27 1A  LDA $1A27,Y
3D3D  C5 A1     CMP $A1
3D3F  D0 28     BNE $3D69
3D41  B9 41 1A  LDA $1A41,Y
3D44  29 7F     AND #$7F
3D46  CD A8 04  CMP $04A8
3D49  D0 1E     BNE $3D69
3D4B  B9 41 1A  LDA $1A41,Y
3D4E  30 0C     BMI $3D5C
3D50  AD 99 04  LDA $0499
3D53  4A        LSR A
3D54  90 16     BCC $3D6C
3D56  20 A0 24  JSR $24A0
3D59  A9 01     LDA #$01
3D5B  2C A9 B0  BIT $B0A9
3D5E  20 CC 23  JSR $23CC
3D61  98        TYA
3D62  20 7B 23  JSR $237B
3D65  A9 B1     LDA #$B1
3D67  D0 0E     BNE $3D77
3D69  88        DEY
3D6A  D0 CE     BNE $3D3A
3D6C  A2 03     LDX #$03
3D6E  B5 81     LDA $81,X
3D70  95 02     STA $02,X
3D72  CA        DEX
3D73  10 F9     BPL $3D6E
3D75  A9 05     LDA #$05
3D77  4C 8D 23  JMP $238D
3D7A  AD 99 04  LDA $0499
3D7D  09 04     ORA #$04
3D7F  8D 99 04  STA $0499
3D82  A9 0B     LDA #$0B
3D84  20 8D 23  JSR $238D
3D87  4C E7 91  JMP $91E7
3D8A  AD 99 04  LDA $0499
3D8D  29 F0     AND #$F0
3D8F  09 0A     ORA #$0A
3D91  8D 99 04  STA $0499
3D94  A9 DE     LDA #$DE
3D96  D0 EC     BNE $3D84
3D98  AD 99 04  LDA $0499
3D9B  09 04     ORA #$04
3D9D  8D 99 04  STA $0499
3DA0  A9 02     LDA #$02
3DA2  8D C4 04  STA $04C4
3DA5  EE E1 04  INC $04E1
3DA8  A9 DF     LDA #$DF
3DAA  D0 D8     BNE $3D84
3DAC  4E 99 04  LSR $0499
3DAF  0E 99 04  ASL $0499
3DB2  A2 50     LDX #$50
3DB4  A0 C3     LDY #$C3
3DB6  20 81 7D  JSR $7D81
3DB9  A9 0F     LDA #$0F
3DBB  D0 C7     BNE $3D84
3DBD  AD 99 04  LDA $0499
3DC0  09 10     ORA #$10
3DC2  8D 99 04  STA $0499
3DC5  A9 C7     LDA #$C7
3DC7  20 8D 23  JSR $238D
3DCA  20 DE 8A  JSR $8ADE
3DCD  90 B8     BCC $3D87
3DCF  A0 C3     LDY #$C3
3DD1  A2 50     LDX #$50
3DD3  20 5A 7D  JSR $7D5A
3DD6  EE C9 04  INC $04C9
3DD9  4C E7 91  JMP $91E7
3DDC  4E 99 04  LSR $0499
3DDF  38        SEC
3DE0  2E 99 04  ROL $0499
3DE3  20 34 3E  JSR $3E34
3DE6  20 53 8D  JSR $8D53
3DE9  A9 1F     LDA #$1F
3DEB  85 A5     STA $A5
3DED  20 5B 85  JSR $855B
3DF0  A9 01     LDA #$01
3DF2  20 25 73  JSR $7325
3DF5  85 10     STA $10
3DF7  20 2F B0  JSR $B02F
3DFA  A9 40     LDA #$40
3DFC  85 A3     STA $A3
3DFE  A2 7F     LDX #$7F
3E00  86 26     STX $26
3E02  86 27     STX $27
3E04  20 86 A3  JSR $A386
3E07  20 A0 AB  JSR $ABA0
3E0A  C6 A3     DEC $A3
3E0C  D0 F0     BNE $3DFE
3E0E  46 09     LSR $09
3E10  E6 0F     INC $0F
3E12  F0 1A     BEQ $3E2E
3E14  E6 0F     INC $0F
3E16  F0 16     BEQ $3E2E
3E18  A6 0C     LDX $0C
3E1A  E8        INX
3E1B  E0 50     CPX #$50
3E1D  90 02     BCC $3E21
3E1F  A2 50     LDX #$50
3E21  86 0C     STX $0C
3E23  20 86 A3  JSR $A386
3E26  20 A0 AB  JSR $ABA0
3E29  C6 A3     DEC $A3
3E2B  4C 0E 3E  JMP $3E0E
3E2E  E6 10     INC $10
3E30  A9 0A     LDA #$0A
3E32  D0 87     BNE $3DBB

; ==== sub_3E34 (1 caller) ====
3E34  A9 D8     LDA #$D8
3E36  20 8D 23  JSR $238D
3E39  A0 64     LDY #$64
3E3B  4C 9E 3E  JMP $3E9E
3E3E  .byte 20 62 3E D0 FB 20 62 3E F0 FB A9 00 85 28 A9 01 ;  b>.. b>.....(..
3E4E  .byte 20 2F B0 20 86 A3 A9 0A 2C A9 06 20 28 73 20 08 ;  /. ....,.. (s .
3E5E  .byte 25 4C 88 24 A9 50 85 0C A9 00 85 09 85 0F A9 02 ; %L.$.P..........
3E6E  .byte 85 10 20 86 A3 20 A0 AB 4C 49 96 20 49 96 D0 FB ; .. .. ..LI. I...
3E7E  .byte 20 49 96 F0 F6 60                               ;  I...`

; ==== slot_ptr  $3E84  (5 callers) — slot index (X) -> 37-byte ship-record pointer ($59/$5A) via the table at $28A1 ====
3E84  8A        TXA
3E85  0A        ASL A
3E86  A8        TAY
3E87  B9 A1 28  LDA $28A1,Y
3E8A  85 59     STA $59
3E8C  B9 A2 28  LDA $28A2,Y
3E8F  85 5A     STA $5A
3E91  60        RTS

; ==== sub_3E92 (2 callers) ====
3E92  A2 01     LDX #$01
3E94  BD 9A 04  LDA $049A,X
3E97  9D 09 05  STA $0509,X
3E9A  CA        DEX
3E9B  10 F7     BPL $3E94
3E9D  60        RTS

; ==== sub_3E9E (6 callers) ====
3E9E  20 54 BA  JSR $BA54
3EA1  88        DEY
3EA2  D0 FA     BNE $3E9E
3EA4  60        RTS
3EA5  .byte 07 07 0D 04 10 15 1A 1F 9B A0 2E A5 24 29 3D 33 ; ............$)=3
3EB5  .byte 38 AA 42 47 4C 51 56 8C 60 65 87 82 5B 6A B4 B9 ; 8.BGLQV.`e..[j..
3EC5  .byte BE E1 E6 EB F0 F5 FA 73 78 7D 00 00 00 00 00 00 ; .......sx}......
3ED5  .byte 00 00 00 00 00 00 00 00 00 00 00 00 00 00 00 00 ; ................
3EE5  .byte 00 00 00 00 00 00 00 00 00 00 00 00 00 00 00 00 ; ................
3EF5  .byte 00 00 00 00 00 00 00 00 00 00 00 00 00 00 00 00 ; ................
3F05  .byte 00 00 00 00 00 00 00 00 00 00 00 00 00 00 00 00 ; ................
3F15  .byte 00 00 00 00 00 00 00 00 00 00 00 00 00 00 00 00 ; ................
3F25  .byte 00 00 00 00 00 00 00 00 00 00 00 00 00 00 00 00 ; ................
3F35  .byte 00 00 00 00 00 00 00 00 00 00 00 00 00 00 00 00 ; ................
3F45  .byte 00 00 00 00 00 00 00 00 00 00 00 00 00 00 00 00 ; ................
3F55  .byte 00 00 00 00 00 00 00 00 00 00 00 00 00 00 00 00 ; ................
3F65  .byte 00 00 00 00 00 00 00 00 00 00 00 00 00 00 00 00 ; ................
3F75  .byte 00 00 00 00 00 00 00 00 00 00 00 00 00 00 00 00 ; ................
3F85  .byte 00 00 00 00 00 00 00 00 00 00 00 00 00 00 00 00 ; ................
3F95  .byte 00 00 00 00 00 00 00 00 00 00 00 00 00 00 00 00 ; ................
3FA5  .byte 00 00 00 00 00 00 00 00 00 00 00 00 00 00 00 00 ; ................
3FB5  .byte 00 00 00 00 00 00 00 00 00 00 00 00 00 00 00 00 ; ................
3FC5  .byte 00 00 00 00 00 00 00 00 00 00 00 00 00 00 00 00 ; ................
3FD5  .byte 00 00 00 00 00 00 00 00 00 00 00 00 00 00 00 00 ; ................
3FE5  .byte 00 00 00 00 00 00 00 00 00 00 00 00 00 00 00 00 ; ................
3FF5  .byte 00 00 00 00 00 00 00 00 00 00 00 00 00 00 00 00 ; ................
4005  .byte 00 00 00 00 00 00 00 00 00 00 00 00 00 00 00 00 ; ................
4015  .byte 00 00 00 00 00 00 00 00 00 00 00 00 00 00 00 00 ; ................
4025  .byte 00 00 00 00 00 00 00 00 00 00 00 00 00 00 00 00 ; ................
4035  .byte 00 00 00 00 00 00 00 00 00 00 00 00 00 00 00 00 ; ................
4045  .byte 00 00 00 00 00 00 00 00 00 00 00 00 00 00 00 00 ; ................
4055  .byte 00 00 00 00 00 00 00 00 00 00 00 00 00 00 00 00 ; ................
4065  .byte 00 00 00 00 00 00 00 00 00 00 00 00 00 00 00 00 ; ................
4075  .byte 00 00 00 00 00 00 00 00 00 00 00 00 00 00 00 00 ; ................
4085  .byte 00 00 00 00 00 00 00 00 00 00 00 00 00 00 00 00 ; ................
4095  .byte 00 00 00 00 00 00 00 00 00 00 00 00 00 00 00 00 ; ................
40A5  .byte 00 00 00 00 00 00 00 00 00 00 00 00 00 00 00 00 ; ................
40B5  .byte 00 00 00 00 00 00 00 00 00 00 00 00 00 00 00 00 ; ................
40C5  .byte 00 00 00 00 00 00 00 00 00 00 00 00 00 00 00 00 ; ................
40D5  .byte 00 00 00 00 00 00 00 00 00 00 00 00 00 00 00 00 ; ................
40E5  .byte 00 00 00 00 00 00 00 00 00 00 00 00 00 00 00 00 ; ................
40F5  .byte 00 00 00 00 00 00 00 00 00 00 00 00 00 00 00 00 ; ................
4105  .byte 00 00 00 00 00 00 00 00 00 00 00 00 00 00 00 00 ; ................
4115  .byte 00 00 00 00 00 00 00 00 00 00 00 00 00 00 00 00 ; ................
4125  .byte 00 00 00 00 00 00 00 00 00 00 00 00 00 00 00 00 ; ................
4135  .byte 00 00 00 00 00 00 00 00 00 00 00 00 00 00 00 00 ; ................
4145  .byte 00 00 00 00 00 00 00 00 00 00 00 00 00 00 00 00 ; ................
4155  .byte 00 00 00 00 00 00 00 00 00 00 00 00 00 00 00 00 ; ................
4165  .byte 00 00 00 00 00 00 00 00 00 00 00 00 00 00 00 00 ; ................
4175  .byte 00 00 00 00 00 00 00 00 00 00 00 00 00 00 00 00 ; ................
4185  .byte 00 00 00 00 00 00 00 00 00 00 00 00 00 00 00 00 ; ................
4195  .byte 00 00 00 00 00 00 00 00 00 00 00 00 00 00 00 00 ; ................
41A5  .byte 00 00 00 00 00 00 00 00 00 00 00 00 00 00 00 00 ; ................
41B5  .byte 00 00 00 00 00 00 00 00 00 00 00 00 00 00 00 00 ; ................
41C5  .byte 00 00 00 00 00 00 00 00 00 00 00 00 00 00 00 00 ; ................
41D5  .byte 00 00 00 00 00 00 00 00 00 00 00 00 00 00 00 00 ; ................
41E5  .byte 00 00 00 00 00 00 00 00 00 00 00 00 00 00 00 00 ; ................
41F5  .byte 00 00 00 00 00 00 00 00 00 00 00 00 00 00 00 00 ; ................
4205  .byte 00 00 00 00 00 00 00 00 00 00 00 00 00 00 00 00 ; ................
4215  .byte 00 00 00 00 00 00 00 00 00 00 00 00 00 00 00 00 ; ................
4225  .byte 00 00 00 00 00 00 00 00 00 00 00 00 00 00 00 00 ; ................
4235  .byte 00 00 00 00 00 00 00 00 00 00 00 00 00 00 00 00 ; ................
4245  .byte 00 00 00 00 00 00 00 00 00 00 00 00 00 00 00 00 ; ................
4255  .byte 00 00 00 00 00 00 00 00 00 00 00 00 00 00 00 00 ; ................
4265  .byte 00 00 00 00 00 00 00 00 00 00 00 00 00 00 00 00 ; ................
4275  .byte 00 00 00 00 00 00 00 00 00 00 00 00 00 00 00 00 ; ................
4285  .byte 00 00 00 00 00 00 00 00 00 00 00 00 00 00 00 00 ; ................
4295  .byte 00 00 00 00 00 00 00 00 00 00 00 00 00 00 00 00 ; ................
42A5  .byte 00 00 00 00 00 00 00 00 00 00 00 00 00 00 00 00 ; ................
42B5  .byte 00 00 00 00 00 00 00 00 00 00 00 00 00 00 00 00 ; ................
42C5  .byte 00 00 00 00 00 00 00 00 00 00 00 00 00 00 00 00 ; ................
42D5  .byte 00 00 00 00 00 00 00 00 00 00 00 00 00 00 00 00 ; ................
42E5  .byte 00 00 00 00 00 00 00 00 00 00 00 00 00 00 00 00 ; ................
42F5  .byte 00 00 00 00 00 00 00 00 00 00 00 00 00 00 00 00 ; ................
4305  .byte 00 00 00 00 00 00 00 00 00 00 00 00 00 00 00 00 ; ................
4315  .byte 00 00 00 00 00 00 00 00 00 00 00 00 00 00 00 00 ; ................
4325  .byte 00 00 00 00 00 00 00 00 00 00 00 00 00 00 00 00 ; ................
4335  .byte 00 00 00 00 00 00 00 00 00 00 00 00 00 00 00 00 ; ................
4345  .byte 00 00 00 00 00 00 00 00 00 00 00 00 00 00 00 00 ; ................
4355  .byte 00 00 00 00 00 00 00 00 00 00 00 00 00 00 00 00 ; ................
4365  .byte 00 00 00 00 00 00 00 00 00 00 00 00 00 00 00 00 ; ................
4375  .byte 00 00 00 00 00 00 00 00 00 00 00 00 00 00 00 00 ; ................
4385  .byte 00 00 00 00 00 00 00 00 00 00 00 00 00 00 00 00 ; ................
4395  .byte 00 00 00 00 00 00 00 00 00 00 00 00 00 00 00 00 ; ................
43A5  .byte 00 00 00 00 00 00 00 00 00 00 00 00 00 00 00 00 ; ................
43B5  .byte 00 00 00 00 00 00 00 00 00 00 00 00 00 00 00 00 ; ................
43C5  .byte 00 00 00 00 00 00 00 00 00 00 00 00 00 00 00 00 ; ................
43D5  .byte 00 00 00 00 00 00 00 00 00 00 00 00 00 00 00 00 ; ................
43E5  .byte 00 00 00 00 00 00 00 00 00 00 00 00 00 00 00 00 ; ................
43F5  .byte 00 00 00 00 00 00 00 00 00 00 00 00 00 00 00 00 ; ................
4405  .byte 00 00 00 00 00 00 00 00 00 00 00 00 00 00 00 00 ; ................
4415  .byte 00 00 00 00 00 00 00 00 00 00 00 00 00 00 00 00 ; ................
4425  .byte 00 00 00 00 00 00 00 00 00 00 00 00 00 00 00 00 ; ................
4435  .byte 00 00 00 00 00 00 00 00 00 00 00 00 00 00 00 00 ; ................
4445  .byte 00 00 00 00 00 00 00 00 00 00 00 00 00 00 00 00 ; ................
4455  .byte 00 00 00 00 00 00 00 00 00 00 00 00 00 00 00 00 ; ................
4465  .byte 00 00 00 00 00 00 00 00 00 00 00 00 00 00 00 00 ; ................
4475  .byte 00 00 00 00 00 00 00 00 00 00 00 00 00 00 00 00 ; ................
4485  .byte 00 00 00 00 00 00 00 00 00 00 00 00 00 00 00 00 ; ................
4495  .byte 00 00 00 00 00 00 00 00 00 00 00 00 00 00 00 00 ; ................
44A5  .byte 00 00 00 00 00 00 00 00 00 00 00 00 00 00 00 00 ; ................
44B5  .byte 00 00 00 00 00 00 00 00 00 00 00 00 00 00 00 00 ; ................
44C5  .byte 00 00 00 00 00 00 00 00 00 00 00 00 00 00 00 00 ; ................
44D5  .byte 00 00 00 00 00 00 00 00 00 00 00 00 00 00 00 00 ; ................
44E5  .byte 00 00 00 00 00 00 00 00 00 00 00 00 00 00 00 00 ; ................
44F5  .byte 00 00 00 00 00 00 00 00 00 00 00 00 00 00 00 00 ; ................
4505  .byte 00 00 00 00 00 00 00 00 00 00 00 00 00 00 00 00 ; ................
4515  .byte 00 00 00 00 00 00 00 00 00 00 00 00 00 00 00 00 ; ................
4525  .byte 00 00 00 00 00 00 00 00 00 00 00 00 00 00 00 00 ; ................
4535  .byte 00 00 00 00 00 00 00 00 00 00 00 00 00 00 00 00 ; ................
4545  .byte 00 00 00 00 00 00 00 00 00 00 00 00 00 00 00 00 ; ................
4555  .byte 00 00 00 00 00 00 00 00 00 00 00 00 00 00 00 00 ; ................
4565  .byte 00 00 00 00 00 00 00 00 00 00 00 00 00 00 00 00 ; ................
4575  .byte 00 00 00 00 00 00 00 00 00 00 00 00 00 00 00 00 ; ................
4585  .byte 00 00 00 00 00 00 00 00 00 00 00 00 00 00 00 00 ; ................
4595  .byte 00 00 00 00 00 00 00 00 00 00 00 00 00 00 00 00 ; ................
45A5  .byte 00 00 00 00 00 00 00 00 00 00 00 00 00 00 00 00 ; ................
45B5  .byte 00 00 00 00 00 00 00 00 00 00 00 00 00 00 00 00 ; ................
45C5  .byte 00 00 00 00 00 00 00 00 00 00 00 00 00 00 00 00 ; ................
45D5  .byte 00 00 00 00 00 00 00 00 00 00 00 00 00 00 00 00 ; ................
45E5  .byte 00 00 00 00 00 00 00 00 00 00 00 00 00 00 00 00 ; ................
45F5  .byte 00 00 00 00 00 00 00 00 00 00 00 00 00 00 00 00 ; ................
4605  .byte 00 00 00 00 00 00 00 00 00 00 00 00 00 00 00 00 ; ................
4615  .byte 00 00 00 00 00 00 00 00 00 00 00 00 00 00 00 00 ; ................
4625  .byte 00 00 00 00 00 00 00 00 00 00 00 00 00 00 00 00 ; ................
4635  .byte 00 00 00 00 00 00 00 00 00 00 00 00 00 00 00 00 ; ................
4645  .byte 00 00 00 00 00 00 00 00 00 00 00 00 00 00 00 00 ; ................
4655  .byte 00 00 00 00 00 00 00 00 00 00 00 00 00 00 00 00 ; ................
4665  .byte 00 00 00 00 00 00 00 00 00 00 00 00 00 00 00 00 ; ................
4675  .byte 00 00 00 00 00 00 00 00 00 00 00 00 00 00 00 00 ; ................
4685  .byte 00 00 00 00 00 00 00 00 00 00 00 00 00 00 00 00 ; ................
4695  .byte 00 00 00 00 00 00 00 00 00 00 00 00 00 00 00 00 ; ................
46A5  .byte 00 00 00 00 00 00 00 00 00 00 00 00 00 00 00 00 ; ................
46B5  .byte 00 00 00 00 00 00 00 00 00 00 00 00 00 00 00 00 ; ................
46C5  .byte 00 00 00 00 00 00 00 00 00 00 00 00 00 00 00 00 ; ................
46D5  .byte 00 00 00 00 00 00 00 00 00 00 00 00 00 00 00 00 ; ................
46E5  .byte 00 00 00 00 00 00 00 00 00 00 00 00 00 00 00 00 ; ................
46F5  .byte 00 00 00 00 00 00 00 00 00 00 00 00 00 00 00 00 ; ................
4705  .byte 00 00 00 00 00 00 00 00 00 00 00 00 00 00 00 00 ; ................
4715  .byte 00 00 00 00 00 00 00 00 00 00 00 00 00 00 00 00 ; ................
4725  .byte 00 00 00 00 00 00 00 00 00 00 00 00 00 00 00 00 ; ................
4735  .byte 00 00 00 00 00 00 00 00 00 00 00 00 00 00 00 00 ; ................
4745  .byte 00 00 00 00 00 00 00 00 00 00 00 00 00 00 00 00 ; ................
4755  .byte 00 00 00 00 00 00 00 00 00 00 00 00 00 00 00 00 ; ................
4765  .byte 00 00 00 00 00 00 00 00 00 00 00 00 00 00 00 00 ; ................
4775  .byte 00 00 00 00 00 00 00 00 00 00 00 00 00 00 00 00 ; ................
4785  .byte 00 00 00 00 00 00 00 00 00 00 00 00 00 00 00 00 ; ................
4795  .byte 00 00 00 00 00 00 00 00 00 00 00 00 00 00 00 00 ; ................
47A5  .byte 00 00 00 00 00 00 00 00 00 00 00 00 00 00 00 00 ; ................
47B5  .byte 00 00 00 00 00 00 00 00 00 00 00 00 00 00 00 00 ; ................
47C5  .byte 00 00 00 00 00 00 00 00 00 00 00 00 00 00 00 00 ; ................
47D5  .byte 00 00 00 00 00 00 00 00 00 00 00 00 00 00 00 00 ; ................
47E5  .byte 00 00 00 00 00 00 00 00 00 00 00 00 00 00 00 00 ; ................
47F5  .byte 00 00 00 00 00 00 00 00 00 00 00 00 00 00 00 00 ; ................
4805  .byte 00 00 00 00 00 00 00 00 00 00 00 00 00 00 00 00 ; ................
4815  .byte 00 00 00 00 00 00 00 00 00 00 00 00 00 00 00 00 ; ................
4825  .byte 00 00 00 00 00 00 00 00 00 00 00 00 00 00 00 00 ; ................
4835  .byte 00 00 00 00 00 00 00 00 00 00 00 00 00 00 00 00 ; ................
4845  .byte 00 00 00 00 00 00 00 00 00 00 00 00 00 00 00 00 ; ................
4855  .byte 00 00 00 00 00 00 00 00 00 00 00 00 00 00 00 00 ; ................
4865  .byte 00 00 00 00 00 00 00 00 00 00 00 00 00 00 00 00 ; ................
4875  .byte 00 00 00 00 00 00 00 00 00 00 00 00 00 00 00 00 ; ................
4885  .byte 00 00 00 00 00 00 00 00 00 00 00 00 00 00 00 00 ; ................
4895  .byte 00 00 00 00 00 00 00 00 00 00 00 00 00 00 00 00 ; ................
48A5  .byte 00 00 00 00 00 00 00 00 00 00 00 00 00 00 00 00 ; ................
48B5  .byte 00 00 00 00 00 00 00 00 00 00 00 00 00 00 00 00 ; ................
48C5  .byte 00 00 00 00 00 00 00 00 00 00 00 00 00 00 00 00 ; ................
48D5  .byte 00 00 00 00 00 00 00 00 00 00 00 00 00 00 00 00 ; ................
48E5  .byte 00 00 00 00 00 00 00 00 00 00 00 00 00 00 00 00 ; ................
48F5  .byte 00 00 00 00 00 00 00 00 00 00 00 00 00 00 00 00 ; ................
4905  .byte 00 00 00 00 00 00 00 00 00 00 00 00 00 00 00 00 ; ................
4915  .byte 00 00 00 00 00 00 00 00 00 00 00 00 00 00 00 00 ; ................
4925  .byte 00 00 00 00 00 00 00 00 00 00 00 00 00 00 00 00 ; ................
4935  .byte 00 00 00 00 00 00 00 00 00 00 00 00 00 00 00 00 ; ................
4945  .byte 00 00 00 00 00 00 00 00 00 00 00 00 00 00 00 00 ; ................
4955  .byte 00 00 00 00 00 00 00 00 00 00 00 00 00 00 00 00 ; ................
4965  .byte 00 00 00 00 00 00 00 00 00 00 00 00 00 00 00 00 ; ................
4975  .byte 00 00 00 00 00 00 00 00 00 00 00 00 00 00 00 00 ; ................
4985  .byte 00 00 00 00 00 00 00 00 00 00 00 00 00 00 00 00 ; ................
4995  .byte 00 00 00 00 00 00 00 00 00 00 00 00 00 00 00 00 ; ................
49A5  .byte 00 00 00 00 00 00 00 00 00 00 00 00 00 00 00 00 ; ................
49B5  .byte 00 00 00 00 00 00 00 00 00 00 00 00 00 00 00 00 ; ................
49C5  .byte 00 00 00 00 00 00 00 00 00 00 00 00 00 00 00 00 ; ................
49D5  .byte 00 00 00 00 00 00 00 00 00 00 00 00 00 00 00 00 ; ................
49E5  .byte 00 00 00 00 00 00 00 00 00 00 00 00 00 00 00 00 ; ................
49F5  .byte 00 00 00 00 00 00 00 00 00 00 00 00 00 00 00 00 ; ................
4A05  .byte 00 00 00 00 00 00 00 00 00 00 00 00 00 00 00 00 ; ................
4A15  .byte 00 00 00 00 00 00 00 00 00 00 00 00 00 00 00 00 ; ................
4A25  .byte 00 00 00 00 00 00 00 00 00 00 00 00 00 00 00 00 ; ................
4A35  .byte 00 00 00 00 00 00 00 00 00 00 00 00 00 00 00 00 ; ................
4A45  .byte 00 00 00 00 00 00 00 00 00 00 00 00 00 00 00 00 ; ................
4A55  .byte 00 00 00 00 00 00 00 00 00 00 00 00 00 00 00 00 ; ................
4A65  .byte 00 00 00 00 00 00 00 00 00 00 00 00 00 00 00 00 ; ................
4A75  .byte 00 00 00 00 00 00 00 00 00 00 00 00 00 00 00 00 ; ................
4A85  .byte 00 00 00 00 00 00 00 00 00 00 00 00 00 00 00 00 ; ................
4A95  .byte 00 00 00 00 00 00 00 00 00 00 00 00 00 00 00 00 ; ................
4AA5  .byte 00 00 00 00 00 00 00 00 00 00 00 00 00 00 00 00 ; ................
4AB5  .byte 00 00 00 00 00 00 00 00 00 00 00 00 00 00 00 00 ; ................
4AC5  .byte 00 00 00 00 00 00 00 00 00 00 00 00 00 00 00 00 ; ................
4AD5  .byte 00 00 00 00 00 00 00 00 00 00 00 00 00 00 00 00 ; ................
4AE5  .byte 00 00 00 00 00 00 00 00 00 00 00 00 00 00 00 00 ; ................
4AF5  .byte 00 00 00 00 00 00 00 00 00 00 00 00 00 00 00 00 ; ................
4B05  .byte 00 00 00 00 00 00 00 00 00 00 00 00 00 00 00 00 ; ................
4B15  .byte 00 00 00 00 00 00 00 00 00 00 00 00 00 00 00 00 ; ................
4B25  .byte 00 00 00 00 00 00 00 00 00 00 00 00 00 00 00 00 ; ................
4B35  .byte 00 00 00 00 00 00 00 00 00 00 00 00 00 00 00 00 ; ................
4B45  .byte 00 00 00 00 00 00 00 00 00 00 00 00 00 00 00 00 ; ................
4B55  .byte 00 00 00 00 00 00 00 00 00 00 00 00 00 00 00 00 ; ................
4B65  .byte 00 00 00 00 00 00 00 00 00 00 00 00 00 00 00 00 ; ................
4B75  .byte 00 00 00 00 00 00 00 00 00 00 00 00 00 00 00 00 ; ................
4B85  .byte 00 00 00 00 00 00 00 00 00 00 00 00 00 00 00 00 ; ................
4B95  .byte 00 00 00 00 00 00 00 00 00 00 00 00 00 00 00 00 ; ................
4BA5  .byte 00 00 00 00 00 00 00 00 00 00 00 00 00 00 00 00 ; ................
4BB5  .byte 00 00 00 00 00 00 00 00 00 00 00 00 00 00 00 00 ; ................
4BC5  .byte 00 00 00 00 00 00 00 00 00 00 00 00 00 00 00 00 ; ................
4BD5  .byte 00 00 00 00 00 00 00 00 00 00 00 00 00 00 00 00 ; ................
4BE5  .byte 00 00 00 00 00 00 00 00 00 00 00 00 00 00 00 00 ; ................
4BF5  .byte 00 00 00 00 00 00 00 00 00 00 00 00 00 00 00 00 ; ................
4C05  .byte 00 00 00 00 00 00 00 00 00 00 00 00 00 00 00 00 ; ................
4C15  .byte 00 00 00 00 00 00 00 00 00 00 00 00 00 00 00 00 ; ................
4C25  .byte 00 00 00 00 00 00 00 00 00 00 00 00 00 00 00 00 ; ................
4C35  .byte 00 00 00 00 00 00 00 00 00 00 00 00 00 00 00 00 ; ................
4C45  .byte 00 00 00 00 00 00 00 00 00 00 00 00 00 00 00 00 ; ................
4C55  .byte 00 00 00 00 00 00 00 00 00 00 00 00 00 00 00 00 ; ................
4C65  .byte 00 00 00 00 00 00 00 00 00 00 00 00 00 00 00 00 ; ................
4C75  .byte 00 00 00 00 00 00 00 00 00 00 00 00 00 00 00 00 ; ................
4C85  .byte 00 00 00 00 00 00 00 00 00 00 00 00 00 00 00 00 ; ................
4C95  .byte 00 00 00 00 00 00 00 00 00 00 00 00 00 00 00 00 ; ................
4CA5  .byte 00 00 00 00 00 00 00 00 00 00 00 00 00 00 00 00 ; ................
4CB5  .byte 00 00 00 00 00 00 00 00 00 00 00 00 00 00 00 00 ; ................
4CC5  .byte 00 00 00 00 00 00 00 00 00 00 00 00 00 00 00 00 ; ................
4CD5  .byte 00 00 00 00 00 00 00 00 00 00 00 00 00 00 00 00 ; ................
4CE5  .byte 00 00 00 00 00 00 00 00 00 00 00 00 00 00 00 00 ; ................
4CF5  .byte 00 00 00 00 00 00 00 00 00 00 00 00 00 00 00 00 ; ................
4D05  .byte 00 00 00 00 00 00 00 00 00 00 00 00 00 00 00 00 ; ................
4D15  .byte 00 00 00 00 00 00 00 00 00 00 00 00 00 00 00 00 ; ................
4D25  .byte 00 00 00 00 00 00 00 00 00 00 00 00 00 00 00 00 ; ................
4D35  .byte 00 00 00 00 00 00 00 00 00 00 00 00 00 00 00 00 ; ................
4D45  .byte 00 00 00 00 00 00 00 00 00 00 00 00 00 00 00 00 ; ................
4D55  .byte 00 00 00 00 00 00 00 00 00 00 00 00 00 00 00 00 ; ................
4D65  .byte 00 00 00 00 00 00 00 00 00 00 00 00 00 00 00 00 ; ................
4D75  .byte 00 00 00 00 00 00 00 00 00 00 00 00 00 00 00 00 ; ................
4D85  .byte 00 00 00 00 00 00 00 00 00 00 00 00 00 00 00 00 ; ................
4D95  .byte 00 00 00 00 00 00 00 00 00 00 00 00 00 00 00 00 ; ................
4DA5  .byte 00 00 00 00 00 00 00 00 00 00 00 00 00 00 00 00 ; ................
4DB5  .byte 00 00 00 00 00 00 00 00 00 00 00 00 00 00 00 00 ; ................
4DC5  .byte 00 00 00 00 00 00 00 00 00 00 00 00 00 00 00 00 ; ................
4DD5  .byte 00 00 00 00 00 00 00 00 00 00 00 00 00 00 00 00 ; ................
4DE5  .byte 00 00 00 00 00 00 00 00 00 00 00 00 00 00 00 00 ; ................
4DF5  .byte 00 00 00 00 00 00 00 00 00 00 00 00 00 00 00 00 ; ................
4E05  .byte 00 00 00 00 00 00 00 00 00 00 00 00 00 00 00 00 ; ................
4E15  .byte 00 00 00 00 00 00 00 00 00 00 00 00 00 00 00 00 ; ................
4E25  .byte 00 00 00 00 00 00 00 00 00 00 00 00 00 00 00 00 ; ................
4E35  .byte 00 00 00 00 00 00 00 00 00 00 00 00 00 00 00 00 ; ................
4E45  .byte 00 00 00 00 00 00 00 00 00 00 00 00 00 00 00 00 ; ................
4E55  .byte 00 00 00 00 00 00 00 00 00 00 00 00 00 00 00 00 ; ................
4E65  .byte 00 00 00 00 00 00 00 00 00 00 00 00 00 00 00 00 ; ................
4E75  .byte 00 00 00 00 00 00 00 00 00 00 00 00 00 00 00 00 ; ................
4E85  .byte 00 00 00 00 00 00 00 00 00 00 00 00 00 00 00 00 ; ................
4E95  .byte 00 00 00 00 00 00 00 00 00 00 00 00 00 00 00 00 ; ................
4EA5  .byte 00 00 00 00 00 00 00 00 00 00 00 00 00 00 00 00 ; ................
4EB5  .byte 00 00 00 00 00 00 00 00 00 00 00 00 00 00 00 00 ; ................
4EC5  .byte 00 00 00 00 00 00 00 00 00 00 00 00 00 00 00 00 ; ................
4ED5  .byte 00 00 00 00 00 00 00 00 00 00 00 00 00 00 00 00 ; ................
4EE5  .byte 00 00 00 00 00 00 00 00 00 00 00 00 00 00 00 00 ; ................
4EF5  .byte 00 00 00 00 00 00 00 00 00 00 00 00 00 00 00 00 ; ................
4F05  .byte 00 00 00 00 00 00 00 00 00 00 00 00 00 00 00 00 ; ................
4F15  .byte 00 00 00 00 00 00 00 00 00 00 00 00 00 00 00 00 ; ................
4F25  .byte 00 00 00 00 00 00 00 00 00 00 00 00 00 00 00 00 ; ................
4F35  .byte 00 00 00 00 00 00 00 00 00 00 00 00 00 00 00 00 ; ................
4F45  .byte 00 00 00 00 00 00 00 00 00 00 00 00 00 00 00 00 ; ................
4F55  .byte 00 00 00 00 00 00 00 00 00 00 00 00 00 00 00 00 ; ................
4F65  .byte 00 00 00 00 00 00 00 00 00 00 00 00 00 00 00 00 ; ................
4F75  .byte 00 00 00 00 00 00 00 00 00 00 00 00 00 00 00 00 ; ................
4F85  .byte 00 00 00 00 00 00 00 00 00 00 00 00 00 00 00 00 ; ................
4F95  .byte 00 00 00 00 00 00 00 00 00 00 00 00 00 00 00 00 ; ................
4FA5  .byte 00 00 00 00 00 00 00 00 00 00 00 00 00 00 00 00 ; ................
4FB5  .byte 00 00 00 00 00 00 00 00 00 00 00 00 00 00 00 00 ; ................
4FC5  .byte 00 00 00 00 00 00 00 00 00 00 00 00 00 00 00 00 ; ................
4FD5  .byte 00 00 00 00 00 00 00 00 00 00 00 00 00 00 00 00 ; ................
4FE5  .byte 00 00 00 00 00 00 00 00 00 00 00 00 00 00 00 00 ; ................
4FF5  .byte 00 00 00 00 00 00 00 00 00 00 00 00 00 00 00 00 ; ................
5005  .byte 00 00 00 00 00 00 00 00 00 00 00 00 00 00 00 00 ; ................
5015  .byte 00 00 00 00 00 00 00 00 00 00 00 00 00 00 00 00 ; ................
5025  .byte 00 00 00 00 00 00 00 00 00 00 00 00 00 00 00 00 ; ................
5035  .byte 00 00 00 00 00 00 00 00 00 00 00 00 00 00 00 00 ; ................
5045  .byte 00 00 00 00 00 00 00 00 00 00 00 00 00 00 00 00 ; ................
5055  .byte 00 00 00 00 00 00 00 00 00 00 00 00 00 00 00 00 ; ................
5065  .byte 00 00 00 00 00 00 00 00 00 00 00 00 00 00 00 00 ; ................
5075  .byte 00 00 00 00 00 00 00 00 00 00 00 00 00 00 00 00 ; ................
5085  .byte 00 00 00 00 00 00 00 00 00 00 00 00 00 00 00 00 ; ................
5095  .byte 00 00 00 00 00 00 00 00 00 00 00 00 00 00 00 00 ; ................
50A5  .byte 00 00 00 00 00 00 00 00 00 00 00 00 00 00 00 00 ; ................
50B5  .byte 00 00 00 00 00 00 00 00 00 00 00 00 00 00 00 00 ; ................
50C5  .byte 00 00 00 00 00 00 00 00 00 00 00 00 00 00 00 00 ; ................
50D5  .byte 00 00 00 00 00 00 00 00 00 00 00 00 00 00 00 00 ; ................
50E5  .byte 00 00 00 00 00 00 00 00 00 00 00 00 00 00 00 00 ; ................
50F5  .byte 00 00 00 00 00 00 00 00 00 00 00 00 00 00 00 00 ; ................
5105  .byte 00 00 00 00 00 00 00 00 00 00 00 00 00 00 00 00 ; ................
5115  .byte 00 00 00 00 00 00 00 00 00 00 00 00 00 00 00 00 ; ................
5125  .byte 00 00 00 00 00 00 00 00 00 00 00 00 00 00 00 00 ; ................
5135  .byte 00 00 00 00 00 00 00 00 00 00 00 00 00 00 00 00 ; ................
5145  .byte 00 00 00 00 00 00 00 00 00 00 00 00 00 00 00 00 ; ................
5155  .byte 00 00 00 00 00 00 00 00 00 00 00 00 00 00 00 00 ; ................
5165  .byte 00 00 00 00 00 00 00 00 00 00 00 00 00 00 00 00 ; ................
5175  .byte 00 00 00 00 00 00 00 00 00 00 00 00 00 00 00 00 ; ................
5185  .byte 00 00 00 00 00 00 00 00 00 00 00 00 00 00 00 00 ; ................
5195  .byte 00 00 00 00 00 00 00 00 00 00 00 00 00 00 00 00 ; ................
51A5  .byte 00 00 00 00 00 00 00 00 00 00 00 00 00 00 00 00 ; ................
51B5  .byte 00 00 00 00 00 00 00 00 00 00 00 00 00 00 00 00 ; ................
51C5  .byte 00 00 00 00 00 00 00 00 00 00 00 00 00 00 00 00 ; ................
51D5  .byte 00 00 00 00 00 00 00 00 00 00 00 00 00 00 00 00 ; ................
51E5  .byte 00 00 00 00 00 00 00 00 00 00 00 00 00 00 00 00 ; ................
51F5  .byte 00 00 00 00 00 00 00 00 00 00 00 00 00 00 00 00 ; ................
5205  .byte 00 00 00 00 00 00 00 00 00 00 00 00 00 00 00 00 ; ................
5215  .byte 00 00 00 00 00 00 00 00 00 00 00 00 00 00 00 00 ; ................
5225  .byte 00 00 00 00 00 00 00 00 00 00 00 00 00 00 00 00 ; ................
5235  .byte 00 00 00 00 00 00 00 00 00 00 00 00 00 00 00 00 ; ................
5245  .byte 00 00 00 00 00 00 00 00 00 00 00 00 00 00 00 00 ; ................
5255  .byte 00 00 00 00 00 00 00 00 00 00 00 00 00 00 00 00 ; ................
5265  .byte 00 00 00 00 00 00 00 00 00 00 00 00 00 00 00 00 ; ................
5275  .byte 00 00 00 00 00 00 00 00 00 00 00 00 00 00 00 00 ; ................
5285  .byte 00 00 00 00 00 00 00 00 00 00 00 00 00 00 00 00 ; ................
5295  .byte 00 00 00 00 00 00 00 00 00 00 00 00 00 00 00 00 ; ................
52A5  .byte 00 00 00 00 00 00 00 00 00 00 00 00 00 00 00 00 ; ................
52B5  .byte 00 00 00 00 00 00 00 00 00 00 00 00 00 00 00 00 ; ................
52C5  .byte 00 00 00 00 00 00 00 00 00 00 00 00 00 00 00 00 ; ................
52D5  .byte 00 00 00 00 00 00 00 00 00 00 00 00 00 00 00 00 ; ................
52E5  .byte 00 00 00 00 00 00 00 00 00 00 00 00 00 00 00 00 ; ................
52F5  .byte 00 00 00 00 00 00 00 00 00 00 00 00 00 00 00 00 ; ................
5305  .byte 00 00 00 00 00 00 00 00 00 00 00 00 00 00 00 00 ; ................
5315  .byte 00 00 00 00 00 00 00 00 00 00 00 00 00 00 00 00 ; ................
5325  .byte 00 00 00 00 00 00 00 00 00 00 00 00 00 00 00 00 ; ................
5335  .byte 00 00 00 00 00 00 00 00 00 00 00 00 00 00 00 00 ; ................
5345  .byte 00 00 00 00 00 00 00 00 00 00 00 00 00 00 00 00 ; ................
5355  .byte 00 00 00 00 00 00 00 00 00 00 00 00 00 00 00 00 ; ................
5365  .byte 00 00 00 00 00 00 00 00 00 00 00 00 00 00 00 00 ; ................
5375  .byte 00 00 00 00 00 00 00 00 00 00 00 00 00 00 00 00 ; ................
5385  .byte 00 00 00 00 00 00 00 00 00 00 00 00 00 00 00 00 ; ................
5395  .byte 00 00 00 00 00 00 00 00 00 00 00 00 00 00 00 00 ; ................
53A5  .byte 00 00 00 00 00 00 00 00 00 00 00 00 00 00 00 00 ; ................
53B5  .byte 00 00 00 00 00 00 00 00 00 00 00 00 00 00 00 00 ; ................
53C5  .byte 00 00 00 00 00 00 00 00 00 00 00 00 00 00 00 00 ; ................
53D5  .byte 00 00 00 00 00 00 00 00 00 00 00 00 00 00 00 00 ; ................
53E5  .byte 00 00 00 00 00 00 00 00 00 00 00 00 00 00 00 00 ; ................
53F5  .byte 00 00 00 00 00 00 00 00 00 00 00 00 00 00 00 00 ; ................
5405  .byte 00 00 00 00 00 00 00 00 00 00 00 00 00 00 00 00 ; ................
5415  .byte 00 00 00 00 00 00 00 00 00 00 00 00 00 00 00 00 ; ................
5425  .byte 00 00 00 00 00 00 00 00 00 00 00 00 00 00 00 00 ; ................
5435  .byte 00 00 00 00 00 00 00 00 00 00 00 00 00 00 00 00 ; ................
5445  .byte 00 00 00 00 00 00 00 00 00 00 00 00 00 00 00 00 ; ................
5455  .byte 00 00 00 00 00 00 00 00 00 00 00 00 00 00 00 00 ; ................
5465  .byte 00 00 00 00 00 00 00 00 00 00 00 00 00 00 00 00 ; ................
5475  .byte 00 00 00 00 00 00 00 00 00 00 00 00 00 00 00 00 ; ................
5485  .byte 00 00 00 00 00 00 00 00 00 00 00 00 00 00 00 00 ; ................
5495  .byte 00 00 00 00 00 00 00 00 00 00 00 00 00 00 00 00 ; ................
54A5  .byte 00 00 00 00 00 00 00 00 00 00 00 00 00 00 00 00 ; ................
54B5  .byte 00 00 00 00 00 00 00 00 00 00 00 00 00 00 00 00 ; ................
54C5  .byte 00 00 00 00 00 00 00 00 00 00 00 00 00 00 00 00 ; ................
54D5  .byte 00 00 00 00 00 00 00 00 00 00 00 00 00 00 00 00 ; ................
54E5  .byte 00 00 00 00 00 00 00 00 00 00 00 00 00 00 00 00 ; ................
54F5  .byte 00 00 00 00 00 00 00 00 00 00 00 00 00 00 00 00 ; ................
5505  .byte 00 00 00 00 00 00 00 00 00 00 00 00 00 00 00 00 ; ................
5515  .byte 00 00 00 00 00 00 00 00 00 00 00 00 00 00 00 00 ; ................
5525  .byte 00 00 00 00 00 00 00 00 00 00 00 00 00 00 00 00 ; ................
5535  .byte 00 00 00 00 00 00 00 00 00 00 00 00 00 00 00 00 ; ................
5545  .byte 00 00 00 00 00 00 00 00 00 00 00 00 00 00 00 00 ; ................
5555  .byte 00 00 00 00 00 00 00 00 00 00 00 00 00 00 00 00 ; ................
5565  .byte 00 00 00 00 00 00 00 00 00 00 00 00 00 00 00 00 ; ................
5575  .byte 00 00 00 00 00 00 00 00 00 00 00 00 00 00 00 00 ; ................
5585  .byte 00 00 00 00 00 00 00 00 00 00 00 00 00 00 00 00 ; ................
5595  .byte 00 00 00 00 00 00 00 00 00 00 00 00 00 00 00 00 ; ................
55A5  .byte 00 00 00 00 00 00 00 00 00 00 00 00 00 00 00 00 ; ................
55B5  .byte 00 00 00 00 00 00 00 00 00 00 00 00 00 00 00 00 ; ................
55C5  .byte 00 00 00 00 00 00 00 00 00 00 00 00 00 00 00 00 ; ................
55D5  .byte 00 00 00 00 00 00 00 00 00 00 00 00 00 00 00 00 ; ................
55E5  .byte 00 00 00 00 00 00 00 00 00 00 00 00 00 00 00 00 ; ................
55F5  .byte 00 00 00 00 00 00 00 00 00 00 00 00 00 00 00 00 ; ................
5605  .byte 00 00 00 00 00 00 00 00 00 00 00 00 00 00 00 00 ; ................
5615  .byte 00 00 00 00 00 00 00 00 00 00 00 00 00 00 00 00 ; ................
5625  .byte 00 00 00 00 00 00 00 00 00 00 00 00 00 00 00 00 ; ................
5635  .byte 00 00 00 00 00 00 00 00 00 00 00 00 00 00 00 00 ; ................
5645  .byte 00 00 00 00 00 00 00 00 00 00 00 00 00 00 00 00 ; ................
5655  .byte 00 00 00 00 00 00 00 00 00 00 00 00 00 00 00 00 ; ................
5665  .byte 00 00 00 00 00 00 00 00 00 00 00 00 00 00 00 00 ; ................
5675  .byte 00 00 00 00 00 00 00 00 00 00 00 00 00 00 00 00 ; ................
5685  .byte 00 00 00 00 00 00 00 00 00 00 00 00 00 00 00 00 ; ................
5695  .byte 00 00 00 00 00 00 00 00 00 00 00 00 00 00 00 00 ; ................
56A5  .byte 00 00 00 00 00 00 00 00 00 00 00 00 00 00 00 00 ; ................
56B5  .byte 00 00 00 00 00 00 00 00 00 00 00 00 00 00 00 00 ; ................
56C5  .byte 00 00 00 00 00 00 00 00 00 00 00 00 00 00 00 00 ; ................
56D5  .byte 00 00 00 00 00 00 00 00 00 00 00 00 00 00 00 00 ; ................
56E5  .byte 00 00 00 00 00 00 00 00 00 00 00 00 00 00 00 00 ; ................
56F5  .byte 00 00 00 00 00 00 00 00 00 00 00 00 00 00 00 00 ; ................
5705  .byte 00 00 00 00 00 00 00 00 00 00 00 00 00 00 00 00 ; ................
5715  .byte 00 00 00 00 00 00 00 00 00 00 00 00 00 00 00 00 ; ................
5725  .byte 00 00 00 00 00 00 00 00 00 00 00 00 00 00 00 00 ; ................
5735  .byte 00 00 00 00 00 00 00 00 00 00 00 00 00 00 00 00 ; ................
5745  .byte 00 00 00 00 00 00 00 00 00 00 00 00 00 00 00 00 ; ................
5755  .byte 00 00 00 00 00 00 00 00 00 00 00 00 00 00 00 00 ; ................
5765  .byte 00 00 00 00 00 00 00 00 00 00 00 00 00 00 00 00 ; ................
5775  .byte 00 00 00 00 00 00 00 00 00 00 00 00 00 00 00 00 ; ................
5785  .byte 00 00 00 00 00 00 00 00 00 00 00 00 00 00 00 00 ; ................
5795  .byte 00 00 00 00 00 00 00 00 00 00 00 00 00 00 00 00 ; ................
57A5  .byte 00 00 00 00 00 00 00 00 00 00 00 00 00 00 00 00 ; ................
57B5  .byte 00 00 00 00 00 00 00 00 00 00 00 00 00 00 00 00 ; ................
57C5  .byte 00 00 00 00 00 00 00 00 00 00 00 00 00 00 00 00 ; ................
57D5  .byte 00 00 00 00 00 00 00 00 00 00 00 00 00 00 00 00 ; ................
57E5  .byte 00 00 00 00 00 00 00 00 00 00 00 00 00 00 00 00 ; ................
57F5  .byte 00 00 00 00 00 00 00 00 00 00 00 00 00 00 00 00 ; ................
5805  .byte 00 00 00 00 00 00 00 00 00 00 00 00 00 00 00 00 ; ................
5815  .byte 00 00 00 00 00 00 00 00 00 00 00 00 00 00 00 00 ; ................
5825  .byte 00 00 00 00 00 00 00 00 00 00 00 00 00 00 00 00 ; ................
5835  .byte 00 00 00 00 00 00 00 00 00 00 00 00 00 00 00 00 ; ................
5845  .byte 00 00 00 00 00 00 00 00 00 00 00 00 00 00 00 00 ; ................
5855  .byte 00 00 00 00 00 00 00 00 00 00 00 00 00 00 00 00 ; ................
5865  .byte 00 00 00 00 00 00 00 00 00 00 00 00 00 00 00 00 ; ................
5875  .byte 00 00 00 00 00 00 00 00 00 00 00 00 00 00 00 00 ; ................
5885  .byte 00 00 00 00 00 00 00 00 00 00 00 00 00 00 00 00 ; ................
5895  .byte 00 00 00 00 00 00 00 00 00 00 00 00 00 00 00 00 ; ................
58A5  .byte 00 00 00 00 00 00 00 00 00 00 00 00 00 00 00 00 ; ................
58B5  .byte 00 00 00 00 00 00 00 00 00 00 00 00 00 00 00 00 ; ................
58C5  .byte 00 00 00 00 00 00 00 00 00 00 00 00 00 00 00 00 ; ................
58D5  .byte 00 00 00 00 00 00 00 00 00 00 00 00 00 00 00 00 ; ................
58E5  .byte 00 00 00 00 00 00 00 00 00 00 00 00 00 00 00 00 ; ................
58F5  .byte 00 00 00 00 00 00 00 00 00 00 00 00 00 00 00 00 ; ................
5905  .byte 00 00 00 00 00 00 00 00 00 00 00 00 00 00 00 00 ; ................
5915  .byte 00 00 00 00 00 00 00 00 00 00 00 00 00 00 00 00 ; ................
5925  .byte 00 00 00 00 00 00 00 00 00 00 00 00 00 00 00 00 ; ................
5935  .byte 00 00 00 00 00 00 00 00 00 00 00 00 00 00 00 00 ; ................
5945  .byte 00 00 00 00 00 00 00 00 00 00 00 00 00 00 00 00 ; ................
5955  .byte 00 00 00 00 00 00 00 00 00 00 00 00 00 00 00 00 ; ................
5965  .byte 00 00 00 00 00 00 00 00 00 00 00 00 00 00 00 00 ; ................
5975  .byte 00 00 00 00 00 00 00 00 00 00 00 00 00 00 00 00 ; ................
5985  .byte 00 00 00 00 00 00 00 00 00 00 00 00 00 00 00 00 ; ................
5995  .byte 00 00 00 00 00 00 00 00 00 00 00 00 00 00 00 00 ; ................
59A5  .byte 00 00 00 00 00 00 00 00 00 00 00 00 00 00 00 00 ; ................
59B5  .byte 00 00 00 00 00 00 00 00 00 00 00 00 00 00 00 00 ; ................
59C5  .byte 00 00 00 00 00 00 00 00 00 00 00 00 00 00 00 00 ; ................
59D5  .byte 00 00 00 00 00 00 00 00 00 00 00 00 00 00 00 00 ; ................
59E5  .byte 00 00 00 00 00 00 00 00 00 00 00 00 00 00 00 00 ; ................
59F5  .byte 00 00 00 00 00 00 00 00 00 00 00 00 00 00 00 00 ; ................
5A05  .byte 00 00 00 00 00 00 00 00 00 00 00 00 00 00 00 00 ; ................
5A15  .byte 00 00 00 00 00 00 00 00 00 00 00 00 00 00 00 00 ; ................
5A25  .byte 00 00 00 00 00 00 00 00 00 00 00 00 00 00 00 00 ; ................
5A35  .byte 00 00 00 00 00 00 00 00 00 00 00 00 00 00 00 00 ; ................
5A45  .byte 00 00 00 00 00 00 00 00 00 00 00 00 00 00 00 00 ; ................
5A55  .byte 00 00 00 00 00 00 00 00 00 00 00 00 00 00 00 00 ; ................
5A65  .byte 00 00 00 00 00 00 00 00 00 00 00 00 00 00 00 00 ; ................
5A75  .byte 00 00 00 00 00 00 00 00 00 00 00 00 00 00 00 00 ; ................
5A85  .byte 00 00 00 00 00 00 00 00 00 00 00 00 00 00 00 00 ; ................
5A95  .byte 00 00 00 00 00 00 00 00 00 00 00 00 00 00 00 00 ; ................
5AA5  .byte 00 00 00 00 00 00 00 00 00 00 00 00 00 00 00 00 ; ................
5AB5  .byte 00 00 00 00 00 00 00 00 00 00 00 00 00 00 00 00 ; ................
5AC5  .byte 00 00 00 00 00 00 00 00 00 00 00 00 00 00 00 00 ; ................
5AD5  .byte 00 00 00 00 00 00 00 00 00 00 00 00 00 00 00 00 ; ................
5AE5  .byte 00 00 00 00 00 00 00 00 00 00 00 00 00 00 00 00 ; ................
5AF5  .byte 00 00 00 00 00 00 00 00 00 00 00 00 00 00 00 00 ; ................
5B05  .byte 00 00 00 00 00 00 00 00 00 00 00 00 00 00 00 00 ; ................
5B15  .byte 00 00 00 00 00 00 00 00 00 00 00 00 00 00 00 00 ; ................
5B25  .byte 00 00 00 00 00 00 00 00 00 00 00 00 00 00 00 00 ; ................
5B35  .byte 00 00 00 00 00 00 00 00 00 00 00 00 00 00 00 00 ; ................
5B45  .byte 00 00 00 00 00 00 00 00 00 00 00 00 00 00 00 00 ; ................
5B55  .byte 00 00 00 00 00 00 00 00 00 00 00 00 00 00 00 00 ; ................
5B65  .byte 00 00 00 00 00 00 00 00 00 00 00 00 00 00 00 00 ; ................
5B75  .byte 00 00 00 00 00 00 00 00 00 00 00 00 00 00 00 00 ; ................
5B85  .byte 00 00 00 00 00 00 00 00 00 00 00 00 00 00 00 00 ; ................
5B95  .byte 00 00 00 00 00 00 00 00 00 00 00 00 00 00 00 00 ; ................
5BA5  .byte 00 00 00 00 00 00 00 00 00 00 00 00 00 00 00 00 ; ................
5BB5  .byte 00 00 00 00 00 00 00 00 00 00 00 00 00 00 00 00 ; ................
5BC5  .byte 00 00 00 00 00 00 00 00 00 00 00 00 00 00 00 00 ; ................
5BD5  .byte 00 00 00 00 00 00 00 00 00 00 00 00 00 00 00 00 ; ................
5BE5  .byte 00 00 00 00 00 00 00 00 00 00 00 00 00 00 00 00 ; ................
5BF5  .byte 00 00 00 00 00 00 00 00 00 00 00 00 00 00 00 00 ; ................
5C05  .byte 00 00 00 00 00 00 00 00 00 00 00 00 00 00 00 00 ; ................
5C15  .byte 00 00 00 00 00 00 00 00 00 00 00 00 00 00 00 00 ; ................
5C25  .byte 00 00 00 00 00 00 00 00 00 00 00 00 00 00 00 00 ; ................
5C35  .byte 00 00 00 00 00 00 00 00 00 00 00 00 00 00 00 00 ; ................
5C45  .byte 00 00 00 00 00 00 00 00 00 00 00 00 00 00 00 00 ; ................
5C55  .byte 00 00 00 00 00 00 00 00 00 00 00 00 00 00 00 00 ; ................
5C65  .byte 00 00 00 00 00 00 00 00 00 00 00 00 00 00 00 00 ; ................
5C75  .byte 00 00 00 00 00 00 00 00 00 00 00 00 00 00 00 00 ; ................
5C85  .byte 00 00 00 00 00 00 00 00 00 00 00 00 00 00 00 00 ; ................
5C95  .byte 00 00 00 00 00 00 00 00 00 00 00 00 00 00 00 00 ; ................
5CA5  .byte 00 00 00 00 00 00 00 00 00 00 00 00 00 00 00 00 ; ................
5CB5  .byte 00 00 00 00 00 00 00 00 00 00 00 00 00 00 00 00 ; ................
5CC5  .byte 00 00 00 00 00 00 00 00 00 00 00 00 00 00 00 00 ; ................
5CD5  .byte 00 00 00 00 00 00 00 00 00 00 00 00 00 00 00 00 ; ................
5CE5  .byte 00 00 00 00 00 00 00 00 00 00 00 00 00 00 00 00 ; ................
5CF5  .byte 00 00 00 00 00 00 00 00 00 00 00 00 00 00 00 00 ; ................
5D05  .byte 00 00 00 00 00 00 00 00 00 00 00 00 00 00 00 00 ; ................
5D15  .byte 00 00 00 00 00 00 00 00 00 00 00 00 00 00 00 00 ; ................
5D25  .byte 00 00 00 00 00 00 00 00 00 00 00 00 00 00 00 00 ; ................
5D35  .byte 00 00 00 00 00 00 00 00 00 00 00 00 00 00 00 00 ; ................
5D45  .byte 00 00 00 00 00 00 00 00 00 00 00 00 00 00 00 00 ; ................
5D55  .byte 00 00 00 00 00 00 00 00 00 00 00 00 00 00 00 00 ; ................
5D65  .byte 00 00 00 00 00 00 00 00 00 00 00 00 00 00 00 00 ; ................
5D75  .byte 00 00 00 00 00 00 00 00 00 00 00 00 00 00 00 00 ; ................
5D85  .byte 00 00 00 00 00 00 00 00 00 00 00 00 00 00 00 00 ; ................
5D95  .byte 00 00 00 00 00 00 00 00 00 00 00 00 00 00 00 00 ; ................
5DA5  .byte 00 00 00 00 00 00 00 00 00 00 00 00 00 00 00 00 ; ................
5DB5  .byte 00 00 00 00 00 00 00 00 00 00 00 00 00 00 00 00 ; ................
5DC5  .byte 00 00 00 00 00 00 00 00 00 00 00 00 00 00 00 00 ; ................
5DD5  .byte 00 00 00 00 00 00 00 00 00 00 00 00 00 00 00 00 ; ................
5DE5  .byte 00 00 00 00 00 00 00 00 00 00 00 00 00 00 00 00 ; ................
5DF5  .byte 00 00 00 00 00 00 00 00 00 00 00 00 00 00 00 00 ; ................
5E05  .byte 00 00 00 00 00 00 00 00 00 00 00 00 00 00 00 00 ; ................
5E15  .byte 00 00 00 00 00 00 00 00 00 00 00 00 00 00 00 00 ; ................
5E25  .byte 00 00 00 00 00 00 00 00 00 00 00 00 00 00 00 00 ; ................
5E35  .byte 00 00 00 00 00 00 00 00 00 00 00 00 00 00 00 00 ; ................
5E45  .byte 00 00 00 00 00 00 00 00 00 00 00 00 00 00 00 00 ; ................
5E55  .byte 00 00 00 00 00 00 00 00 00 00 00 00 00 00 00 00 ; ................
5E65  .byte 00 00 00 00 00 00 00 00 00 00 00 00 00 00 00 00 ; ................
5E75  .byte 00 00 00 00 00 00 00 00 00 00 00 00 00 00 00 00 ; ................
5E85  .byte 00 00 00 00 00 00 00 00 00 00 00 00 00 00 00 00 ; ................
5E95  .byte 00 00 00 00 00 00 00 00 00 00 00 00 00 00 00 00 ; ................
5EA5  .byte 00 00 00 00 00 00 00 00 00 00 00 00 00 00 00 00 ; ................
5EB5  .byte 00 00 00 00 00 00 00 00 00 00 00 00 00 00 00 00 ; ................
5EC5  .byte 00 00 00 00 00 00 00 00 00 00 00 00 00 00 00 00 ; ................
5ED5  .byte 00 00 00 00 00 00 00 00 00 00 00 00 00 00 00 00 ; ................
5EE5  .byte 00 00 00 00 00 00 00 00 00 00 00 00 00 00 00 00 ; ................
5EF5  .byte 00 00 00 00 00 00 00 00 00 00 00 00 00 00 00 00 ; ................
5F05  .byte 00 00 00 00 00 00 00 00 00 00 00 00 00 00 00 00 ; ................
5F15  .byte 00 00 00 00 00 00 00 00 00 00 00 00 00 00 00 00 ; ................
5F25  .byte 00 00 00 00 00 00 00 00 00 00 00 00 00 00 00 00 ; ................
5F35  .byte 00 00 00 00 00 00 00 00 00 00 00 00 00 00 00 00 ; ................
5F45  .byte 00 00 00 00 00 00 00 00 00 00 00 00 00 00 00 00 ; ................
5F55  .byte 00 00 00 00 00 00 00 00 00 00 00 00 00 00 00 00 ; ................
5F65  .byte 00 00 00 00 00 00 00 00 00 00 00 00 00 00 00 00 ; ................
5F75  .byte 00 00 00 00 00 00 00 00 00 00 00 00 00 00 00 00 ; ................
5F85  .byte 00 00 00 00 00 00 00 00 00 00 00 00 00 00 00 00 ; ................
5F95  .byte 00 00 00 00 00 00 00 00 00 00 00 00 00 00 00 00 ; ................
5FA5  .byte 00 00 00 00 00 00 00 00 00 00 00 00 00 00 00 00 ; ................
5FB5  .byte 00 00 00 00 00 00 00 00 00 00 00 00 00 00 00 00 ; ................
5FC5  .byte 00 00 00 00 00 00 00 00 00 00 00 00 00 00 00 00 ; ................
5FD5  .byte 00 00 00 00 00 00 00 00 00 00 00 00 00 00 00 00 ; ................
5FE5  .byte 00 00 00 00 00 00 00 00 00 00 00 00 00 00 00 00 ; ................
5FF5  .byte 00 00 00 00 00 00 00 00 00 00 00 00 00 00 70 10 ; ..............p.
6005  .byte 10 10 10 10 10 10 10 10 10 10 10 10 10 10 10 10 ; ................
6015  .byte 10 10 10 10 10 10 10 10 10 10 10 10 10 10 10 70 ; ...............p
6025  .byte 00 00 00 00 00 00 70 10 10 10 10 10 10 10 10 10 ; ......p.........
6035  .byte 10 10 10 10 10 10 10 10 10 10 10 10 10 10 10 10 ; ................
6045  .byte 10 10 10 10 10 10 10 70 00 00 00 00 00 00 70 10 ; .......p......p.
6055  .byte 10 10 10 10 10 10 10 10 10 10 10 10 10 10 10 10 ; ................
6065  .byte 10 10 10 10 10 10 10 10 10 10 10 10 10 10 10 70 ; ...............p
6075  .byte 00 00 00 00 00 00 70 10 10 10 10 10 10 10 10 10 ; ......p.........
6085  .byte 10 10 10 10 10 10 10 10 10 10 10 10 10 10 10 10 ; ................
6095  .byte 10 10 10 10 10 10 10 70 00 00 00 00 00 00 70 10 ; .......p......p.
60A5  .byte 10 10 10 10 10 10 10 10 10 10 10 10 10 10 10 10 ; ................
60B5  .byte 10 10 10 10 10 10 10 10 10 10 10 10 10 10 10 70 ; ...............p
60C5  .byte 00 00 00 00 00 00 70 10 10 10 10 10 10 10 10 10 ; ......p.........
60D5  .byte 10 10 10 10 10 10 10 10 10 10 10 10 10 10 10 10 ; ................
60E5  .byte 10 10 10 10 10 10 10 70 00 00 00 00 00 00 70 10 ; .......p......p.
60F5  .byte 10 10 10 10 10 10 10 10 10 10 10 10 10 10 10 10 ; ................
6105  .byte 10 10 10 10 10 10 10 10 10 10 10 10 10 10 10 70 ; ...............p
6115  .byte 00 00 00 00 00 00 70 10 10 10 10 10 10 10 10 10 ; ......p.........
6125  .byte 10 10 10 10 10 10 10 10 10 10 10 10 10 10 10 10 ; ................
6135  .byte 10 10 10 10 10 10 10 70 00 00 00 00 00 00 70 10 ; .......p......p.
6145  .byte 10 10 10 10 10 10 10 10 10 10 10 10 10 10 10 10 ; ................
6155  .byte 10 10 10 10 10 10 10 10 10 10 10 10 10 10 10 70 ; ...............p
6165  .byte 00 00 00 00 00 00 70 10 10 10 10 10 10 10 10 10 ; ......p.........
6175  .byte 10 10 10 10 10 10 10 10 10 10 10 10 10 10 10 10 ; ................
6185  .byte 10 10 10 10 10 10 10 70 00 00 00 00 00 00 70 10 ; .......p......p.
6195  .byte 10 10 10 10 10 10 10 10 10 10 10 10 10 10 10 10 ; ................
61A5  .byte 10 10 10 10 10 10 10 10 10 10 10 10 10 10 10 70 ; ...............p
61B5  .byte 00 00 00 00 00 00 70 10 10 10 10 10 10 10 10 10 ; ......p.........
61C5  .byte 10 10 10 10 10 10 10 10 10 10 10 10 10 10 10 10 ; ................
61D5  .byte 10 10 10 10 10 10 10 70 00 00 00 00 00 00 70 10 ; .......p......p.
61E5  .byte 10 10 10 10 10 10 10 10 10 10 10 10 10 10 10 10 ; ................
61F5  .byte 10 10 10 10 10 10 10 10 10 10 10 10 10 10 10 70 ; ...............p
6205  .byte 00 00 00 00 00 00 70 10 10 10 10 10 10 10 10 10 ; ......p.........
6215  .byte 10 10 10 10 10 10 10 10 10 10 10 10 10 10 10 10 ; ................
6225  .byte 10 10 10 10 10 10 10 70 00 00 00 00 00 00 70 10 ; .......p......p.
6235  .byte 10 10 10 10 10 10 10 10 10 10 10 10 10 10 10 10 ; ................
6245  .byte 10 10 10 10 10 10 10 10 10 10 10 10 10 10 10 70 ; ...............p
6255  .byte 00 00 00 00 00 00 70 10 10 10 10 10 10 10 10 10 ; ......p.........
6265  .byte 10 10 10 10 10 10 10 10 10 10 10 10 10 10 10 10 ; ................
6275  .byte 10 10 10 10 10 10 10 70 00 00 00 00 00 00 70 10 ; .......p......p.
6285  .byte 10 10 10 10 10 10 10 10 10 10 10 10 10 10 10 10 ; ................
6295  .byte 10 10 10 10 10 10 10 10 10 10 10 10 10 10 10 70 ; ...............p
62A5  .byte 00 00 00 00 00 00 70 10 10 10 10 10 10 10 10 10 ; ......p.........
62B5  .byte 10 10 10 10 10 10 10 10 10 10 10 10 10 10 10 10 ; ................
62C5  .byte 10 10 10 10 10 10 10 70 00 00 00 00 00 00 70 10 ; .......p......p.
62D5  .byte 10 10 10 10 10 10 10 10 10 10 10 10 10 10 10 10 ; ................
62E5  .byte 10 10 10 10 10 10 10 10 10 10 10 10 10 10 10 70 ; ...............p
62F5  .byte 00 00 00 00 00 00 70 10 10 10 10 10 10 10 10 10 ; ......p.........
6305  .byte 10 10 10 10 10 10 10 10 10 10 10 10 10 10 10 10 ; ................
6315  .byte 10 10 10 10 10 10 10 70 00 00 00 00 00 00 70 10 ; .......p......p.
6325  .byte 10 10 10 10 10 10 10 10 10 10 10 10 10 10 10 10 ; ................
6335  .byte 10 10 10 10 10 10 10 10 10 10 10 10 10 10 10 70 ; ...............p
6345  .byte 00 00 00 00 00 00 70 10 10 10 10 10 10 10 10 10 ; ......p.........
6355  .byte 10 10 10 10 10 10 10 10 10 10 10 10 10 10 10 10 ; ................
6365  .byte 10 10 10 10 10 10 10 70 00 00 00 00 00 00 70 10 ; .......p......p.
6375  .byte 10 10 10 10 10 10 10 10 10 10 10 10 10 10 10 10 ; ................
6385  .byte 10 10 10 10 10 10 10 10 10 10 10 10 10 10 10 70 ; ...............p
6395  .byte 00 00 00 00 00 00 70 10 10 10 10 10 10 10 10 10 ; ......p.........
63A5  .byte 10 10 10 10 10 10 10 10 10 10 10 10 10 10 10 10 ; ................
63B5  .byte 10 10 10 10 10 10 10 70 00 00 00 00 00 00 70 70 ; .......p......pp
63C5  .byte 70 70 70 70 70 70 70 70 70 70 70 70 70 70 70 70 ; pppppppppppppppp
63D5  .byte 70 70 70 70 70 70 70 70 70 70 70 70 70 70 70 70 ; pppppppppppppppp
63E5  .byte 00 00 00 10 10 10 10 10 10 10 10 10 10 10 10 10 ; ................
63F5  .byte 10 10 10 C4 C8 C9 CA C9 CA C9 CA 00 00 00 70 10 ; ..............p.
6405  .byte 10 10 10 10 10 10 10 10 10 10 10 10 10 10 10 10 ; ................
6415  .byte 10 10 10 10 10 10 10 10 10 10 10 10 10 10 10 70 ; ...............p
6425  .byte 00 00 00 00 00 00 70 10 10 10 10 10 10 10 10 10 ; ......p.........
6435  .byte 10 10 10 10 10 10 10 10 10 10 10 10 10 10 10 10 ; ................
6445  .byte 10 10 10 10 10 10 10 70 00 00 00 00 00 00 70 10 ; .......p......p.
6455  .byte 10 10 10 10 10 10 10 10 10 10 10 10 10 10 10 10 ; ................
6465  .byte 10 10 10 10 10 10 10 10 10 10 10 10 10 10 10 70 ; ...............p
6475  .byte 00 00 00 00 00 00 70 10 10 10 10 10 10 10 10 10 ; ......p.........
6485  .byte 10 10 10 10 10 10 10 10 10 10 10 10 10 10 10 10 ; ................
6495  .byte 10 10 10 10 10 10 10 70 00 00 00 00 00 00 70 10 ; .......p......p.
64A5  .byte 10 10 10 10 10 10 10 10 10 10 10 10 10 10 10 10 ; ................
64B5  .byte 10 10 10 10 10 10 10 10 10 10 10 10 10 10 10 70 ; ...............p
64C5  .byte 00 00 00 00 00 00 70 10 10 10 10 10 10 10 10 10 ; ......p.........
64D5  .byte 10 10 10 10 10 10 10 10 10 10 10 10 10 10 10 10 ; ................
64E5  .byte 10 10 10 10 10 10 10 70 00 00 00 00 00 00 70 10 ; .......p......p.
64F5  .byte 10 10 10 10 10 10 10 10 10 10 10 10 10 10 10 10 ; ................
6505  .byte 10 10 10 10 10 10 10 10 10 10 10 10 10 10 10 70 ; ...............p
6515  .byte 00 00 00 00 00 00 70 10 10 10 10 10 10 10 10 10 ; ......p.........
6525  .byte 10 10 10 10 10 10 10 10 10 10 10 10 10 10 10 10 ; ................
6535  .byte 10 10 10 10 10 10 10 70 00 00 00 00 00 00 70 10 ; .......p......p.
6545  .byte 10 10 10 10 10 10 10 10 10 10 10 10 10 10 10 10 ; ................
6555  .byte 10 10 10 10 10 10 10 10 10 10 10 10 10 10 10 70 ; ...............p
6565  .byte 00 00 00 00 00 00 70 10 10 10 10 10 10 10 10 10 ; ......p.........
6575  .byte 10 10 10 10 10 10 10 10 10 10 10 10 10 10 10 10 ; ................
6585  .byte 10 10 10 10 10 10 10 70 00 00 00 00 00 00 70 10 ; .......p......p.
6595  .byte 10 10 10 10 10 10 10 10 10 10 10 10 10 10 10 10 ; ................
65A5  .byte 10 10 10 10 10 10 10 10 10 10 10 10 10 10 10 70 ; ...............p
65B5  .byte 00 00 00 00 00 00 70 10 10 10 10 10 10 10 10 10 ; ......p.........
65C5  .byte 10 10 10 10 10 10 10 10 10 10 10 10 10 10 10 10 ; ................
65D5  .byte 10 10 10 10 10 10 10 70 00 00 00 00 00 00 70 10 ; .......p......p.
65E5  .byte 10 10 10 10 10 10 10 10 10 10 10 10 10 10 10 10 ; ................
65F5  .byte 10 10 10 10 10 10 10 10 10 10 10 10 10 10 10 70 ; ...............p
6605  .byte 00 00 00 00 00 00 70 10 10 10 10 10 10 10 10 10 ; ......p.........
6615  .byte 10 10 10 10 10 10 10 10 10 10 10 10 10 10 10 10 ; ................
6625  .byte 10 10 10 10 10 10 10 70 00 00 00 00 00 00 70 10 ; .......p......p.
6635  .byte 10 10 10 10 10 10 10 10 10 10 10 10 10 10 10 10 ; ................
6645  .byte 10 10 10 10 10 10 10 10 10 10 10 10 10 10 10 70 ; ...............p
6655  .byte 00 00 00 00 00 00 70 10 10 10 10 10 10 10 10 10 ; ......p.........
6665  .byte 10 10 10 10 10 10 10 10 10 10 10 10 10 10 10 10 ; ................
6675  .byte 10 10 10 10 10 10 10 70 00 00 00 00 00 00 70 10 ; .......p......p.
6685  .byte 10 10 10 10 10 10 10 10 10 10 10 10 10 10 10 10 ; ................
6695  .byte 10 10 10 10 10 10 10 10 10 10 10 10 10 10 10 70 ; ...............p
66A5  .byte 00 00 00 00 00 00 70 10 10 10 10 10 10 10 10 10 ; ......p.........
66B5  .byte 10 10 10 10 10 10 10 10 10 10 10 10 10 10 10 10 ; ................
66C5  .byte 10 10 10 10 10 10 10 70 00 00 00 00 00 00 07 17 ; .......p........
66D5  .byte 17 74 74 74 74 27 27 27 27 27 27 27 27 27 27 27 ; .tttt'''''''''''
66E5  .byte 27 27 27 27 27 27 27 67 27 27 27 27 27 37 37 07 ; '''''''g'''''77.
66F5  .byte 00 00 00 00 00 00 07 17 17 24 24 24 24 27 27 27 ; .........$$$$'''
6705  .byte 27 27 27 27 27 27 27 27 27 27 27 27 27 67 67 67 ; '''''''''''''ggg
6715  .byte 67 23 23 23 23 37 37 07 00 00 00 00 00 00 07 37 ; g####77........7
6725  .byte 37 29 29 29 29 27 27 27 27 27 27 27 27 27 27 27 ; 7))))'''''''''''
6735  .byte 27 27 27 27 27 27 27 67 27 23 23 23 23 37 37 07 ; '''''''g'####77.
6745  .byte 00 00 00 00 00 00 07 37 37 28 28 28 28 27 27 27 ; .......77(((('''
6755  .byte 27 27 27 27 27 27 27 27 27 27 27 27 27 27 27 27 ; ''''''''''''''''
6765  .byte 27 24 24 24 24 17 17 07 00 00 00 00 00 00 07 37 ; '$$$$..........7
6775  .byte 37 2A 2A 2A 2A 27 27 27 27 27 27 27 27 27 27 27 ; 7****'''''''''''
6785  .byte 27 27 27 27 27 27 27 27 27 24 24 24 24 17 17 07 ; '''''''''$$$$...
6795  .byte 00 00 00 00 00 00 07 37 37 2D 2D 2D 2D 27 07 27 ; .......77----'.'
67A5  .byte 27 27 27 27 27 27 27 27 27 27 27 27 27 27 27 07 ; '''''''''''''''.
67B5  .byte 27 24 24 24 24 17 17 07 00 00 00 00 00 00 07 C7 ; '$$$$...........
67C5  .byte C7 07 07 07 07 27 07 27 27 27 27 27 27 27 27 27 ; .....'.'''''''''
67D5  .byte 27 27 27 27 27 27 27 07 27 24 24 24 24 17 17 07 ; '''''''.'$$$$...
67E5  .byte 00 00 00 10 10 10 10 10 10 10 10 10 10 10 10 10 ; ................
67F5  .byte 10 10 10 C4 C8 C9 CA C9 CA C9 CA 00 00 00 00 00 ; ................
6805  .byte 00 00 00 00 00 00 00 00 00 00 00 00 00 00 00 00 ; ................
6815  .byte 00 00 00 02 02 02 02 02 02 02 02 AA 00 15 10 15 ; ................
6825  .byte 10 10 00 AA 00 14 10 14 04 14 00 55 00 00 00 00 ; ...........U....
6835  .byte 00 00 FF 55 00 00 00 00 00 00 FF 55 00 00 00 00 ; ...U.......U....
6845  .byte 00 00 FF 55 00 00 00 00 00 00 FF AA 96 98 A0 80 ; ...U............
6855  .byte 80 80 80 AA 00 00 00 00 00 00 00 AA 00 00 00 00 ; ................
6865  .byte 00 00 00 AA 00 00 00 00 00 00 00 AA 00 00 00 00 ; ................
6875  .byte 00 00 00 AA 00 00 00 00 00 00 00 AA 00 00 00 00 ; ................
6885  .byte 00 00 00 AA 00 00 00 00 00 00 00 AA 00 00 00 00 ; ................
6895  .byte 00 00 00 AA 00 00 00 00 00 00 00 AA 00 00 00 00 ; ................
68A5  .byte 00 00 00 AA 00 00 00 00 00 00 00 AA 00 00 00 00 ; ................
68B5  .byte 00 00 00 AA 00 00 00 00 00 00 00 AA 00 00 00 00 ; ................
68C5  .byte 00 00 00 AA 00 00 00 00 00 00 00 AA 00 00 00 00 ; ................
68D5  .byte 00 00 00 AA 96 98 A0 A0 A0 A0 80 AA 04 00 14 00 ; ................
68E5  .byte 14 00 14 AA 96 26 2A 0A 0A 02 02 AA 00 00 00 00 ; .....&*.........
68F5  .byte 00 33 FF AA 00 00 00 00 00 33 FF AA 00 00 00 00 ; .3.......3......
6905  .byte 00 33 FF AA 00 00 00 00 00 33 FF AA 00 14 10 14 ; .3.......3......
6915  .byte 04 14 00 AA 00 54 44 54 40 40 00 80 80 80 80 80 ; .....TDT@@......
6925  .byte 80 80 80 00 00 00 00 00 00 00 00 00 00 00 00 00 ; ................
6935  .byte 00 00 00 00 00 00 00 00 00 00 00 00 00 00 00 00 ; ................
6945  .byte 00 00 00 00 00 00 00 00 00 00 00 00 00 00 00 00 ; ................
6955  .byte 00 00 00 02 02 02 02 02 02 02 02 00 15 11 11 15 ; ................
6965  .byte 11 00 00 00 14 10 14 04 14 00 00 00 00 00 00 00 ; ................
6975  .byte 00 00 FF 00 00 00 00 00 00 00 FF 00 00 00 00 00 ; ................
6985  .byte 00 00 FF 00 00 00 00 00 00 00 FF 80 80 80 80 80 ; ................
6995  .byte 80 80 80 00 00 00 00 00 00 00 00 00 00 00 00 00 ; ................
69A5  .byte 00 00 00 00 00 00 00 00 00 00 00 00 00 00 00 00 ; ................
69B5  .byte 00 01 14 00 00 00 00 00 00 14 00 00 00 00 00 01 ; ................
69C5  .byte 50 04 00 00 00 00 00 14 C0 00 00 00 00 00 00 45 ; P..............E
69D5  .byte 00 00 00 00 00 00 00 15 00 04 00 00 00 00 00 44 ; ...............D
69E5  .byte 00 00 00 00 00 00 00 51 00 00 00 00 00 00 00 10 ; .......Q........
69F5  .byte C4 04 00 00 00 00 00 00 50 01 00 00 00 00 00 00 ; ........P.......
6A05  .byte 00 40 05 00 00 00 00 00 00 00 00 00 00 00 00 00 ; .@..............
6A15  .byte 00 00 00 80 80 84 80 80 80 80 A0 00 00 41 00 00 ; .............A..
6A25  .byte 14 00 14 02 02 12 02 02 02 02 02 00 00 00 00 00 ; ................
6A35  .byte 00 0C FF 00 00 00 00 00 00 CC FF C0 C0 00 00 00 ; ................
6A45  .byte C0 CC FF 00 00 00 00 00 00 CC FF 00 00 14 11 15 ; ................
6A55  .byte 14 11 00 00 00 10 10 10 10 14 00 80 80 80 80 80 ; ................
6A65  .byte 80 80 80 00 00 00 00 00 00 00 00 00 00 00 00 00 ; ................
6A75  .byte 00 00 00 00 00 00 00 00 00 00 00 00 00 00 00 00 ; ................
6A85  .byte 00 00 00 00 00 00 00 00 00 00 00 00 00 00 00 00 ; ................
6A95  .byte 00 00 00 02 02 02 02 02 02 02 02 00 14 10 14 10 ; ................
6AA5  .byte 10 00 00 00 44 44 44 44 10 00 00 00 00 00 00 00 ; ....DDDD........
6AB5  .byte 00 C3 FF 00 00 00 00 00 00 0C FF 00 00 00 00 00 ; ................
6AC5  .byte 00 30 FF 00 00 00 00 00 00 C3 FF 80 80 80 80 80 ; .0..............
6AD5  .byte 80 80 80 00 00 00 00 00 00 01 04 00 00 00 05 10 ; ................
6AE5  .byte 40 00 00 01 14 40 04 00 00 00 00 00 00 00 44 00 ; @....@........D.
6AF5  .byte 00 00 00 00 00 00 44 01 00 04 00 10 00 40 44 00 ; ......D......@D.
6B05  .byte 00 00 00 0C 00 00 44 00 00 00 00 00 00 00 C4 00 ; ......D.........
6B15  .byte 00 0C 00 04 00 04 40 04 00 04 00 00 00 00 44 00 ; ......@.......D.
6B25  .byte 00 0C 00 0C 00 00 C4 00 00 00 00 01 00 00 44 00 ; ..............D.
6B35  .byte 00 00 00 00 00 40 04 10 00 04 00 00 00 00 44 00 ; .....@........D.
6B45  .byte 00 00 00 40 05 00 44 00 00 00 00 00 00 40 14 01 ; ...@..D......@..
6B55  .byte 00 00 00 20 20 28 08 0A 42 10 04 00 14 00 14 00 ; ...  (..B.......
6B65  .byte AA 00 00 0A 0A 26 26 96 AA 02 02 00 00 00 00 00 ; .....&&.........
6B75  .byte 00 0C FF 00 00 00 00 00 00 30 FF C0 C0 00 00 00 ; .........0......
6B85  .byte C0 C3 FF 00 00 00 00 00 00 0C FF 00 14 11 11 11 ; ................
6B95  .byte 14 00 00 00 14 10 10 10 14 00 00 80 80 80 80 80 ; ................
6BA5  .byte 80 80 80 00 00 00 00 00 00 00 00 00 00 00 00 00 ; ................
6BB5  .byte 00 00 00 00 00 00 00 00 00 00 00 00 00 00 00 00 ; ................
6BC5  .byte 00 00 00 00 00 00 00 00 00 00 00 00 00 00 00 00 ; ................
6BD5  .byte 00 00 00 02 02 02 02 02 02 02 02 00 14 10 10 10 ; ................
6BE5  .byte 14 00 00 00 54 10 10 10 10 00 00 00 00 00 00 00 ; ....T...........
6BF5  .byte 00 C0 FF 00 00 00 00 00 00 C0 FF 00 00 00 00 00 ; ................
6C05  .byte 00 C0 FF 00 00 00 00 00 00 C0 FF 80 80 80 80 80 ; ................
6C15  .byte 80 80 80 00 10 10 40 44 00 40 00 00 00 00 00 44 ; ......@D.@.....D
6C25  .byte 00 00 00 00 00 00 00 44 00 00 00 00 00 00 00 44 ; .......D.......D
6C35  .byte 00 04 00 10 00 40 00 44 00 00 00 00 00 00 00 44 ; .....@.D.......D
6C45  .byte 00 00 00 00 00 00 00 44 00 00 00 00 00 00 00 44 ; .......D.......D
6C55  .byte 00 00 00 04 C0 04 00 48 2A 04 00 00 C0 00 00 44 ; .......H*......D
6C65  .byte 00 00 00 00 00 00 00 44 00 00 00 00 00 00 00 44 ; .......D.......D
6C75  .byte 00 00 00 01 00 00 00 44 00 00 00 00 00 40 00 44 ; .......D.....@.D
6C85  .byte 00 04 00 00 00 00 00 44 00 00 00 00 00 00 00 44 ; .......D.......D
6C95  .byte 00 00 00 04 01 01 00 44 00 00 00 00 00 00 40 00 ; .......D......@.
6CA5  .byte 40 00 40 02 02 02 02 02 02 02 02 00 00 00 00 00 ; @.@.............
6CB5  .byte 00 00 FF 00 00 00 00 00 00 00 FF 00 00 00 00 00 ; ................
6CC5  .byte 00 00 FF 00 00 00 00 00 00 00 FF 00 01 05 01 01 ; ................
6CD5  .byte 05 00 00 00 00 00 00 00 40 00 00 80 80 80 80 80 ; ........@.......
6CE5  .byte 80 80 80 00 00 00 00 00 00 00 00 00 00 00 00 00 ; ................
6CF5  .byte 00 00 00 00 00 00 00 00 00 00 00 00 00 00 00 00 ; ................
6D05  .byte 00 00 00 00 00 00 00 00 00 00 00 00 00 00 00 00 ; ................
6D15  .byte 00 00 00 02 02 02 02 02 02 02 02 00 10 10 10 10 ; ................
6D25  .byte 14 00 00 00 54 10 10 10 10 00 00 00 00 00 00 00 ; ....T...........
6D35  .byte 00 C3 FF 00 00 00 00 00 00 0C FF 00 00 00 00 00 ; ................
6D45  .byte 00 30 FF 00 00 00 00 00 00 C0 FF 80 80 80 80 80 ; .0..............
6D55  .byte 80 80 80 40 10 10 04 04 01 00 00 00 00 00 00 00 ; ...@............
6D65  .byte 40 44 10 00 00 00 00 01 00 44 00 10 00 40 00 00 ; @D.......D...@..
6D75  .byte 00 44 00 00 00 00 00 00 00 44 00 00 00 00 00 00 ; .D.......D......
6D85  .byte 00 44 00 00 00 00 00 00 00 44 00 00 00 00 00 00 ; .D.......D......
6D95  .byte 00 44 00 04 00 04 00 04 00 44 00 00 00 00 00 00 ; .D.......D......
6DA5  .byte 00 44 00 00 00 00 00 00 00 44 00 00 00 00 00 00 ; .D.......D......
6DB5  .byte 00 44 00 00 00 00 00 00 00 44 00 01 00 00 00 00 ; .D.......D......
6DC5  .byte 00 44 00 00 00 40 00 10 00 44 00 00 00 00 00 00 ; .D...@...D......
6DD5  .byte 00 44 01 00 01 01 05 04 10 40 00 40 00 00 00 00 ; .D.......@.@....
6DE5  .byte 00 00 00 02 02 02 02 02 02 02 02 00 00 00 00 00 ; ................
6DF5  .byte 00 00 FF 00 00 00 00 00 00 00 FF 00 00 00 00 00 ; ................
6E05  .byte 00 00 FF 00 00 00 00 00 00 00 FF 05 00 05 04 05 ; ................
6E15  .byte 00 00 00 40 40 40 00 40 00 00 00 80 80 80 80 80 ; ...@@@.@........
6E25  .byte 80 80 80 00 00 00 00 00 00 00 00 00 00 00 00 00 ; ................
6E35  .byte 00 00 00 00 00 00 00 00 00 00 00 00 00 00 00 00 ; ................
6E45  .byte 00 00 00 00 00 00 00 00 00 00 00 00 00 00 00 00 ; ................
6E55  .byte 00 00 00 02 02 02 02 02 02 02 02 00 15 11 15 11 ; ................
6E65  .byte 11 00 00 00 10 10 10 10 14 00 00 00 00 00 00 00 ; ................
6E75  .byte 00 C3 FF 00 00 00 00 00 00 03 FF 00 00 00 00 00 ; ................
6E85  .byte 00 03 FF 00 00 00 00 00 00 00 FF 80 80 80 80 80 ; ................
6E95  .byte 80 80 80 55 55 50 50 55 55 50 50 04 01 00 00 00 ; ...UUPPUUPP.....
6EA5  .byte 00 00 00 10 40 10 01 00 00 00 00 00 00 00 40 14 ; ....@.........@.
6EB5  .byte 00 00 00 00 00 00 00 00 50 01 00 00 00 00 00 00 ; ........P.......
6EC5  .byte 00 44 00 00 00 00 00 00 00 00 51 00 00 00 00 00 ; .D........Q.....
6ED5  .byte 00 00 14 04 00 04 00 04 00 04 45 00 00 00 00 00 ; ..........E.....
6EE5  .byte 00 00 11 00 00 00 00 00 00 00 44 00 00 00 00 00 ; ..........D.....
6EF5  .byte 00 11 40 00 00 00 00 00 05 40 00 00 00 00 00 14 ; ..@......@......
6F05  .byte 00 00 00 01 00 05 50 00 00 00 00 04 40 00 00 00 ; ......P.....@...
6F15  .byte 00 00 00 00 00 00 00 00 00 00 00 55 55 40 40 55 ; ...........UU@@U
6F25  .byte 55 01 01 02 02 02 02 02 02 02 02 00 00 00 00 00 ; U...............
6F35  .byte 00 00 FF 00 00 00 00 00 00 00 FF 00 00 00 00 00 ; ................
6F45  .byte 00 00 FF 00 00 00 00 00 00 00 FF 05 00 05 00 05 ; ................
6F55  .byte 00 00 04 40 40 40 40 40 00 00 00 80 80 80 80 80 ; ...@@@@@........
6F65  .byte 80 80 80 00 00 00 00 00 00 00 00 00 00 00 00 00 ; ................
6F75  .byte 00 00 00 00 00 00 00 00 00 00 00 00 00 00 00 00 ; ................
6F85  .byte 00 00 00 00 00 00 00 00 00 00 00 00 00 00 00 00 ; ................
6F95  .byte 00 00 00 02 02 02 02 02 02 02 02 00 00 33 15 11 ; .............3..
6FA5  .byte 00 00 AA 00 00 F0 5C 50 00 00 AA 00 54 54 54 54 ; ......\P....TTTT
6FB5  .byte 54 00 AA 00 54 54 54 54 54 00 AA 00 54 54 54 54 ; T...TTTTT...TTTT
6FC5  .byte 54 00 AA 00 54 54 54 54 54 00 AA 80 80 80 80 A0 ; T...TTTTT.......
6FD5  .byte 98 96 AA 55 55 00 00 00 00 00 AA 00 00 00 00 00 ; ...UU...........
6FE5  .byte 00 00 AA 00 00 00 00 00 00 00 AA 00 00 00 00 00 ; ................
6FF5  .byte 00 00 AA 00 00 00 00 00 00 00 AA 00 00 00 00 00 ; ................
7005  .byte 00 00 AA 00 0F 0C 0F 0C 0F 00 AA 00 CC 0C 0C 0C ; ................
7015  .byte CF 00 AA 00 0C 0C 0C 0C CC 00 AA 00 FC 30 30 30 ; .............000
7025  .byte 30 00 AA 00 FC C0 F0 C0 FC 00 AA 00 00 00 00 00 ; 0...............
7035  .byte 00 00 AA 00 00 00 00 00 00 00 AA 00 00 00 00 00 ; ................
7045  .byte 00 00 AA 00 00 00 00 00 00 00 AA 00 00 00 00 00 ; ................
7055  .byte 00 00 AA 00 00 00 00 00 00 00 AA 55 55 00 00 00 ; ...........UU...
7065  .byte 00 00 AA 02 02 02 02 0A 26 96 AA 00 00 00 00 00 ; ........&.......
7075  .byte 00 00 FF 00 00 00 00 00 00 00 FF 00 00 00 00 00 ; ................
7085  .byte 00 00 FF 00 00 00 00 00 00 00 FF 04 04 04 05 00 ; ................
7095  .byte 00 00 AA 00 40 40 40 40 00 00 AA 80 80 80 80 80 ; ....@@@@........
70A5  .byte 80 80 80 00 00 00 00 00 00 00 00 00 00 00 00 00 ; ................
70B5  .byte 00 00 00 00 00 00 00 00 00 00 00 00 00 00 00 00 ; ................
70C5  .byte 00 00 00 00 00 00 00 00 00 00 00 00 00 00 00 00 ; ................
70D5  .byte 00 00 00 00 00 00 00 00 00 00 00 DB 00 00 00 00 ; ................
70E5  .byte 00 00 00 00 00 00 00 00 00 00 00 00 00 00 00 00 ; ................
70F5  .byte 00 00 00 00 00 00 00 00 00 00 00 00 00 00 00 00 ; ................
7105  .byte 00 00 10 00 00 10 00 00 10 00 00 10 00 00 10 00 ; ................
7115  .byte 00 00 00 00 00 00 00 00 00 3E 00 F8 00 00 00 00 ; .........>......
7125  .byte 00 00 00 00 00 00 10 00 00 10 00 00 10 00 00 10 ; ................
7135  .byte 00 00 10 00 00 00 00 00 00 00 3A 00 00 00 00 00 ; ..........:.....
7145  .byte 00 00 10 00 00 10 00 00 10 00 07 FF C0 04 00 40 ; ...............@
7155  .byte 00 00 00 00 00 00 00 00 00 00 00 00 00 00 00 00 ; ................
7165  .byte 00 00 00 00 00 04 00 40 07 FF C0 00 10 00 00 10 ; .......@........
7175  .byte 00 00 10 00 00 00 00 00 00 00 31 00 00 00 00 00 ; ..........1.....
7185  .byte 00 00 00 00 00 FE 00 00 44 00 00 28 00 00 10 00 ; ........D..(....
7195  .byte 30 00 18 28 00 28 24 00 48 22 00 88 24 00 48 28 ; 0..(.($.H"..$.H(
71A5  .byte 00 28 30 00 18 00 10 00 00 28 00 00 44 00 00 FE ; .(0......(..D...
71B5  .byte 00 00 00 00 00 00 00 00 00 00 45 3F FF F8 20 10 ; ..........E?.. .
71C5  .byte 08 20 38 08 08 10 20 C4 38 46 82 10 82 81 39 02 ; . 8... .8F....9.
71D5  .byte 80 10 02 80 7C 02 A6 44 CA FC 10 7E A6 44 CA 80 ; ....|..D...~.D..
71E5  .byte 7C 02 80 10 02 81 39 02 82 10 82 C4 38 46 08 10 ; |.....9.....8F..
71F5  .byte 20 20 38 08 20 10 08 3F FF F8 A3 00 00 00 00 43 ;   8. ..?.......C
7205  .byte 00 10 C8 80 04 31 C0 13 04 C8 08 2C 24 59 2D CC ; .....1.....,$Y-.
7215  .byte 13 56 38 CA 6E 16 0E 6D 8B 20 DB 98 06 CB B0 23 ; .V8.n..m. .....#
7225  .byte A9 8A 8E 6D 8B 13 24 C8 33 2D 94 08 63 88 18 04 ; ...m..$.3-..c...
7235  .byte 20 18 C2 0C 00 C8 80 00 06 00 44 00 2A 00 08 AA ;  .........D.*...
7245  .byte 80 0A 99 A0 2A AA A8 0A AA AA 26 A6 A8 AA 6A AA ; ....*.....&...j.
7255  .byte 2A AA 98 AA AA AA AA AA AA 2A AA A8 AB EA FA AF ; *........*......
7265  .byte FB FE AF BB EE AB EA FA 2A AA A8 0A AA A0 02 AA ; ........*.......
7275  .byte 80 00 96 00 00 14 00 00 00 00 44 00 00 00 00 00 ; ..........D.....
7285  .byte 00 00 0A 00 0A 2A 80 2A A6 A0 2A AA A8 AA 6A A8 ; .....*.*..*...j.
7295  .byte 2A AA A8 AA AA AA AA AA AA 2A AA A8 AB EA FA AF ; *........*......
72A5  .byte FB FE AE FB BE AB EA FA 2A AA A8 0A AA A0 01 AA ; ........*.......
72B5  .byte 40 00 96 00 00 14 00 00 00 00 54 DC 80 1F 87 29 ; @.........T....)
72C5  .byte 80 80 E3 8A 42 CE 41 9D 20 CB DC 44 E3 C8 22 33 ; ....B.A. ..D.."3
72D5  .byte A8 B9 F3 03 D8 22 B7 F9 CF 37 F9 D3 22 76 7A 94 ; ....."...7.."vz.
72E5  .byte 37 F3 D3 FC F1 EF E9 B2 01 50 25 D9 C3 22 B1 F0 ; 7........P%.."..
72F5  .byte CF 32 E9 CB 22 7F 8F A3 49 11 48                ; .2.."...I.H

; ==== sub_7300 (1 caller) ====
7300  8D EF 04  STA $04EF
7303  A9 01     LDA #$01

; ==== sub_7305 (1 caller) ====
7305  48        PHA
7306  A2 0C     LDX #$0C
7308  EC EF 04  CPX $04EF
730B  90 0E     BCC $731B
730D  7D B0 04  ADC $04B0,X
7310  CA        DEX
7311  10 FA     BPL $730D
7313  6D CA 04  ADC $04CA
7316  CD AF 04  CMP $04AF
7319  68        PLA
731A  60        RTS
731B  AC EF 04  LDY $04EF
731E  79 B0 04  ADC $04B0,Y
7321  C9 C8     CMP #$C8
7323  68        PLA
7324  60        RTS

; ==== sub_7325 (34 callers) ====
7325  85 31     STA $31
7327  60        RTS

; ==== sub_7328 (10 callers) ====
7328  85 33     STA $33
732A  60        RTS

; ==== sub_732B (6 callers) ====
732B  E6 33     INC $33
732D  60        RTS

; ==== sub_732E (5 callers) ====
732E  60        RTS

; ==== sub_732F (7 callers) ====
732F  20 2F B0  JSR $B02F
7332  20 D2 28  JSR $28D2
7335  A9 30     LDA #$30
7337  20 2E 73  JSR $732E
733A  60        RTS

; ==== sub_733B (4 callers) ====
733B  20 3E 73  JSR $733E

; ==== sub_733E (1 caller) ====
733E  20 41 73  JSR $7341

; ==== sub_7341 (2 callers) ====
7341  A5 7F     LDA $7F
7343  18        CLC
7344  65 81     ADC $81
7346  AA        TAX
7347  A5 80     LDA $80
7349  65 82     ADC $82
734B  A8        TAY
734C  A5 81     LDA $81
734E  85 7F     STA $7F
7350  A5 82     LDA $82
7352  85 80     STA $80
7354  A5 84     LDA $84
7356  85 82     STA $82
7358  A5 83     LDA $83
735A  85 81     STA $81
735C  18        CLC
735D  8A        TXA
735E  65 81     ADC $81
7360  85 83     STA $83
7362  98        TYA
7363  65 82     ADC $82
7365  85 84     STA $84
7367  60        RTS

; ==== sub_7368 (1 caller) ====
7368  AD 07 05  LDA $0507
736B  0D 08 05  ORA $0508
736E  D0 03     BNE $7373
7370  4C 2B 73  JMP $732B
7373  A9 BF     LDA #$BF
7375  20 79 80  JSR $8079
7378  AE 07 05  LDX $0507
737B  AC 08 05  LDY $0508
737E  38        SEC
737F  20 35 7B  JSR $7B35
7382  A9 C3     LDA #$C3

; ==== sub_7384 (6 callers) ====
7384  20 7E 80  JSR $807E

; ==== sub_7387 (3 callers) ====
7387  20 2B 73  JSR $732B

; ==== sub_738A (2 callers) ====
738A  A9 80     LDA #$80
738C  85 34     STA $34

; ==== sub_738E (6 callers) ====
738E  A9 0C     LDA #$0C
7390  4C 7E 80  JMP $807E
7393  A9 AD     LDA #$AD
7395  20 7E 80  JSR $807E
7398  4C D3 73  JMP $73D3

; ==== sub_739B (10 callers) ====
739B  20 7E 80  JSR $807E
739E  4C C5 7B  JMP $7BC5

; --- data_on_system  $73A1 — "data on system" screen: print government/economy/population/productivity from the system block $0500 ---
73A1  A9 01     LDA #$01
73A3  20 2F 73  JSR $732F
73A6  A9 09     LDA #$09
73A8  20 25 73  JSR $7325
73AB  A9 A3     LDA #$A3
73AD  20 D6 28  JSR $28D6
73B0  20 87 73  JSR $7387
73B3  20 68 73  JSR $7368
73B6  A9 C2     LDA #$C2
73B8  20 79 80  JSR $8079
73BB  AD 00 05  LDA $0500
73BE  18        CLC
73BF  69 01     ADC #$01
73C1  4A        LSR A
73C2  C9 02     CMP #$02
73C4  F0 CD     BEQ $7393
73C6  AD 00 05  LDA $0500
73C9  90 03     BCC $73CE
73CB  E9 05     SBC #$05
73CD  18        CLC
73CE  69 AA     ADC #$AA
73D0  20 7E 80  JSR $807E
73D3  AD 00 05  LDA $0500
73D6  4A        LSR A
73D7  4A        LSR A
73D8  18        CLC
73D9  69 A8     ADC #$A8
73DB  20 84 73  JSR $7384
73DE  A9 A2     LDA #$A2
73E0  20 79 80  JSR $8079
73E3  AD 01 05  LDA $0501
73E6  18        CLC
73E7  69 B1     ADC #$B1
73E9  20 84 73  JSR $7384
73EC  A9 C4     LDA #$C4
73EE  20 79 80  JSR $8079
73F1  AE 02 05  LDX $0502
73F4  E8        INX
73F5  18        CLC
73F6  20 52 2E  JSR $2E52
73F9  20 87 73  JSR $7387
73FC  A9 C0     LDA #$C0
73FE  20 79 80  JSR $8079
7401  38        SEC
7402  AE 03 05  LDX $0503
7405  20 52 2E  JSR $2E52
7408  A9 C6     LDA #$C6
740A  20 84 73  JSR $7384
740D  A9 28     LDA #$28
740F  20 7E 80  JSR $807E
7412  A5 83     LDA $83
7414  30 08     BMI $741E
7416  A9 BC     LDA #$BC
7418  20 7E 80  JSR $807E
741B  4C 5A 74  JMP $745A
741E  A5 84     LDA $84
7420  4A        LSR A
7421  4A        LSR A
7422  48        PHA
7423  29 07     AND #$07
7425  C9 03     CMP #$03
7427  B0 05     BCS $742E
7429  69 E3     ADC #$E3
742B  20 9B 73  JSR $739B
742E  68        PLA
742F  4A        LSR A
7430  4A        LSR A
7431  4A        LSR A
7432  C9 06     CMP #$06
7434  B0 05     BCS $743B
7436  69 E6     ADC #$E6
7438  20 9B 73  JSR $739B
743B  A5 82     LDA $82
743D  45 80     EOR $80
743F  29 07     AND #$07
7441  85 8E     STA $8E
7443  C9 06     CMP #$06
7445  B0 05     BCS $744C
7447  69 EC     ADC #$EC
7449  20 9B 73  JSR $739B
744C  A5 84     LDA $84
744E  29 03     AND #$03
7450  18        CLC
7451  65 8E     ADC $8E
7453  29 07     AND #$07
7455  69 F2     ADC #$F2
7457  20 7E 80  JSR $807E
745A  A9 53     LDA #$53
745C  20 7E 80  JSR $807E
745F  A9 29     LDA #$29
7461  20 84 73  JSR $7384
7464  A9 C1     LDA #$C1
7466  20 79 80  JSR $8079
7469  AE 05 05  LDX $0505
746C  AC 06 05  LDY $0506
746F  20 34 7B  JSR $7B34
7472  20 C5 7B  JSR $7BC5
7475  A9 00     LDA #$00
7477  85 34     STA $34
7479  A9 4D     LDA #$4D
747B  20 7E 80  JSR $807E
747E  A9 E2     LDA #$E2
7480  20 84 73  JSR $7384
7483  A9 FA     LDA #$FA
7485  20 79 80  JSR $8079
7488  A5 84     LDA $84
748A  A6 82     LDX $82
748C  29 0F     AND #$0F
748E  18        CLC
748F  69 0B     ADC #$0B
7491  A8        TAY
7492  20 35 7B  JSR $7B35
7495  20 C5 7B  JSR $7BC5
7498  A9 6B     LDA #$6B
749A  20 21 2F  JSR $2F21
749D  A9 6D     LDA #$6D
749F  20 21 2F  JSR $2F21
74A2  20 87 73  JSR $7387
74A5  4C 2C 3D  JMP $3D2C
74A8  .byte 60                                              ; `
74A9  A5 80     LDA $80
74AB  29 07     AND #$07
74AD  8D 00 05  STA $0500
74B0  A5 81     LDA $81
74B2  4A        LSR A
74B3  4A        LSR A
74B4  4A        LSR A
74B5  29 07     AND #$07
74B7  8D 01 05  STA $0501
74BA  4A        LSR A
74BB  D0 08     BNE $74C5
74BD  AD 00 05  LDA $0500
74C0  09 02     ORA #$02
74C2  8D 00 05  STA $0500
74C5  AD 00 05  LDA $0500
74C8  49 07     EOR #$07
74CA  18        CLC
74CB  8D 02 05  STA $0502
74CE  A5 82     LDA $82
74D0  29 03     AND #$03
74D2  6D 02 05  ADC $0502
74D5  8D 02 05  STA $0502
74D8  AD 01 05  LDA $0501
74DB  4A        LSR A
74DC  6D 02 05  ADC $0502
74DF  8D 02 05  STA $0502
74E2  0A        ASL A
74E3  0A        ASL A
74E4  6D 00 05  ADC $0500
74E7  6D 01 05  ADC $0501
74EA  69 01     ADC #$01
74EC  8D 03 05  STA $0503
74EF  AD 00 05  LDA $0500
74F2  49 07     EOR #$07
74F4  69 03     ADC #$03
74F6  85 2E     STA $2E
74F8  AD 01 05  LDA $0501
74FB  69 04     ADC #$04
74FD  85 9A     STA $9A
74FF  20 98 39  JSR $3998
7502  AD 03 05  LDA $0503
7505  85 9A     STA $9A
7507  20 98 39  JSR $3998
750A  06 2E     ASL $2E
750C  2A        ROL A
750D  06 2E     ASL $2E
750F  2A        ROL A
7510  06 2E     ASL $2E
7512  2A        ROL A
7513  8D 06 05  STA $0506
7516  A5 2E     LDA $2E
7518  8D 05 05  STA $0505
751B  60        RTS
751C  A9 40     LDA #$40
751E  20 2F B0  JSR $B02F
7521  A9 10     LDA #$10
7523  20 2E 73  JSR $732E
7526  A9 07     LDA #$07
7528  20 25 73  JSR $7325
752B  20 A0 79  JSR $79A0
752E  A9 C7     LDA #$C7
7530  20 7E 80  JSR $807E
7533  20 DD 28  JSR $28DD
7536  A9 98     LDA #$98
7538  20 E2 28  JSR $28E2
753B  20 DA 75  JSR $75DA
753E  A2 00     LDX #$00
7540  86 9D     STX $9D
7542  A6 82     LDX $82
7544  A4 83     LDY $83
7546  98        TYA
7547  09 50     ORA #$50
7549  85 A1     STA $A1
754B  A5 80     LDA $80
754D  4A        LSR A
754E  18        CLC
754F  69 18     ADC #$18
7551  85 6C     STA $6C
7553  20 37 29  JSR $2937
7556  20 3B 73  JSR $733B
7559  A6 9D     LDX $9D
755B  E8        INX
755C  D0 E2     BNE $7540
755E  AD 09 05  LDA $0509
7561  85 8E     STA $8E
7563  AD 0A 05  LDA $050A
7566  4A        LSR A
7567  85 8F     STA $8F
7569  A9 04     LDA #$04
756B  85 90     STA $90

; ==== sub_756D (2 callers) ====
756D  A9 18     LDA #$18
756F  A6 A0     LDX $A0
7571  10 02     BPL $7575
7573  A9 00     LDA #$00
7575  85 93     STA $93
7577  A5 8E     LDA $8E
7579  38        SEC
757A  E5 90     SBC $90
757C  B0 02     BCS $7580
757E  A9 00     LDA #$00
7580  85 6B     STA $6B
7582  A5 8E     LDA $8E
7584  18        CLC
7585  65 90     ADC $90
7587  90 02     BCC $758B
7589  A9 FF     LDA #$FF
758B  85 6D     STA $6D
758D  A5 8F     LDA $8F
758F  18        CLC
7590  65 93     ADC $93
7592  85 6C     STA $6C
7594  85 6E     STA $6E
7596  20 9D B4  JSR $B49D
7599  A5 8F     LDA $8F
759B  38        SEC
759C  E5 90     SBC $90
759E  B0 02     BCS $75A2
75A0  A9 00     LDA #$00
75A2  18        CLC
75A3  65 93     ADC $93
75A5  85 6C     STA $6C
75A7  A5 8F     LDA $8F
75A9  18        CLC
75AA  65 90     ADC $90
75AC  65 93     ADC $93
75AE  C9 98     CMP #$98
75B0  90 06     BCC $75B8
75B2  A6 A0     LDX $A0
75B4  30 02     BMI $75B8
75B6  A9 97     LDA #$97
75B8  85 6E     STA $6E
75BA  A5 8E     LDA $8E
75BC  85 6B     STA $6B
75BE  85 6D     STA $6D
75C0  4C 9D B4  JMP $B49D
75C3  A9 68     LDA #$68
75C5  85 8E     STA $8E
75C7  A9 5A     LDA #$5A
75C9  85 8F     STA $8F
75CB  A9 10     LDA #$10
75CD  85 90     STA $90
75CF  20 6D 75  JSR $756D
75D2  AD A6 04  LDA $04A6
75D5  85 77     STA $77
75D7  4C FE 75  JMP $75FE

; ==== sub_75DA (2 callers) ====
75DA  A5 A0     LDA $A0
75DC  30 E5     BMI $75C3
75DE  AD A6 04  LDA $04A6
75E1  4A        LSR A
75E2  4A        LSR A
75E3  85 77     STA $77
75E5  AD 9A 04  LDA $049A
75E8  85 8E     STA $8E
75EA  AD 9B 04  LDA $049B
75ED  4A        LSR A
75EE  85 8F     STA $8F
75F0  A9 07     LDA #$07
75F2  85 90     STA $90
75F4  20 6D 75  JSR $756D
75F7  A5 8F     LDA $8F
75F9  18        CLC
75FA  69 18     ADC #$18
75FC  85 8F     STA $8F
75FE  A5 8E     LDA $8E
7600  85 35     STA $35
7602  A5 8F     LDA $8F
7604  85 43     STA $43
7606  A2 00     LDX #$00
7608  86 44     STX $44
760A  86 36     STX $36
760C  E8        INX
760D  86 7E     STX $7E
760F  A2 02     LDX #$02
7611  86 AC     STX $AC
7613  4C 4E 89  JMP $894E
7616  A9 02     LDA #$02
7618  20 2F 73  JSR $732F
761B  20 DB 7B  JSR $7BDB
761E  A9 80     LDA #$80
7620  85 34     STA $34
7622  A9 00     LDA #$00
7624  8D EF 04  STA $04EF
7627  20 46 7B  JSR $7B46
762A  AD ED 04  LDA $04ED
762D  D0 0F     BNE $763E
762F  4C A4 76  JMP $76A4
7632  A0 B0     LDY #$B0
7634  20 C5 7B  JSR $7BC5
7637  98        TYA
7638  20 3C 7B  JSR $7B3C
763B  20 27 7F  JSR $7F27
763E  20 E0 BC  JSR $BCE0
7641  A9 CC     LDA #$CC
7643  20 7E 80  JSR $807E
7646  AD EF 04  LDA $04EF
7649  18        CLC
764A  69 D0     ADC #$D0
764C  20 7E 80  JSR $807E
764F  A9 2F     LDA #$2F
7651  20 7E 80  JSR $807E
7654  20 B8 7B  JSR $7BB8
7657  A9 3F     LDA #$3F
7659  20 7E 80  JSR $807E
765C  20 8E 73  JSR $738E
765F  A2 00     LDX #$00
7661  86 9B     STX $9B
7663  A2 0C     LDX #$0C
7665  86 06     STX $06
7667  20 C9 76  JSR $76C9
766A  B0 C6     BCS $7632
766C  85 2E     STA $2E
766E  20 05 73  JSR $7305
7671  A0 CE     LDY #$CE
7673  A5 9B     LDA $9B
7675  F0 02     BEQ $7679
7677  B0 BB     BCS $7634
7679  AD EC 04  LDA $04EC
767C  85 9A     STA $9A
767E  20 A2 7D  JSR $7DA2
7681  20 5A 7D  JSR $7D5A
7684  A0 C5     LDY #$C5
7686  90 AC     BCC $7634
7688  AC EF 04  LDY $04EF
768B  A5 9B     LDA $9B
768D  48        PHA
768E  18        CLC
768F  79 B0 04  ADC $04B0,Y
7692  99 B0 04  STA $04B0,Y
7695  B9 CE 04  LDA $04CE,Y
7698  38        SEC
7699  E5 9B     SBC $9B
769B  99 CE 04  STA $04CE,Y
769E  68        PLA
769F  F0 03     BEQ $76A4
76A1  20 1F 7F  JSR $7F1F
76A4  AD EF 04  LDA $04EF
76A7  18        CLC
76A8  69 05     ADC #$05
76AA  20 28 73  JSR $7328
76AD  A9 00     LDA #$00
76AF  20 25 73  JSR $7325
76B2  EE EF 04  INC $04EF
76B5  AD EF 04  LDA $04EF
76B8  C9 11     CMP #$11
76BA  B0 03     BCS $76BF
76BC  4C 27 76  JMP $7627
76BF  A9 10     LDA #$10
76C1  8D 0C 05  STA $050C
76C4  A9 20     LDA #$20
76C6  4C B0 8F  JMP $8FB0

; ==== sub_76C9 (3 callers) ====
76C9  A9 40     LDA #$40
76CB  8D 0C 05  STA $050C
76CE  A2 00     LDX #$00
76D0  86 9B     STX $9B
76D2  A2 0C     LDX #$0C
76D4  86 06     STX $06
76D6  20 E2 98  JSR $98E2
76D9  A6 9B     LDX $9B
76DB  D0 08     BNE $76E5
76DD  C9 59     CMP #$59
76DF  F0 3A     BEQ $771B
76E1  C9 4E     CMP #$4E
76E3  F0 41     BEQ $7726
76E5  85 9A     STA $9A
76E7  38        SEC
76E8  E9 30     SBC #$30
76EA  90 27     BCC $7713
76EC  C9 0A     CMP #$0A
76EE  B0 CF     BCS $76BF
76F0  85 9C     STA $9C
76F2  A5 9B     LDA $9B
76F4  C9 1A     CMP #$1A
76F6  B0 1B     BCS $7713
76F8  0A        ASL A
76F9  85 BB     STA $BB
76FB  0A        ASL A
76FC  0A        ASL A
76FD  65 BB     ADC $BB
76FF  65 9C     ADC $9C
7701  85 9B     STA $9B
7703  CD ED 04  CMP $04ED
7706  F0 02     BEQ $770A
7708  B0 09     BCS $7713
770A  A5 9A     LDA $9A
770C  20 21 2F  JSR $2F21
770F  C6 06     DEC $06
7711  D0 C3     BNE $76D6
7713  A9 10     LDA #$10
7715  8D 0C 05  STA $050C
7718  A5 9B     LDA $9B
771A  60        RTS
771B  20 21 2F  JSR $2F21
771E  AD ED 04  LDA $04ED
7721  85 9B     STA $9B
7723  4C 13 77  JMP $7713
7726  20 21 2F  JSR $2F21
7729  A9 00     LDA #$00
772B  85 9B     STA $9B
772D  4C 13 77  JMP $7713
7730  20 8E 73  JSR $738E
7733  A9 B0     LDA #$B0
7735  20 3C 7B  JSR $7B3C
7738  20 27 7F  JSR $7F27
773B  AC EF 04  LDY $04EF
773E  4C 5D 77  JMP $775D
7741  A9 04     LDA #$04
7743  20 2F 73  JSR $732F
7746  A9 0A     LDA #$0A
7748  20 25 73  JSR $7325
774B  A9 CD     LDA #$CD
774D  20 7E 80  JSR $807E
7750  A9 CE     LDA #$CE
7752  20 D6 28  JSR $28D6
7755  20 8E 73  JSR $738E
7758  A0 00     LDY #$00
775A  8C EF 04  STY $04EF
775D  BE B0 04  LDX $04B0,Y
7760  F0 68     BEQ $77CA
7762  98        TYA
7763  0A        ASL A
7764  0A        ASL A
7765  A8        TAY
7766  B9 9E 99  LDA $999E,Y
7769  85 8F     STA $8F
776B  8A        TXA
776C  48        PHA
776D  20 8A 73  JSR $738A
7770  18        CLC
7771  AD EF 04  LDA $04EF
7774  69 D0     ADC #$D0
7776  20 7E 80  JSR $807E
7779  A9 0E     LDA #$0E
777B  20 25 73  JSR $7325
777E  68        PLA
777F  AA        TAX
7780  8D ED 04  STA $04ED
7783  18        CLC
7784  20 52 2E  JSR $2E52
7787  20 B8 7B  JSR $7BB8
778A  A5 A0     LDA $A0
778C  C9 04     CMP #$04
778E  D0 3A     BNE $77CA
7790  A9 CD     LDA #$CD
7792  20 7E 80  JSR $807E
7795  A9 CE     LDA #$CE
7797  20 8D 23  JSR $238D
779A  20 C9 76  JSR $76C9
779D  F0 2B     BEQ $77CA
779F  B0 8F     BCS $7730
77A1  AD EF 04  LDA $04EF
77A4  A2 FF     LDX #$FF
77A6  86 34     STX $34
77A8  20 46 7B  JSR $7B46
77AB  AC EF 04  LDY $04EF
77AE  B9 B0 04  LDA $04B0,Y
77B1  38        SEC
77B2  E5 9B     SBC $9B
77B4  99 B0 04  STA $04B0,Y
77B7  A5 9B     LDA $9B
77B9  85 2E     STA $2E
77BB  AD EC 04  LDA $04EC
77BE  85 9A     STA $9A
77C0  20 A2 7D  JSR $7DA2
77C3  20 81 7D  JSR $7D81
77C6  A9 00     LDA #$00
77C8  85 34     STA $34
77CA  AC EF 04  LDY $04EF
77CD  C8        INY
77CE  C0 11     CPY #$11
77D0  90 88     BCC $775A
77D2  A5 A0     LDA $A0
77D4  C9 04     CMP #$04
77D6  D0 06     BNE $77DE
77D8  20 27 7F  JSR $7F27
77DB  4C BF 76  JMP $76BF
77DE  20 8A 73  JSR $738A
77E1  AD C9 04  LDA $04C9
77E4  0D CA 04  ORA $04CA
77E7  D0 01     BNE $77EA
77E9  60        RTS
77EA  18        CLC
77EB  A9 00     LDA #$00
77ED  AE C9 04  LDX $04C9
77F0  AC CA 04  LDY $04CA
77F3  20 56 2E  JSR $2E56
77F6  20 BB 8D  JSR $8DBB
77F9  29 03     AND #$03
77FB  18        CLC
77FC  69 6F     ADC #$6F
77FE  20 8D 23  JSR $238D
7801  A9 C6     LDA #$C6
7803  20 8D 23  JSR $238D
7806  AD CA 04  LDA $04CA
7809  D0 06     BNE $7811
780B  AE C9 04  LDX $04C9
780E  CA        DEX
780F  F0 D8     BEQ $77E9
7811  A9 73     LDA #$73
7813  4C 21 2F  JMP $2F21
7816  A9 08     LDA #$08
7818  20 2F 73  JSR $732F
781B  A9 0B     LDA #$0B
781D  20 25 73  JSR $7325
7820  A9 A4     LDA #$A4
7822  20 84 73  JSR $7384
7825  20 D9 28  JSR $28D9
7828  20 4A 80  JSR $804A
782B  AD AF 04  LDA $04AF
782E  C9 1A     CMP #$1A
7830  90 05     BCC $7837
7832  A9 6B     LDA #$6B
7834  20 7E 80  JSR $807E
7837  4C 58 77  JMP $7758
783A  .byte 20 7E 80 A9 CE 20 8D 23 20 E2 98 09 20 C9 79 F0 ;  ~... .# ... .y.
784A  .byte 05 A9 6E 4C 21 2F 20 21 2F 38 60                ; ..nL!/ !/8`

; ==== sub_7855 (1 caller) ====
7855  8A        TXA
7856  48        PHA
7857  88        DEY
7858  98        TYA
7859  49 FF     EOR #$FF
785B  48        PHA
785C  20 54 BA  JSR $BA54
785F  20 82 78  JSR $7882
7862  68        PLA
7863  85 91     STA $91
7865  AD 0A 05  LDA $050A
7868  20 98 78  JSR $7898
786B  A5 92     LDA $92
786D  8D 0A 05  STA $050A
7870  85 8F     STA $8F
7872  68        PLA
7873  85 91     STA $91
7875  AD 09 05  LDA $0509
7878  20 98 78  JSR $7898
787B  A5 92     LDA $92
787D  8D 09 05  STA $0509
7880  85 8E     STA $8E

; ==== sub_7882 (8 callers) ====
7882  A5 A0     LDA $A0
7884  30 23     BMI $78A9
7886  AD 09 05  LDA $0509
7889  85 8E     STA $8E
788B  AD 0A 05  LDA $050A
788E  4A        LSR A
788F  85 8F     STA $8F
7891  A9 04     LDA #$04
7893  85 90     STA $90
7895  4C 6D 75  JMP $756D

; ==== sub_7898 (2 callers) ====
7898  85 92     STA $92
789A  18        CLC
789B  65 91     ADC $91
789D  A6 91     LDX $91
789F  30 03     BMI $78A4
78A1  90 03     BCC $78A6
78A3  60        RTS
78A4  90 02     BCC $78A8
78A6  85 92     STA $92
78A8  60        RTS
78A9  AD 09 05  LDA $0509
78AC  38        SEC
78AD  ED 9A 04  SBC $049A
78B0  C9 26     CMP #$26
78B2  90 04     BCC $78B8
78B4  C9 E6     CMP #$E6
78B6  90 F0     BCC $78A8
78B8  0A        ASL A
78B9  0A        ASL A
78BA  18        CLC
78BB  69 68     ADC #$68
78BD  85 8E     STA $8E
78BF  AD 0A 05  LDA $050A
78C2  38        SEC
78C3  ED 9B 04  SBC $049B
78C6  C9 26     CMP #$26
78C8  90 04     BCC $78CE
78CA  C9 DC     CMP #$DC
78CC  90 DA     BCC $78A8
78CE  0A        ASL A
78CF  18        CLC
78D0  69 5A     ADC #$5A
78D2  85 8F     STA $8F
78D4  A9 08     LDA #$08
78D6  85 90     STA $90
78D8  4C 6D 75  JMP $756D
78DB  A9 C7     LDA #$C7
78DD  85 B8     STA $B8
78DF  85 B7     STA $B7
78E1  A9 80     LDA #$80
78E3  20 2F B0  JSR $B02F
78E6  A9 10     LDA #$10
78E8  20 2E 73  JSR $732E
78EB  A9 07     LDA #$07
78ED  20 25 73  JSR $7325
78F0  A9 BE     LDA #$BE
78F2  20 D6 28  JSR $28D6
78F5  20 DA 75  JSR $75DA
78F8  20 82 78  JSR $7882
78FB  20 A0 79  JSR $79A0
78FE  A9 00     LDA #$00
7900  85 AE     STA $AE
7902  A2 18     LDX #$18
7904  95 09     STA $09,X
7906  CA        DEX
7907  10 FB     BPL $7904
7909  A5 82     LDA $82
790B  38        SEC
790C  ED 9A 04  SBC $049A
790F  B0 04     BCS $7915
7911  49 FF     EOR #$FF
7913  69 01     ADC #$01
7915  C9 14     CMP #$14
7917  B0 74     BCS $798D
7919  A5 80     LDA $80
791B  38        SEC
791C  ED 9B 04  SBC $049B
791F  B0 04     BCS $7925
7921  49 FF     EOR #$FF
7923  69 01     ADC #$01
7925  C9 26     CMP #$26
7927  B0 64     BCS $798D
7929  A5 82     LDA $82
792B  38        SEC
792C  ED 9A 04  SBC $049A
792F  0A        ASL A
7930  0A        ASL A
7931  69 68     ADC #$68
7933  85 71     STA $71
7935  4A        LSR A
7936  4A        LSR A
7937  4A        LSR A
7938  18        CLC
7939  69 01     ADC #$01
793B  20 25 73  JSR $7325
793E  A5 80     LDA $80
7940  38        SEC
7941  ED 9B 04  SBC $049B
7944  0A        ASL A
7945  69 5A     ADC #$5A
7947  85 43     STA $43
7949  4A        LSR A
794A  4A        LSR A
794B  4A        LSR A
794C  A8        TAY
794D  B6 09     LDX $09,Y
794F  F0 0B     BEQ $795C
7951  C8        INY
7952  B6 09     LDX $09,Y
7954  F0 06     BEQ $795C
7956  88        DEY
7957  88        DEY
7958  B6 09     LDX $09,Y
795A  D0 14     BNE $7970
795C  98        TYA
795D  20 28 73  JSR $7328
7960  C0 03     CPY #$03
7962  90 29     BCC $798D
7964  A9 FF     LDA #$FF
7966  99 09 00  STA $0009,Y
7969  A9 80     LDA #$80
796B  85 34     STA $34
796D  20 E9 7F  JSR $7FE9
7970  A9 00     LDA #$00
7972  85 36     STA $36
7974  85 44     STA $44
7976  85 78     STA $78
7978  A5 71     LDA $71
797A  85 35     STA $35
797C  A5 84     LDA $84
797E  29 01     AND #$01
7980  69 02     ADC #$02
7982  85 77     STA $77
7984  20 3F 84  JSR $843F
7987  20 12 88  JSR $8812
798A  20 3F 84  JSR $843F
798D  20 3B 73  JSR $733B
7990  E6 AE     INC $AE
7992  F0 03     BEQ $7997
7994  4C 09 79  JMP $7909
7997  A9 00     LDA #$00
7999  85 B7     STA $B7
799B  A9 8F     LDA #$8F
799D  85 B8     STA $B8
799F  60        RTS

; ==== sub_79A0 (4 callers) ====
79A0  A2 05     LDX #$05
79A2  BD 9C 04  LDA $049C,X
79A5  95 7F     STA $7F,X
79A7  CA        DEX
79A8  10 F8     BPL $79A2
79AA  60        RTS

; ==== sub_79AB (9 callers) ====
79AB  20 A0 79  JSR $79A0
79AE  A0 7F     LDY #$7F
79B0  84 BB     STY $BB
79B2  A9 00     LDA #$00
79B4  85 99     STA $99
79B6  A5 82     LDA $82
79B8  38        SEC
79B9  ED 09 05  SBC $0509
79BC  B0 04     BCS $79C2
79BE  49 FF     EOR #$FF
79C0  69 01     ADC #$01
79C2  4A        LSR A
79C3  85 9C     STA $9C
79C5  A5 80     LDA $80
79C7  38        SEC
79C8  ED 0A 05  SBC $050A
79CB  B0 04     BCS $79D1
79CD  49 FF     EOR #$FF
79CF  69 01     ADC #$01
79D1  4A        LSR A
79D2  18        CLC
79D3  65 9C     ADC $9C
79D5  C5 BB     CMP $BB
79D7  B0 0F     BCS $79E8
79D9  85 BB     STA $BB
79DB  A2 05     LDX #$05
79DD  B5 7F     LDA $7F,X
79DF  95 8E     STA $8E,X
79E1  CA        DEX
79E2  10 F9     BPL $79DD
79E4  A5 99     LDA $99
79E6  85 A1     STA $A1
79E8  20 3B 73  JSR $733B
79EB  E6 99     INC $99
79ED  D0 C7     BNE $79B6
79EF  A2 05     LDX #$05
79F1  B5 8E     LDA $8E,X
79F3  95 7F     STA $7F,X
79F5  CA        DEX
79F6  10 F9     BPL $79F1
79F8  A5 80     LDA $80
79FA  8D 0A 05  STA $050A
79FD  A5 82     LDA $82
79FF  8D 09 05  STA $0509
7A02  38        SEC
7A03  ED 9A 04  SBC $049A
7A06  B0 04     BCS $7A0C
7A08  49 FF     EOR #$FF
7A0A  69 01     ADC #$01
7A0C  20 85 39  JSR $3985
7A0F  85 78     STA $78
7A11  A5 2E     LDA $2E
7A13  85 77     STA $77
7A15  AD 0A 05  LDA $050A
7A18  38        SEC
7A19  ED 9B 04  SBC $049B
7A1C  B0 04     BCS $7A22
7A1E  49 FF     EOR #$FF
7A20  69 01     ADC #$01
7A22  4A        LSR A
7A23  20 85 39  JSR $3985
7A26  48        PHA
7A27  A5 2E     LDA $2E
7A29  18        CLC
7A2A  65 77     ADC $77
7A2C  85 9A     STA $9A
7A2E  68        PLA
7A2F  65 78     ADC $78
7A31  90 02     BCC $7A35
7A33  A9 FF     LDA #$FF
7A35  85 9B     STA $9B
7A37  20 78 A2  JSR $A278
7A3A  A5 9A     LDA $9A
7A3C  0A        ASL A
7A3D  A2 00     LDX #$00
7A3F  8E 08 05  STX $0508
7A42  2E 08 05  ROL $0508
7A45  0A        ASL A
7A46  2E 08 05  ROL $0508
7A49  8D 07 05  STA $0507
7A4C  4C A9 74  JMP $74A9
7A4F  20 E0 BC  JSR $BCE0
7A52  A9 0F     LDA #$0F
7A54  20 25 73  JSR $7325
7A57  A9 CD     LDA #$CD
7A59  4C 8D 23  JMP $238D
7A5C  A5 A7     LDA $A7
7A5E  D0 EF     BNE $7A4F
7A60  A5 66     LDA $66
7A62  F0 01     BEQ $7A65
7A64  60        RTS
7A65  20 8A 97  JSR $978A
7A68  30 60     BMI $7ACA
7A6A  A5 A0     LDA $A0
7A6C  F0 56     BEQ $7AC4
7A6E  29 C0     AND #$C0
7A70  D0 01     BNE $7A73
7A72  60        RTS
7A73  20 95 7F  JSR $7F95
7A76  AD 07 05  LDA $0507
7A79  0D 08 05  ORA $0508
7A7C  D0 01     BNE $7A7F
7A7E  60        RTS
7A7F  A2 05     LDX #$05
7A81  B5 7F     LDA $7F,X
7A83  9D FA 04  STA $04FA,X
7A86  CA        DEX
7A87  10 F8     BPL $7A81
7A89  A9 07     LDA #$07
7A8B  20 25 73  JSR $7325
7A8E  A9 17     LDA #$17
7A90  A4 A0     LDY $A0
7A92  D0 02     BNE $7A96
7A94  A9 11     LDA #$11
7A96  20 28 73  JSR $7328
7A99  A9 00     LDA #$00
7A9B  85 34     STA $34
7A9D  A9 BD     LDA #$BD
7A9F  20 7E 80  JSR $807E
7AA2  AD 08 05  LDA $0508
7AA5  D0 08     BNE $7AAF
7AA7  AD A6 04  LDA $04A6
7AAA  CD 07 05  CMP $0507
7AAD  B0 03     BCS $7AB2
7AAF  4C 3A 7B  JMP $7B3A
7AB2  A9 2D     LDA #$2D
7AB4  20 7E 80  JSR $807E
7AB7  20 E9 7F  JSR $7FE9
7ABA  A9 0F     LDA #$0F

; ==== sub_7ABC (1 caller) ====
7ABC  85 66     STA $66
7ABE  85 65     STA $65
7AC0  AA        TAX
7AC1  4C 24 7B  JMP $7B24
7AC4  20 AB 79  JSR $79AB
7AC7  4C 76 7A  JMP $7A76
7ACA  AE C6 04  LDX $04C6
7ACD  F0 24     BEQ $7AF3
7ACF  E8        INX
7AD0  8E C6 04  STX $04C6
7AD3  8E CD 04  STX $04CD
7AD6  A9 02     LDA #$02
7AD8  20 BC 7A  JSR $7ABC
7ADB  A2 05     LDX #$05
7ADD  EE A8 04  INC $04A8
7AE0  AD A8 04  LDA $04A8
7AE3  29 F7     AND #$F7
7AE5  8D A8 04  STA $04A8
7AE8  BD 9C 04  LDA $049C,X
7AEB  0A        ASL A
7AEC  3E 9C 04  ROL $049C,X
7AEF  CA        DEX
7AF0  10 F6     BPL $7AE8
7AF2  A9 60     LDA #$60
7AF4  8D 09 05  STA $0509
7AF7  8D 0A 05  STA $050A
7AFA  20 1C 7D  JSR $7D1C
7AFD  20 AB 79  JSR $79AB
7B00  A2 05     LDX #$05
7B02  B5 7F     LDA $7F,X
7B04  9D FA 04  STA $04FA,X
7B07  CA        DEX
7B08  10 F8     BPL $7B02
7B0A  A2 00     LDX #$00
7B0C  8E 07 05  STX $0507
7B0F  8E 08 05  STX $0508
7B12  A9 74     LDA #$74
7B14  20 05 99  JSR $9905

; ==== sub_7B17 (2 callers) ====
7B17  AD 09 05  LDA $0509
7B1A  8D 9A 04  STA $049A
7B1D  AD 0A 05  LDA $050A
7B20  8D 9B 04  STA $049B
7B23  60        RTS

; ==== sub_7B24 (3 callers) ====
7B24  A9 01     LDA #$01
7B26  20 25 73  JSR $7325
7B29  20 28 73  JSR $7328
7B2C  A0 00     LDY #$00
7B2E  18        CLC
7B2F  A9 03     LDA #$03
7B31  4C 56 2E  JMP $2E56

; ==== sub_7B34 (1 caller) ====
7B34  18        CLC

; ==== sub_7B35 (3 callers) ====
7B35  A9 05     LDA #$05
7B37  4C 56 2E  JMP $2E56
7B3A  A9 CA     LDA #$CA

; ==== sub_7B3C (5 callers) ====
7B3C  20 7E 80  JSR $807E
7B3F  A9 3F     LDA #$3F
7B41  4C 7E 80  JMP $807E
7B44  68        PLA
7B45  60        RTS

; ==== sub_7B46 (3 callers) ====
7B46  48        PHA
7B47  85 92     STA $92
7B49  0A        ASL A
7B4A  0A        ASL A
7B4B  85 8E     STA $8E
7B4D  AD 82 04  LDA $0482
7B50  D0 F2     BNE $7B44
7B52  A9 01     LDA #$01
7B54  20 25 73  JSR $7325
7B57  68        PLA
7B58  69 D0     ADC #$D0
7B5A  20 7E 80  JSR $807E
7B5D  A9 0E     LDA #$0E
7B5F  20 25 73  JSR $7325
7B62  A6 8E     LDX $8E
7B64  BD 9E 99  LDA $999E,X
7B67  85 8F     STA $8F
7B69  AD DF 04  LDA $04DF
7B6C  3D A0 99  AND $99A0,X
7B6F  18        CLC
7B70  7D 9D 99  ADC $999D,X
7B73  8D EC 04  STA $04EC
7B76  20 B8 7B  JSR $7BB8
7B79  20 1A 7C  JSR $7C1A
7B7C  A5 8F     LDA $8F
7B7E  30 08     BMI $7B88
7B80  AD EC 04  LDA $04EC
7B83  65 91     ADC $91
7B85  4C 8E 7B  JMP $7B8E
7B88  AD EC 04  LDA $04EC
7B8B  38        SEC
7B8C  E5 91     SBC $91
7B8E  8D EC 04  STA $04EC
7B91  85 2E     STA $2E
7B93  A9 00     LDA #$00
7B95  20 A5 7D  JSR $7DA5
7B98  38        SEC
7B99  20 35 7B  JSR $7B35
7B9C  A4 92     LDY $92
7B9E  A9 05     LDA #$05
7BA0  BE CE 04  LDX $04CE,Y
7BA3  8E ED 04  STX $04ED
7BA6  18        CLC
7BA7  F0 06     BEQ $7BAF
7BA9  20 54 2E  JSR $2E54
7BAC  4C B8 7B  JMP $7BB8
7BAF  A9 19     LDA #$19
7BB1  20 25 73  JSR $7325
7BB4  A9 2D     LDA #$2D
7BB6  D0 0F     BNE $7BC7

; ==== sub_7BB8 (3 callers) ====
7BB8  A5 8F     LDA $8F
7BBA  29 60     AND #$60
7BBC  F0 0C     BEQ $7BCA
7BBE  C9 20     CMP #$20
7BC0  F0 0F     BEQ $7BD1
7BC2  20 D6 7B  JSR $7BD6

; ==== sub_7BC5 (6 callers) ====
7BC5  A9 20     LDA #$20
7BC7  4C 7E 80  JMP $807E
7BCA  A9 74     LDA #$74
7BCC  20 21 2F  JSR $2F21
7BCF  90 F4     BCC $7BC5
7BD1  A9 6B     LDA #$6B
7BD3  20 21 2F  JSR $2F21

; ==== sub_7BD6 (1 caller) ====
7BD6  A9 67     LDA #$67
7BD8  4C 21 2F  JMP $2F21

; ==== sub_7BDB (2 callers) ====
7BDB  A9 11     LDA #$11
7BDD  20 25 73  JSR $7325
7BE0  A9 FF     LDA #$FF
7BE2  D0 E3     BNE $7BC7
7BE4  A9 10     LDA #$10
7BE6  20 2F 73  JSR $732F
7BE9  A9 05     LDA #$05
7BEB  20 25 73  JSR $7325
7BEE  A9 A7     LDA #$A7
7BF0  20 D6 28  JSR $28D6
7BF3  A9 03     LDA #$03
7BF5  20 28 73  JSR $7328
7BF8  20 DB 7B  JSR $7BDB
7BFB  A9 06     LDA #$06
7BFD  20 28 73  JSR $7328
7C00  A9 00     LDA #$00
7C02  8D EF 04  STA $04EF
7C05  A2 80     LDX #$80
7C07  86 34     STX $34
7C09  20 46 7B  JSR $7B46
7C0C  20 2B 73  JSR $732B
7C0F  EE EF 04  INC $04EF
7C12  AD EF 04  LDA $04EF
7C15  C9 11     CMP #$11
7C17  90 EC     BCC $7C05
7C19  60        RTS

; ==== sub_7C1A (2 callers) ====
7C1A  A5 8F     LDA $8F
7C1C  29 1F     AND #$1F
7C1E  AC EE 04  LDY $04EE
7C21  85 90     STA $90
7C23  18        CLC
7C24  A9 00     LDA #$00
7C26  8D DE 04  STA $04DE
7C29  88        DEY
7C2A  30 05     BMI $7C31
7C2C  65 90     ADC $90
7C2E  4C 29 7C  JMP $7C29
7C31  85 91     STA $91
7C33  60        RTS
7C34  .byte 20 AB 79                                        ;  .y

; ==== sub_7C37 (1 caller) ====
7C37  20 17 7B  JSR $7B17
7C3A  A2 05     LDX #$05
7C3C  BD FA 04  LDA $04FA,X
7C3F  9D F4 04  STA $04F4,X
7C42  CA        DEX
7C43  10 F7     BPL $7C3C
7C45  E8        INX
7C46  8E 8A 04  STX $048A
7C49  AD 00 05  LDA $0500
7C4C  8D EE 04  STA $04EE
7C4F  AD 02 05  LDA $0502
7C52  8D F1 04  STA $04F1
7C55  AD 01 05  LDA $0501
7C58  8D F0 04  STA $04F0
7C5B  20 BB 8D  JSR $8DBB
7C5E  8D DF 04  STA $04DF
7C61  A2 00     LDX #$00
7C63  86 AD     STX $AD
7C65  BD 9E 99  LDA $999E,X
7C68  85 8F     STA $8F
7C6A  20 1A 7C  JSR $7C1A
7C6D  BD A0 99  LDA $99A0,X
7C70  2D DF 04  AND $04DF
7C73  18        CLC
7C74  7D 9F 99  ADC $999F,X
7C77  A4 8F     LDY $8F
7C79  30 06     BMI $7C81
7C7B  38        SEC
7C7C  E5 91     SBC $91
7C7E  4C 84 7C  JMP $7C84
7C81  18        CLC
7C82  65 91     ADC $91
7C84  10 02     BPL $7C88
7C86  A9 00     LDA #$00
7C88  A4 AD     LDY $AD
7C8A  29 3F     AND #$3F
7C8C  99 CE 04  STA $04CE,Y
7C8F  C8        INY
7C90  98        TYA
7C91  85 AD     STA $AD
7C93  0A        ASL A
7C94  0A        ASL A
7C95  AA        TAX
7C96  C9 3F     CMP #$3F
7C98  90 CB     BCC $7C65
7C9A  60        RTS

; ==== sub_7C9B (2 callers) ====
7C9B  20 99 8D  JSR $8D99
7C9E  A9 FF     LDA #$FF
7CA0  85 29     STA $29
7CA2  A9 1D     LDA #$1D
7CA4  20 5B 85  JSR $855B
7CA7  A9 1E     LDA #$1E
7CA9  4C 5B 85  JMP $855B
7CAC  4E A7 04  LSR $04A7
7CAF  38        SEC
7CB0  2E A7 04  ROL $04A7
7CB3  A9 03     LDA #$03
7CB5  20 2F B0  JSR $B02F
7CB8  20 92 37  JSR $3792
7CBB  20 EB 8C  JSR $8CEB
7CBE  8C 82 04  STY $0482
7CC1  20 9B 7C  JSR $7C9B
7CC4  A9 03     LDA #$03
7CC6  CD 7A 04  CMP $047A
7CC9  B0 F6     BCS $7CC1
7CCB  8D 0B 05  STA $050B
7CCE  A2 00     LDX #$00
7CD0  20 BA AF  JSR $AFBA
7CD3  AD 9B 04  LDA $049B
7CD6  49 1F     EOR #$1F
7CD8  8D 9B 04  STA $049B
7CDB  60        RTS
7CDC  60        RTS
7CDD  AD A6 04  LDA $04A6
7CE0  38        SEC
7CE1  ED 07 05  SBC $0507
7CE4  B0 02     BCS $7CE8
7CE6  A9 00     LDA #$00
7CE8  8D A6 04  STA $04A6
7CEB  A5 A0     LDA $A0
7CED  D0 06     BNE $7CF5
7CEF  20 2F B0  JSR $B02F
7CF2  20 92 37  JSR $3792
7CF5  20 8A 97  JSR $978A
7CF8  2D 08 1D  AND $1D08
7CFB  30 AF     BMI $7CAC
7CFD  20 BB 8D  JSR $8DBB
7D00  C9 FD     CMP #$FD
7D02  B0 AF     BCS $7CB3
7D04  20 37 7C  JSR $7C37
7D07  20 EB 8C  JSR $8CEB
7D0A  20 8F 83  JSR $838F
7D0D  A5 A0     LDA $A0
7D0F  29 3F     AND #$3F
7D11  D0 C9     BNE $7CDC
7D13  20 31 B0  JSR $B031
7D16  A5 A0     LDA $A0
7D18  D0 38     BNE $7D52
7D1A  E6 A0     INC $A0

; ==== sub_7D1C (1 caller) ====
7D1C  A6 A7     LDX $A7
7D1E  F0 2B     BEQ $7D4B
7D20  20 9B 37  JSR $379B
7D23  20 EB 8C  JSR $8CEB
7D26  20 AB 79  JSR $79AB
7D29  E6 11     INC $11
7D2B  20 7C 83  JSR $837C
7D2E  A9 80     LDA #$80
7D30  85 11     STA $11
7D32  E6 10     INC $10
7D34  20 14 85  JSR $8514
7D37  A9 0C     LDA #$0C
7D39  85 96     STA $96
7D3B  20 A4 90  JSR $90A4
7D3E  0D CD 04  ORA $04CD
7D41  8D CD 04  STA $04CD
7D44  A9 FF     LDA #$FF
7D46  85 A0     STA $A0
7D48  20 AF 37  JSR $37AF
7D4B  A2 00     LDX #$00
7D4D  86 A7     STX $A7
7D4F  4C BA AF  JMP $AFBA
7D52  30 03     BMI $7D57
7D54  4C 1C 75  JMP $751C
7D57  4C DB 78  JMP $78DB

; ==== sub_7D5A (3 callers) ====
7D5A  86 06     STX $06
7D5C  AD A5 04  LDA $04A5
7D5F  38        SEC
7D60  E5 06     SBC $06
7D62  8D A5 04  STA $04A5
7D65  84 06     STY $06
7D67  AD A4 04  LDA $04A4
7D6A  E5 06     SBC $06
7D6C  8D A4 04  STA $04A4
7D6F  AD A3 04  LDA $04A3
7D72  E9 00     SBC #$00
7D74  8D A3 04  STA $04A3
7D77  AD A2 04  LDA $04A2
7D7A  E9 00     SBC #$00
7D7C  8D A2 04  STA $04A2
7D7F  B0 20     BCS $7DA1

; ==== sub_7D81 (5 callers) ====
7D81  8A        TXA
7D82  18        CLC
7D83  6D A5 04  ADC $04A5
7D86  8D A5 04  STA $04A5
7D89  98        TYA
7D8A  6D A4 04  ADC $04A4
7D8D  8D A4 04  STA $04A4
7D90  AD A3 04  LDA $04A3
7D93  69 00     ADC #$00
7D95  8D A3 04  STA $04A3
7D98  AD A2 04  LDA $04A2
7D9B  69 00     ADC #$00
7D9D  8D A2 04  STA $04A2
7DA0  18        CLC
7DA1  60        RTS

; ==== sub_7DA2 (2 callers) ====
7DA2  20 98 39  JSR $3998

; ==== sub_7DA5 (1 caller) ====
7DA5  06 2E     ASL $2E
7DA7  2A        ROL A
7DA8  06 2E     ASL $2E
7DAA  2A        ROL A
7DAB  A8        TAY
7DAC  A6 2E     LDX $2E
7DAE  60        RTS
7DAF  .byte 52 2E 44 2E 43 4F 44 45 0D                      ; R.D.CODE.
7DB8  4C E7 91  JMP $91E7
7DBB  A9 20     LDA #$20
7DBD  20 2F 73  JSR $732F
7DC0  A9 0C     LDA #$0C
7DC2  20 25 73  JSR $7325
7DC5  A9 CF     LDA #$CF
7DC7  20 9B 73  JSR $739B
7DCA  A9 B9     LDA #$B9
7DCC  20 D6 28  JSR $28D6
7DCF  A9 80     LDA #$80
7DD1  85 34     STA $34
7DD3  20 2B 73  JSR $732B
7DD6  AD F1 04  LDA $04F1
7DD9  18        CLC
7DDA  69 03     ADC #$03
7DDC  C9 0C     CMP #$0C
7DDE  90 02     BCC $7DE2
7DE0  A9 0E     LDA #$0E
7DE2  85 9A     STA $9A
7DE4  8D ED 04  STA $04ED
7DE7  E6 9A     INC $9A
7DE9  A9 46     LDA #$46
7DEB  38        SEC
7DEC  ED A6 04  SBC $04A6
7DEF  0A        ASL A
7DF0  8D CD 7F  STA $7FCD
7DF3  A2 01     LDX #$01
7DF5  86 A2     STX $A2
7DF7  20 8E 73  JSR $738E
7DFA  A6 A2     LDX $A2
7DFC  18        CLC
7DFD  20 52 2E  JSR $2E52
7E00  20 C5 7B  JSR $7BC5
7E03  A5 A2     LDA $A2
7E05  18        CLC
7E06  69 68     ADC #$68
7E08  20 7E 80  JSR $807E
7E0B  A5 A2     LDA $A2
7E0D  20 3F 7F  JSR $7F3F
7E10  38        SEC
7E11  A9 19     LDA #$19
7E13  20 25 73  JSR $7325
7E16  A9 06     LDA #$06
7E18  20 56 2E  JSR $2E56
7E1B  A6 A2     LDX $A2
7E1D  E8        INX
7E1E  E4 9A     CPX $9A
7E20  90 D3     BCC $7DF5
7E22  20 E0 BC  JSR $BCE0
7E25  A9 7F     LDA #$7F
7E27  20 3C 7B  JSR $7B3C
7E2A  20 C9 76  JSR $76C9
7E2D  F0 89     BEQ $7DB8
7E2F  B0 87     BCS $7DB8
7E31  E9 00     SBC #$00
7E33  48        PHA
7E34  A9 02     LDA #$02
7E36  20 25 73  JSR $7325
7E39  20 2B 73  JSR $732B
7E3C  68        PLA
7E3D  48        PHA
7E3E  20 2F 7F  JSR $7F2F
7E41  68        PLA
7E42  D0 05     BNE $7E49
7E44  A2 46     LDX #$46
7E46  8E A6 04  STX $04A6
7E49  C9 01     CMP #$01
7E4B  D0 12     BNE $7E5F
7E4D  AE CC 04  LDX $04CC
7E50  E8        INX
7E51  A0 7C     LDY #$7C
7E53  E0 05     CPX #$05
7E55  B0 4A     BCS $7EA1
7E57  8E CC 04  STX $04CC
7E5A  20 68 8D  JSR $8D68
7E5D  A9 01     LDA #$01
7E5F  A0 6B     LDY #$6B
7E61  C9 02     CMP #$02
7E63  D0 0A     BNE $7E6F
7E65  A2 25     LDX #$25
7E67  EC AF 04  CPX $04AF
7E6A  F0 35     BEQ $7EA1
7E6C  8E AF 04  STX $04AF
7E6F  C9 03     CMP #$03
7E71  D0 09     BNE $7E7C
7E73  C8        INY
7E74  AE C1 04  LDX $04C1
7E77  D0 28     BNE $7EA1
7E79  CE C1 04  DEC $04C1
7E7C  C9 04     CMP #$04
7E7E  D0 0A     BNE $7E8A
7E80  20 4C 7F  JSR $7F4C
7E83  A9 0F     LDA #$0F
7E85  20 A1 7F  JSR $7FA1
7E88  A9 04     LDA #$04
7E8A  C9 05     CMP #$05
7E8C  D0 08     BNE $7E96
7E8E  20 4C 7F  JSR $7F4C
7E91  A9 8F     LDA #$8F
7E93  20 A1 7F  JSR $7FA1
7E96  A0 6F     LDY #$6F
7E98  C9 06     CMP #$06
7E9A  D0 20     BNE $7EBC
7E9C  AE C2 04  LDX $04C2
7E9F  F0 18     BEQ $7EB9
7EA1  84 77     STY $77
7EA3  20 42 7F  JSR $7F42
7EA6  20 81 7D  JSR $7D81
7EA9  A5 77     LDA $77
7EAB  20 9B 73  JSR $739B
7EAE  A9 1F     LDA #$1F
7EB0  20 7E 80  JSR $807E
7EB3  20 27 7F  JSR $7F27
7EB6  4C E7 91  JMP $91E7
7EB9  CE C2 04  DEC $04C2
7EBC  C8        INY
7EBD  C9 07     CMP #$07
7EBF  D0 08     BNE $7EC9
7EC1  AE C7 04  LDX $04C7
7EC4  D0 DB     BNE $7EA1
7EC6  CE C7 04  DEC $04C7
7EC9  C8        INY
7ECA  C9 08     CMP #$08
7ECC  D0 0A     BNE $7ED8
7ECE  AE C3 04  LDX $04C3
7ED1  D0 CE     BNE $7EA1
7ED3  A2 7F     LDX #$7F
7ED5  8E C3 04  STX $04C3
7ED8  C8        INY
7ED9  C9 09     CMP #$09
7EDB  D0 08     BNE $7EE5
7EDD  AE C4 04  LDX $04C4
7EE0  D0 BF     BNE $7EA1
7EE2  EE C4 04  INC $04C4
7EE5  C8        INY
7EE6  C9 0A     CMP #$0A
7EE8  D0 08     BNE $7EF2
7EEA  AE C5 04  LDX $04C5
7EED  D0 B2     BNE $7EA1
7EEF  CE C5 04  DEC $04C5
7EF2  C8        INY
7EF3  C9 0B     CMP #$0B
7EF5  D0 08     BNE $7EFF
7EF7  AE C6 04  LDX $04C6
7EFA  D0 A5     BNE $7EA1
7EFC  CE C6 04  DEC $04C6
7EFF  C8        INY
7F00  C9 0C     CMP #$0C
7F02  D0 08     BNE $7F0C
7F04  20 4C 7F  JSR $7F4C
7F07  A9 97     LDA #$97
7F09  20 A1 7F  JSR $7FA1
7F0C  C8        INY
7F0D  C9 0D     CMP #$0D
7F0F  D0 08     BNE $7F19
7F11  20 4C 7F  JSR $7F4C
7F14  A9 32     LDA #$32
7F16  20 A1 7F  JSR $7FA1
7F19  20 1F 7F  JSR $7F1F
7F1C  4C BB 7D  JMP $7DBB

; ==== sub_7F1F (2 callers) ====
7F1F  20 C5 7B  JSR $7BC5
7F22  A9 77     LDA #$77
7F24  20 9B 73  JSR $739B

; ==== sub_7F27 (4 callers) ====
7F27  20 0F B1  JSR $B10F
7F2A  A0 32     LDY #$32
7F2C  4C 9E 3E  JMP $3E9E

; ==== sub_7F2F (1 caller) ====
7F2F  20 42 7F  JSR $7F42
7F32  20 5A 7D  JSR $7D5A
7F35  B0 14     BCS $7F4B
7F37  A9 C5     LDA #$C5
7F39  20 3C 7B  JSR $7B3C
7F3C  4C B3 7E  JMP $7EB3

; ==== sub_7F3F (1 caller) ====
7F3F  38        SEC
7F40  E9 01     SBC #$01

; ==== sub_7F42 (3 callers) ====
7F42  0A        ASL A
7F43  A8        TAY
7F44  BE CD 7F  LDX $7FCD,Y
7F47  B9 CE 7F  LDA $7FCE,Y
7F4A  A8        TAY
7F4B  60        RTS

; ==== sub_7F4C (4 callers) ====
7F4C  AD F1 04  LDA $04F1
7F4F  C9 08     CMP #$08
7F51  90 05     BCC $7F58
7F53  A9 20     LDA #$20
7F55  20 2F B0  JSR $B02F
7F58  A9 10     LDA #$10
7F5A  A8        TAY
7F5B  20 28 73  JSR $7328
7F5E  A9 0C     LDA #$0C
7F60  20 25 73  JSR $7325
7F63  98        TYA
7F64  18        CLC
7F65  69 20     ADC #$20
7F67  20 9B 73  JSR $739B
7F6A  A5 33     LDA $33
7F6C  18        CLC
7F6D  69 50     ADC #$50
7F6F  20 7E 80  JSR $807E
7F72  20 2B 73  JSR $732B
7F75  A4 33     LDY $33
7F77  C0 14     CPY #$14
7F79  90 E3     BCC $7F5E
7F7B  20 E0 BC  JSR $BCE0
7F7E  A9 AF     LDA #$AF
7F80  20 3C 7B  JSR $7B3C
7F83  20 E2 98  JSR $98E2
7F86  38        SEC
7F87  E9 30     SBC #$30
7F89  C9 04     CMP #$04
7F8B  90 06     BCC $7F93
7F8D  20 E0 BC  JSR $BCE0
7F90  4C 7E 7F  JMP $7F7E
7F93  AA        TAX
7F94  60        RTS

; ==== sub_7F95 (2 callers) ====
7F95  20 82 78  JSR $7882
7F98  20 AB 79  JSR $79AB
7F9B  20 82 78  JSR $7882
7F9E  4C E0 BC  JMP $BCE0

; ==== sub_7FA1 (4 callers) ====
7FA1  85 06     STA $06
7FA3  BD A9 04  LDA $04A9,X
7FA6  F0 1F     BEQ $7FC7
7FA8  A0 04     LDY #$04
7FAA  C9 0F     CMP #$0F
7FAC  F0 0E     BEQ $7FBC
7FAE  A0 05     LDY #$05
7FB0  C9 8F     CMP #$8F
7FB2  F0 08     BEQ $7FBC
7FB4  A0 0C     LDY #$0C
7FB6  C9 97     CMP #$97
7FB8  F0 02     BEQ $7FBC
7FBA  A0 0D     LDY #$0D
7FBC  86 A1     STX $A1
7FBE  98        TYA
7FBF  20 42 7F  JSR $7F42
7FC2  20 81 7D  JSR $7D81
7FC5  A6 A1     LDX $A1
7FC7  A5 06     LDA $06
7FC9  9D A9 04  STA $04A9,X
7FCC  60        RTS
7FCD  .byte 01 00 2C 01 A0 0F 70 17 A0 0F 10 27 82 14 10 27 ; ..,...p....'...'
7FDD  .byte 28 23 98 3A 10 27 50 C3 60 EA 40 1F             ; (#.:.'P.`.@.

; ==== sub_7FE9 (5 callers) ====
7FE9  A2 05     LDX #$05
7FEB  B5 7F     LDA $7F,X
7FED  95 8E     STA $8E,X
7FEF  CA        DEX
7FF0  10 F9     BPL $7FEB
7FF2  A0 03     LDY #$03
7FF4  24 7F     BIT $7F
7FF6  70 01     BVS $7FF9
7FF8  88        DEY
7FF9  84 BB     STY $BB
7FFB  A5 84     LDA $84
7FFD  29 1F     AND #$1F
7FFF  F0 05     BEQ $8006
8001  09 80     ORA #$80
8003  20 7E 80  JSR $807E
8006  20 41 73  JSR $7341
8009  C6 BB     DEC $BB
800B  10 EE     BPL $7FFB
800D  A2 05     LDX #$05
800F  B5 8E     LDA $8E,X
8011  95 7F     STA $7F,X
8013  CA        DEX
8014  10 F9     BPL $800F
8016  60        RTS
8017  A0 00     LDY #$00
8019  B9 91 04  LDA $0491,Y
801C  C9 0D     CMP #$0D
801E  F0 06     BEQ $8026
8020  20 21 2F  JSR $2F21
8023  C8        INY
8024  D0 F3     BNE $8019
8026  60        RTS
8027  2C 82 04  BIT $0482
802A  30 15     BMI $8041
802C  20 32 80  JSR $8032
802F  20 E9 7F  JSR $7FE9

; ==== sub_8032 (1 caller) ====
8032  A2 05     LDX #$05
8034  B5 7F     LDA $7F,X
8036  BC F4 04  LDY $04F4,X
8039  9D F4 04  STA $04F4,X
803C  94 7F     STY $7F,X
803E  CA        DEX
803F  10 F3     BPL $8034
8041  60        RTS
8042  18        CLC
8043  AE A8 04  LDX $04A8
8046  E8        INX
8047  4C 52 2E  JMP $2E52

; ==== sub_804A (1 caller) ====
804A  A9 69     LDA #$69
804C  20 79 80  JSR $8079
804F  AE A6 04  LDX $04A6
8052  38        SEC
8053  20 52 2E  JSR $2E52
8056  A9 C3     LDA #$C3
8058  20 73 80  JSR $8073
805B  A9 77     LDA #$77
805D  D0 1F     BNE $807E
805F  A2 03     LDX #$03
8061  BD A2 04  LDA $04A2,X
8064  95 77     STA $77,X
8066  CA        DEX
8067  10 F8     BPL $8061
8069  A9 09     LDA #$09
806B  85 99     STA $99
806D  38        SEC
806E  20 62 2E  JSR $2E62
8071  A9 E2     LDA #$E2

; ==== sub_8073 (6 callers) ====
8073  20 7E 80  JSR $807E
8076  4C 8E 73  JMP $738E

; ==== sub_8079 (8 callers) ====
8079  20 7E 80  JSR $807E
807C  A9 3A     LDA #$3A

; ==== print_token  $807E  (37 callers) — text token printer (handles control codes and letter case) ====
807E  AA        TAX
807F  F0 DE     BEQ $805F
8081  30 76     BMI $80F9
8083  CA        DEX
8084  F0 BC     BEQ $8042
8086  CA        DEX
8087  F0 9E     BEQ $8027
8089  CA        DEX
808A  D0 03     BNE $808F
808C  4C E9 7F  JMP $7FE9
808F  CA        DEX
8090  F0 85     BEQ $8017
8092  CA        DEX
8093  F0 B5     BEQ $804A
8095  CA        DEX
8096  D0 05     BNE $809D
8098  A9 80     LDA #$80
809A  85 34     STA $34
809C  60        RTS
809D  CA        DEX
809E  CA        DEX
809F  D0 03     BNE $80A4
80A1  86 34     STX $34
80A3  60        RTS
80A4  CA        DEX
80A5  F0 38     BEQ $80DF
80A7  C9 60     CMP #$60
80A9  B0 68     BCS $8113
80AB  C9 0E     CMP #$0E
80AD  90 04     BCC $80B3
80AF  C9 20     CMP #$20
80B1  90 28     BCC $80DB
80B3  A6 34     LDX $34
80B5  F0 3F     BEQ $80F6
80B7  30 11     BMI $80CA
80B9  24 34     BIT $34
80BB  70 32     BVS $80EF
80BD  C9 41     CMP #$41
80BF  90 06     BCC $80C7
80C1  C9 5B     CMP #$5B
80C3  B0 02     BCS $80C7
80C5  69 20     ADC #$20
80C7  4C 21 2F  JMP $2F21
80CA  24 34     BIT $34
80CC  70 19     BVS $80E7
80CE  C9 41     CMP #$41
80D0  90 24     BCC $80F6
80D2  48        PHA
80D3  8A        TXA
80D4  09 40     ORA #$40
80D6  85 34     STA $34
80D8  68        PLA
80D9  D0 EC     BNE $80C7
80DB  69 72     ADC #$72
80DD  D0 34     BNE $8113
80DF  A9 15     LDA #$15
80E1  20 25 73  JSR $7325
80E4  4C 7C 80  JMP $807C
80E7  E0 FF     CPX #$FF
80E9  F0 63     BEQ $814E
80EB  C9 41     CMP #$41
80ED  B0 CE     BCS $80BD
80EF  48        PHA
80F0  8A        TXA
80F1  29 BF     AND #$BF
80F3  85 34     STA $34
80F5  68        PLA
80F6  4C 21 2F  JMP $2F21
80F9  C9 A0     CMP #$A0
80FB  B0 14     BCS $8111
80FD  29 7F     AND #$7F
80FF  0A        ASL A

; --- expand_digram  $8100 — digram-token expander: full-table letter pairs from $2563 ---
8100  A8        TAY
8101  B9 63 25  LDA $2563,Y
8104  20 7E 80  JSR $807E
8107  B9 64 25  LDA $2564,Y
810A  C9 3F     CMP #$3F
810C  F0 40     BEQ $814E
810E  4C 7E 80  JMP $807E

; --- expand_msgtoken  $8111 — recursive message-token expander: strings live at $0700, EOR-$23 encrypted ---
8111  E9 A0     SBC #$A0

; ==== sub_8113 (1 caller) ====
8113  AA        TAX
8114  A9 00     LDA #$00
8116  85 5B     STA $5B
8118  A9 07     LDA #$07
811A  85 5C     STA $5C
811C  A0 00     LDY #$00
811E  8A        TXA
811F  F0 13     BEQ $8134
8121  B1 5B     LDA ($5B),Y
8123  F0 07     BEQ $812C
8125  C8        INY
8126  D0 F9     BNE $8121
8128  E6 5C     INC $5C
812A  D0 F5     BNE $8121
812C  C8        INY
812D  D0 02     BNE $8131
812F  E6 5C     INC $5C
8131  CA        DEX
8132  D0 ED     BNE $8121
8134  98        TYA
8135  48        PHA
8136  A5 5C     LDA $5C
8138  48        PHA
8139  B1 5B     LDA ($5B),Y
813B  49 23     EOR #$23
813D  20 7E 80  JSR $807E
8140  68        PLA
8141  85 5C     STA $5C
8143  68        PLA
8144  A8        TAY
8145  C8        INY
8146  D0 02     BNE $814A
8148  E6 5C     INC $5C
814A  B1 5B     LDA ($5B),Y
814C  D0 E6     BNE $8134
814E  60        RTS
814F  A5 28     LDA $28
8151  09 A0     ORA #$A0
8153  85 28     STA $28
8155  60        RTS
8156  A5 28     LDA $28
8158  29 40     AND #$40
815A  F0 03     BEQ $815F
815C  20 C6 81  JSR $81C6
815F  A5 0F     LDA $0F
8161  85 BB     STA $BB
8163  A5 10     LDA $10
8165  C9 20     CMP #$20
8167  90 04     BCC $816D
8169  A9 FE     LDA #$FE
816B  D0 08     BNE $8175
816D  06 BB     ASL $BB
816F  2A        ROL A
8170  06 BB     ASL $BB
8172  2A        ROL A
8173  38        SEC
8174  2A        ROL A
8175  85 9A     STA $9A
8177  A0 01     LDY #$01
8179  B1 2A     LDA ($2A),Y
817B  8D 0D 05  STA $050D
817E  69 04     ADC #$04
8180  B0 CD     BCS $814F
8182  91 2A     STA ($2A),Y
8184  20 34 3B  JSR $3B34
8187  A5 2E     LDA $2E
8189  C9 1C     CMP #$1C
818B  90 04     BCC $8191
818D  A9 FE     LDA #$FE
818F  D0 09     BNE $819A
8191  06 9B     ASL $9B
8193  2A        ROL A
8194  06 9B     ASL $9B
8196  2A        ROL A
8197  06 9B     ASL $9B
8199  2A        ROL A
819A  88        DEY
819B  91 2A     STA ($2A),Y
819D  A5 28     LDA $28
819F  29 BF     AND #$BF
81A1  85 28     STA $28
81A3  29 08     AND #$08
81A5  F0 A7     BEQ $814E
81A7  A0 02     LDY #$02
81A9  B1 2A     LDA ($2A),Y
81AB  A8        TAY
81AC  B9 F9 00  LDA $00F9,Y
81AF  91 2A     STA ($2A),Y
81B1  88        DEY
81B2  C0 06     CPY #$06
81B4  D0 F6     BNE $81AC
81B6  A5 28     LDA $28
81B8  09 40     ORA #$40
81BA  85 28     STA $28
81BC  AC 0D 05  LDY $050D
81BF  C0 12     CPY #$12
81C1  D0 03     BNE $81C6
81C3  4C 4A 82  JMP $824A

; ==== starfield  $81C6  (1 caller) — seeded star/dust-field plotter: reseed $02-$05, derive coordinates, plot dots ====
81C6  A0 00     LDY #$00
81C8  B1 2A     LDA ($2A),Y
81CA  85 9A     STA $9A
81CC  C8        INY
81CD  B1 2A     LDA ($2A),Y
81CF  10 02     BPL $81D3
81D1  49 FF     EOR #$FF
81D3  4A        LSR A
81D4  4A        LSR A
81D5  4A        LSR A
81D6  4A        LSR A
81D7  09 01     ORA #$01
81D9  85 99     STA $99
81DB  C8        INY
81DC  B1 2A     LDA ($2A),Y
81DE  85 A8     STA $A8
81E0  A5 03     LDA $03
81E2  48        PHA
81E3  A0 06     LDY #$06
81E5  A2 03     LDX #$03
81E7  C8        INY
81E8  B1 2A     LDA ($2A),Y
81EA  95 35     STA $35,X
81EC  CA        DEX
81ED  10 F8     BPL $81E7
81EF  84 AA     STY $AA
81F1  A0 02     LDY #$02
81F3  C8        INY
81F4  B1 2A     LDA ($2A),Y
81F6  45 AA     EOR $AA
81F8  99 FF FF  STA $FFFF,Y
81FB  C0 06     CPY #$06
81FD  D0 F4     BNE $81F3
81FF  A4 99     LDY $99
8201  18        CLC
8202  A5 02     LDA $02
8204  2A        ROL A
8205  AA        TAX
8206  65 04     ADC $04
8208  85 02     STA $02
820A  86 04     STX $04
820C  A5 03     LDA $03
820E  AA        TAX
820F  65 05     ADC $05
8211  85 03     STA $03
8213  86 05     STX $05
8215  85 A1     STA $A1
8217  A5 36     LDA $36
8219  85 9B     STA $9B
821B  A5 35     LDA $35
821D  20 64 82  JSR $8264
8220  D0 2B     BNE $824D
8222  E0 8F     CPX #$8F
8224  B0 27     BCS $824D
8226  86 6C     STX $6C
8228  A5 38     LDA $38
822A  85 9B     STA $9B
822C  A5 37     LDA $37
822E  20 64 82  JSR $8264
8231  D0 05     BNE $8238
8233  A5 6C     LDA $6C
8235  20 37 29  JSR $2937
8238  88        DEY
8239  10 C6     BPL $8201
823B  A4 AA     LDY $AA
823D  C4 A8     CPY $A8
823F  90 A4     BCC $81E5
8241  68        PLA
8242  85 03     STA $03
8244  AD 06 F0  LDA $F006
8247  85 05     STA $05
8249  60        RTS
824A  4C 99 82  JMP $8299

; --- fib_rng_alt  $824D — inline copy of fib_rng ---
824D  18        CLC
824E  A5 02     LDA $02
8250  2A        ROL A
8251  AA        TAX
8252  65 04     ADC $04
8254  85 02     STA $02
8256  86 04     STX $04
8258  A5 03     LDA $03
825A  AA        TAX
825B  65 05     ADC $05
825D  85 03     STA $03
825F  86 05     STX $05
8261  4C 38 82  JMP $8238

; ==== fib_rng_coord  $8264  (4 callers) — fib_rng turned into a signed screen coordinate (scale via $39E7, accumulator $9B/$9C) ====
8264  85 9C     STA $9C
8266  18        CLC
8267  A5 02     LDA $02
8269  2A        ROL A
826A  AA        TAX
826B  65 04     ADC $04
826D  85 02     STA $02
826F  86 04     STX $04
8271  A5 03     LDA $03
8273  AA        TAX
8274  65 05     ADC $05
8276  85 03     STA $03
8278  86 05     STX $05
827A  2A        ROL A
827B  B0 0B     BCS $8288
827D  20 E7 39  JSR $39E7
8280  65 9B     ADC $9B
8282  AA        TAX
8283  A5 9C     LDA $9C
8285  69 00     ADC #$00
8287  60        RTS
8288  20 E7 39  JSR $39E7
828B  85 BB     STA $BB
828D  A5 9B     LDA $9B
828F  E5 BB     SBC $BB
8291  AA        TAX
8292  A5 9C     LDA $9C
8294  E9 00     SBC #$00
8296  60        RTS
8297  .byte 00 02                                           ; ..
8299  A9 05     LDA #$05
829B  20 8B 8B  JSR $8B8B
829E  A5 10     LDA $10
82A0  C9 07     CMP #$07
82A2  A9 FD     LDA #$FD
82A4  A2 2C     LDX #$2C
82A6  A0 28     LDY #$28
82A8  B0 06     BCS $82B0
82AA  A9 FF     LDA #$FF
82AC  A2 20     LDX #$20
82AE  A0 1E     LDY #$1E
82B0  8D 17 D0  STA $D017
82B3  8D 1D D0  STA $D01D
82B6  8E 0E 05  STX $050E
82B9  8C 0F 05  STY $050F
82BC  A0 00     LDY #$00
82BE  B1 2A     LDA ($2A),Y
82C0  85 9A     STA $9A
82C2  C8        INY
82C3  B1 2A     LDA ($2A),Y
82C5  10 02     BPL $82C9
82C7  49 FF     EOR #$FF
82C9  4A        LSR A
82CA  4A        LSR A
82CB  4A        LSR A
82CC  4A        LSR A
82CD  09 01     ORA #$01
82CF  85 99     STA $99
82D1  C8        INY
82D2  B1 2A     LDA ($2A),Y
82D4  85 A8     STA $A8
82D6  A5 03     LDA $03
82D8  48        PHA
82D9  A0 06     LDY #$06
82DB  A2 03     LDX #$03
82DD  C8        INY
82DE  B1 2A     LDA ($2A),Y
82E0  95 35     STA $35,X
82E2  CA        DEX
82E3  10 F8     BPL $82DD
82E5  84 AA     STY $AA
82E7  A5 38     LDA $38
82E9  18        CLC
82EA  6D 0E 05  ADC $050E
82ED  85 07     STA $07
82EF  A5 37     LDA $37
82F1  69 00     ADC #$00
82F3  30 31     BMI $8326
82F5  C9 02     CMP #$02
82F7  B0 2D     BCS $8326
82F9  AA        TAX
82FA  A5 36     LDA $36
82FC  18        CLC
82FD  6D 0F 05  ADC $050F

; --- starfield_alt  $8300 — seeded star/dust-field plotter (variant) ---
8300  A8        TAY
8301  A5 35     LDA $35
8303  69 00     ADC #$00
8305  D0 1F     BNE $8326
8307  C0 C2     CPY #$C2
8309  B0 1B     BCS $8326
830B  AD 10 D0  LDA $D010
830E  29 FD     AND #$FD
8310  1D 97 82  ORA $8297,X
8313  8D 10 D0  STA $D010
8316  A6 07     LDX $07
8318  8C 03 D0  STY $D003
831B  8E 02 D0  STX $D002
831E  AD 15 D0  LDA $D015
8321  09 02     ORA #$02
8323  8D 15 D0  STA $D015
8326  A0 02     LDY #$02
8328  C8        INY
8329  B1 2A     LDA ($2A),Y
832B  45 AA     EOR $AA
832D  99 FF FF  STA $FFFF,Y
8330  C0 06     CPY #$06
8332  D0 F4     BNE $8328
8334  A4 99     LDY $99
8336  20 BA 8D  JSR $8DBA
8339  85 A1     STA $A1
833B  A5 36     LDA $36
833D  85 9B     STA $9B
833F  A5 35     LDA $35
8341  20 64 82  JSR $8264
8344  D0 30     BNE $8376
8346  E0 8F     CPX #$8F
8348  B0 2C     BCS $8376
834A  86 6C     STX $6C
834C  A5 38     LDA $38
834E  85 9B     STA $9B
8350  A5 37     LDA $37
8352  20 64 82  JSR $8264
8355  D0 05     BNE $835C
8357  A5 6C     LDA $6C
8359  20 37 29  JSR $2937
835C  88        DEY
835D  10 D7     BPL $8336
835F  A4 AA     LDY $AA
8361  C4 A8     CPY $A8
8363  B0 03     BCS $8368
8365  4C DB 82  JMP $82DB
8368  68        PLA
8369  85 03     STA $03
836B  A9 04     LDA #$04
836D  20 8B 8B  JSR $8B8B
8370  AD 06 F0  LDA $F006
8373  85 05     STA $05
8375  60        RTS
8376  20 BA 8D  JSR $8DBA
8379  4C 5C 83  JMP $835C

; ==== sub_837C (2 callers) ====
837C  20 68 8D  JSR $8D68
837F  A9 7F     LDA #$7F
8381  85 26     STA $26
8383  85 27     STA $27
8385  AD F1 04  LDA $04F1
8388  29 02     AND #$02
838A  09 80     ORA #$80
838C  4C 5B 85  JMP $855B

; ==== sub_838F (1 caller) ====
838F  AD C9 04  LDA $04C9
8392  F0 1E     BEQ $83B2
8394  A9 00     LDA #$00
8396  8D B0 04  STA $04B0
8399  8D B6 04  STA $04B6
839C  20 BB 8D  JSR $8DBB
839F  29 0F     AND #$0F
83A1  6D C9 04  ADC $04C9
83A4  09 04     ORA #$04
83A6  2A        ROL A
83A7  8D C9 04  STA $04C9
83AA  2E CA 04  ROL $04CA
83AD  10 03     BPL $83B2
83AF  6E CA 04  ROR $04CA
83B2  4E CD 04  LSR $04CD
83B5  20 53 8D  JSR $8D53
83B8  A5 80     LDA $80
83BA  29 03     AND #$03
83BC  69 03     ADC #$03
83BE  85 11     STA $11
83C0  6A        ROR A
83C1  85 0B     STA $0B
83C3  85 0E     STA $0E
83C5  20 7C 83  JSR $837C
83C8  A5 82     LDA $82
83CA  29 07     AND #$07
83CC  09 81     ORA #$81
83CE  85 11     STA $11
83D0  A5 84     LDA $84
83D2  29 03     AND #$03
83D4  85 0B     STA $0B
83D6  85 0A     STA $0A
83D8  A9 00     LDA #$00
83DA  85 26     STA $26
83DC  85 27     STA $27
83DE  A9 81     LDA #$81
83E0  20 5B 85  JSR $855B
83E3  A5 A0     LDA $A0
83E5  D0 23     BNE $840A

; ==== sub_83E7 (1 caller) ====
83E7  AC 0B 05  LDY $050B
83EA  20 BB 8D  JSR $8DBB
83ED  09 08     ORA #$08
83EF  99 D6 06  STA $06D6,Y
83F2  85 A1     STA $A1
83F4  20 BB 8D  JSR $8DBB
83F7  99 A2 06  STA $06A2,Y
83FA  85 6B     STA $6B
83FC  20 BB 8D  JSR $8DBB
83FF  99 BC 06  STA $06BC,Y
8402  85 6C     STA $6C
8404  20 15 29  JSR $2915
8407  88        DEY
8408  D0 E0     BNE $83EA

; ==== sub_840A (2 callers) ====
840A  A2 00     LDX #$00
840C  BD 52 04  LDA $0452,X
840F  F0 23     BEQ $8434
8411  30 1E     BMI $8431
8413  85 A5     STA $A5
8415  20 84 3E  JSR $3E84
8418  A0 1F     LDY #$1F
841A  B1 59     LDA ($59),Y
841C  99 09 00  STA $0009,Y
841F  88        DEY
8420  10 F8     BPL $841A
8422  86 9D     STX $9D
8424  20 1C BD  JSR $BD1C
8427  A6 9D     LDX $9D
8429  A0 1F     LDY #$1F
842B  B1 59     LDA ($59),Y
842D  29 A7     AND #$A7
842F  91 59     STA ($59),Y
8431  E8        INX
8432  D0 D8     BNE $840C
8434  A2 00     LDX #$00
8436  86 7E     STX $7E
8438  CA        DEX
8439  8E A1 26  STX $26A1
843C  8E A1 27  STX $27A1

; ==== sub_843F (4 callers) ====
843F  A0 C7     LDY #$C7
8441  A9 00     LDA #$00
8443  99 80 05  STA $0580,Y
8446  88        DEY
8447  D0 FA     BNE $8443
8449  88        DEY
844A  8C 80 05  STY $0580
844D  60        RTS

; ==== sub_844E (2 callers) ====
844E  60        RTS
844F  CA        DEX
8450  60        RTS

; ==== sub_8451 (2 callers) ====
8451  E8        INX
8452  F0 FB     BEQ $844F

; ==== sub_8454 (2 callers) ====
8454  CE E9 04  DEC $04E9
8457  08        PHP
8458  D0 03     BNE $845D
845A  EE E9 04  INC $04E9
845D  28        PLP
845E  60        RTS
845F  20 A9 B9  JSR $B9A9
8462  AD 5F 04  LDA $045F
8465  D0 31     BNE $8498
8467  20 71 95  JSR $9571
846A  4C 9B 84  JMP $849B

; ==== sub_846D (2 callers) ====
846D  0A        ASL A
846E  AA        TAX
846F  A9 00     LDA #$00
8471  6A        ROR A
8472  A8        TAY
8473  A9 14     LDA #$14
8475  85 9A     STA $9A
8477  8A        TXA
8478  20 34 3B  JSR $3B34
847B  A6 2E     LDX $2E
847D  98        TYA
847E  30 03     BMI $8483
8480  A0 00     LDY #$00
8482  60        RTS
8483  A0 FF     LDY #$FF
8485  8A        TXA
8486  49 FF     EOR #$FF
8488  AA        TAX
8489  E8        INX
848A  60        RTS

; ==== sub_848B (1 caller) ====
848B  A2 08     LDX #$08
848D  BD 25 F0  LDA $F025,X
8490  95 35     STA $35,X
8492  CA        DEX
8493  10 F8     BPL $848D
8495  4C 80 95  JMP $9580
8498  20 8B 84  JSR $848B
849B  A5 6B     LDA $6B
849D  20 6D 84  JSR $846D
84A0  8A        TXA
84A1  69 C3     ADC #$C3
84A3  8D EA 04  STA $04EA
84A6  A5 6C     LDA $6C
84A8  20 6D 84  JSR $846D
84AB  86 BB     STX $BB
84AD  A9 9C     LDA #$9C
84AF  E5 BB     SBC $BB
84B1  8D EB 04  STA $04EB
84B4  A9 AA     LDA #$AA
84B6  A6 6D     LDX $6D
84B8  10 02     BPL $84BC
84BA  A9 FF     LDA #$FF
84BC  8D 01 1D  STA $1D01
84BF  4C A9 B9  JMP $B9A9

; ==== sub_84C2 (4 callers) ====
84C2  85 BB     STA $BB
84C4  A2 00     LDX #$00
84C6  A0 08     LDY #$08
84C8  B1 59     LDA ($59),Y
84CA  30 12     BMI $84DE
84CC  AD E7 04  LDA $04E7
84CF  E5 BB     SBC $BB
84D1  90 04     BCC $84D7
84D3  8D E7 04  STA $04E7
84D6  60        RTS
84D7  A2 00     LDX #$00
84D9  8E E7 04  STX $04E7
84DC  90 10     BCC $84EE
84DE  AD E8 04  LDA $04E8
84E1  E5 BB     SBC $BB
84E3  90 04     BCC $84E9
84E5  8D E8 04  STA $04E8
84E8  60        RTS
84E9  A2 00     LDX #$00
84EB  8E E8 04  STX $04E8
84EE  6D E9 04  ADC $04E9
84F1  8D E9 04  STA $04E9
84F4  F0 02     BEQ $84F8
84F6  B0 03     BCS $84FB
84F8  4C DC 90  JMP $90DC
84FB  20 13 B1  JSR $B113
84FE  4C 62 99  JMP $9962

; ==== sub_8501 (3 callers) ====
8501  BD 01 F0  LDA $F001,X
8504  95 35     STA $35,X
8506  BD 02 F0  LDA $F002,X
8509  A8        TAY
850A  29 7F     AND #$7F
850C  95 36     STA $36,X
850E  98        TYA
850F  29 80     AND #$80
8511  95 37     STA $37,X
8513  60        RTS

; ==== sub_8514 (2 callers) ====
8514  20 1A BA  JSR $BA1A
8517  A2 81     LDX #$81
8519  86 29     STX $29
851B  A2 00     LDX #$00
851D  86 27     STX $27
851F  86 2D     STX $2D
8521  8E 53 04  STX $0453
8524  CA        DEX
8525  86 26     STX $26
8527  A2 0A     LDX #$0A
8529  20 F3 85  JSR $85F3
852C  20 F3 85  JSR $85F3
852F  20 F3 85  JSR $85F3
8532  AD 6D 91  LDA $916D
8535  8D 02 D0  STA $D002
8538  AD 6E 91  LDA $916E
853B  8D 03 D0  STA $D003
853E  AD F1 04  LDA $04F1
8541  C9 0A     CMP #$0A
8543  90 0C     BCC $8551
8545  AD 40 D0  LDA $D040
8548  8D 02 D0  STA $D002
854B  AD 41 D0  LDA $D041
854E  8D 03 D0  STA $D003
8551  A9 80     LDA #$80
8553  85 2A     STA $2A
8555  A9 05     LDA #$05
8557  85 2B     STA $2B
8559  A9 02     LDA #$02

; ==== spawn_ship  $855B  (10 callers) — create a ship in a universe slot (reads the blueprint header attributes) ====
855B  85 BB     STA $BB
855D  A2 00     LDX #$00
855F  BD 52 04  LDA $0452,X
8562  F0 07     BEQ $856B
8564  E8        INX
8565  E0 0A     CPX #$0A
8567  90 F6     BCC $855F
8569  18        CLC
856A  60        RTS
856B  20 84 3E  JSR $3E84
856E  A5 BB     LDA $BB
8570  30 52     BMI $85C4
8572  0A        ASL A
8573  A8        TAY
8574  B9 FF CF  LDA $CFFF,Y
8577  F0 F0     BEQ $8569
8579  85 58     STA $58
857B  B9 FE CF  LDA $CFFE,Y
857E  85 57     STA $57
8580  C0 04     CPY #$04
8582  F0 30     BEQ $85B4
8584  A0 05     LDY #$05
8586  B1 57     LDA ($57),Y
8588  85 06     STA $06
858A  AD F2 04  LDA $04F2
858D  38        SEC
858E  E5 06     SBC $06
8590  85 2A     STA $2A
8592  AD F3 04  LDA $04F3
8595  E9 00     SBC #$00
8597  85 2B     STA $2B
8599  A5 2A     LDA $2A
859B  E5 59     SBC $59
859D  A8        TAY
859E  A5 2B     LDA $2B
85A0  E5 5A     SBC $5A
85A2  90 C6     BCC $856A
85A4  D0 04     BNE $85AA
85A6  C0 25     CPY #$25
85A8  90 C0     BCC $856A
85AA  A5 2A     LDA $2A
85AC  8D F2 04  STA $04F2
85AF  A5 2B     LDA $2B
85B1  8D F3 04  STA $04F3
85B4  A0 0E     LDY #$0E
85B6  B1 57     LDA ($57),Y
85B8  85 2C     STA $2C
85BA  A0 13     LDY #$13
85BC  B1 57     LDA ($57),Y
85BE  29 07     AND #$07
85C0  85 28     STA $28
85C2  A5 BB     LDA $BB
85C4  9D 52 04  STA $0452,X
85C7  AA        TAX
85C8  30 12     BMI $85DC
85CA  E0 0F     CPX #$0F
85CC  F0 08     BEQ $85D6
85CE  E0 03     CPX #$03
85D0  90 07     BCC $85D9
85D2  E0 0B     CPX #$0B
85D4  B0 03     BCS $85D9
85D6  EE 7F 04  INC $047F
85D9  FE 5D 04  INC $045D,X
85DC  A4 BB     LDY $BB
85DE  B9 41 D0  LDA $D041,Y
85E1  29 6F     AND #$6F
85E3  05 2D     ORA $2D
85E5  85 2D     STA $2D
85E7  A0 24     LDY #$24
85E9  B9 09 00  LDA $0009,Y
85EC  91 59     STA ($59),Y
85EE  88        DEY
85EF  10 F8     BPL $85E9
85F1  38        SEC
85F2  60        RTS

; ==== sub_85F3 (3 callers) ====
85F3  B5 09     LDA $09,X
85F5  49 80     EOR #$80
85F7  95 09     STA $09,X
85F9  E8        INX
85FA  E8        INX
85FB  60        RTS

; ==== sub_85FC (3 callers) ====
85FC  A2 FF     LDX #$FF

; ==== sub_85FE (1 caller) ====
85FE  86 7C     STX $7C
8600  AE CC 04  LDX $04CC
8603  20 2B BA  JSR $BA2B
8606  8C 85 04  STY $0485
8609  60        RTS
860A  .byte 04 00 00 00 00                                  ; .....

; ==== sub_860F (2 callers) ====
860F  A5 09     LDA $09
8611  85 2E     STA $2E
8613  A5 0A     LDA $0A
8615  85 2F     STA $2F
8617  A5 0B     LDA $0B
8619  20 B9 8A  JSR $8AB9
861C  B0 28     BCS $8646
861E  A5 77     LDA $77
8620  69 80     ADC #$80
8622  85 35     STA $35
8624  8A        TXA
8625  69 00     ADC #$00
8627  85 36     STA $36
8629  A5 0C     LDA $0C
862B  85 2E     STA $2E
862D  A5 0D     LDA $0D
862F  85 2F     STA $2F
8631  A5 0E     LDA $0E
8633  49 80     EOR #$80
8635  20 B9 8A  JSR $8AB9
8638  B0 0C     BCS $8646
863A  A5 77     LDA $77
863C  69 48     ADC #$48
863E  85 43     STA $43
8640  8A        TXA
8641  69 00     ADC #$00
8643  85 44     STA $44
8645  18        CLC
8646  60        RTS
8647  A5 A5     LDA $A5
8649  4A        LSR A
864A  B0 03     BCS $864F
864C  4C AB 89  JMP $89AB
864F  4C EF 89  JMP $89EF
8652  A5 11     LDA $11
8654  C9 30     CMP #$30
8656  B0 EF     BCS $8647
8658  05 10     ORA $10
865A  F0 EB     BEQ $8647
865C  20 0F 86  JSR $860F
865F  B0 E6     BCS $8647
8661  A9 60     LDA #$60
8663  85 2F     STA $2F
8665  A9 00     LDA #$00
8667  85 2E     STA $2E
8669  20 BE 3B  JSR $3BBE
866C  A5 78     LDA $78
866E  F0 04     BEQ $8674
8670  A9 F8     LDA #$F8
8672  85 77     STA $77
8674  A5 A5     LDA $A5
8676  4A        LSR A
8677  90 03     BCC $867C
8679  4C 12 88  JMP $8812
867C  20 AB 89  JSR $89AB
867F  20 34 89  JSR $8934
8682  B0 04     BCS $8688
8684  A5 78     LDA $78
8686  F0 01     BEQ $8689
8688  60        RTS
8689  AD 0F 1D  LDA $1D0F
868C  F0 FA     BEQ $8688
868E  A5 A5     LDA $A5
8690  C9 80     CMP #$80
8692  D0 3C     BNE $86D0
8694  A5 77     LDA $77
8696  C9 06     CMP #$06
8698  90 EE     BCC $8688
869A  A5 17     LDA $17
869C  49 80     EOR #$80
869E  85 2E     STA $2E
86A0  A5 1D     LDA $1D
86A2  20 9A 8A  JSR $8A9A
86A5  A2 09     LDX #$09
86A7  20 26 87  JSR $8726
86AA  85 B2     STA $B2
86AC  84 45     STY $45
86AE  20 26 87  JSR $8726
86B1  85 B3     STA $B3
86B3  84 46     STY $46
86B5  A2 0F     LDX #$0F
86B7  20 AA 8A  JSR $8AAA
86BA  20 44 87  JSR $8744
86BD  A5 17     LDA $17
86BF  49 80     EOR #$80
86C1  85 2E     STA $2E
86C3  A5 23     LDA $23
86C5  20 9A 8A  JSR $8A9A
86C8  A2 15     LDX #$15
86CA  20 AA 8A  JSR $8AAA
86CD  4C 44 87  JMP $8744
86D0  A5 1D     LDA $1D
86D2  30 B4     BMI $8688
86D4  A2 0F     LDX #$0F
86D6  20 79 8A  JSR $8A79
86D9  18        CLC
86DA  65 35     ADC $35
86DC  85 35     STA $35
86DE  98        TYA
86DF  65 36     ADC $36
86E1  85 36     STA $36
86E3  20 79 8A  JSR $8A79
86E6  85 2E     STA $2E
86E8  A5 43     LDA $43
86EA  38        SEC
86EB  E5 2E     SBC $2E
86ED  85 43     STA $43
86EF  84 2E     STY $2E
86F1  A5 44     LDA $44
86F3  E5 2E     SBC $2E
86F5  85 44     STA $44
86F7  A2 09     LDX #$09
86F9  20 26 87  JSR $8726
86FC  4A        LSR A
86FD  85 B2     STA $B2
86FF  84 45     STY $45
8701  20 26 87  JSR $8726
8704  4A        LSR A
8705  85 B3     STA $B3
8707  84 46     STY $46
8709  A2 15     LDX #$15
870B  20 26 87  JSR $8726
870E  4A        LSR A
870F  85 B4     STA $B4
8711  84 47     STY $47
8713  20 26 87  JSR $8726
8716  4A        LSR A
8717  85 B5     STA $B5
8719  84 48     STY $48
871B  A9 40     LDA #$40
871D  85 A8     STA $A8
871F  A9 00     LDA #$00
8721  85 AB     STA $AB
8723  4C 48 87  JMP $8748

; ==== sub_8726 (9 callers) ====
8726  B5 09     LDA $09,X
8728  85 2E     STA $2E
872A  B5 0A     LDA $0A,X
872C  29 7F     AND #$7F
872E  85 2F     STA $2F
8730  B5 0A     LDA $0A,X
8732  29 80     AND #$80
8734  20 BE 3B  JSR $3BBE
8737  A5 77     LDA $77
8739  A4 78     LDY $78
873B  F0 02     BEQ $873F
873D  A9 FE     LDA #$FE
873F  A4 7A     LDY $7A
8741  E8        INX
8742  E8        INX
8743  60        RTS

; ==== sub_8744 (1 caller) ====
8744  A9 1F     LDA #$1F
8746  85 A8     STA $A8
8748  A2 00     LDX #$00
874A  86 AA     STX $AA
874C  CA        DEX
874D  86 A9     STX $A9
874F  A5 AB     LDA $AB
8751  29 1F     AND #$1F
8753  AA        TAX
8754  BD C0 0A  LDA $0AC0,X
8757  85 9A     STA $9A
8759  A5 B4     LDA $B4
875B  20 E7 39  JSR $39E7
875E  85 9B     STA $9B
8760  A5 B5     LDA $B5
8762  20 E7 39  JSR $39E7
8765  85 77     STA $77
8767  A6 AB     LDX $AB
8769  E0 21     CPX #$21
876B  A9 00     LDA #$00
876D  6A        ROR A
876E  85 4A     STA $4A
8770  A5 AB     LDA $AB
8772  18        CLC
8773  69 10     ADC #$10
8775  29 1F     AND #$1F
8777  AA        TAX
8778  BD C0 0A  LDA $0AC0,X
877B  85 9A     STA $9A
877D  A5 B3     LDA $B3
877F  20 E7 39  JSR $39E7
8782  85 79     STA $79
8784  A5 B2     LDA $B2
8786  20 E7 39  JSR $39E7
8789  85 2E     STA $2E
878B  A5 AB     LDA $AB
878D  69 0F     ADC #$0F
878F  29 3F     AND #$3F
8791  C9 21     CMP #$21
8793  A9 00     LDA #$00
8795  6A        ROR A
8796  85 49     STA $49
8798  A5 4A     LDA $4A
879A  45 47     EOR $47
879C  85 9C     STA $9C
879E  A5 49     LDA $49
87A0  45 45     EOR $45
87A2  20 CE 3A  JSR $3ACE
87A5  85 BB     STA $BB
87A7  10 0F     BPL $87B8
87A9  8A        TXA
87AA  49 FF     EOR #$FF
87AC  18        CLC
87AD  69 01     ADC #$01
87AF  AA        TAX
87B0  A5 BB     LDA $BB
87B2  49 7F     EOR #$7F
87B4  69 00     ADC #$00
87B6  85 BB     STA $BB
87B8  8A        TXA
87B9  65 35     ADC $35
87BB  85 89     STA $89
87BD  A5 BB     LDA $BB
87BF  65 36     ADC $36
87C1  85 8A     STA $8A
87C3  A5 77     LDA $77
87C5  85 9B     STA $9B
87C7  A5 4A     LDA $4A
87C9  45 48     EOR $48
87CB  85 9C     STA $9C
87CD  A5 79     LDA $79
87CF  85 2E     STA $2E
87D1  A5 49     LDA $49
87D3  45 46     EOR $46
87D5  20 CE 3A  JSR $3ACE
87D8  49 80     EOR #$80
87DA  85 BB     STA $BB
87DC  10 0F     BPL $87ED
87DE  8A        TXA
87DF  49 FF     EOR #$FF
87E1  18        CLC
87E2  69 01     ADC #$01
87E4  AA        TAX
87E5  A5 BB     LDA $BB
87E7  49 7F     EOR #$7F
87E9  69 00     ADC #$00
87EB  85 BB     STA $BB
87ED  20 74 29  JSR $2974
87F0  C5 A8     CMP $A8
87F2  F0 02     BEQ $87F6
87F4  B0 0C     BCS $8802
87F6  A5 AB     LDA $AB
87F8  18        CLC
87F9  65 AC     ADC $AC
87FB  29 3F     AND #$3F
87FD  85 AB     STA $AB
87FF  4C 4F 87  JMP $874F
8802  60        RTS
8803  4C EF 89  JMP $89EF
8806  8A        TXA
8807  49 FF     EOR #$FF
8809  18        CLC
880A  69 01     ADC #$01
880C  AA        TAX
880D  A9 FF     LDA #$FF
880F  4C 57 88  JMP $8857

; ==== sub_8812 (1 caller) ====
8812  A9 01     LDA #$01
8814  8D 80 05  STA $0580
8817  20 3F 8A  JSR $8A3F
881A  B0 E7     BCS $8803
881C  A9 00     LDA #$00
881E  A6 77     LDX $77
8820  E0 60     CPX #$60
8822  2A        ROL A
8823  E0 28     CPX #$28
8825  2A        ROL A
8826  E0 10     CPX #$10
8828  2A        ROL A
8829  85 AA     STA $AA
882B  A5 B8     LDA $B8
882D  A6 30     LDX $30
882F  D0 0A     BNE $883B
8831  C5 2F     CMP $2F
8833  90 06     BCC $883B
8835  A5 2F     LDA $2F
8837  D0 02     BNE $883B
8839  A9 01     LDA #$01
883B  85 A8     STA $A8
883D  A5 B8     LDA $B8
883F  38        SEC
8840  E5 43     SBC $43
8842  AA        TAX
8843  A9 00     LDA #$00
8845  E5 44     SBC $44
8847  30 BD     BMI $8806
8849  D0 08     BNE $8853
884B  E8        INX
884C  CA        DEX
884D  F0 BE     BEQ $880D
884F  E4 77     CPX $77
8851  90 04     BCC $8857
8853  A6 77     LDX $77
8855  A9 00     LDA #$00
8857  86 5B     STX $5B
8859  85 5C     STA $5C
885B  A5 77     LDA $77
885D  20 85 39  JSR $3985
8860  85 B3     STA $B3
8862  A5 2E     LDA $2E
8864  85 B2     STA $B2
8866  A4 B8     LDY $B8
8868  A5 61     LDA $61
886A  85 5F     STA $5F
886C  A5 62     LDA $62
886E  85 60     STA $60
8870  C4 A8     CPY $A8
8872  F0 0B     BEQ $887F
8874  B9 80 05  LDA $0580,Y
8877  F0 03     BEQ $887C
8879  20 F0 28  JSR $28F0
887C  88        DEY
887D  D0 F1     BNE $8870
887F  A5 5B     LDA $5B
8881  20 85 39  JSR $3985
8884  85 BB     STA $BB
8886  A5 B2     LDA $B2

; --- line_plot  $8888 — the line routine's inner EOR plot loop ---
8888  38        SEC
8889  E5 2E     SBC $2E
888B  85 9A     STA $9A
888D  A5 B3     LDA $B3
888F  E5 BB     SBC $BB
8891  85 9B     STA $9B
8893  84 6C     STY $6C
8895  20 78 A2  JSR $A278
8898  A4 6C     LDY $6C
889A  20 BB 8D  JSR $8DBB
889D  25 AA     AND $AA
889F  18        CLC
88A0  65 9A     ADC $9A
88A2  90 02     BCC $88A6
88A4  A9 FF     LDA #$FF
88A6  BE 80 05  LDX $0580,Y
88A9  99 80 05  STA $0580,Y
88AC  F0 4A     BEQ $88F8
88AE  A5 61     LDA $61
88B0  85 5F     STA $5F
88B2  A5 62     LDA $62
88B4  85 60     STA $60
88B6  8A        TXA
88B7  20 0E 8A  JSR $8A0E
88BA  A5 6B     LDA $6B
88BC  85 5D     STA $5D
88BE  A5 6D     LDA $6D
88C0  85 5E     STA $5E
88C2  A5 35     LDA $35
88C4  85 5F     STA $5F
88C6  A5 36     LDA $36
88C8  85 60     STA $60
88CA  B9 80 05  LDA $0580,Y
88CD  20 0E 8A  JSR $8A0E
88D0  B0 0B     BCS $88DD
88D2  A5 6D     LDA $6D
88D4  A6 5D     LDX $5D
88D6  86 6D     STX $6D
88D8  85 5D     STA $5D
88DA  20 06 B9  JSR $B906
88DD  A5 5D     LDA $5D
88DF  85 6B     STA $6B
88E1  A5 5E     LDA $5E
88E3  85 6D     STA $6D
88E5  20 06 B9  JSR $B906
88E8  88        DEY
88E9  F0 3F     BEQ $892A
88EB  A5 5C     LDA $5C
88ED  D0 1D     BNE $890C
88EF  C6 5B     DEC $5B
88F1  D0 8C     BNE $887F
88F3  C6 5C     DEC $5C
88F5  4C 7F 88  JMP $887F
88F8  A6 35     LDX $35
88FA  86 5F     STX $5F
88FC  A6 36     LDX $36
88FE  86 60     STX $60
8900  20 0E 8A  JSR $8A0E
8903  90 E0     BCC $88E5
8905  A9 00     LDA #$00
8907  99 80 05  STA $0580,Y
890A  F0 DC     BEQ $88E8
890C  A6 5B     LDX $5B
890E  E8        INX
890F  86 5B     STX $5B
8911  E4 77     CPX $77
8913  90 E0     BCC $88F5
8915  F0 DE     BEQ $88F5
8917  A5 61     LDA $61
8919  85 5F     STA $5F
891B  A5 62     LDA $62
891D  85 60     STA $60
891F  B9 80 05  LDA $0580,Y
8922  F0 03     BEQ $8927
8924  20 F0 28  JSR $28F0
8927  88        DEY
8928  D0 F5     BNE $891F
892A  18        CLC
892B  A5 35     LDA $35
892D  85 61     STA $61
892F  A5 36     LDA $36
8931  85 62     STA $62
8933  60        RTS

; ==== sub_8934 (1 caller) ====
8934  20 3F 8A  JSR $8A3F
8937  B0 FA     BCS $8933
8939  A9 00     LDA #$00
893B  8D A1 26  STA $26A1
893E  A6 77     LDX $77
8940  A9 08     LDA #$08
8942  E0 08     CPX #$08
8944  90 06     BCC $894C
8946  4A        LSR A
8947  E0 3C     CPX #$3C
8949  90 01     BCC $894C
894B  4A        LSR A
894C  85 AC     STA $AC

; ==== sub_894E (1 caller) ====
894E  A2 FF     LDX #$FF
8950  86 A9     STX $A9
8952  E8        INX
8953  86 AA     STX $AA
8955  A5 AA     LDA $AA
8957  20 DD 39  JSR $39DD
895A  A2 00     LDX #$00
895C  86 BB     STX $BB
895E  A6 AA     LDX $AA
8960  E0 21     CPX #$21
8962  90 0D     BCC $8971
8964  49 FF     EOR #$FF
8966  69 00     ADC #$00
8968  AA        TAX
8969  A9 FF     LDA #$FF
896B  69 00     ADC #$00
896D  85 BB     STA $BB
896F  8A        TXA
8970  18        CLC
8971  65 35     ADC $35
8973  85 89     STA $89
8975  A5 36     LDA $36
8977  65 BB     ADC $BB
8979  85 8A     STA $8A
897B  A5 AA     LDA $AA
897D  18        CLC
897E  69 10     ADC #$10
8980  20 DD 39  JSR $39DD
8983  AA        TAX
8984  A9 00     LDA #$00
8986  85 BB     STA $BB
8988  A5 AA     LDA $AA
898A  69 0F     ADC #$0F
898C  29 3F     AND #$3F
898E  C9 21     CMP #$21
8990  90 0D     BCC $899F
8992  8A        TXA
8993  49 FF     EOR #$FF
8995  69 00     ADC #$00
8997  AA        TAX
8998  A9 FF     LDA #$FF
899A  69 00     ADC #$00
899C  85 BB     STA $BB
899E  18        CLC
899F  20 74 29  JSR $2974
89A2  C9 41     CMP #$41
89A4  B0 03     BCS $89A9
89A6  4C 55 89  JMP $8955
89A9  18        CLC
89AA  60        RTS

; ==== sub_89AB (1 caller) ====
89AB  AC A1 26  LDY $26A1
89AE  D0 35     BNE $89E5
89B0  C4 7E     CPY $7E
89B2  B0 31     BCS $89E5
89B4  B9 A1 27  LDA $27A1,Y
89B7  C9 FF     CMP #$FF
89B9  F0 1B     BEQ $89D6
89BB  85 6E     STA $6E
89BD  B9 A1 26  LDA $26A1,Y
89C0  85 6D     STA $6D
89C2  20 9D B4  JSR $B49D
89C5  C8        INY
89C6  AD F4 06  LDA $06F4
89C9  D0 E5     BNE $89B0
89CB  A5 6D     LDA $6D
89CD  85 6B     STA $6B
89CF  A5 6E     LDA $6E
89D1  85 6C     STA $6C
89D3  4C B0 89  JMP $89B0
89D6  C8        INY
89D7  B9 A1 26  LDA $26A1,Y
89DA  85 6B     STA $6B
89DC  B9 A1 27  LDA $27A1,Y
89DF  85 6C     STA $6C
89E1  C8        INY
89E2  4C B0 89  JMP $89B0
89E5  A9 01     LDA #$01
89E7  85 7E     STA $7E
89E9  A9 FF     LDA #$FF
89EB  8D A1 26  STA $26A1
89EE  60        RTS

; ==== sub_89EF (1 caller) ====
89EF  AD 80 05  LDA $0580
89F2  30 FA     BMI $89EE
89F4  A5 61     LDA $61
89F6  85 5F     STA $5F
89F8  A5 62     LDA $62
89FA  85 60     STA $60
89FC  A0 8F     LDY #$8F
89FE  B9 80 05  LDA $0580,Y
8A01  F0 03     BEQ $8A06
8A03  20 F0 28  JSR $28F0
8A06  88        DEY
8A07  D0 F5     BNE $89FE
8A09  88        DEY
8A0A  8C 80 05  STY $0580
8A0D  60        RTS

; ==== sub_8A0E (4 callers) ====
8A0E  85 BB     STA $BB
8A10  18        CLC
8A11  65 5F     ADC $5F
8A13  85 6D     STA $6D
8A15  A5 60     LDA $60
8A17  69 00     ADC #$00
8A19  30 1D     BMI $8A38
8A1B  F0 04     BEQ $8A21
8A1D  A9 FF     LDA #$FF
8A1F  85 6D     STA $6D
8A21  A5 5F     LDA $5F
8A23  38        SEC
8A24  E5 BB     SBC $BB
8A26  85 6B     STA $6B
8A28  A5 60     LDA $60
8A2A  E9 00     SBC #$00
8A2C  D0 02     BNE $8A30
8A2E  18        CLC
8A2F  60        RTS
8A30  10 06     BPL $8A38
8A32  A9 00     LDA #$00
8A34  85 6B     STA $6B
8A36  18        CLC
8A37  60        RTS
8A38  A9 00     LDA #$00
8A3A  99 80 05  STA $0580,Y
8A3D  38        SEC
8A3E  60        RTS

; ==== sub_8A3F (2 callers) ====
8A3F  A5 35     LDA $35
8A41  18        CLC
8A42  65 77     ADC $77
8A44  A5 36     LDA $36
8A46  69 00     ADC #$00
8A48  30 2D     BMI $8A77
8A4A  A5 35     LDA $35
8A4C  38        SEC
8A4D  E5 77     SBC $77
8A4F  A5 36     LDA $36
8A51  E9 00     SBC #$00
8A53  30 02     BMI $8A57
8A55  D0 20     BNE $8A77
8A57  A5 43     LDA $43
8A59  18        CLC
8A5A  65 77     ADC $77
8A5C  85 2F     STA $2F
8A5E  A5 44     LDA $44
8A60  69 00     ADC #$00
8A62  30 13     BMI $8A77
8A64  85 30     STA $30
8A66  A5 43     LDA $43
8A68  38        SEC
8A69  E5 77     SBC $77
8A6B  AA        TAX
8A6C  A5 44     LDA $44
8A6E  E9 00     SBC #$00
8A70  30 6A     BMI $8ADC
8A72  D0 03     BNE $8A77
8A74  E4 B8     CPX $B8
8A76  60        RTS
8A77  38        SEC
8A78  60        RTS

; ==== sub_8A79 (2 callers) ====
8A79  20 26 87  JSR $8726
8A7C  85 2E     STA $2E
8A7E  A9 DE     LDA #$DE
8A80  85 9A     STA $9A
8A82  86 99     STX $99
8A84  20 98 39  JSR $3998
8A87  A6 99     LDX $99
8A89  A4 7A     LDY $7A
8A8B  10 0A     BPL $8A97
8A8D  49 FF     EOR #$FF
8A8F  18        CLC
8A90  69 01     ADC #$01
8A92  F0 03     BEQ $8A97
8A94  A0 FF     LDY #$FF
8A96  60        RTS
8A97  A0 00     LDY #$00
8A99  60        RTS

; ==== sub_8A9A (2 callers) ====
8A9A  85 9A     STA $9A
8A9C  20 92 3C  JSR $3C92
8A9F  A6 17     LDX $17
8AA1  30 02     BMI $8AA5
8AA3  49 80     EOR #$80
8AA5  4A        LSR A
8AA6  4A        LSR A
8AA7  85 AB     STA $AB
8AA9  60        RTS

; ==== sub_8AAA (2 callers) ====
8AAA  20 26 87  JSR $8726
8AAD  85 B4     STA $B4
8AAF  84 47     STY $47
8AB1  20 26 87  JSR $8726
8AB4  85 B5     STA $B5
8AB6  84 48     STY $48
8AB8  60        RTS

; ==== sub_8AB9 (2 callers) ====
8AB9  20 BE 3B  JSR $3BBE
8ABC  A5 7A     LDA $7A
8ABE  29 7F     AND #$7F
8AC0  05 79     ORA $79
8AC2  D0 B3     BNE $8A77
8AC4  A6 78     LDX $78
8AC6  E0 04     CPX #$04
8AC8  B0 13     BCS $8ADD
8ACA  A5 7A     LDA $7A
8ACC  10 0F     BPL $8ADD
8ACE  A5 77     LDA $77
8AD0  49 FF     EOR #$FF
8AD2  69 01     ADC #$01
8AD4  85 77     STA $77
8AD6  8A        TXA
8AD7  49 FF     EOR #$FF
8AD9  69 00     ADC #$00
8ADB  AA        TAX
8ADC  18        CLC
8ADD  60        RTS

; ==== sub_8ADE (2 callers) ====
8ADE  20 E4 98  JSR $98E4
8AE1  C9 59     CMP #$59
8AE3  F0 F8     BEQ $8ADD
8AE5  C9 4E     CMP #$4E
8AE7  D0 F5     BNE $8ADE
8AE9  18        CLC
8AEA  60        RTS

; ==== read_controls  $8AEB  (1 caller) — poll keyboard/joystick into the command code ====
8AEB  A5 A0     LDA $A0
8AED  D0 05     BNE $8AF4
8AEF  20 DB 97  JSR $97DB
8AF2  8A        TXA
8AF3  60        RTS
8AF4  20 DB 97  JSR $97DB
8AF7  AD 0C 1D  LDA $1D0C
8AFA  F0 38     BEQ $8B34
8AFC  AD 13 96  LDA $9613
8AFF  2C 16 96  BIT $9616
8B02  10 02     BPL $8B06
8B04  A9 01     LDA #$01
8B06  2C 38 96  BIT $9638
8B09  10 02     BPL $8B0D
8B0B  0A        ASL A
8B0C  0A        ASL A
8B0D  AA        TAX
8B0E  AD 2B 96  LDA $962B
8B11  2C 35 96  BIT $9635
8B14  10 02     BPL $8B18
8B16  A9 01     LDA #$01
8B18  2C 38 96  BIT $9638
8B1B  10 02     BPL $8B1F
8B1D  0A        ASL A
8B1E  0A        ASL A
8B1F  A8        TAY
8B20  A9 00     LDA #$00
8B22  8D 13 96  STA $9613
8B25  8D 16 96  STA $9616
8B28  8D 2B 96  STA $962B
8B2B  8D 35 96  STA $9635
8B2E  8D 38 96  STA $9638
8B31  A5 7D     LDA $7D
8B33  60        RTS
8B34  AD 40 96  LDA $9640
8B37  F0 08     BEQ $8B41
8B39  A9 01     LDA #$01
8B3B  0D 33 96  ORA $9633
8B3E  0D 0E 96  ORA $960E
8B41  2C 41 96  BIT $9641
8B44  10 02     BPL $8B48
8B46  0A        ASL A
8B47  0A        ASL A
8B48  AA        TAX
8B49  AD 3B 96  LDA $963B
8B4C  F0 0A     BEQ $8B58
8B4E  A9 01     LDA #$01
8B50  0D 33 96  ORA $9633
8B53  0D 0E 96  ORA $960E
8B56  49 FE     EOR #$FE
8B58  2C 41 96  BIT $9641
8B5B  10 02     BPL $8B5F
8B5D  0A        ASL A
8B5E  0A        ASL A
8B5F  A8        TAY
8B60  A5 7D     LDA $7D
8B62  60        RTS

; ==== sub_8B63 (3 callers) ====
8B63  A2 36     LDX #$36
8B65  B5 00     LDA $00,X
8B67  BC 00 CE  LDY $CE00,X
8B6A  9D 00 CE  STA $CE00,X
8B6D  94 00     STY $00,X
8B6F  E8        INX
8B70  D0 F3     BNE $8B65
8B72  60        RTS

; ==== sub_8B73 (3 callers) ====
8B73  A9 05     LDA #$05
8B75  20 8B 8B  JSR $8B8B
8B78  A9 00     LDA #$00
8B7A  8D 15 D0  STA $D015
8B7D  A9 37     LDA #$37
8B7F  2C 11 D0  BIT $D011
8B82  10 FB     BPL $8B7F
8B84  CD 12 D0  CMP $D012
8B87  D0 F6     BNE $8B7F
8B89  A9 04     LDA #$04

; ==== sub_8B8B (16 callers) ====
8B8B  78        SEI
8B8C  8D 9A 8B  STA $8B9A
8B8F  A5 01     LDA $01
8B91  29 F8     AND #$F8
8B93  0D 9A 8B  ORA $8B9A
8B96  85 01     STA $01
8B98  58        CLI
8B99  60        RTS
8B9A  .byte 05                                              ; .
8B9B  A5 2E     LDA $2E
8B9D  8D F2 04  STA $04F2
8BA0  A5 2F     LDA $2F
8BA2  8D F3 04  STA $04F3
8BA5  60        RTS
8BA6  A6 9D     LDX $9D
8BA8  20 FF 8B  JSR $8BFF
8BAB  A6 9D     LDX $9D
8BAD  4C 2C 20  JMP $202C
8BB0  20 53 8D  JSR $8D53
8BB3  20 3F 84  JSR $843F
8BB6  8D 53 04  STA $0453
8BB9  8D 5F 04  STA $045F
8BBC  20 1A BA  JSR $BA1A
8BBF  A9 06     LDA #$06
8BC1  85 0E     STA $0E
8BC3  A9 81     LDA #$81
8BC5  4C 5B 85  JMP $855B
8BC8  A2 FF     LDX #$FF
8BCA  E8        INX
8BCB  BD 52 04  LDA $0452,X
8BCE  F0 CB     BEQ $8B9B
8BD0  C9 01     CMP #$01
8BD2  D0 F6     BNE $8BCA
8BD4  8A        TXA
8BD5  0A        ASL A
8BD6  A8        TAY
8BD7  B9 A1 28  LDA $28A1,Y
8BDA  85 07     STA $07
8BDC  B9 A2 28  LDA $28A2,Y
8BDF  85 08     STA $08
8BE1  A0 20     LDY #$20
8BE3  B1 07     LDA ($07),Y
8BE5  10 E3     BPL $8BCA
8BE7  29 7F     AND #$7F
8BE9  4A        LSR A
8BEA  C5 AD     CMP $AD
8BEC  90 DC     BCC $8BCA
8BEE  F0 09     BEQ $8BF9
8BF0  E9 01     SBC #$01
8BF2  0A        ASL A
8BF3  09 80     ORA #$80
8BF5  91 07     STA ($07),Y
8BF7  D0 D1     BNE $8BCA
8BF9  A9 00     LDA #$00
8BFB  91 07     STA ($07),Y
8BFD  F0 CB     BEQ $8BCA

; ==== remove_ship  $8BFF  (1 caller) — delete a ship slot, decrement the population counters, compact the slot + pointer arrays ====
8BFF  86 AD     STX $AD
8C01  A5 7C     LDA $7C
8C03  C5 AD     CMP $AD
8C05  D0 0A     BNE $8C11
8C07  A0 57     LDY #$57
8C09  20 FC 85  JSR $85FC
8C0C  A9 C8     LDA #$C8
8C0E  20 05 99  JSR $9905
8C11  A4 AD     LDY $AD
8C13  BE 52 04  LDX $0452,Y
8C16  E0 02     CPX #$02
8C18  F0 96     BEQ $8BB0
8C1A  E0 1F     CPX #$1F
8C1C  D0 0B     BNE $8C29
8C1E  AD 99 04  LDA $0499
8C21  09 02     ORA #$02
8C23  8D 99 04  STA $0499
8C26  EE E1 04  INC $04E1
8C29  E0 0F     CPX #$0F
8C2B  F0 08     BEQ $8C35
8C2D  E0 03     CPX #$03
8C2F  90 07     BCC $8C38
8C31  E0 0B     CPX #$0B
8C33  B0 03     BCS $8C38
8C35  CE 7F 04  DEC $047F
8C38  DE 5D 04  DEC $045D,X
8C3B  A6 AD     LDX $AD
8C3D  A0 05     LDY #$05
8C3F  B1 57     LDA ($57),Y
8C41  A0 21     LDY #$21
8C43  18        CLC
8C44  71 59     ADC ($59),Y
8C46  85 2E     STA $2E
8C48  C8        INY
8C49  B1 59     LDA ($59),Y
8C4B  69 00     ADC #$00
8C4D  85 2F     STA $2F
8C4F  E8        INX
8C50  BD 52 04  LDA $0452,X
8C53  9D 51 04  STA $0451,X
8C56  D0 03     BNE $8C5B
8C58  4C C8 8B  JMP $8BC8
8C5B  0A        ASL A
8C5C  A8        TAY
8C5D  B9 FE CF  LDA $CFFE,Y
8C60  85 07     STA $07
8C62  B9 FF CF  LDA $CFFF,Y
8C65  85 08     STA $08
8C67  A0 05     LDY #$05
8C69  B1 07     LDA ($07),Y
8C6B  85 BB     STA $BB
8C6D  A5 2E     LDA $2E
8C6F  38        SEC
8C70  E5 BB     SBC $BB
8C72  85 2E     STA $2E
8C74  A5 2F     LDA $2F
8C76  E9 00     SBC #$00
8C78  85 2F     STA $2F
8C7A  8A        TXA
8C7B  0A        ASL A
8C7C  A8        TAY
8C7D  B9 A1 28  LDA $28A1,Y
8C80  85 07     STA $07
8C82  B9 A2 28  LDA $28A2,Y
8C85  85 08     STA $08
8C87  A0 24     LDY #$24
8C89  B1 07     LDA ($07),Y
8C8B  91 59     STA ($59),Y
8C8D  88        DEY
8C8E  B1 07     LDA ($07),Y
8C90  91 59     STA ($59),Y
8C92  88        DEY
8C93  B1 07     LDA ($07),Y
8C95  85 78     STA $78
8C97  A5 2F     LDA $2F
8C99  91 59     STA ($59),Y
8C9B  88        DEY
8C9C  B1 07     LDA ($07),Y
8C9E  85 77     STA $77
8CA0  A5 2E     LDA $2E
8CA2  91 59     STA ($59),Y
8CA4  88        DEY
8CA5  B1 07     LDA ($07),Y
8CA7  91 59     STA ($59),Y
8CA9  88        DEY
8CAA  10 F9     BPL $8CA5
8CAC  A5 07     LDA $07
8CAE  85 59     STA $59
8CB0  A5 08     LDA $08
8CB2  85 5A     STA $5A
8CB4  A4 BB     LDY $BB
8CB6  88        DEY
8CB7  B1 77     LDA ($77),Y
8CB9  91 2E     STA ($2E),Y
8CBB  98        TYA
8CBC  D0 F8     BNE $8CB6
8CBE  F0 8F     BEQ $8C4F

; ==== sub_8CC0 (1 caller) ====
8CC0  AE A8 04  LDX $04A8
8CC3  CA        DEX
8CC4  D0 0E     BNE $8CD4
8CC6  AD 9A 04  LDA $049A
8CC9  C9 90     CMP #$90
8CCB  D0 07     BNE $8CD4
8CCD  AD 9B 04  LDA $049B
8CD0  C9 21     CMP #$21
8CD2  F0 01     BEQ $8CD5
8CD4  18        CLC
8CD5  60        RTS

; ==== sub_8CD6 (2 callers) ====
8CD6  20 BD 93  JSR $93BD
8CD9  A2 06     LDX #$06
8CDB  95 63     STA $63,X
8CDD  CA        DEX
8CDE  10 FB     BPL $8CDB
8CE0  8A        TXA
8CE1  85 A7     STA $A7
8CE3  A2 02     LDX #$02
8CE5  9D E7 04  STA $04E7,X
8CE8  CA        DEX
8CE9  10 FA     BPL $8CE5

; ==== sub_8CEB (7 callers) ====
8CEB  20 1E 9B  JSR $9B1E
8CEE  AD C3 04  LDA $04C3
8CF1  10 06     BPL $8CF9
8CF3  20 64 23  JSR $2364
8CF6  8D C3 04  STA $04C3
8CF9  A9 0C     LDA #$0C
8CFB  8D 0B 05  STA $050B
8CFE  A2 FF     LDX #$FF
8D00  8E A1 26  STX $26A1
8D03  8E A1 27  STX $27A1
8D06  86 7C     STX $7C
8D08  A9 80     LDA #$80
8D0A  8D 8E 04  STA $048E
8D0D  85 69     STA $69
8D0F  85 94     STA $94
8D11  0A        ASL A
8D12  85 63     STA $63
8D14  85 64     STA $64
8D16  85 6A     STA $6A
8D18  85 95     STA $95
8D1A  85 A3     STA $A3
8D1C  8D 10 05  STA $0510
8D1F  A9 03     LDA #$03
8D21  85 96     STA $96
8D23  85 A6     STA $A6
8D25  85 68     STA $68
8D27  A9 10     LDA #$10
8D29  8D 0C 05  STA $050C
8D2C  A9 00     LDA #$00
8D2E  85 B7     STA $B7
8D30  A9 8F     LDA #$8F
8D32  85 B8     STA $B8
8D34  AD 5F 04  LDA $045F
8D37  F0 03     BEQ $8D3C
8D39  20 1A BA  JSR $BA1A
8D3C  A5 67     LDA $67
8D3E  F0 03     BEQ $8D43
8D40  20 86 B0  JSR $B086
8D43  20 0A 84  JSR $840A
8D46  20 BD 93  JSR $93BD
8D49  A9 C0     LDA #$C0
8D4B  8D F2 04  STA $04F2
8D4E  A9 FF     LDA #$FF
8D50  8D F3 04  STA $04F3

; ==== sub_8D53 (7 callers) ====
8D53  A0 24     LDY #$24
8D55  A9 00     LDA #$00
8D57  99 09 00  STA $0009,Y
8D5A  88        DEY
8D5B  10 FA     BPL $8D57
8D5D  A9 60     LDA #$60
8D5F  85 1B     STA $1B
8D61  85 1F     STA $1F
8D63  09 80     ORA #$80
8D65  85 17     STA $17
8D67  60        RTS

; ==== sub_8D68 (3 callers) ====
8D68  A2 04     LDX #$04
8D6A  EC CC 04  CPX $04CC
8D6D  F0 09     BEQ $8D78
8D6F  A0 B7     LDY #$B7
8D71  20 2B BA  JSR $BA2B
8D74  CA        DEX
8D75  D0 F3     BNE $8D6A
8D77  60        RTS
8D78  A0 57     LDY #$57
8D7A  20 2B BA  JSR $BA2B
8D7D  CA        DEX
8D7E  D0 F8     BNE $8D78
8D80  60        RTS
8D81  A5 A0     LDA $A0
8D83  D0 0E     BNE $8D93
8D85  AD E6 04  LDA $04E6
8D88  20 05 99  JSR $9905
8D8B  A9 00     LDA #$00
8D8D  8D 8B 04  STA $048B
8D90  4C 06 8E  JMP $8E06
8D93  20 E0 BC  JSR $BCE0
8D96  4C 06 8E  JMP $8E06

; ==== sub_8D99 (4 callers) ====
8D99  20 53 8D  JSR $8D53
8D9C  20 BB 8D  JSR $8DBB
8D9F  85 06     STA $06
8DA1  29 80     AND #$80
8DA3  85 0B     STA $0B
8DA5  8A        TXA
8DA6  29 80     AND #$80
8DA8  85 0E     STA $0E
8DAA  A9 19     LDA #$19
8DAC  85 0A     STA $0A
8DAE  85 0D     STA $0D
8DB0  85 10     STA $10
8DB2  8A        TXA
8DB3  C9 F5     CMP #$F5
8DB5  2A        ROL A
8DB6  09 C0     ORA #$C0
8DB8  85 29     STA $29

; ==== sub_8DBA (2 callers) ====
8DBA  18        CLC

; ==== fib_rng  $8DBB  (59 callers) — 4-byte Fibonacci-style pseudo-random generator (seed $02-$05); the universe and effects RNG ====
8DBB  A5 02     LDA $02
8DBD  2A        ROL A
8DBE  AA        TAX
8DBF  65 04     ADC $04
8DC1  85 02     STA $02
8DC3  86 04     STX $04
8DC5  A5 03     LDA $03
8DC7  AA        TAX
8DC8  65 05     ADC $05
8DCA  85 03     STA $03
8DCC  86 05     STX $05
8DCE  60        RTS
8DCF  20 BB 8D  JSR $8DBB
8DD2  4A        LSR A
8DD3  85 29     STA $29
8DD5  85 26     STA $26
8DD7  26 28     ROL $28
8DD9  29 1F     AND #$1F
8DDB  09 10     ORA #$10
8DDD  85 24     STA $24
8DDF  20 BB 8D  JSR $8DBB
8DE2  30 0A     BMI $8DEE
8DE4  A5 29     LDA $29
8DE6  09 C0     ORA #$C0
8DE8  85 29     STA $29
8DEA  A2 10     LDX #$10
8DEC  86 2D     STX $2D
8DEE  29 02     AND #$02
8DF0  69 0B     ADC #$0B
8DF2  C9 0F     CMP #$0F
8DF4  F0 03     BEQ $8DF9
8DF6  20 5B 85  JSR $855B
8DF9  20 BE 1E  JSR $1EBE
8DFC  CE 8B 04  DEC $048B
8DFF  F0 80     BEQ $8D81
8E01  10 03     BPL $8E06
8E03  EE 8B 04  INC $048B
8E06  C6 A3     DEC $A3
8E08  F0 03     BEQ $8E0D
8E0A  4C 33 8F  JMP $8F33

; --- spawn_director  $8E0D — periodic traffic generator (traders / police / pirates), runs when spawn counter $A3 wraps ---
8E0D  AD 82 04  LDA $0482
8E10  D0 F8     BNE $8E0A
8E12  20 BB 8D  JSR $8DBB
8E15  C9 23     CMP #$23
8E17  B0 55     BCS $8E6E
8E19  AD 7F 04  LDA $047F
8E1C  C9 03     CMP #$03
8E1E  B0 4E     BCS $8E6E
8E20  20 53 8D  JSR $8D53
8E23  A9 26     LDA #$26
8E25  85 10     STA $10
8E27  20 BB 8D  JSR $8DBB
8E2A  85 09     STA $09
8E2C  86 0C     STX $0C
8E2E  29 80     AND #$80
8E30  85 0B     STA $0B
8E32  8A        TXA
8E33  29 80     AND #$80
8E35  85 0E     STA $0E
8E37  26 0A     ROL $0A
8E39  26 0A     ROL $0A
8E3B  20 BB 8D  JSR $8DBB
8E3E  70 8F     BVS $8DCF
8E40  09 6F     ORA #$6F
8E42  85 26     STA $26
8E44  AD 5F 04  LDA $045F
8E47  D0 25     BNE $8E6E
8E49  8A        TXA
8E4A  B0 08     BCS $8E54
8E4C  29 1F     AND #$1F
8E4E  09 10     ORA #$10
8E50  85 24     STA $24
8E52  90 04     BCC $8E58
8E54  09 7F     ORA #$7F
8E56  85 27     STA $27
8E58  20 BB 8D  JSR $8DBB
8E5B  C9 FC     CMP #$FC
8E5D  90 06     BCC $8E65
8E5F  A9 0F     LDA #$0F
8E61  85 29     STA $29
8E63  D0 06     BNE $8E6B
8E65  C9 0A     CMP #$0A
8E67  29 01     AND #$01
8E69  69 05     ADC #$05
8E6B  20 5B 85  JSR $855B
8E6E  AD 5F 04  LDA $045F
8E71  F0 03     BEQ $8E76
8E73  4C 33 8F  JMP $8F33
8E76  20 A4 90  JSR $90A4
8E79  0A        ASL A
8E7A  AE 6D 04  LDX $046D
8E7D  F0 03     BEQ $8E82
8E7F  0D CD 04  ORA $04CD
8E82  85 BB     STA $BB
8E84  20 99 8D  JSR $8D99
8E87  C9 88     CMP #$88
8E89  F0 79     BEQ $8F04
8E8B  C5 BB     CMP $BB
8E8D  B0 05     BCS $8E94
8E8F  A9 10     LDA #$10
8E91  20 5B 85  JSR $855B
8E94  AD 6D 04  LDA $046D
8E97  D0 DA     BNE $8E73
8E99  CE 8A 04  DEC $048A
8E9C  10 D5     BPL $8E73
8E9E  EE 8A 04  INC $048A
8EA1  AD 99 04  LDA $0499
8EA4  29 0C     AND #$0C
8EA6  C9 08     CMP #$08
8EA8  D0 0A     BNE $8EB4
8EAA  20 BB 8D  JSR $8DBB
8EAD  C9 C8     CMP #$C8
8EAF  90 03     BCC $8EB4
8EB1  20 9B 7C  JSR $7C9B
8EB4  20 BB 8D  JSR $8DBB
8EB7  AC F0 04  LDY $04F0
8EBA  F0 0B     BEQ $8EC7
8EBC  C9 5A     CMP #$5A
8EBE  B0 B3     BCS $8E73
8EC0  29 07     AND #$07
8EC2  CD F0 04  CMP $04F0
8EC5  90 AC     BCC $8E73
8EC7  20 99 8D  JSR $8D99
8ECA  C9 64     CMP #$64
8ECC  B0 49     BCS $8F17
8ECE  EE 8A 04  INC $048A
8ED1  29 03     AND #$03
8ED3  69 18     ADC #$18
8ED5  A8        TAY
8ED6  20 C0 8C  JSR $8CC0
8ED9  90 11     BCC $8EEC
8EDB  A9 F9     LDA #$F9
8EDD  85 29     STA $29
8EDF  AD 99 04  LDA $0499
8EE2  29 03     AND #$03
8EE4  4A        LSR A
8EE5  90 05     BCC $8EEC
8EE7  0D 7C 04  ORA $047C
8EEA  F0 10     BEQ $8EFC
8EEC  A9 04     LDA #$04
8EEE  85 2D     STA $2D
8EF0  20 BB 8D  JSR $8DBB
8EF3  C9 C8     CMP #$C8
8EF5  2A        ROL A
8EF6  09 C0     ORA #$C0
8EF8  85 29     STA $29
8EFA  98        TYA
8EFB  2C A9 1F  BIT $1FA9
8EFE  20 5B 85  JSR $855B
8F01  4C 33 8F  JMP $8F33
8F04  AD 06 F0  LDA $F006
8F07  29 3E     AND #$3E
8F09  D0 A6     BNE $8EB1
8F0B  A9 12     LDA #$12
8F0D  85 24     STA $24
8F0F  A9 79     LDA #$79
8F11  85 29     STA $29
8F13  A9 20     LDA #$20
8F15  D0 E7     BNE $8EFE
8F17  29 03     AND #$03
8F19  8D 8A 04  STA $048A
8F1C  85 A2     STA $A2
8F1E  20 BB 8D  JSR $8DBB
8F21  85 BB     STA $BB
8F23  20 BB 8D  JSR $8DBB
8F26  25 BB     AND $BB
8F28  29 07     AND #$07
8F2A  69 11     ADC #$11
8F2C  20 5B 85  JSR $855B
8F2F  C6 A2     DEC $A2
8F31  10 EB     BPL $8F1E
8F33  A2 FF     LDX #$FF
8F35  9A        TXS
8F36  AE 88 04  LDX $0488
8F39  F0 03     BEQ $8F3E
8F3B  CE 88 04  DEC $0488
8F3E  AE 87 04  LDX $0487
8F41  F0 07     BEQ $8F4A
8F43  CA        DEX
8F44  F0 01     BEQ $8F47
8F46  CA        DEX
8F47  8E 87 04  STX $0487
8F4A  A5 A0     LDA $A0
8F4C  D0 03     BNE $8F51
8F4E  20 F0 2F  JSR $2FF0
8F51  A5 A0     LDA $A0
8F53  F0 0B     BEQ $8F60
8F55  2D 08 1D  AND $1D08
8F58  4A        LSR A
8F59  B0 05     BCS $8F60
8F5B  A0 02     LDY #$02
8F5D  20 9E 3E  JSR $3E9E
8F60  AD CA 04  LDA $04CA
8F63  F0 17     BEQ $8F7C
8F65  20 BB 8D  JSR $8DBB
8F68  C9 DC     CMP #$DC
8F6A  AD C9 04  LDA $04C9
8F6D  69 00     ADC #$00
8F6F  8D C9 04  STA $04C9
8F72  90 08     BCC $8F7C
8F74  EE CA 04  INC $04CA
8F77  10 03     BPL $8F7C
8F79  CE CA 04  DEC $04CA
8F7C  AD CA 04  LDA $04CA
8F7F  F0 2C     BEQ $8FAD
8F81  85 BB     STA $BB
8F83  AD 83 04  LDA $0483
8F86  C9 E0     CMP #$E0
8F88  B0 02     BCS $8F8C
8F8A  06 BB     ASL $BB
8F8C  20 BB 8D  JSR $8DBB
8F8F  C5 BB     CMP $BB
8F91  B0 1A     BCS $8FAD
8F93  20 BB 8D  JSR $8DBB
8F96  09 40     ORA #$40
8F98  AA        TAX
8F99  A9 80     LDA #$80
8F9B  AC 83 04  LDY $0483
8F9E  C0 E0     CPY #$E0
8FA0  90 06     BCC $8FA8
8FA2  8A        TXA
8FA3  29 0F     AND #$0F
8FA5  AA        TAX
8FA6  A9 F1     LDA #$F1
8FA8  A0 0E     LDY #$0E
8FAA  20 50 B1  JSR $B150
8FAD  20 EB 8A  JSR $8AEB

; --- main_loop  $8FB0 — per-frame foreground loop: run the universe + spawn passes, read controls, dispatch the current view ---
8FB0  20 BD 8F  JSR $8FBD
8FB3  A5 A7     LDA $A7
8FB5  F0 03     BEQ $8FBA
8FB7  4C 33 8F  JMP $8F33
8FBA  4C F9 8D  JMP $8DF9

; ==== view_dispatch  $8FBD  (1 caller) — screen/command dispatcher (A = view id; $25 = the flight/cockpit view) ====
8FBD  C9 25     CMP #$25
8FBF  D0 03     BNE $8FC4
8FC1  4C 98 2C  JMP $2C98
8FC4  C9 35     CMP #$35
8FC6  D0 03     BNE $8FCB
8FC8  4C 1C 75  JMP $751C
8FCB  C9 30     CMP #$30
8FCD  D0 03     BNE $8FD2
8FCF  4C DB 78  JMP $78DB
8FD2  C9 2D     CMP #$2D
8FD4  D0 06     BNE $8FDC
8FD6  20 AB 79  JSR $79AB
8FD9  4C A1 73  JMP $73A1
8FDC  C9 20     CMP #$20
8FDE  D0 03     BNE $8FE3
8FE0  4C 16 78  JMP $7816
8FE3  C9 28     CMP #$28
8FE5  D0 03     BNE $8FEA
8FE7  4C E4 7B  JMP $7BE4
8FEA  C9 3C     CMP #$3C
8FEC  D0 03     BNE $8FF1
8FEE  4C 1C 7D  JMP $7D1C
8FF1  24 A7     BIT $A7
8FF3  10 24     BPL $9019
8FF5  C9 38     CMP #$38
8FF7  D0 03     BNE $8FFC
8FF9  4C BB 7D  JMP $7DBB
8FFC  C9 08     CMP #$08
8FFE  D0 03     BNE $9003
9000  4C 16 76  JMP $7616
9003  C9 12     CMP #$12
9005  D0 0B     BNE $9012
9007  20 DD 93  JSR $93DD
900A  90 03     BCC $900F
900C  4C AF 91  JMP $91AF
900F  4C E7 91  JMP $91E7
9012  C9 05     CMP #$05
9014  D0 1A     BNE $9030
9016  4C 41 77  JMP $7741
9019  C9 3B     CMP #$3B
901B  F0 0E     BEQ $902B
901D  C9 3A     CMP #$3A
901F  F0 07     BEQ $9028
9021  C9 3D     CMP #$3D
9023  D0 0B     BNE $9030
9025  A2 03     LDX #$03
9027  2C A2 02  BIT $02A2
902A  2C A2 01  BIT $01A2
902D  4C BA AF  JMP $AFBA
9030  2C 25 96  BIT $9625
9033  10 03     BPL $9038
9035  4C 5C 7A  JMP $7A5C
9038  C9 2E     CMP #$2E
903A  F0 4E     BEQ $908A
903C  C9 2B     CMP #$2B
903E  D0 0D     BNE $904D
9040  A5 A7     LDA $A7
9042  F0 45     BEQ $9089
9044  A5 A0     LDA $A0
9046  29 C0     AND #$C0
9048  F0 3F     BEQ $9089
904A  4C C3 31  JMP $31C3
904D  85 06     STA $06
904F  A5 A0     LDA $A0
9051  29 C0     AND #$C0
9053  F0 16     BEQ $906B
9055  A5 66     LDA $66
9057  D0 12     BNE $906B
9059  A5 06     LDA $06
905B  C9 1A     CMP #$1A
905D  D0 09     BNE $9068
905F  20 82 78  JSR $7882
9062  20 92 3E  JSR $3E92
9065  4C 82 78  JMP $7882
9068  20 55 78  JSR $7855
906B  A5 66     LDA $66
906D  F0 1A     BEQ $9089
906F  C6 65     DEC $65
9071  D0 16     BNE $9089
9073  A6 66     LDX $66
9075  CA        DEX
9076  20 24 7B  JSR $7B24
9079  A9 05     LDA #$05
907B  85 65     STA $65
907D  A6 66     LDX $66
907F  20 24 7B  JSR $7B24
9082  C6 66     DEC $66
9084  D0 03     BNE $9089
9086  4C DD 7C  JMP $7CDD
9089  60        RTS
908A  A5 A0     LDA $A0
908C  29 C0     AND #$C0
908E  F0 F9     BEQ $9089
9090  20 95 7F  JSR $7F95
9093  85 34     STA $34
9095  20 E9 7F  JSR $7FE9
9098  A9 80     LDA #$80
909A  85 34     STA $34
909C  A9 0C     LDA #$0C
909E  20 21 2F  JSR $2F21
90A1  4C 68 73  JMP $7368

; ==== sub_90A4 (2 callers) ====
90A4  AD B3 04  LDA $04B3
90A7  18        CLC
90A8  6D B6 04  ADC $04B6
90AB  0A        ASL A
90AC  6D BA 04  ADC $04BA
90AF  60        RTS

; ==== sub_90B0 (1 caller) ====
90B0  A9 E0     LDA #$E0

; ==== ship_in_range  $90B2  (1 caller) — distance cull: ship position high byte vs $E0 ====
90B2  C5 0A     CMP $0A
90B4  90 06     BCC $90BC
90B6  C5 0D     CMP $0D
90B8  90 02     BCC $90BC
90BA  C5 10     CMP $10
90BC  60        RTS

; ==== sub_90BD (3 callers) ====
90BD  05 0A     ORA $0A
90BF  05 0D     ORA $0D
90C1  05 10     ORA $10
90C3  60        RTS
90C4  .byte 00 CE C4 90 A2 FF 9A 20 56 95 A8 A9 07 20 87 BA ; ....... V.... ..
90D4  .byte C8 B1 FD D0 F8 4C 94 91                         ; .....L..
90DC  20 13 B1  JSR $B113
90DF  20 EB 8C  JSR $8CEB
90E2  06 96     ASL $96
90E4  06 96     ASL $96
90E6  A2 18     LDX #$18
90E8  20 4E 84  JSR $844E
90EB  20 2F B0  JSR $B02F
90EE  20 B1 BB  JSR $BBB1
90F1  A9 00     LDA #$00
90F3  8D 1F 5F  STA $5F1F
90F6  8D 18 41  STA $4118
90F9  20 E7 83  JSR $83E7
90FC  A9 0C     LDA #$0C
90FE  20 28 73  JSR $7328
9101  20 25 73  JSR $7325
9104  A9 92     LDA #$92
9106  20 13 81  JSR $8113
9109  20 99 8D  JSR $8D99
910C  4A        LSR A
910D  4A        LSR A
910E  85 09     STA $09
9110  A0 00     LDY #$00
9112  84 A0     STY $A0
9114  84 0A     STY $0A
9116  84 0D     STY $0D
9118  84 10     STY $10
911A  84 29     STY $29
911C  88        DEY
911D  84 A3     STY $A3
911F  49 2A     EOR #$2A
9121  85 0C     STA $0C
9123  09 50     ORA #$50
9125  85 0F     STA $0F
9127  8A        TXA
9128  29 8F     AND #$8F
912A  85 26     STA $26
912C  A0 40     LDY #$40
912E  8C 87 04  STY $0487
9131  38        SEC
9132  6A        ROR A
9133  29 87     AND #$87
9135  85 27     STA $27
9137  A2 05     LDX #$05
9139  AD 07 D0  LDA $D007
913C  F0 03     BEQ $9141
913E  90 01     BCC $9141
9140  CA        DEX
9141  20 92 36  JSR $3692
9144  20 BB 8D  JSR $8DBB
9147  29 80     AND #$80
9149  A0 1F     LDY #$1F
914B  91 59     STA ($59),Y
914D  AD 56 04  LDA $0456
9150  F0 B7     BEQ $9109
9152  20 CD 97  JSR $97CD
9155  85 96     STA $96
9157  20 BE 1E  JSR $1EBE
915A  20 73 8B  JSR $8B73
915D  20 BE 1E  JSR $1EBE
9160  CE 87 04  DEC $0487
9163  D0 F8     BNE $915D
9165  A2 1F     LDX #$1F
9167  20 4E 84  JSR $844E
916A  4C 8E 91  JMP $918E
916D  .byte 88 88                                           ; ..

; --- game_start  $916F — one-time game setup: clear flags $1D01-$1D11, build the title/commander screen ---
916F  A2 10     LDX #$10
9171  A9 00     LDA #$00
9173  9D 01 1D  STA $1D01,X
9176  CA        DEX
9177  10 FA     BPL $9173
9179  AD 02 D0  LDA $D002
917C  8D 6D 91  STA $916D
917F  AD 03 D0  LDA $D003
9182  8D 6E 91  STA $916E
9185  20 02 93  JSR $9302
9188  A2 FF     LDX #$FF
918A  9A        TXS
918B  20 D6 8C  JSR $8CD6
918E  A2 FF     LDX #$FF
9190  9A        TXS
9191  20 EB 8C  JSR $8CEB
9194  20 63 95  JSR $9563
9197  A9 03     LDA #$03
9199  20 25 73  JSR $7325
919C  A2 0B     LDX #$0B
919E  A9 06     LDA #$06
91A0  A0 D2     LDY #$D2
91A2  20 20 92  JSR $9220
91A5  C9 27     CMP #$27
91A7  D0 06     BNE $91AF
91A9  20 F0 91  JSR $91F0
91AC  20 DD 93  JSR $93DD
91AF  20 F0 91  JSR $91F0
91B2  20 68 8D  JSR $8D68
91B5  A9 07     LDA #$07
91B7  A2 14     LDX #$14
91B9  A0 30     LDY #$30
91BB  20 20 92  JSR $9220
91BE  20 92 3E  JSR $3E92
91C1  20 AB 79  JSR $79AB
91C4  20 17 7B  JSR $7B17
91C7  A2 05     LDX #$05
91C9  B5 7F     LDA $7F,X
91CB  9D F4 04  STA $04F4,X
91CE  CA        DEX
91CF  10 F8     BPL $91C9
91D1  E8        INX
91D2  8E 8A 04  STX $048A
91D5  AD 00 05  LDA $0500
91D8  8D EE 04  STA $04EE
91DB  AD 02 05  LDA $0502
91DE  8D F1 04  STA $04F1
91E1  AD 01 05  LDA $0501
91E4  8D F0 04  STA $04F0
91E7  A9 FF     LDA #$FF
91E9  85 A7     STA $A7
91EB  A9 25     LDA #$25
91ED  4C B0 8F  JMP $8FB0

; ==== sub_91F0 (3 callers) ====
91F0  A2 54     LDX #$54
91F2  BD A7 25  LDA $25A7,X
91F5  9D 90 04  STA $0490,X
91F8  CA        DEX
91F9  D0 F7     BNE $91F2
91FB  86 A0     STX $A0
91FD  20 E1 92  JSR $92E1
9200  CD FC 25  CMP $25FC
9203  D0 F8     BNE $91FD
9205  49 A9     EOR #$A9
9207  AA        TAX
9208  AD A7 04  LDA $04A7
920B  EC FA 25  CPX $25FA
920E  F0 02     BEQ $9212
9210  09 80     ORA #$80
9212  09 40     ORA #$40
9214  8D A7 04  STA $04A7
9217  20 EF 92  JSR $92EF
921A  CD FB 25  CMP $25FB
921D  D0 DE     BNE $91FD
921F  60        RTS

; ==== sub_9220 (2 callers) ====
9220  8C FB 06  STY $06FB
9223  48        PHA
9224  86 A5     STX $A5
9226  20 D6 8C  JSR $8CD6
9229  20 63 95  JSR $9563
922C  A9 20     LDA #$20
922E  20 2E 73  JSR $732E
9231  A9 0D     LDA #$0D
9233  20 2F B0  JSR $B02F
9236  A9 00     LDA #$00
9238  85 A0     STA $A0
923A  A9 60     LDA #$60
923C  85 17     STA $17
923E  A9 60     LDA #$60
9240  85 10     STA $10
9242  A2 7F     LDX #$7F
9244  86 26     STX $26
9246  86 27     STX $27
9248  E8        INX
9249  86 34     STX $34
924B  A5 A5     LDA $A5
924D  20 5B 85  JSR $855B
9250  A9 06     LDA #$06
9252  20 25 73  JSR $7325
9255  A9 1E     LDA #$1E
9257  20 73 80  JSR $8073
925A  A9 0A     LDA #$0A
925C  20 21 2F  JSR $2F21
925F  A9 06     LDA #$06
9261  20 25 73  JSR $7325
9264  AD 08 1D  LDA $1D08
9267  F0 05     BEQ $926E
9269  A9 0D     LDA #$0D
926B  20 8D 23  JSR $238D
926E  AD C4 90  LDA $90C4
9271  F0 17     BEQ $928A
9273  EE C4 90  INC $90C4
9276  A9 07     LDA #$07
9278  20 25 73  JSR $7325
927B  A9 0A     LDA #$0A
927D  20 28 73  JSR $7328
9280  A0 00     LDY #$00
9282  20 87 BA  JSR $BA87
9285  C8        INY
9286  B1 FD     LDA ($FD),Y
9288  D0 F8     BNE $9282
928A  A0 00     LDY #$00
928C  84 96     STY $96
928E  8C 0C 1D  STY $1D0C
9291  A9 0F     LDA #$0F
9293  85 33     STA $33
9295  A9 01     LDA #$01
9297  85 31     STA $31
9299  68        PLA
929A  20 8D 23  JSR $238D
929D  A9 03     LDA #$03
929F  20 25 73  JSR $7325
92A2  A9 0C     LDA #$0C
92A4  20 8D 23  JSR $238D
92A7  A9 0C     LDA #$0C
92A9  85 AB     STA $AB
92AB  A9 05     LDA #$05
92AD  85 A3     STA $A3
92AF  A9 FF     LDA #$FF
92B1  8D 0C 1D  STA $1D0C
92B4  A5 10     LDA $10
92B6  C9 01     CMP #$01
92B8  F0 02     BEQ $92BC
92BA  C6 10     DEC $10
92BC  20 A0 AB  JSR $ABA0
92BF  AE FB 06  LDX $06FB
92C2  86 0F     STX $0F
92C4  A5 A3     LDA $A3
92C6  29 03     AND #$03
92C8  A9 00     LDA #$00
92CA  85 09     STA $09
92CC  85 0C     STA $0C
92CE  20 86 A3  JSR $A386
92D1  20 49 96  JSR $9649
92D4  C6 A3     DEC $A3
92D6  2C 38 96  BIT $9638
92D9  30 05     BMI $92E0
92DB  90 D7     BCC $92B4
92DD  EE 0C 1D  INC $1D0C
92E0  60        RTS

; ==== sub_92E1 (2 callers) ====
92E1  A2 49     LDX #$49
92E3  18        CLC
92E4  8A        TXA
92E5  7D AF 25  ADC $25AF,X
92E8  5D B0 25  EOR $25B0,X
92EB  CA        DEX
92EC  D0 F7     BNE $92E5
92EE  60        RTS

; ==== sub_92EF (2 callers) ====
92EF  A2 49     LDX #$49
92F1  18        CLC
92F2  8A        TXA
92F3  86 BB     STX $BB
92F5  45 BB     EOR $BB
92F7  6A        ROR A
92F8  7D AF 25  ADC $25AF,X
92FB  5D B0 25  EOR $25B0,X
92FE  CA        DEX
92FF  D0 F2     BNE $92F3
9301  60        RTS

; ==== sub_9302 (2 callers) ====
9302  A0 61     LDY #$61
9304  B9 16 26  LDA $2616,Y
9307  99 A8 25  STA $25A8,Y
930A  88        DEY
930B  10 F7     BPL $9304
930D  A0 07     LDY #$07
930F  8C B5 94  STY $94B5
9312  60        RTS

; ==== sub_9313 (2 callers) ====
9313  A2 07     LDX #$07
9315  AD B4 94  LDA $94B4
9318  8D B5 94  STA $94B5
931B  B5 0E     LDA $0E,X
931D  9D A8 25  STA $25A8,X
9320  CA        DEX
9321  10 F8     BPL $931B
9323  A2 07     LDX #$07
9325  BD A8 25  LDA $25A8,X
9328  95 0E     STA $0E,X
932A  CA        DEX
932B  10 F8     BPL $9325
932D  60        RTS

; ==== sub_932E (2 callers) ====
932E  A2 04     LDX #$04
9330  BD A3 25  LDA $25A3,X
9333  95 09     STA $09,X
9335  CA        DEX
9336  10 F8     BPL $9330
9338  A9 07     LDA #$07
933A  8D A8 93  STA $93A8
933D  A9 08     LDA #$08
933F  20 8D 23  JSR $238D
9342  20 51 93  JSR $9351
9345  A9 09     LDA #$09
9347  8D A8 93  STA $93A8
934A  98        TYA
934B  F0 D6     BEQ $9323
934D  8C B4 94  STY $94B4
9350  60        RTS

; ==== sub_9351 (1 caller) ====
9351  A9 40     LDA #$40
9353  8D 0C 05  STA $050C
9356  A0 08     LDY #$08
9358  20 9E 3E  JSR $3E9E
935B  20 D2 28  JSR $28D2
935E  A0 00     LDY #$00
9360  20 E2 98  JSR $98E2
9363  C9 0D     CMP #$0D
9365  F0 23     BEQ $938A
9367  C9 1B     CMP #$1B
9369  F0 2C     BEQ $9397
936B  C9 7F     CMP #$7F
936D  F0 2F     BEQ $939E
936F  CC A8 93  CPY $93A8
9372  B0 0F     BCS $9383
9374  CD A9 93  CMP $93A9
9377  90 0A     BCC $9383
9379  CD AA 93  CMP $93AA
937C  B0 05     BCS $9383
937E  99 0E 00  STA $000E,Y
9381  C8        INY
9382  2C A9 07  BIT $07A9
9385  20 87 BA  JSR $BA87
9388  90 D6     BCC $9360
938A  99 0E 00  STA $000E,Y
938D  A9 10     LDA #$10
938F  8D 0C 05  STA $050C
9392  A9 0C     LDA #$0C
9394  4C 87 BA  JMP $BA87
9397  A9 10     LDA #$10
9399  8D 0C 05  STA $050C
939C  38        SEC
939D  60        RTS
939E  98        TYA
939F  F0 E2     BEQ $9383
93A1  88        DEY
93A2  A9 7F     LDA #$7F
93A4  D0 DF     BNE $9385
93A6  0E 00 09  ASL $0900
93A9  21 7B     AND ($7B,X)
93AB  A9 03     LDA #$03
93AD  18        CLC
93AE  6D 0E 1D  ADC $1D0E
93B1  4C 8D 23  JMP $238D
93B4  .byte A9 02 38 ED 0E 1D 4C 8D 23                      ; ..8...L.#

; ==== sub_93BD (2 callers) ====
93BD  A2 3A     LDX #$3A
93BF  A9 00     LDA #$00
93C1  9D 52 04  STA $0452,X
93C4  CA        DEX
93C5  10 FA     BPL $93C1
93C7  60        RTS
93C8  .byte 60 A2 0C 20 CF 93 CA A0 00 84 07 A9 00 86 08 91 ; `.. ............
93D8  .byte 07 C8 D0 FB 60                                  ; ....`

; ==== sub_93DD (2 callers) ====
93DD  A9 01     LDA #$01
93DF  20 8D 23  JSR $238D
93E2  20 E4 98  JSR $98E4
93E5  C9 31     CMP #$31
93E7  F0 29     BEQ $9412
93E9  C9 32     CMP #$32
93EB  F0 30     BEQ $941D
93ED  C9 33     CMP #$33
93EF  F0 16     BEQ $9407
93F1  C9 34     CMP #$34
93F3  D0 10     BNE $9405
93F5  A9 E0     LDA #$E0
93F7  20 8D 23  JSR $238D
93FA  20 DE 8A  JSR $8ADE
93FD  90 06     BCC $9405
93FF  20 02 93  JSR $9302
9402  4C F0 91  JMP $91F0
9405  18        CLC
9406  60        RTS
9407  AD 0E 1D  LDA $1D0E
940A  49 FF     EOR #$FF
940C  8D 0E 1D  STA $1D0E
940F  4C DD 93  JMP $93DD
9412  20 2E 93  JSR $932E
9415  20 03 95  JSR $9503
9418  20 13 93  JSR $9313
941B  38        SEC
941C  60        RTS
941D  20 2E 93  JSR $932E
9420  20 13 93  JSR $9313
9423  4E E2 04  LSR $04E2
9426  A9 04     LDA #$04
9428  20 8D 23  JSR $238D
942B  A2 4C     LDX #$4C
942D  BD 99 04  LDA $0499,X
9430  9D B0 25  STA $25B0,X
9433  CA        DEX
9434  10 F7     BPL $942D
9436  20 EF 92  JSR $92EF
9439  8D FB 25  STA $25FB
943C  20 E1 92  JSR $92E1
943F  8D FC 25  STA $25FC
9442  48        PHA
9443  09 80     ORA #$80
9445  85 77     STA $77
9447  4D A7 04  EOR $04A7
944A  85 79     STA $79
944C  4D A4 04  EOR $04A4
944F  85 78     STA $78
9451  49 5A     EOR #$5A
9453  4D E1 04  EOR $04E1
9456  85 7A     STA $7A
9458  18        CLC
9459  20 62 2E  JSR $2E62
945C  20 8E 73  JSR $738E
945F  20 8E 73  JSR $738E
9462  68        PLA
9463  49 A9     EOR #$A9
9465  8D FA 25  STA $25FA
9468  20 B6 94  JSR $94B6
946B  A9 B0     LDA #$B0
946D  85 FD     STA $FD
946F  A9 25     LDA #$25
9471  85 FE     STA $FE
9473  A9 FD     LDA #$FD
9475  A2 FD     LDX #$FD
9477  A0 25     LDY #$25
9479  20 D8 FF  JSR $FFD8
947C  08        PHP
947D  78        SEI
947E  2C 0D DC  BIT $DC0D
9481  A9 01     LDA #$01
9483  8D 0D DC  STA $DC0D
9486  A2 00     LDX #$00
9488  8E D9 B1  STX $B1D9
948B  E8        INX
948C  8E 1A D0  STX $D01A
948F  AD 11 D0  LDA $D011
9492  29 7F     AND #$7F
9494  8D 11 D0  STA $D011
9497  A9 28     LDA #$28
9499  8D 12 D0  STA $D012
949C  A9 04     LDA #$04
949E  20 8B 8B  JSR $8B8B
94A1  58        CLI
94A2  20 63 8B  JSR $8B63
94A5  28        PLP
94A6  58        CLI
94A7  B0 08     BCS $94B1
94A9  20 F0 91  JSR $91F0
94AC  20 E4 98  JSR $98E4
94AF  18        CLC
94B0  60        RTS
94B1  4C 57 95  JMP $9557
94B4  .byte 07 07                                           ; ..

; ==== sub_94B6 (2 callers) ====
94B6  20 63 8B  JSR $8B63
94B9  A9 06     LDA #$06
94BB  78        SEI
94BC  20 8B 8B  JSR $8B8B
94BF  A9 00     LDA #$00
94C1  8D 1A D0  STA $D01A
94C4  58        CLI
94C5  A9 81     LDA #$81
94C7  8D 0D DC  STA $DC0D
94CA  A9 C0     LDA #$C0
94CC  20 90 FF  JSR $FF90
94CF  AE 0E 1D  LDX $1D0E
94D2  E8        INX
94D3  BD 01 95  LDA $9501,X
94D6  AA        TAX
94D7  A9 01     LDA #$01
94D9  A0 00     LDY #$00
94DB  20 BA FF  JSR $FFBA
94DE  AD B4 94  LDA $94B4
94E1  A2 0E     LDX #$0E
94E3  A0 00     LDY #$00
94E5  4C BD FF  JMP $FFBD
94E8  .byte A9 02 20 8D 23 20 E4 98 09 10 20 87 BA 48 20 1C ; .. .# .... ..H .
94F8  .byte 2F 68 C9 30 90 4B C9 34 60 08 01                ; /h.0.K.4`..

; ==== sub_9503 (1 caller) ====
9503  20 B6 94  JSR $94B6
9506  A9 00     LDA #$00
9508  A2 00     LDX #$00
950A  A0 CF     LDY #$CF
950C  20 D5 FF  JSR $FFD5
950F  08        PHP
9510  A9 01     LDA #$01
9512  8D 0D DC  STA $DC0D
9515  78        SEI
9516  A2 00     LDX #$00
9518  8E D9 B1  STX $B1D9
951B  E8        INX
951C  8E 1A D0  STX $D01A
951F  AD 11 D0  LDA $D011
9522  29 7F     AND #$7F
9524  8D 11 D0  STA $D011
9527  A9 28     LDA #$28
9529  8D 12 D0  STA $D012
952C  A9 04     LDA #$04
952E  20 8B 8B  JSR $8B8B
9531  58        CLI
9532  20 63 8B  JSR $8B63
9535  28        PLP
9536  58        CLI
9537  B0 1E     BCS $9557
9539  AD 00 CF  LDA $CF00
953C  30 0D     BMI $954B
953E  A0 4C     LDY #$4C
9540  B9 00 CF  LDA $CF00,Y
9543  99 B0 25  STA $25B0,Y
9546  88        DEY
9547  10 F7     BPL $9540
9549  38        SEC
954A  60        RTS
954B  A9 09     LDA #$09
954D  20 8D 23  JSR $238D
9550  20 E4 98  JSR $98E4
9553  4C DD 93  JMP $93DD
9556  .byte 60                                              ; `
9557  A9 FF     LDA #$FF
9559  20 8D 23  JSR $238D
955C  20 E4 98  JSR $98E4
955F  4C DD 93  JMP $93DD
9562  .byte 60                                              ; `

; ==== sub_9563 (3 callers) ====
9563  A2 40     LDX #$40
9565  A9 00     LDA #$00
9567  85 7D     STA $7D
9569  9D 02 96  STA $9602,X
956C  CA        DEX
956D  10 FA     BPL $9569
956F  60        RTS
9570  .byte 60                                              ; `

; ==== sub_9571 (3 callers) ====
9571  A2 00     LDX #$00
9573  20 01 85  JSR $8501
9576  A2 03     LDX #$03
9578  20 01 85  JSR $8501
957B  A2 06     LDX #$06
957D  20 01 85  JSR $8501

; ==== sub_9580 (3 callers) ====
9580  A5 35     LDA $35
9582  05 38     ORA $38
9584  05 3B     ORA $3B
9586  09 01     ORA #$01
9588  85 3E     STA $3E
958A  A5 36     LDA $36
958C  05 39     ORA $39
958E  05 3C     ORA $3C
9590  06 3E     ASL $3E
9592  2A        ROL A
9593  B0 0E     BCS $95A3
9595  06 35     ASL $35
9597  26 36     ROL $36
9599  06 38     ASL $38
959B  26 39     ROL $39
959D  06 3B     ASL $3B
959F  26 3C     ROL $3C
95A1  90 ED     BCC $9590

; ==== sub_95A3 (1 caller) ====
95A3  A5 36     LDA $36
95A5  4A        LSR A
95A6  05 37     ORA $37
95A8  85 6B     STA $6B
95AA  A5 39     LDA $39
95AC  4A        LSR A
95AD  05 3A     ORA $3A
95AF  85 6C     STA $6C
95B1  A5 3C     LDA $3C
95B3  4A        LSR A
95B4  05 3D     ORA $3D
95B6  85 6D     STA $6D

; ==== sub_95B8 (2 callers) ====
95B8  A5 6B     LDA $6B
95BA  20 83 39  JSR $3983
95BD  85 9B     STA $9B
95BF  A5 2E     LDA $2E
95C1  85 9A     STA $9A
95C3  A5 6C     LDA $6C
95C5  20 83 39  JSR $3983
95C8  85 BB     STA $BB
95CA  A5 2E     LDA $2E
95CC  65 9A     ADC $9A
95CE  85 9A     STA $9A
95D0  A5 BB     LDA $BB
95D2  65 9B     ADC $9B
95D4  85 9B     STA $9B
95D6  A5 6D     LDA $6D
95D8  20 83 39  JSR $3983
95DB  85 BB     STA $BB
95DD  A5 2E     LDA $2E
95DF  65 9A     ADC $9A
95E1  85 9A     STA $9A
95E3  A5 BB     LDA $BB
95E5  65 9B     ADC $9B
95E7  85 9B     STA $9B
95E9  20 78 A2  JSR $A278
95EC  A5 6B     LDA $6B
95EE  20 83 9A  JSR $9A83
95F1  85 6B     STA $6B
95F3  A5 6C     LDA $6C
95F5  20 83 9A  JSR $9A83
95F8  85 6C     STA $6C
95FA  A5 6D     LDA $6D
95FC  20 83 9A  JSR $9A83
95FF  85 6D     STA $6D
9601  60        RTS
9602  .byte 31 32 33 34 35 36 37 38 39 41 42 43 44 45 46 30 ; 123456789ABCDEF0
9612  .byte 31 32 33 34 35 36 37 38 39 41 42 43 44 45 46 30 ; 123456789ABCDEF0
9622  .byte 31 32 33 34 35 36 37 38 39 41 42 43 44 45 46 30 ; 123456789ABCDEF0
9632  .byte 31 32 33 34 35 36 37 38 39 41 42 43 44 45 46 30 ; 123456789ABCDEF0
9642  .byte 31 32 33 34 35 36 37                            ; 1234567

; ==== sub_9649 (5 callers) ====
9649  98        TYA
964A  48        PHA
964B  A9 05     LDA #$05
964D  20 8B 8B  JSR $8B8B
9650  AD 15 D0  LDA $D015
9653  29 FD     AND #$FD
9655  8D 15 D0  STA $D015
9658  20 63 95  JSR $9563
965B  AE 0C 1D  LDX $1D0C
965E  F0 09     BEQ $9669
9660  AD 00 DC  LDA $DC00
9663  29 1F     AND #$1F
9665  C9 1F     CMP #$1F
9667  D0 3E     BNE $96A7
9669  18        CLC
966A  A2 00     LDX #$00
966C  78        SEI
966D  8E 00 DC  STX $DC00
9670  AE 01 DC  LDX $DC01
9673  58        CLI
9674  E8        INX
9675  F0 29     BEQ $96A0
9677  A2 40     LDX #$40
9679  A9 FE     LDA #$FE
967B  78        SEI
967C  8D 00 DC  STA $DC00
967F  48        PHA
9680  A0 08     LDY #$08
9682  AD 01 DC  LDA $DC01
9685  CD 01 DC  CMP $DC01
9688  D0 F8     BNE $9682
968A  58        CLI
968B  4A        LSR A
968C  B0 06     BCS $9694
968E  DE 02 96  DEC $9602,X
9691  86 7D     STX $7D
9693  38        SEC
9694  CA        DEX
9695  30 07     BMI $969E
9697  88        DEY
9698  D0 F1     BNE $968B
969A  68        PLA
969B  2A        ROL A
969C  D0 DD     BNE $967B
969E  68        PLA
969F  38        SEC
96A0  A9 7F     LDA #$7F
96A2  8D 00 DC  STA $DC00
96A5  D0 4E     BNE $96F5
96A7  4A        LSR A
96A8  B0 03     BCS $96AD
96AA  8E 35 96  STX $9635
96AD  4A        LSR A
96AE  B0 03     BCS $96B3
96B0  8E 2B 96  STX $962B
96B3  4A        LSR A
96B4  B0 03     BCS $96B9
96B6  8E 13 96  STX $9613
96B9  4A        LSR A
96BA  B0 03     BCS $96BF
96BC  8E 16 96  STX $9616
96BF  4A        LSR A
96C0  B0 04     BCS $96C6
96C2  8E 38 96  STX $9638
96C5  24 18     BIT $18
96C7  AD 0A 1D  LDA $1D0A
96CA  F0 0C     BEQ $96D8
96CC  AD 2B 96  LDA $962B
96CF  AE 35 96  LDX $9635
96D2  8D 35 96  STA $9635
96D5  8E 2B 96  STX $962B
96D8  AD 0B 1D  LDA $1D0B
96DB  F0 18     BEQ $96F5
96DD  AD 2B 96  LDA $962B
96E0  AE 35 96  LDX $9635
96E3  8D 35 96  STA $9635
96E6  8E 2B 96  STX $962B
96E9  AD 13 96  LDA $9613
96EC  AE 16 96  LDX $9616
96EF  8D 16 96  STA $9616
96F2  8E 13 96  STX $9613
96F5  A5 A0     LDA $A0
96F7  F0 1D     BEQ $9716
96F9  A9 00     LDA #$00
96FB  8D 05 96  STA $9605
96FE  8D 09 96  STA $9609
9701  8D 2C 96  STA $962C
9704  8D 24 96  STA $9624
9707  8D 1E 96  STA $961E
970A  8D 34 96  STA $9634
970D  8D 20 96  STA $9620
9710  8D 2E 96  STA $962E
9713  8D 19 96  STA $9619
9716  A9 04     LDA #$04
9718  20 8B 8B  JSR $8B8B
971B  68        PLA
971C  A8        TAY
971D  A5 7D     LDA $7D
971F  AA        TAX
9720  60        RTS

; ==== sub_9721 (1 caller) ====
9721  AE 7F 04  LDX $047F
9724  BD 54 04  LDA $0454,X
9727  0D 5F 04  ORA $045F
972A  0D 82 04  ORA $0482
972D  D0 45     BNE $9774
972F  AC 08 F0  LDY $F008
9732  30 08     BMI $973C
9734  A8        TAY
9735  20 4D 2C  JSR $2C4D
9738  C9 02     CMP #$02
973A  90 38     BCC $9774
973C  AC 2D F0  LDY $F02D
973F  30 09     BMI $974A
9741  A0 25     LDY #$25
9743  20 4B 2C  JSR $2C4B
9746  C9 02     CMP #$02
9748  90 2A     BCC $9774
974A  A9 81     LDA #$81
974C  85 9C     STA $9C
974E  85 9B     STA $9B
9750  85 2E     STA $2E
9752  AD 08 F0  LDA $F008
9755  20 CE 3A  JSR $3ACE
9758  8D 08 F0  STA $F008
975B  AD 2D F0  LDA $F02D
975E  20 CE 3A  JSR $3ACE
9761  8D 2D F0  STA $F02D
9764  A9 01     LDA #$01
9766  85 A0     STA $A0
9768  85 A3     STA $A3
976A  4A        LSR A
976B  8D 8A 04  STA $048A
976E  AE 86 04  LDX $0486
9771  4C BA AF  JMP $AFBA
9774  A0 06     LDY #$06
9776  4C 58 B1  JMP $B158
9779  .byte 60 E8 E2 E6 E7 C2 D1 C1 60 70 23 35 65 22 45 52 ; `.......`p#5e"ER
9789  .byte 37                                              ; 7

; ==== sub_978A (2 callers) ====
978A  A2 06     LDX #$06
978C  BD 02 96  LDA $9602,X
978F  AA        TAX
9790  60        RTS
9791  .byte A9 05 20 8B 8B 78 8E 00 DC AE 01 DC 58 E8 F0 02 ; .. ..x......X...
97A1  .byte A2 FF A9 04 20 8B 8B 8A 60 60 BD 52 9B 4D 0B 1D ; .... ...``.R.M..
97B1  .byte 60                                              ; `

; ==== sub_97B2 (2 callers) ====
97B2  8A        TXA
97B3  D9 12 1D  CMP $1D12,Y
97B6  D0 14     BNE $97CC
97B8  B9 06 1D  LDA $1D06,Y
97BB  49 FF     EOR #$FF
97BD  99 06 1D  STA $1D06,Y
97C0  20 EB 2F  JSR $2FEB
97C3  98        TYA
97C4  48        PHA
97C5  A0 14     LDY #$14
97C7  20 9E 3E  JSR $3E9E
97CA  68        PLA
97CB  A8        TAY
97CC  60        RTS

; ==== sub_97CD (1 caller) ====
97CD  A9 00     LDA #$00
97CF  A0 38     LDY #$38
97D1  99 02 96  STA $9602,Y
97D4  88        DEY
97D5  D0 FA     BNE $97D1
97D7  8D 41 04  STA $0441
97DA  60        RTS

; ==== sub_97DB (2 callers) ====
97DB  20 49 96  JSR $9649
97DE  AD 80 04  LDA $0480
97E1  F0 62     BEQ $9845
97E3  20 53 8D  JSR $8D53
97E6  A9 60     LDA #$60
97E8  85 17     STA $17
97EA  09 80     ORA #$80
97EC  85 1F     STA $1F
97EE  85 A5     STA $A5
97F0  A5 96     LDA $96
97F2  85 24     STA $24
97F4  20 B9 34  JSR $34B9
97F7  A5 24     LDA $24
97F9  C9 16     CMP #$16
97FB  90 02     BCC $97FF
97FD  A9 16     LDA #$16
97FF  85 96     STA $96
9801  A9 FF     LDA #$FF
9803  A2 09     LDX #$09
9805  A4 25     LDY $25
9807  F0 07     BEQ $9810
9809  30 02     BMI $980D
980B  A2 04     LDX #$04
980D  9D 02 96  STA $9602,X
9810  A9 80     LDA #$80
9812  A2 11     LDX #$11
9814  06 26     ASL $26
9816  F0 15     BEQ $982D
9818  90 02     BCC $981C
981A  A2 14     LDX #$14
981C  24 26     BIT $26
981E  10 07     BPL $9827
9820  A9 40     LDA #$40
9822  8D 8D 04  STA $048D
9825  A9 00     LDA #$00
9827  9D 02 96  STA $9602,X
982A  AD 8D 04  LDA $048D
982D  8D 8D 04  STA $048D
9830  A9 80     LDA #$80
9832  A2 29     LDX #$29
9834  06 27     ASL $27
9836  F0 0A     BEQ $9842
9838  B0 02     BCS $983C
983A  A2 33     LDX #$33
983C  9D 02 96  STA $9602,X
983F  AD 8E 04  LDA $048E
9842  8D 8E 04  STA $048E
9845  AE 8D 04  LDX $048D
9848  A9 0E     LDA #$0E
984A  AC 13 96  LDY $9613
984D  F0 03     BEQ $9852
984F  20 6C 3C  JSR $3C6C
9852  AC 16 96  LDY $9616
9855  F0 03     BEQ $985A
9857  20 7C 3C  JSR $3C7C
985A  8E 8D 04  STX $048D
985D  AE 8E 04  LDX $048E
9860  AC 2B 96  LDY $962B
9863  F0 03     BEQ $9868
9865  20 7C 3C  JSR $3C7C
9868  AC 35 96  LDY $9635
986B  F0 03     BEQ $9870
986D  20 6C 3C  JSR $3C6C
9870  8E 8E 04  STX $048E
9873  AD 0C 1D  LDA $1D0C
9876  F0 1D     BEQ $9895
9878  AD 80 04  LDA $0480
987B  D0 18     BNE $9895
987D  A2 80     LDX #$80
987F  AD 13 96  LDA $9613
9882  0D 16 96  ORA $9616
9885  D0 03     BNE $988A
9887  8E 8D 04  STX $048D
988A  AD 2B 96  LDA $962B
988D  0D 35 96  ORA $9635
9890  D0 03     BNE $9895
9892  8E 8E 04  STX $048E
9895  A6 7D     LDX $7D
9897  8E 41 04  STX $0441
989A  E0 40     CPX #$40
989C  D0 43     BNE $98E1
989E  20 54 BA  JSR $BA54
98A1  20 49 96  JSR $9649
98A4  E0 02     CPX #$02
98A6  D0 03     BNE $98AB
98A8  8E 05 1D  STX $1D05
98AB  A0 00     LDY #$00
98AD  20 B2 97  JSR $97B2
98B0  C8        INY
98B1  C0 0A     CPY #$0A
98B3  D0 F8     BNE $98AD
98B5  2C 08 1D  BIT $1D08
98B8  10 08     BPL $98C2
98BA  20 B2 97  JSR $97B2
98BD  C8        INY
98BE  C0 0C     CPY #$0C
98C0  D0 F8     BNE $98BA
98C2  AD 0D 1D  LDA $1D0D
98C5  CD 02 1D  CMP $1D02
98C8  F0 03     BEQ $98CD
98CA  20 14 9B  JSR $9B14
98CD  E0 33     CPX #$33
98CF  D0 05     BNE $98D6
98D1  A9 00     LDA #$00
98D3  8D 05 1D  STA $1D05
98D6  E0 07     CPX #$07
98D8  D0 03     BNE $98DD
98DA  4C 8E 91  JMP $918E
98DD  E0 0D     CPX #$0D
98DF  D0 BD     BNE $989E
98E1  60        RTS

; ==== sub_98E2 (3 callers) ====
98E2  84 9E     STY $9E

; ==== sub_98E4 (5 callers) ====
98E4  A0 02     LDY #$02
98E6  20 9E 3E  JSR $3E9E
98E9  20 49 96  JSR $9649
98EC  D0 F6     BNE $98E4
98EE  20 49 96  JSR $9649
98F1  F0 FB     BEQ $98EE
98F3  BD 5C 9B  LDA $9B5C,X
98F6  A4 9E     LDY $9E
98F8  AA        TAX
98F9  60        RTS
98FA  8E 8B 04  STX $048B
98FD  48        PHA
98FE  AD E6 04  LDA $04E6
9901  20 55 99  JSR $9955
9904  68        PLA

; ==== sub_9905 (9 callers) ====
9905  48        PHA
9906  A9 10     LDA #$10
9908  A6 A0     LDX $A0
990A  F0 06     BEQ $9912
990C  20 E0 BC  JSR $BCE0
990F  A9 19     LDA #$19
9911  2C 85 33  BIT $3385
9914  A2 00     LDX #$00
9916  86 34     STX $34
9918  A5 B9     LDA $B9
991A  20 25 73  JSR $7325
991D  68        PLA
991E  A0 14     LDY #$14
9920  EC 8B 04  CPX $048B
9923  D0 D5     BNE $98FA
9925  8C 8B 04  STY $048B
9928  8D E6 04  STA $04E6
992B  A9 C0     LDA #$C0
992D  8D 18 2F  STA $2F18
9930  AD 8C 04  LDA $048C
9933  4A        LSR A
9934  A9 00     LDA #$00
9936  90 02     BCC $993A
9938  A9 0A     LDA #$0A
993A  8D 19 2F  STA $2F19
993D  AD E6 04  LDA $04E6
9940  20 7E 80  JSR $807E
9943  A9 20     LDA #$20
9945  38        SEC
9946  ED 19 2F  SBC $2F19
9949  4A        LSR A
994A  85 B9     STA $B9
994C  20 25 73  JSR $7325
994F  20 A3 24  JSR $24A3
9952  AD E6 04  LDA $04E6

; ==== sub_9955 (1 caller) ====
9955  20 7E 80  JSR $807E
9958  4E 8C 04  LSR $048C
995B  90 9C     BCC $98F9
995D  A9 FD     LDA #$FD
995F  4C 7E 80  JMP $807E
9962  20 BB 8D  JSR $8DBB
9965  30 92     BMI $98F9
9967  E0 16     CPX #$16
9969  B0 8E     BCS $98F9
996B  BD B0 04  LDA $04B0,X
996E  F0 89     BEQ $98F9
9970  AD 8B 04  LDA $048B
9973  D0 84     BNE $98F9
9975  A0 03     LDY #$03
9977  8C 8C 04  STY $048C
997A  9D B0 04  STA $04B0,X
997D  E0 11     CPX #$11
997F  B0 06     BCS $9987
9981  8A        TXA
9982  69 D0     ADC #$D0
9984  4C 05 99  JMP $9905
9987  F0 0A     BEQ $9993
9989  E0 12     CPX #$12
998B  F0 0B     BEQ $9998
998D  8A        TXA
998E  69 5D     ADC #$5D
9990  4C 05 99  JMP $9905
9993  A9 6C     LDA #$6C
9995  4C 05 99  JMP $9905
9998  A9 6F     LDA #$6F
999A  4C 05 99  JMP $9905
999D  .byte 13 82 06 01 14 81 0A 03 41 83 02 07 28 85 E2 1F ; ........A...(...
99AD  .byte 53 85 FB 0F C4 08 36 03 EB 1D 08 78 9A 0E 38 03 ; S.....6....x..8.
99BD  .byte 75 06 28 07 4E 01 11 1F 7C 0D 1D 07 B0 89 DC 3F ; u.(.N...|......?
99CD  .byte 20 81 35 03 61 A1 42 07 AB A2 37 1F 2D C1 FA 0F ;  .5.a.B...7.-...
99DD  .byte 35 0F C0 07                                     ; 5...
99E1  98        TYA
99E2  A0 02     LDY #$02
99E4  20 B0 9A  JSR $9AB0
99E7  85 1D     STA $1D
99E9  4C 29 9A  JMP $9A29
99EC  AA        TAX
99ED  A5 6C     LDA $6C
99EF  29 60     AND #$60
99F1  F0 EE     BEQ $99E1
99F3  A9 02     LDA #$02
99F5  20 B0 9A  JSR $9AB0
99F8  85 1B     STA $1B
99FA  4C 29 9A  JMP $9A29

; ==== sub_99FD (1 caller) ====
99FD  A5 13     LDA $13
99FF  85 6B     STA $6B
9A01  A5 15     LDA $15
9A03  85 6C     STA $6C
9A05  A5 17     LDA $17
9A07  85 6D     STA $6D
9A09  20 B8 95  JSR $95B8
9A0C  A5 6B     LDA $6B
9A0E  85 13     STA $13
9A10  A5 6C     LDA $6C
9A12  85 15     STA $15
9A14  A5 6D     LDA $6D
9A16  85 17     STA $17
9A18  A0 04     LDY #$04
9A1A  A5 6B     LDA $6B
9A1C  29 60     AND #$60
9A1E  F0 CC     BEQ $99EC
9A20  A2 02     LDX #$02
9A22  A9 00     LDA #$00
9A24  20 B0 9A  JSR $9AB0
9A27  85 19     STA $19
9A29  A5 19     LDA $19
9A2B  85 6B     STA $6B
9A2D  A5 1B     LDA $1B
9A2F  85 6C     STA $6C
9A31  A5 1D     LDA $1D
9A33  85 6D     STA $6D
9A35  20 B8 95  JSR $95B8
9A38  A5 6B     LDA $6B
9A3A  85 19     STA $19
9A3C  A5 6C     LDA $6C
9A3E  85 1B     STA $1B
9A40  A5 6D     LDA $6D
9A42  85 1D     STA $1D
9A44  A5 15     LDA $15
9A46  85 9A     STA $9A
9A48  A5 1D     LDA $1D
9A4A  20 A5 3A  JSR $3AA5
9A4D  A6 17     LDX $17
9A4F  A5 1B     LDA $1B
9A51  20 0A 3B  JSR $3B0A
9A54  49 80     EOR #$80
9A56  85 1F     STA $1F
9A58  A5 19     LDA $19
9A5A  20 A5 3A  JSR $3AA5
9A5D  A6 13     LDX $13
9A5F  A5 1D     LDA $1D
9A61  20 0A 3B  JSR $3B0A
9A64  49 80     EOR #$80
9A66  85 21     STA $21
9A68  A5 1B     LDA $1B
9A6A  20 A5 3A  JSR $3AA5
9A6D  A6 15     LDX $15
9A6F  A5 19     LDA $19
9A71  20 0A 3B  JSR $3B0A
9A74  49 80     EOR #$80
9A76  85 23     STA $23
9A78  A9 00     LDA #$00
9A7A  A2 0E     LDX #$0E
9A7C  95 12     STA $12,X
9A7E  CA        DEX
9A7F  CA        DEX
9A80  10 FA     BPL $9A7C
9A82  60        RTS

; ==== sub_9A83 (3 callers) ====
9A83  A8        TAY
9A84  29 7F     AND #$7F
9A86  C5 9A     CMP $9A
9A88  B0 20     BCS $9AAA
9A8A  A2 FE     LDX #$FE
9A8C  86 BB     STX $BB
9A8E  0A        ASL A
9A8F  C5 9A     CMP $9A
9A91  90 02     BCC $9A95
9A93  E5 9A     SBC $9A
9A95  26 BB     ROL $BB
9A97  B0 F5     BCS $9A8E
9A99  A5 BB     LDA $BB
9A9B  4A        LSR A
9A9C  4A        LSR A
9A9D  85 BB     STA $BB
9A9F  4A        LSR A
9AA0  65 BB     ADC $BB
9AA2  85 BB     STA $BB
9AA4  98        TYA
9AA5  29 80     AND #$80
9AA7  05 BB     ORA $BB
9AA9  60        RTS
9AAA  98        TYA
9AAB  29 80     AND #$80
9AAD  09 60     ORA #$60
9AAF  60        RTS

; ==== sub_9AB0 (3 callers) ====
9AB0  85 30     STA $30
9AB2  B5 13     LDA $13,X
9AB4  85 9A     STA $9A
9AB6  B5 19     LDA $19,X
9AB8  20 A5 3A  JSR $3AA5
9ABB  B6 13     LDX $13,Y
9ABD  86 9A     STX $9A
9ABF  B9 19 00  LDA $0019,Y
9AC2  20 CB 3A  JSR $3ACB
9AC5  86 2E     STX $2E
9AC7  A4 30     LDY $30
9AC9  B6 13     LDX $13,Y
9ACB  86 9A     STX $9A
9ACD  49 80     EOR #$80
9ACF  85 2F     STA $2F
9AD1  45 9A     EOR $9A
9AD3  29 80     AND #$80
9AD5  85 BB     STA $BB
9AD7  A9 00     LDA #$00
9AD9  A2 10     LDX #$10
9ADB  06 2E     ASL $2E
9ADD  26 2F     ROL $2F
9ADF  06 9A     ASL $9A
9AE1  46 9A     LSR $9A
9AE3  2A        ROL A
9AE4  C5 9A     CMP $9A
9AE6  90 02     BCC $9AEA
9AE8  E5 9A     SBC $9A
9AEA  26 2E     ROL $2E
9AEC  26 2F     ROL $2F
9AEE  CA        DEX
9AEF  D0 F2     BNE $9AE3
9AF1  A5 2E     LDA $2E
9AF3  05 BB     ORA $BB
9AF5  60        RTS

; ==== sub_9AF6 (1 caller) ====
9AF6  2C 03 1D  BIT $1D03
9AF9  30 FA     BMI $9AF5
9AFB  2C 10 1D  BIT $1D10
9AFE  30 05     BMI $9B05
9B00  2C 0D 1D  BIT $1D0D
9B03  30 F0     BMI $9AF5
9B05  A9 05     LDA #$05
9B07  20 8B 8B  JSR $8B8B
9B0A  20 6E BF  JSR $BF6E
9B0D  A9 FF     LDA #$FF
9B0F  8D 03 1D  STA $1D03
9B12  D0 30     BNE $9B44

; ==== sub_9B14 (1 caller) ====
9B14  8D 02 1D  STA $1D02
9B17  49 FF     EOR #$FF
9B19  2D 80 04  AND $0480
9B1C  30 E7     BMI $9B05

; ==== dock_complete  $9B1E  (3 callers) — finalise docking: silence the SID, set the docked state, hand off to the station screens ($1D7E) ====
9B1E  2C 10 1D  BIT $1D10
9B21  30 D3     BMI $9AF6
9B23  2C 03 1D  BIT $1D03
9B26  10 CD     BPL $9AF5
9B28  20 17 B1  JSR $B117
9B2B  A9 05     LDA #$05
9B2D  20 8B 8B  JSR $8B8B
9B30  A9 00     LDA #$00
9B32  8D 03 1D  STA $1D03
9B35  A2 18     LDX #$18
9B37  78        SEI
9B38  9D 00 D4  STA $D400,X
9B3B  CA        DEX
9B3C  10 FA     BPL $9B38
9B3E  A9 0F     LDA #$0F
9B40  8D 18 D4  STA $D418
9B43  58        CLI
9B44  A9 04     LDA #$04
9B46  4C 8B 8B  JMP $8B8B
9B49  .byte 02 0F 31 32 33 34 35 36 37 38 39 30 31 32 33 34 ; ..12345678901234
9B59  .byte 35 36 37 00 01 51 02 20 32 03 1B 31 2F 5E 3D 05 ; 567..Q. 2..1/^=.
9B69  .byte 06 3B 2A 60 2C 40 3A 2E 2D 4C 50 2B 4E 4F 4B 4D ; .;*`,@:.-LP+NOKM
9B79  .byte 30 4A 49 39 56 55 48 42 38 47 59 37 58 54 46 43 ; 0JI9VUHB8GY7XTFC
9B89  .byte 36 44 52 35 07 45 53 5A 34 41 57 33 08 09 0A 0B ; 6DR5.ESZ4AW3....
9B99  .byte 0C 0E 0D 7F A2 36 B5 00 BC 00 CE 9D 00 CE 94 00 ; .....6..........
9BA9  .byte E8 D0 F3 60 A9 05 20 8B 8B A9 00 8D 15 D0 A9 37 ; ...`.. ........7
9BB9  .byte 2C 11 D0 10 FB CD 12 D0 D0 F6 A9 04 78 8D 9A 8B ; ,...........x...
9BC9  .byte A5 01 29 F8 0D 9A 8B 85 01 58 60 04 A5 2E 8D F2 ; ..)......X`.....
9BD9  .byte 04 A5 2F 8D F3 04 60 A6 9D 20 FF 8B A6 9D 4C 2C ; ../...`.. ....L,
9BE9  .byte 20 20 53 8D 20 3F 84 8D 53 04 8D 5F 04 20 1A BA ;   S. ?..S.._. ..
9BF9  .byte A9 06 85 0E A9 81 4C 5B 00 20 32 40 4A 52 59 5F ; ......L[. 2@JRY_
9C09  .byte 65 6A 6E 72 76 79 7D 80 82 85 87 8A 8C 8E 90 92 ; ejnrvy}.........
9C19  .byte 94 96 98 99 9B 9D 9E A0 A1 A2 A4 A5 A6 A7 A9 AA ; ................
9C29  .byte AB AC AD AE AF B0 B1 B2 B3 B4 B5 B6 B7 B8 B9 B9 ; ................
9C39  .byte BA BB BC BD BD BE BF BF C0 C1 C2 C2 C3 C4 C4 C5 ; ................
9C49  .byte C6 C6 C7 C7 C8 C9 C9 CA CA CB CC CC CD CD CE CE ; ................
9C59  .byte CF CF D0 D0 D1 D1 D2 D2 D3 D3 D4 D4 D5 D5 D5 D6 ; ................
9C69  .byte D6 D7 D7 D8 D8 D9 D9 D9 DA DA DB DB DB DC DC DD ; ................
9C79  .byte DD DD DE DE DE DF DF E0 E0 E0 E1 E1 E1 E2 E2 E2 ; ................
9C89  .byte E3 E3 E3 E4 E4 E4 E5 E5 E5 E6 E6 E6 E7 E7 E7 E7 ; ................
9C99  .byte E8 E8 E8 E9 E9 E9 EA EA EA EA EB EB EB EC EC EC ; ................
9CA9  .byte EC ED ED ED ED EE EE EE EE EF EF EF EF F0 F0 F0 ; ................
9CB9  .byte F1 F1 F1 F1 F1 F2 F2 F2 F2 F3 F3 F3 F3 F4 F4 F4 ; ................
9CC9  .byte F4 F5 F5 F5 F5 F5 F6 F6 F6 F6 F7 F7 F7 F7 F7 F8 ; ................
9CD9  .byte F8 F8 F8 F9 F9 F9 F9 F9 FA FA FA FA FA FB FB FB ; ................
9CE9  .byte FB FB FC FC FC FC FC FD FD FD FD FD FD FE FE FE ; ................
9CF9  .byte FE FE FF FF FF FF FF AD 00 00 B8 00 4D B8 D5 FF ; ............M...
9D09  .byte 70 4D B3 B8 6A D5 05 00 CC 70 EF 4D 8D B3 C1 B8 ; pM..j....p.M....
9D19  .byte 9A 6A 28 D5 74 05 88 00 6B CC 23 70 B3 EF 22 4D ; .j(.t...k.#p.."M
9D29  .byte 71 8D A3 B3 BD C1 BF B8 AB 9A 84 6A 4B 28 00 D5 ; q..........jK(..
9D39  .byte A7 74 3E 05 C8 88 45 FF B7 6B 1D CC 79 23 CA 70 ; .t>...E..k..y#.p
9D49  .byte 13 B3 52 EF 89 22 B8 4D E0 71 00 8D 19 A3 2C B3 ; ..R..".M.q....,.
9D59  .byte 39 BD 3F C1 40 BF 3C B8 32 AB 23 9A 10 84 F7 6A ; 9.?.@.<.2.#....j
9D69  .byte DB 4B BA 28 94 00 6B D5 3E A7 0E 74 DA 3E A2 05 ; .K.(..k.>..t.>..
9D79  .byte 67 C8 29 88 E7 45 A3 00 5B B7 11 6B C4 1D 75 CC ; g.)..E..[..k..u.
9D89  .byte 23 79 CE 23 77 CA 1D 70 C1 13 63 B3 03 52 A1 EF ; #y.#w..p..c..R..
9D99  .byte 3C 89 D6 22 6D B8 03 4D 96 E0 28 71 B8 00 47 8D ; <.."m..M..(q..G.
9DA9  .byte D4 19 5F A3 E8 2C 70 B3 F6 39 7B BD FE 3F 80 C1 ; .._..,p..9{..?..
9DB9  .byte 01 40 80 BF FD 3C 7A B8 F5 32 6F AB E7 23 5F 9A ; .@...<z..2o..#_.
9DC9  .byte D5 10 4A 84 BE F7 31 6A A2 DB 13 4B 82 BA F1 28 ; ..J...1j...K...(
9DD9  .byte 5E 94 CB 00 36 6B A0 D5 0A 3E 73 A7 DA 0E 41 74 ; ^...6k...>s...At
9DE9  .byte A7 DA 0C 3E 70 A2 D3 05 36 67 98 C8 F8 29 59 88 ; ...>p...6g...)Y.
9DF9  .byte B8 E7 16 45 74 A3 D1 01 01 01 01 01 01 01 01 01 ; ...Et...........
9E09  .byte 01 01 01 01 01 01 01 01 01 01 01 01 01 01 01 01 ; ................
9E19  .byte 01 01 01 01 01 01 01 02 02 02 02 02 02 02 02 02 ; ................
9E29  .byte 02 02 02 02 02 02 02 02 02 02 03 03 03 03 03 03 ; ................
9E39  .byte 03 03 03 03 03 03 03 04 04 04 04 04 04 04 04 04 ; ................
9E49  .byte 04 04 05 05 05 05 05 05 05 05 06 06 06 06 06 06 ; ................
9E59  .byte 06 07 07 07 07 07 07 08 08 08 08 08 08 09 09 09 ; ................
9E69  .byte 09 09 0A 0A 0A 0A 0B 0B 0B 0B 0C 0C 0C 0C 0D 0D ; ................
9E79  .byte 0D 0E 0E 0E 0E 0F 0F 10 10 10 11 11 11 12 12 13 ; ................
9E89  .byte 13 13 14 14 15 15 16 16 17 17 18 18 19 19 1A 1A ; ................
9E99  .byte 1B 1C 1C 1D 1D 1E 1F 20 20 21 22 22 23 24 25 26 ; .......  !""#$%&
9EA9  .byte 26 27 28 29 2A 2B 2C 2D 2E 2F 30 31 32 33 34 35 ; &'()*+,-./012345
9EB9  .byte 36 38 39 3A 3B 3D 3E 40 41 42 44 45 47 48 4A 4C ; 689:;=>@ABDEGHJL
9EC9  .byte 4D 4F 51 52 54 56 58 5A 5C 5E 60 62 64 67 69 6B ; MOQRTVXZ\^`bdgik
9ED9  .byte 6D 70 72 75 77 7A 7D 80 82 85 88 8B 8E 91 94 98 ; mpruwz}.........
9EE9  .byte 9B 9E A2 A5 A9 AD B1 B5 B8 BD C1 C5 C9 CE D2 D7 ; ................
9EF9  .byte DB E0 E5 EA EF F5 FA 01 01 01 01 01 01 01 01 01 ; ................
9F09  .byte 01 01 01 01 01 01 01 01 01 01 01 01 01 01 01 01 ; ................
9F19  .byte 01 01 01 01 01 01 01 02 02 02 02 02 02 02 02 02 ; ................
9F29  .byte 02 02 02 02 02 02 02 02 02 02 03 03 03 03 03 03 ; ................
9F39  .byte 03 03 03 03 03 03 03 04 04 04 04 04 04 04 04 04 ; ................
9F49  .byte 04 05 05 05 05 05 05 05 05 05 06 06 06 06 06 06 ; ................
9F59  .byte 06 07 07 07 07 07 07 08 08 08 08 08 09 09 09 09 ; ................
9F69  .byte 09 0A 0A 0A 0A 0A 0B 0B 0B 0B 0C 0C 0C 0D 0D 0D ; ................
9F79  .byte 0D 0E 0E 0E 0F 0F 0F 10 10 10 11 11 12 12 12 13 ; ................
9F89  .byte 13 14 14 14 15 15 16 16 17 17 18 18 19 1A 1A 1B ; ................
9F99  .byte 1B 1C 1D 1D 1E 1E 1F 20 21 21 22 23 24 24 25 26 ; ....... !!"#$$%&
9FA9  .byte 27 28 29 29 2A 2B 2C 2D 2E 2F 30 31 32 34 35 36 ; '())*+,-./012456
9FB9  .byte 37 38 3A 3B 3C 3D 3F 40 42 43 45 46 48 49 4B 4C ; 78:;<=?@BCEFHIKL
9FC9  .byte 4E 50 52 53 55 57 59 5B 5D 5F 61 63 65 68 6A 6C ; NPRSUWY[]_acehjl
9FD9  .byte 6F 71 74 76 79 7B 7E 81 84 87 8A 8D 90 93 96 99 ; oqtvy{~.........
9FE9  .byte 9D A0 A4 A7 AB AF B3 B6 BA BF C3 C7 CB D0 D4 D9 ; ................
9FF9  .byte DE E3 E8 ED F2 F7 FD 20 20 20 20 20 20 20 20 60 ; .......        `
A009  .byte 60 60 60 60 60 60 60 A0 A0 A0 A0 A0 A0 A0 A0 E0 ; ```````.........
A019  .byte E0 E0 E0 E0 E0 E0 E0 20 20 20 20 20 20 20 20 60 ; .......        `
A029  .byte 60 60 60 60 60 60 60 A0 A0 A0 A0 A0 A0 A0 A0 E0 ; ```````.........
A039  .byte E0 E0 E0 E0 E0 E0 E0 20 20 20 20 20 20 20 20 60 ; .......        `
A049  .byte 60 60 60 60 60 60 60 A0 A0 A0 A0 A0 A0 A0 A0 E0 ; ```````.........
A059  .byte E0 E0 E0 E0 E0 E0 E0 20 20 20 20 20 20 20 20 60 ; .......        `
A069  .byte 60 60 60 60 60 60 60 A0 A0 A0 A0 A0 A0 A0 A0 E0 ; ```````.........
A079  .byte E0 E0 E0 E0 E0 E0 E0 20 20 20 20 20 20 20 20 60 ; .......        `
A089  .byte 60 60 60 60 60 60 60 A0 A0 A0 A0 A0 A0 A0 A0 E0 ; ```````.........
A099  .byte E0 E0 E0 E0 E0 E0 E0 20 20 20 20 20 20 20 20 60 ; .......        `
A0A9  .byte 60 60 60 60 60 60 60 A0 A0 A0 A0 A0 A0 A0 A0 E0 ; ```````.........
A0B9  .byte E0 E0 E0 E0 E0 E0 E0 20 20 20 20 20 20 20 20 60 ; .......        `
A0C9  .byte 60 60 60 60 60 60 60 A0 A0 A0 A0 A0 A0 A0 A0 E0 ; ```````.........
A0D9  .byte E0 E0 E0 E0 E0 E0 E0 20 20 20 20 20 20 20 20 60 ; .......        `
A0E9  .byte 60 60 60 60 60 60 60 A0 A0 A0 A0 A0 A0 A0 A0 E0 ; ```````.........
A0F9  .byte E0 E0 E0 E0 E0 E0 E0 40 40 40 40 40 40 40 40 41 ; .......@@@@@@@@A
A109  .byte 41 41 41 41 41 41 41 42 42 42 42 42 42 42 42 43 ; AAAAAAABBBBBBBBC
A119  .byte 43 43 43 43 43 43 43 45 45 45 45 45 45 45 45 46 ; CCCCCCCEEEEEEEEF
A129  .byte 46 46 46 46 46 46 46 47 47 47 47 47 47 47 47 48 ; FFFFFFFGGGGGGGGH
A139  .byte 48 48 48 48 48 48 48 4A 4A 4A 4A 4A 4A 4A 4A 4B ; HHHHHHHJJJJJJJJK
A149  .byte 4B 4B 4B 4B 4B 4B 4B 4C 4C 4C 4C 4C 4C 4C 4C 4D ; KKKKKKKLLLLLLLLM
A159  .byte 4D 4D 4D 4D 4D 4D 4D 4F 4F 4F 4F 4F 4F 4F 4F 50 ; MMMMMMMOOOOOOOOP
A169  .byte 50 50 50 50 50 50 50 51 51 51 51 51 51 51 51 52 ; PPPPPPPQQQQQQQQR
A179  .byte 52 52 52 52 52 52 52 54 54 54 54 54 54 54 54 55 ; RRRRRRRTTTTTTTTU
A189  .byte 55 55 55 55 55 55 55 56 56 56 56 56 56 56 56 57 ; UUUUUUUVVVVVVVVW
A199  .byte 57 57 57 57 57 57 57 59 59 59 59 59 59 59 59 5A ; WWWWWWWYYYYYYYYZ
A1A9  .byte 5A 5A 5A 5A 5A 5A 5A 5B 5B 5B 5B 5B 5B 5B 5B 5C ; ZZZZZZZ[[[[[[[[\
A1B9  .byte 5C 5C 5C 5C 5C 5C 5C 5E 5E 5E 5E 5E 5E 5E 5E 5F ; \\\\\\\^^^^^^^^_
A1C9  .byte 5F 5F 5F 5F 5F 5F 5F 60 60 60 60 60 60 60 60 61 ; _______````````a
A1D9  .byte 61 61 61 61 61 61 61 63 63 63 63 63 63 63 63 64 ; aaaaaaaccccccccd
A1E9  .byte 64 64 64 64 64 64 64 65 65 65 65 65 65 65 65 66 ; dddddddeeeeeeeef
A1F9  .byte 66 66 66 66 66 66 66 03 2B 53 7B A3 CB F3 1B 43 ; fffffff.+S{....C
A209  .byte 6B 93 BB E3 0B 33 5B 83 AB D3 FB 23 4B 73 9B C3 ; k....3[....#Ks..
A219  .byte 60 60 60 60 60 60 60 61 61 61 61 61 61 62 62 62 ; ```````aaaaaabbb
A229  .byte 62 62 62 62 63 63 63 63 63                      ; bbbbccccc
A232  20 D8 A3  JSR $A3D8
A235  20 0F 86  JSR $860F
A238  05 36     ORA $36
A23A  D0 21     BNE $A25D
A23C  A5 43     LDA $43
A23E  C9 8E     CMP #$8E
A240  B0 1B     BCS $A25D
A242  A0 02     LDY #$02
A244  20 64 A2  JSR $A264
A247  A0 06     LDY #$06
A249  A5 43     LDA $43
A24B  69 01     ADC #$01
A24D  20 64 A2  JSR $A264
A250  A9 08     LDA #$08
A252  05 28     ORA $28
A254  85 28     STA $28
A256  A9 08     LDA #$08
A258  4C 74 AA  JMP $AA74
A25B  68        PLA
A25C  68        PLA
A25D  A9 F7     LDA #$F7
A25F  25 28     AND $28
A261  85 28     STA $28
A263  60        RTS

; ==== sub_A264 (2 callers) ====
A264  91 2A     STA ($2A),Y
A266  C8        INY
A267  C8        INY
A268  91 2A     STA ($2A),Y
A26A  A5 35     LDA $35
A26C  88        DEY
A26D  91 2A     STA ($2A),Y
A26F  69 03     ADC #$03
A271  B0 E8     BCS $A25B
A273  88        DEY
A274  88        DEY
A275  91 2A     STA ($2A),Y
A277  60        RTS

; ==== sub_A278 (4 callers) ====
A278  A4 9B     LDY $9B
A27A  A5 9A     LDA $9A
A27C  85 9C     STA $9C
A27E  A2 00     LDX #$00
A280  86 9A     STX $9A
A282  A9 08     LDA #$08
A284  85 BB     STA $BB
A286  E4 9A     CPX $9A
A288  90 0E     BCC $A298
A28A  D0 04     BNE $A290
A28C  C0 40     CPY #$40
A28E  90 08     BCC $A298
A290  98        TYA
A291  E9 40     SBC #$40
A293  A8        TAY
A294  8A        TXA
A295  E5 9A     SBC $9A
A297  AA        TAX
A298  26 9A     ROL $9A
A29A  06 9C     ASL $9C
A29C  98        TYA
A29D  2A        ROL A
A29E  A8        TAY
A29F  8A        TXA
A2A0  2A        ROL A
A2A1  AA        TAX
A2A2  06 9C     ASL $9C
A2A4  98        TYA
A2A5  2A        ROL A
A2A6  A8        TAY
A2A7  8A        TXA
A2A8  2A        ROL A
A2A9  AA        TAX
A2AA  C6 BB     DEC $BB
A2AC  D0 D8     BNE $A286
A2AE  60        RTS

; ==== sub_A2AF (7 callers) ====
A2AF  C5 9A     CMP $9A
A2B1  B0 54     BCS $A307
A2B3  85 B6     STA $B6
A2B5  AA        TAX
A2B6  F0 1B     BEQ $A2D3
A2B8  BD 00 9D  LDA $9D00,X
A2BB  A6 9A     LDX $9A
A2BD  38        SEC
A2BE  FD 00 9D  SBC $9D00,X
A2C1  30 13     BMI $A2D6
A2C3  A6 B6     LDX $B6
A2C5  BD 00 9C  LDA $9C00,X
A2C8  A6 9A     LDX $9A
A2CA  FD 00 9C  SBC $9C00,X
A2CD  B0 38     BCS $A307
A2CF  AA        TAX
A2D0  BD 00 9E  LDA $9E00,X
A2D3  85 9B     STA $9B
A2D5  60        RTS
A2D6  A6 B6     LDX $B6
A2D8  BD 00 9C  LDA $9C00,X
A2DB  A6 9A     LDX $9A
A2DD  FD 00 9C  SBC $9C00,X
A2E0  B0 25     BCS $A307
A2E2  AA        TAX
A2E3  BD 00 9F  LDA $9F00,X
A2E6  85 9B     STA $9B
A2E8  60        RTS
A2E9  .byte B0 1C A2 FE 86 9B 0A B0 0B C5 9A 90 02 E5 9A 26 ; ...............&
A2F9  .byte 9B B0 F3 60 E5 9A 38 26 9B B0 EB A5 9B 60       ; ...`..8&.....`
A307  A9 FF     LDA #$FF
A309  85 9B     STA $9B
A30B  60        RTS

; ==== sub_A30C (7 callers) ====
A30C  45 9C     EOR $9C
A30E  30 06     BMI $A316
A310  A5 9A     LDA $9A
A312  18        CLC
A313  65 9B     ADC $9B
A315  60        RTS
A316  A5 9B     LDA $9B
A318  38        SEC
A319  E5 9A     SBC $9A
A31B  90 02     BCC $A31F
A31D  18        CLC
A31E  60        RTS
A31F  48        PHA
A320  A5 9C     LDA $9C
A322  49 80     EOR #$80
A324  85 9C     STA $9C
A326  68        PLA
A327  49 FF     EOR #$FF
A329  69 01     ADC #$01
A32B  60        RTS

; ==== sub_A32C (2 callers) ====
A32C  A2 00     LDX #$00
A32E  A0 00     LDY #$00
A330  A5 6B     LDA $6B
A332  85 9A     STA $9A
A334  B5 45     LDA $45,X
A336  20 E7 39  JSR $39E7
A339  85 BB     STA $BB
A33B  A5 6C     LDA $6C
A33D  55 46     EOR $46,X
A33F  85 9C     STA $9C
A341  A5 6D     LDA $6D
A343  85 9A     STA $9A
A345  B5 47     LDA $47,X
A347  20 E7 39  JSR $39E7
A34A  85 9A     STA $9A
A34C  A5 BB     LDA $BB
A34E  85 9B     STA $9B
A350  A5 6E     LDA $6E
A352  55 48     EOR $48,X
A354  20 0C A3  JSR $A30C
A357  85 BB     STA $BB
A359  A5 6F     LDA $6F
A35B  85 9A     STA $9A
A35D  B5 49     LDA $49,X
A35F  20 E7 39  JSR $39E7
A362  85 9A     STA $9A
A364  A5 BB     LDA $BB
A366  85 9B     STA $9B
A368  A5 70     LDA $70
A36A  55 4A     EOR $4A,X
A36C  20 0C A3  JSR $A30C
A36F  99 71 00  STA $0071,Y
A372  A5 9C     LDA $9C
A374  99 72 00  STA $0072,Y
A377  C8        INY
A378  C8        INY
A379  8A        TXA
A37A  18        CLC
A37B  69 06     ADC #$06
A37D  AA        TAX
A37E  C9 11     CMP #$11
A380  90 AE     BCC $A330
A382  60        RTS
A383  4C 52 86  JMP $8652

; ==== sub_A386 (5 callers) ====
A386  A5 A5     LDA $A5
A388  30 F9     BMI $A383
A38A  A9 1F     LDA #$1F
A38C  85 AD     STA $AD
A38E  A5 2D     LDA $2D
A390  30 46     BMI $A3D8
A392  A9 20     LDA #$20
A394  24 28     BIT $28
A396  D0 2D     BNE $A3C5
A398  10 2B     BPL $A3C5
A39A  05 28     ORA $28
A39C  29 3F     AND #$3F
A39E  85 28     STA $28

; --- draw_ship  $A3A0 — project ship vertices, back-face cull faces, build the line heap at $0580 ---
A3A0  A9 00     LDA #$00
A3A2  A0 1C     LDY #$1C
A3A4  91 59     STA ($59),Y
A3A6  A0 1E     LDY #$1E
A3A8  91 59     STA ($59),Y
A3AA  20 D8 A3  JSR $A3D8
A3AD  A0 01     LDY #$01
A3AF  A9 12     LDA #$12
A3B1  91 2A     STA ($2A),Y
A3B3  A0 07     LDY #$07
A3B5  B1 57     LDA ($57),Y
A3B7  A0 02     LDY #$02
A3B9  91 2A     STA ($2A),Y
A3BB  C8        INY
A3BC  20 BB 8D  JSR $8DBB
A3BF  91 2A     STA ($2A),Y
A3C1  C0 06     CPY #$06
A3C3  D0 F6     BNE $A3BB
A3C5  A5 11     LDA $11
A3C7  10 1D     BPL $A3E6
A3C9  A5 28     LDA $28
A3CB  29 20     AND #$20
A3CD  F0 09     BEQ $A3D8
A3CF  A5 28     LDA $28
A3D1  29 F7     AND #$F7
A3D3  85 28     STA $28
A3D5  4C 56 81  JMP $8156

; ==== sub_A3D8 (2 callers) ====
A3D8  A9 08     LDA #$08
A3DA  24 28     BIT $28
A3DC  F0 07     BEQ $A3E5
A3DE  45 28     EOR $28
A3E0  85 28     STA $28
A3E2  4C 78 AA  JMP $AA78
A3E5  60        RTS
A3E6  A5 10     LDA $10
A3E8  C9 C0     CMP #$C0
A3EA  B0 DD     BCS $A3C9
A3EC  A5 09     LDA $09
A3EE  C5 0F     CMP $0F
A3F0  A5 0A     LDA $0A
A3F2  E5 10     SBC $10
A3F4  B0 D3     BCS $A3C9
A3F6  A5 0C     LDA $0C
A3F8  C5 0F     CMP $0F
A3FA  A5 0D     LDA $0D
A3FC  E5 10     SBC $10
A3FE  B0 C9     BCS $A3C9
A400  A0 06     LDY #$06
A402  B1 57     LDA ($57),Y
A404  AA        TAX
A405  A9 FF     LDA #$FF
A407  9D 00 01  STA $0100,X
A40A  9D 01 01  STA $0101,X
A40D  A5 0F     LDA $0F
A40F  85 BB     STA $BB
A411  A5 10     LDA $10
A413  4A        LSR A
A414  66 BB     ROR $BB
A416  4A        LSR A
A417  66 BB     ROR $BB
A419  4A        LSR A
A41A  66 BB     ROR $BB
A41C  4A        LSR A
A41D  D0 0A     BNE $A429
A41F  A5 BB     LDA $BB
A421  6A        ROR A
A422  4A        LSR A
A423  4A        LSR A
A424  4A        LSR A
A425  85 AD     STA $AD
A427  10 11     BPL $A43A
A429  A0 0D     LDY #$0D
A42B  B1 57     LDA ($57),Y
A42D  C5 10     CMP $10
A42F  B0 09     BCS $A43A
A431  A9 20     LDA #$20
A433  25 28     AND $28
A435  D0 03     BNE $A43A
A437  4C 32 A2  JMP $A232
A43A  A2 05     LDX #$05
A43C  B5 1E     LDA $1E,X
A43E  95 45     STA $45,X
A440  B5 18     LDA $18,X
A442  95 4B     STA $4B,X
A444  B5 12     LDA $12,X
A446  95 51     STA $51,X
A448  CA        DEX
A449  10 F1     BPL $A43C
A44B  A9 C5     LDA #$C5
A44D  85 9A     STA $9A
A44F  A0 10     LDY #$10
A451  B9 45 00  LDA $0045,Y
A454  0A        ASL A
A455  B9 46 00  LDA $0046,Y
A458  2A        ROL A
A459  20 AF A2  JSR $A2AF
A45C  A6 9B     LDX $9B
A45E  96 45     STX $45,Y
A460  88        DEY
A461  88        DEY
A462  10 ED     BPL $A451
A464  A2 08     LDX #$08
A466  B5 09     LDA $09,X
A468  95 85     STA $85,X
A46A  CA        DEX
A46B  10 F9     BPL $A466
A46D  A9 FF     LDA #$FF
A46F  85 44     STA $44
A471  A0 0C     LDY #$0C
A473  A5 28     LDA $28
A475  29 20     AND #$20
A477  F0 12     BEQ $A48B
A479  B1 57     LDA ($57),Y
A47B  4A        LSR A
A47C  4A        LSR A
A47D  AA        TAX
A47E  A9 FF     LDA #$FF
A480  95 35     STA $35,X
A482  CA        DEX
A483  10 FB     BPL $A480
A485  E8        INX
A486  86 AD     STX $AD
A488  4C FE A5  JMP $A5FE
A48B  B1 57     LDA ($57),Y
A48D  F0 F9     BEQ $A488
A48F  85 AE     STA $AE
A491  A0 12     LDY #$12
A493  B1 57     LDA ($57),Y
A495  AA        TAX
A496  A5 8C     LDA $8C
A498  A8        TAY
A499  F0 0F     BEQ $A4AA
A49B  E8        INX
A49C  46 89     LSR $89
A49E  66 88     ROR $88
A4A0  46 86     LSR $86
A4A2  66 85     ROR $85
A4A4  4A        LSR A
A4A5  66 8B     ROR $8B
A4A7  A8        TAY
A4A8  D0 F1     BNE $A49B
A4AA  86 9F     STX $9F
A4AC  A5 8D     LDA $8D
A4AE  85 70     STA $70
A4B0  A5 85     LDA $85
A4B2  85 6B     STA $6B
A4B4  A5 87     LDA $87
A4B6  85 6C     STA $6C
A4B8  A5 88     LDA $88
A4BA  85 6D     STA $6D
A4BC  A5 8A     LDA $8A
A4BE  85 6E     STA $6E
A4C0  A5 8B     LDA $8B
A4C2  85 6F     STA $6F
A4C4  20 2C A3  JSR $A32C
A4C7  A5 71     LDA $71
A4C9  85 85     STA $85
A4CB  A5 72     LDA $72
A4CD  85 87     STA $87
A4CF  A5 73     LDA $73
A4D1  85 88     STA $88
A4D3  A5 74     LDA $74
A4D5  85 8A     STA $8A
A4D7  A5 75     LDA $75
A4D9  85 8B     STA $8B
A4DB  A5 76     LDA $76
A4DD  85 8D     STA $8D
A4DF  A0 04     LDY #$04
A4E1  B1 57     LDA ($57),Y
A4E3  18        CLC
A4E4  65 57     ADC $57
A4E6  85 5B     STA $5B
A4E8  A0 11     LDY #$11
A4EA  B1 57     LDA ($57),Y
A4EC  65 58     ADC $58
A4EE  85 5C     STA $5C
A4F0  A0 00     LDY #$00
A4F2  B1 5B     LDA ($5B),Y
A4F4  85 72     STA $72
A4F6  29 1F     AND #$1F
A4F8  C5 AD     CMP $AD
A4FA  B0 0F     BCS $A50B
A4FC  98        TYA
A4FD  4A        LSR A
A4FE  4A        LSR A
A4FF  AA        TAX
A500  A9 FF     LDA #$FF
A502  95 35     STA $35,X
A504  98        TYA
A505  69 04     ADC #$04
A507  A8        TAY
A508  4C F7 A5  JMP $A5F7
A50B  A5 72     LDA $72
A50D  0A        ASL A
A50E  85 74     STA $74
A510  0A        ASL A
A511  85 76     STA $76
A513  C8        INY
A514  B1 5B     LDA ($5B),Y
A516  85 71     STA $71
A518  C8        INY
A519  B1 5B     LDA ($5B),Y
A51B  85 73     STA $73
A51D  C8        INY
A51E  B1 5B     LDA ($5B),Y
A520  85 75     STA $75
A522  A6 9F     LDX $9F
A524  E0 04     CPX #$04
A526  90 23     BCC $A54B
A528  A5 85     LDA $85
A52A  85 6B     STA $6B
A52C  A5 87     LDA $87
A52E  85 6C     STA $6C
A530  A5 88     LDA $88
A532  85 6D     STA $6D
A534  A5 8A     LDA $8A
A536  85 6E     STA $6E
A538  A5 8B     LDA $8B
A53A  85 6F     STA $6F
A53C  A5 8D     LDA $8D
A53E  85 70     STA $70
A540  4C A9 A5  JMP $A5A9
A543  46 85     LSR $85
A545  46 8B     LSR $8B
A547  46 88     LSR $88
A549  A2 01     LDX #$01
A54B  A5 71     LDA $71
A54D  85 6B     STA $6B
A54F  A5 73     LDA $73
A551  85 6D     STA $6D
A553  A5 75     LDA $75
A555  CA        DEX
A556  30 08     BMI $A560
A558  46 6B     LSR $6B
A55A  46 6D     LSR $6D
A55C  4A        LSR A
A55D  CA        DEX
A55E  10 F8     BPL $A558
A560  85 9B     STA $9B
A562  A5 76     LDA $76
A564  85 9C     STA $9C
A566  A5 8B     LDA $8B
A568  85 9A     STA $9A
A56A  A5 8D     LDA $8D
A56C  20 0C A3  JSR $A30C
A56F  B0 D2     BCS $A543
A571  85 6F     STA $6F
A573  A5 9C     LDA $9C
A575  85 70     STA $70
A577  A5 6B     LDA $6B
A579  85 9B     STA $9B
A57B  A5 72     LDA $72
A57D  85 9C     STA $9C
A57F  A5 85     LDA $85
A581  85 9A     STA $9A
A583  A5 87     LDA $87
A585  20 0C A3  JSR $A30C
A588  B0 B9     BCS $A543
A58A  85 6B     STA $6B
A58C  A5 9C     LDA $9C
A58E  85 6C     STA $6C
A590  A5 6D     LDA $6D
A592  85 9B     STA $9B
A594  A5 74     LDA $74
A596  85 9C     STA $9C
A598  A5 88     LDA $88
A59A  85 9A     STA $9A
A59C  A5 8A     LDA $8A
A59E  20 0C A3  JSR $A30C
A5A1  B0 A0     BCS $A543
A5A3  85 6D     STA $6D
A5A5  A5 9C     LDA $9C
A5A7  85 6E     STA $6E
A5A9  A5 71     LDA $71
A5AB  85 9A     STA $9A
A5AD  A5 6B     LDA $6B
A5AF  20 E7 39  JSR $39E7
A5B2  85 BB     STA $BB
A5B4  A5 72     LDA $72
A5B6  45 6C     EOR $6C
A5B8  85 9C     STA $9C
A5BA  A5 73     LDA $73
A5BC  85 9A     STA $9A
A5BE  A5 6D     LDA $6D
A5C0  20 E7 39  JSR $39E7
A5C3  85 9A     STA $9A
A5C5  A5 BB     LDA $BB
A5C7  85 9B     STA $9B
A5C9  A5 74     LDA $74
A5CB  45 6E     EOR $6E
A5CD  20 0C A3  JSR $A30C
A5D0  85 BB     STA $BB
A5D2  A5 75     LDA $75
A5D4  85 9A     STA $9A
A5D6  A5 6F     LDA $6F
A5D8  20 E7 39  JSR $39E7
A5DB  85 9A     STA $9A
A5DD  A5 BB     LDA $BB
A5DF  85 9B     STA $9B
A5E1  A5 70     LDA $70
A5E3  45 76     EOR $76
A5E5  20 0C A3  JSR $A30C
A5E8  48        PHA
A5E9  98        TYA
A5EA  4A        LSR A
A5EB  4A        LSR A
A5EC  AA        TAX
A5ED  68        PLA
A5EE  24 9C     BIT $9C
A5F0  30 02     BMI $A5F4
A5F2  A9 00     LDA #$00
A5F4  95 35     STA $35,X
A5F6  C8        INY
A5F7  C4 AE     CPY $AE
A5F9  B0 03     BCS $A5FE
A5FB  4C F2 A4  JMP $A4F2
A5FE  A4 47     LDY $47
A600  A6 48     LDX $48
A602  A5 4B     LDA $4B
A604  85 47     STA $47
A606  A5 4C     LDA $4C
A608  85 48     STA $48
A60A  84 4B     STY $4B
A60C  86 4C     STX $4C
A60E  A4 49     LDY $49
A610  A6 4A     LDX $4A
A612  A5 51     LDA $51
A614  85 49     STA $49
A616  A5 52     LDA $52
A618  85 4A     STA $4A
A61A  84 51     STY $51
A61C  86 52     STX $52
A61E  A4 4F     LDY $4F
A620  A6 50     LDX $50
A622  A5 53     LDA $53
A624  85 4F     STA $4F
A626  A5 54     LDA $54
A628  85 50     STA $50
A62A  84 53     STY $53
A62C  86 54     STX $54
A62E  A0 08     LDY #$08
A630  B1 57     LDA ($57),Y
A632  85 AE     STA $AE
A634  A5 57     LDA $57
A636  18        CLC
A637  69 14     ADC #$14
A639  85 5B     STA $5B
A63B  A5 58     LDA $58
A63D  69 00     ADC #$00
A63F  85 5C     STA $5C
A641  A0 00     LDY #$00
A643  84 AA     STY $AA
A645  84 9F     STY $9F
A647  B1 5B     LDA ($5B),Y
A649  85 6B     STA $6B
A64B  C8        INY
A64C  B1 5B     LDA ($5B),Y
A64E  85 6D     STA $6D
A650  C8        INY
A651  B1 5B     LDA ($5B),Y
A653  85 6F     STA $6F
A655  C8        INY
A656  B1 5B     LDA ($5B),Y
A658  85 BB     STA $BB
A65A  29 1F     AND #$1F
A65C  C5 AD     CMP $AD
A65E  90 2E     BCC $A68E
A660  C8        INY
A661  B1 5B     LDA ($5B),Y
A663  85 2E     STA $2E
A665  29 0F     AND #$0F
A667  AA        TAX
A668  B5 35     LDA $35,X
A66A  D0 25     BNE $A691
A66C  A5 2E     LDA $2E
A66E  4A        LSR A
A66F  4A        LSR A
A670  4A        LSR A
A671  4A        LSR A
A672  AA        TAX
A673  B5 35     LDA $35,X
A675  D0 1A     BNE $A691
A677  C8        INY
A678  B1 5B     LDA ($5B),Y
A67A  85 2E     STA $2E
A67C  29 0F     AND #$0F
A67E  AA        TAX
A67F  B5 35     LDA $35,X
A681  D0 0E     BNE $A691
A683  A5 2E     LDA $2E
A685  4A        LSR A
A686  4A        LSR A
A687  4A        LSR A
A688  4A        LSR A
A689  AA        TAX
A68A  B5 35     LDA $35,X
A68C  D0 03     BNE $A691
A68E  4C 06 A8  JMP $A806
A691  A5 BB     LDA $BB
A693  85 6C     STA $6C
A695  0A        ASL A
A696  85 6E     STA $6E
A698  0A        ASL A
A699  85 70     STA $70
A69B  20 2C A3  JSR $A32C
A69E  A5 0B     LDA $0B
A6A0  85 6D     STA $6D
A6A2  45 72     EOR $72
A6A4  30 10     BMI $A6B6
A6A6  18        CLC
A6A7  A5 71     LDA $71
A6A9  65 09     ADC $09
A6AB  85 6B     STA $6B
A6AD  A5 0A     LDA $0A
A6AF  69 00     ADC #$00
A6B1  85 6C     STA $6C
A6B3  4C D9 A6  JMP $A6D9
A6B6  A5 09     LDA $09
A6B8  38        SEC
A6B9  E5 71     SBC $71
A6BB  85 6B     STA $6B
A6BD  A5 0A     LDA $0A
A6BF  E9 00     SBC #$00
A6C1  85 6C     STA $6C
A6C3  B0 14     BCS $A6D9
A6C5  49 FF     EOR #$FF
A6C7  85 6C     STA $6C
A6C9  A9 01     LDA #$01
A6CB  E5 6B     SBC $6B
A6CD  85 6B     STA $6B
A6CF  90 02     BCC $A6D3
A6D1  E6 6C     INC $6C
A6D3  A5 6D     LDA $6D
A6D5  49 80     EOR #$80
A6D7  85 6D     STA $6D
A6D9  A5 0E     LDA $0E
A6DB  85 70     STA $70
A6DD  45 74     EOR $74
A6DF  30 10     BMI $A6F1
A6E1  18        CLC
A6E2  A5 73     LDA $73
A6E4  65 0C     ADC $0C
A6E6  85 6E     STA $6E
A6E8  A5 0D     LDA $0D
A6EA  69 00     ADC #$00
A6EC  85 6F     STA $6F
A6EE  4C 16 A7  JMP $A716
A6F1  A5 0C     LDA $0C
A6F3  38        SEC
A6F4  E5 73     SBC $73
A6F6  85 6E     STA $6E
A6F8  A5 0D     LDA $0D
A6FA  E9 00     SBC #$00
A6FC  85 6F     STA $6F
A6FE  B0 16     BCS $A716
A700  49 FF     EOR #$FF
A702  85 6F     STA $6F
A704  A5 6E     LDA $6E
A706  49 FF     EOR #$FF
A708  69 01     ADC #$01
A70A  85 6E     STA $6E
A70C  A5 70     LDA $70
A70E  49 80     EOR #$80
A710  85 70     STA $70
A712  90 02     BCC $A716
A714  E6 6F     INC $6F
A716  A5 76     LDA $76
A718  30 4A     BMI $A764
A71A  A5 75     LDA $75
A71C  18        CLC
A71D  65 0F     ADC $0F
A71F  85 BB     STA $BB
A721  A5 10     LDA $10
A723  69 00     ADC #$00
A725  85 99     STA $99
A727  4C 83 A7  JMP $A783

; ==== sub_A72A (2 callers) ====
A72A  A6 9A     LDX $9A
A72C  F0 1C     BEQ $A74A
A72E  A2 00     LDX #$00
A730  4A        LSR A
A731  E8        INX
A732  C5 9A     CMP $9A
A734  B0 FA     BCS $A730
A736  86 9C     STX $9C
A738  20 AF A2  JSR $A2AF
A73B  A6 9C     LDX $9C
A73D  A5 9B     LDA $9B
A73F  0A        ASL A
A740  26 99     ROL $99
A742  30 06     BMI $A74A
A744  CA        DEX
A745  D0 F8     BNE $A73F
A747  85 9B     STA $9B
A749  60        RTS
A74A  A9 32     LDA #$32
A74C  85 9B     STA $9B
A74E  85 99     STA $99
A750  60        RTS
A751  A9 80     LDA #$80
A753  38        SEC
A754  E5 9B     SBC $9B
A756  9D 00 01  STA $0100,X
A759  E8        INX
A75A  A9 00     LDA #$00
A75C  E5 99     SBC $99
A75E  9D 00 01  STA $0100,X
A761  4C C3 A7  JMP $A7C3
A764  A5 0F     LDA $0F
A766  38        SEC
A767  E5 75     SBC $75
A769  85 BB     STA $BB
A76B  A5 10     LDA $10
A76D  E9 00     SBC #$00
A76F  85 99     STA $99
A771  90 08     BCC $A77B
A773  D0 0E     BNE $A783
A775  A5 BB     LDA $BB
A777  C9 04     CMP #$04
A779  B0 08     BCS $A783
A77B  A9 00     LDA #$00
A77D  85 99     STA $99
A77F  A9 04     LDA #$04
A781  85 BB     STA $BB
A783  A5 99     LDA $99
A785  05 6C     ORA $6C
A787  05 6F     ORA $6F
A789  F0 0F     BEQ $A79A
A78B  46 6C     LSR $6C
A78D  66 6B     ROR $6B
A78F  46 6F     LSR $6F
A791  66 6E     ROR $6E
A793  46 99     LSR $99
A795  66 BB     ROR $BB
A797  4C 83 A7  JMP $A783
A79A  A5 BB     LDA $BB
A79C  85 9A     STA $9A
A79E  A5 6B     LDA $6B
A7A0  C5 9A     CMP $9A
A7A2  90 06     BCC $A7AA
A7A4  20 2A A7  JSR $A72A
A7A7  4C AD A7  JMP $A7AD
A7AA  20 AF A2  JSR $A2AF
A7AD  A6 AA     LDX $AA
A7AF  A5 6D     LDA $6D
A7B1  30 9E     BMI $A751
A7B3  A5 9B     LDA $9B
A7B5  18        CLC
A7B6  69 80     ADC #$80
A7B8  9D 00 01  STA $0100,X
A7BB  E8        INX
A7BC  A5 99     LDA $99
A7BE  69 00     ADC #$00
A7C0  9D 00 01  STA $0100,X
A7C3  8A        TXA
A7C4  48        PHA
A7C5  A9 00     LDA #$00
A7C7  85 99     STA $99
A7C9  A5 BB     LDA $BB
A7CB  85 9A     STA $9A
A7CD  A5 6E     LDA $6E
A7CF  C5 9A     CMP $9A
A7D1  90 19     BCC $A7EC
A7D3  20 2A A7  JSR $A72A
A7D6  4C EF A7  JMP $A7EF
A7D9  A9 48     LDA #$48
A7DB  18        CLC
A7DC  65 9B     ADC $9B
A7DE  9D 00 01  STA $0100,X
A7E1  E8        INX
A7E2  A9 00     LDA #$00
A7E4  65 99     ADC $99
A7E6  9D 00 01  STA $0100,X
A7E9  4C 06 A8  JMP $A806
A7EC  20 AF A2  JSR $A2AF
A7EF  68        PLA
A7F0  AA        TAX
A7F1  E8        INX
A7F2  A5 70     LDA $70
A7F4  30 E3     BMI $A7D9
A7F6  A9 48     LDA #$48
A7F8  38        SEC
A7F9  E5 9B     SBC $9B
A7FB  9D 00 01  STA $0100,X
A7FE  E8        INX
A7FF  A9 00     LDA #$00
A801  E5 99     SBC $99
A803  9D 00 01  STA $0100,X
A806  18        CLC
A807  A5 AA     LDA $AA
A809  69 04     ADC #$04
A80B  85 AA     STA $AA
A80D  A5 9F     LDA $9F
A80F  69 06     ADC #$06
A811  A8        TAY
A812  B0 07     BCS $A81B
A814  C5 AE     CMP $AE
A816  B0 03     BCS $A81B
A818  4C 45 A6  JMP $A645
A81B  A5 28     LDA $28
A81D  29 20     AND #$20
A81F  F0 09     BEQ $A82A
A821  A5 28     LDA $28
A823  09 08     ORA #$08
A825  85 28     STA $28
A827  4C 56 81  JMP $8156
A82A  A9 08     LDA #$08
A82C  24 28     BIT $28
A82E  F0 05     BEQ $A835
A830  20 78 AA  JSR $AA78
A833  A9 08     LDA #$08
A835  05 28     ORA $28
A837  85 28     STA $28
A839  A0 09     LDY #$09
A83B  B1 57     LDA ($57),Y
A83D  85 AE     STA $AE
A83F  A0 00     LDY #$00
A841  84 99     STY $99
A843  84 9F     STY $9F
A845  E6 99     INC $99
A847  24 28     BIT $28
A849  50 54     BVC $A89F
A84B  A5 28     LDA $28
A84D  29 BF     AND #$BF
A84F  85 28     STA $28
A851  A0 06     LDY #$06
A853  B1 57     LDA ($57),Y
A855  A8        TAY
A856  BE 00 01  LDX $0100,Y
A859  86 6B     STX $6B
A85B  E8        INX
A85C  F0 41     BEQ $A89F
A85E  BE 01 01  LDX $0101,Y
A861  86 6C     STX $6C
A863  E8        INX
A864  F0 39     BEQ $A89F
A866  BE 02 01  LDX $0102,Y
A869  86 6D     STX $6D
A86B  BE 03 01  LDX $0103,Y
A86E  86 6E     STX $6E
A870  A9 00     LDA #$00
A872  85 6F     STA $6F
A874  85 70     STA $70
A876  85 72     STA $72
A878  A5 0F     LDA $0F
A87A  85 71     STA $71
A87C  A5 0B     LDA $0B
A87E  10 02     BPL $A882
A880  C6 6F     DEC $6F
A882  20 13 A9  JSR $A913
A885  B0 18     BCS $A89F
A887  A4 99     LDY $99
A889  A5 6B     LDA $6B
A88B  91 2A     STA ($2A),Y
A88D  C8        INY
A88E  A5 6C     LDA $6C
A890  91 2A     STA ($2A),Y
A892  C8        INY
A893  A5 6D     LDA $6D
A895  91 2A     STA ($2A),Y
A897  C8        INY
A898  A5 6E     LDA $6E
A89A  91 2A     STA ($2A),Y
A89C  C8        INY
A89D  84 99     STY $99
A89F  A0 03     LDY #$03
A8A1  18        CLC
A8A2  B1 57     LDA ($57),Y
A8A4  65 57     ADC $57
A8A6  85 5B     STA $5B
A8A8  A0 10     LDY #$10
A8AA  B1 57     LDA ($57),Y
A8AC  65 58     ADC $58
A8AE  85 5C     STA $5C
A8B0  A0 05     LDY #$05
A8B2  B1 57     LDA ($57),Y
A8B4  85 06     STA $06
A8B6  A4 9F     LDY $9F
A8B8  B1 5B     LDA ($5B),Y
A8BA  C5 AD     CMP $AD
A8BC  90 18     BCC $A8D6
A8BE  C8        INY
A8BF  B1 5B     LDA ($5B),Y
A8C1  C8        INY
A8C2  85 2E     STA $2E
A8C4  29 0F     AND #$0F
A8C6  AA        TAX
A8C7  B5 35     LDA $35,X
A8C9  D0 0E     BNE $A8D9
A8CB  A5 2E     LDA $2E
A8CD  4A        LSR A
A8CE  4A        LSR A
A8CF  4A        LSR A
A8D0  4A        LSR A
A8D1  AA        TAX
A8D2  B5 35     LDA $35,X
A8D4  D0 03     BNE $A8D9
A8D6  4C 5B AA  JMP $AA5B
A8D9  B1 5B     LDA ($5B),Y
A8DB  AA        TAX
A8DC  C8        INY
A8DD  B1 5B     LDA ($5B),Y
A8DF  85 9A     STA $9A
A8E1  BD 01 01  LDA $0101,X
A8E4  85 6C     STA $6C
A8E6  BD 00 01  LDA $0100,X
A8E9  85 6B     STA $6B
A8EB  BD 02 01  LDA $0102,X
A8EE  85 6D     STA $6D
A8F0  BD 03 01  LDA $0103,X
A8F3  85 6E     STA $6E
A8F5  A6 9A     LDX $9A
A8F7  BD 00 01  LDA $0100,X
A8FA  85 6F     STA $6F
A8FC  BD 03 01  LDA $0103,X
A8FF  85 72     STA $72
A901  BD 02 01  LDA $0102,X
A904  85 71     STA $71
A906  BD 01 01  LDA $0101,X
A909  85 70     STA $70
A90B  20 1A A9  JSR $A91A
A90E  B0 C6     BCS $A8D6
A910  4C 3F AA  JMP $AA3F

; ==== sub_A913 (2 callers) ====
A913  A9 00     LDA #$00
A915  8D F4 06  STA $06F4
A918  A5 70     LDA $70

; ==== sub_A91A (1 caller) ====
A91A  24 B7     BIT $B7
A91C  30 1E     BMI $A93C
A91E  A2 8F     LDX #$8F
A920  05 72     ORA $72
A922  D0 06     BNE $A92A
A924  E4 71     CPX $71
A926  90 02     BCC $A92A
A928  A2 00     LDX #$00
A92A  86 A2     STX $A2
A92C  A5 6C     LDA $6C
A92E  05 6E     ORA $6E
A930  D0 1C     BNE $A94E
A932  A9 8F     LDA #$8F
A934  C5 6D     CMP $6D
A936  90 16     BCC $A94E
A938  A5 A2     LDA $A2
A93A  D0 10     BNE $A94C
A93C  A5 6D     LDA $6D
A93E  85 6C     STA $6C
A940  A5 6F     LDA $6F
A942  85 6D     STA $6D
A944  A5 71     LDA $71
A946  85 6E     STA $6E
A948  18        CLC
A949  60        RTS
A94A  38        SEC
A94B  60        RTS
A94C  46 A2     LSR $A2
A94E  A5 A2     LDA $A2
A950  10 2F     BPL $A981
A952  A5 6C     LDA $6C
A954  25 70     AND $70
A956  30 F2     BMI $A94A
A958  A5 6E     LDA $6E
A95A  25 72     AND $72
A95C  30 EC     BMI $A94A
A95E  A6 6C     LDX $6C
A960  CA        DEX
A961  8A        TXA
A962  A6 70     LDX $70
A964  CA        DEX
A965  86 73     STX $73
A967  05 73     ORA $73
A969  10 DF     BPL $A94A
A96B  A5 6D     LDA $6D
A96D  C9 90     CMP #$90
A96F  A5 6E     LDA $6E
A971  E9 00     SBC #$00
A973  85 73     STA $73
A975  A5 71     LDA $71
A977  C9 90     CMP #$90
A979  A5 72     LDA $72
A97B  E9 00     SBC #$00
A97D  05 73     ORA $73
A97F  10 C9     BPL $A94A
A981  98        TYA
A982  48        PHA
A983  A5 6F     LDA $6F
A985  38        SEC
A986  E5 6B     SBC $6B
A988  85 73     STA $73
A98A  A5 70     LDA $70
A98C  E5 6C     SBC $6C
A98E  85 74     STA $74
A990  A5 71     LDA $71
A992  38        SEC
A993  E5 6D     SBC $6D
A995  85 75     STA $75
A997  A5 72     LDA $72
A999  E5 6E     SBC $6E
A99B  85 76     STA $76
A99D  45 74     EOR $74
A99F  85 9C     STA $9C
A9A1  A5 76     LDA $76
A9A3  10 0D     BPL $A9B2
A9A5  A9 00     LDA #$00
A9A7  38        SEC
A9A8  E5 75     SBC $75
A9AA  85 75     STA $75
A9AC  A9 00     LDA #$00
A9AE  E5 76     SBC $76
A9B0  85 76     STA $76
A9B2  A5 74     LDA $74
A9B4  10 0B     BPL $A9C1
A9B6  38        SEC
A9B7  A9 00     LDA #$00
A9B9  E5 73     SBC $73
A9BB  85 73     STA $73
A9BD  A9 00     LDA #$00
A9BF  E5 74     SBC $74
A9C1  AA        TAX
A9C2  D0 04     BNE $A9C8
A9C4  A6 76     LDX $76
A9C6  F0 0A     BEQ $A9D2
A9C8  4A        LSR A
A9C9  66 73     ROR $73
A9CB  46 76     LSR $76
A9CD  66 75     ROR $75
A9CF  4C C1 A9  JMP $A9C1
A9D2  86 BB     STX $BB
A9D4  A5 73     LDA $73
A9D6  C5 75     CMP $75
A9D8  90 0A     BCC $A9E4
A9DA  85 9A     STA $9A
A9DC  A5 75     LDA $75
A9DE  20 AF A2  JSR $A2AF
A9E1  4C EF A9  JMP $A9EF
A9E4  A5 75     LDA $75
A9E6  85 9A     STA $9A
A9E8  A5 73     LDA $73
A9EA  20 AF A2  JSR $A2AF
A9ED  C6 BB     DEC $BB
A9EF  A5 9B     LDA $9B
A9F1  85 73     STA $73
A9F3  A5 9C     LDA $9C
A9F5  85 74     STA $74
A9F7  A5 A2     LDA $A2
A9F9  F0 02     BEQ $A9FD
A9FB  10 13     BPL $AA10
A9FD  20 9F AA  JSR $AA9F
AA00  A5 A2     LDA $A2
AA02  10 32     BPL $AA36
AA04  A5 6C     LDA $6C
AA06  05 6E     ORA $6E
AA08  D0 31     BNE $AA3B
AA0A  A5 6D     LDA $6D
AA0C  C9 90     CMP #$90
AA0E  B0 2B     BCS $AA3B
AA10  A6 6B     LDX $6B
AA12  A5 6F     LDA $6F
AA14  85 6B     STA $6B
AA16  86 6F     STX $6F
AA18  A5 70     LDA $70
AA1A  A6 6C     LDX $6C
AA1C  86 70     STX $70
AA1E  85 6C     STA $6C
AA20  A6 6D     LDX $6D
AA22  A5 71     LDA $71
AA24  85 6D     STA $6D
AA26  86 71     STX $71
AA28  A5 72     LDA $72
AA2A  A6 6E     LDX $6E
AA2C  86 72     STX $72
AA2E  85 6E     STA $6E
AA30  20 9F AA  JSR $AA9F
AA33  CE F4 06  DEC $06F4
AA36  68        PLA
AA37  A8        TAY
AA38  4C 3C A9  JMP $A93C
AA3B  68        PLA
AA3C  A8        TAY
AA3D  38        SEC
AA3E  60        RTS
AA3F  A4 99     LDY $99
AA41  A5 6B     LDA $6B
AA43  91 2A     STA ($2A),Y
AA45  C8        INY
AA46  A5 6C     LDA $6C
AA48  91 2A     STA ($2A),Y
AA4A  C8        INY
AA4B  A5 6D     LDA $6D
AA4D  91 2A     STA ($2A),Y
AA4F  C8        INY
AA50  A5 6E     LDA $6E
AA52  91 2A     STA ($2A),Y
AA54  C8        INY
AA55  84 99     STY $99
AA57  C4 06     CPY $06
AA59  B0 17     BCS $AA72
AA5B  E6 9F     INC $9F
AA5D  A4 9F     LDY $9F
AA5F  C4 AE     CPY $AE
AA61  B0 0F     BCS $AA72
AA63  A0 00     LDY #$00
AA65  A5 5B     LDA $5B
AA67  69 04     ADC #$04
AA69  85 5B     STA $5B
AA6B  90 02     BCC $AA6F
AA6D  E6 5C     INC $5C
AA6F  4C B8 A8  JMP $A8B8

; --- draw_linelist  $AA72 — draw a list of 4-byte (x1,y1,x2,y2) line records via pointer $2A ---
AA72  A5 99     LDA $99
AA74  A0 00     LDY #$00
AA76  91 2A     STA ($2A),Y

; ==== sub_AA78 (1 caller) ====
AA78  A0 00     LDY #$00
AA7A  B1 2A     LDA ($2A),Y
AA7C  85 AE     STA $AE
AA7E  C9 04     CMP #$04
AA80  90 1C     BCC $AA9E
AA82  C8        INY
AA83  B1 2A     LDA ($2A),Y
AA85  85 6B     STA $6B
AA87  C8        INY
AA88  B1 2A     LDA ($2A),Y
AA8A  85 6C     STA $6C
AA8C  C8        INY
AA8D  B1 2A     LDA ($2A),Y
AA8F  85 6D     STA $6D
AA91  C8        INY
AA92  B1 2A     LDA ($2A),Y
AA94  85 6E     STA $6E
AA96  20 9D B4  JSR $B49D
AA99  C8        INY
AA9A  C4 AE     CPY $AE
AA9C  90 E5     BCC $AA83
AA9E  60        RTS

; ==== sub_AA9F (2 callers) ====
AA9F  A5 6C     LDA $6C
AAA1  10 17     BPL $AABA
AAA3  85 9C     STA $9C
AAA5  20 19 AB  JSR $AB19
AAA8  8A        TXA
AAA9  18        CLC
AAAA  65 6D     ADC $6D
AAAC  85 6D     STA $6D
AAAE  98        TYA
AAAF  65 6E     ADC $6E
AAB1  85 6E     STA $6E
AAB3  A9 00     LDA #$00
AAB5  85 6B     STA $6B
AAB7  85 6C     STA $6C
AAB9  AA        TAX
AABA  F0 19     BEQ $AAD5
AABC  85 9C     STA $9C
AABE  C6 9C     DEC $9C
AAC0  20 19 AB  JSR $AB19
AAC3  8A        TXA
AAC4  18        CLC
AAC5  65 6D     ADC $6D
AAC7  85 6D     STA $6D
AAC9  98        TYA
AACA  65 6E     ADC $6E
AACC  85 6E     STA $6E
AACE  A2 FF     LDX #$FF
AAD0  86 6B     STX $6B
AAD2  E8        INX
AAD3  86 6C     STX $6C
AAD5  A5 6E     LDA $6E
AAD7  10 1A     BPL $AAF3
AAD9  85 9C     STA $9C
AADB  A5 6D     LDA $6D
AADD  85 9B     STA $9B
AADF  20 48 AB  JSR $AB48
AAE2  8A        TXA
AAE3  18        CLC
AAE4  65 6B     ADC $6B
AAE6  85 6B     STA $6B
AAE8  98        TYA
AAE9  65 6C     ADC $6C
AAEB  85 6C     STA $6C
AAED  A9 00     LDA #$00
AAEF  85 6D     STA $6D
AAF1  85 6E     STA $6E
AAF3  A5 6D     LDA $6D
AAF5  38        SEC
AAF6  E9 90     SBC #$90
AAF8  85 9B     STA $9B
AAFA  A5 6E     LDA $6E
AAFC  E9 00     SBC #$00
AAFE  85 9C     STA $9C
AB00  90 16     BCC $AB18
AB02  20 48 AB  JSR $AB48
AB05  8A        TXA
AB06  18        CLC
AB07  65 6B     ADC $6B
AB09  85 6B     STA $6B
AB0B  98        TYA
AB0C  65 6C     ADC $6C
AB0E  85 6C     STA $6C
AB10  A9 8F     LDA #$8F
AB12  85 6D     STA $6D
AB14  A9 00     LDA #$00
AB16  85 6E     STA $6E
AB18  60        RTS

; ==== sub_AB19 (2 callers) ====
AB19  A5 6B     LDA $6B
AB1B  85 9B     STA $9B
AB1D  20 84 AB  JSR $AB84
AB20  48        PHA
AB21  A6 BB     LDX $BB
AB23  D0 2B     BNE $AB50
AB25  A9 00     LDA #$00
AB27  AA        TAX
AB28  A8        TAY
AB29  46 9C     LSR $9C
AB2B  66 9B     ROR $9B
AB2D  06 9A     ASL $9A
AB2F  90 09     BCC $AB3A
AB31  8A        TXA
AB32  18        CLC
AB33  65 9B     ADC $9B
AB35  AA        TAX
AB36  98        TYA
AB37  65 9C     ADC $9C
AB39  A8        TAY
AB3A  46 9C     LSR $9C
AB3C  66 9B     ROR $9B
AB3E  06 9A     ASL $9A
AB40  B0 EF     BCS $AB31
AB42  D0 F6     BNE $AB3A
AB44  68        PLA
AB45  10 30     BPL $AB77
AB47  60        RTS

; ==== sub_AB48 (2 callers) ====
AB48  20 84 AB  JSR $AB84
AB4B  48        PHA
AB4C  A6 BB     LDX $BB
AB4E  D0 D5     BNE $AB25
AB50  A9 FF     LDA #$FF
AB52  A8        TAY
AB53  0A        ASL A
AB54  AA        TAX
AB55  06 9B     ASL $9B
AB57  26 9C     ROL $9C
AB59  A5 9C     LDA $9C
AB5B  B0 04     BCS $AB61
AB5D  C5 9A     CMP $9A
AB5F  90 0B     BCC $AB6C
AB61  E5 9A     SBC $9A
AB63  85 9C     STA $9C
AB65  A5 9B     LDA $9B
AB67  E9 00     SBC #$00
AB69  85 9B     STA $9B
AB6B  38        SEC
AB6C  8A        TXA
AB6D  2A        ROL A
AB6E  AA        TAX
AB6F  98        TYA
AB70  2A        ROL A
AB71  A8        TAY
AB72  B0 E1     BCS $AB55
AB74  68        PLA
AB75  30 0C     BMI $AB83
AB77  8A        TXA
AB78  49 FF     EOR #$FF
AB7A  69 01     ADC #$01
AB7C  AA        TAX
AB7D  98        TYA
AB7E  49 FF     EOR #$FF
AB80  69 00     ADC #$00
AB82  A8        TAY
AB83  60        RTS

; ==== sub_AB84 (2 callers) ====
AB84  A6 73     LDX $73
AB86  86 9A     STX $9A
AB88  A5 9C     LDA $9C
AB8A  10 11     BPL $AB9D
AB8C  A9 00     LDA #$00
AB8E  38        SEC
AB8F  E5 9B     SBC $9B
AB91  85 9B     STA $9B
AB93  A5 9C     LDA $9C
AB95  48        PHA
AB96  49 FF     EOR #$FF
AB98  69 00     ADC #$00
AB9A  85 9C     STA $9C
AB9C  68        PLA
AB9D  45 74     EOR $74
AB9F  60        RTS

; ==== ship_move_draw  $ABA0  (5 callers) — move/rotate a ship by its orientation, apply level-of-detail and visibility, then draw it ====
ABA0  A5 28     LDA $28
ABA2  29 A0     AND #$A0
ABA4  D0 25     BNE $ABCB
ABA6  A5 A3     LDA $A3
ABA8  45 9D     EOR $9D
ABAA  29 0F     AND #$0F
ABAC  D0 03     BNE $ABB1
ABAE  20 FD 99  JSR $99FD
ABB1  A6 A5     LDX $A5
ABB3  10 03     BPL $ABB8
ABB5  4C 3D AE  JMP $AE3D
ABB8  A5 29     LDA $29
ABBA  10 0F     BPL $ABCB
ABBC  E0 01     CPX #$01
ABBE  F0 08     BEQ $ABC8
ABC0  A5 A3     LDA $A3
ABC2  45 9D     EOR $9D
ABC4  29 07     AND #$07
ABC6  D0 03     BNE $ABCB
ABC8  20 AA 32  JSR $32AA
ABCB  20 1C BD  JSR $BD1C
ABCE  A5 24     LDA $24
ABD0  0A        ASL A
ABD1  0A        ASL A
ABD2  85 9A     STA $9A
ABD4  A5 13     LDA $13
ABD6  29 7F     AND #$7F
ABD8  20 E7 39  JSR $39E7
ABDB  85 9B     STA $9B
ABDD  A5 13     LDA $13
ABDF  A2 00     LDX #$00
ABE1  20 4A AD  JSR $AD4A
ABE4  A5 15     LDA $15
ABE6  29 7F     AND #$7F
ABE8  20 E7 39  JSR $39E7
ABEB  85 9B     STA $9B
ABED  A5 15     LDA $15
ABEF  A2 03     LDX #$03
ABF1  20 4A AD  JSR $AD4A
ABF4  A5 17     LDA $17
ABF6  29 7F     AND #$7F
ABF8  20 E7 39  JSR $39E7
ABFB  85 9B     STA $9B
ABFD  A5 17     LDA $17
ABFF  A2 06     LDX #$06
AC01  20 4A AD  JSR $AD4A
AC04  A5 24     LDA $24
AC06  18        CLC
AC07  65 25     ADC $25
AC09  10 02     BPL $AC0D
AC0B  A9 00     LDA #$00
AC0D  A0 0F     LDY #$0F
AC0F  D1 57     CMP ($57),Y
AC11  90 02     BCC $AC15
AC13  B1 57     LDA ($57),Y
AC15  85 24     STA $24
AC17  A9 00     LDA #$00
AC19  85 25     STA $25
AC1B  A6 68     LDX $68
AC1D  A5 09     LDA $09
AC1F  49 FF     EOR #$FF
AC21  85 2E     STA $2E
AC23  A5 0A     LDA $0A
AC25  20 22 3A  JSR $3A22
AC28  85 30     STA $30
AC2A  A5 6A     LDA $6A
AC2C  45 0B     EOR $0B
AC2E  A2 03     LDX #$03
AC30  20 08 AE  JSR $AE08
AC33  85 B5     STA $B5
AC35  A5 2F     LDA $2F
AC37  85 B3     STA $B3
AC39  49 FF     EOR #$FF
AC3B  85 2E     STA $2E
AC3D  A5 30     LDA $30
AC3F  85 B4     STA $B4
AC41  A6 64     LDX $64
AC43  20 22 3A  JSR $3A22
AC46  85 30     STA $30
AC48  A5 B5     LDA $B5
AC4A  45 94     EOR $94
AC4C  A2 06     LDX #$06
AC4E  20 08 AE  JSR $AE08
AC51  85 11     STA $11
AC53  A5 2F     LDA $2F
AC55  85 0F     STA $0F
AC57  49 FF     EOR #$FF
AC59  85 2E     STA $2E
AC5B  A5 30     LDA $30
AC5D  85 10     STA $10
AC5F  20 24 3A  JSR $3A24
AC62  85 30     STA $30
AC64  A5 B5     LDA $B5
AC66  85 0E     STA $0E
AC68  45 94     EOR $94
AC6A  45 11     EOR $11
AC6C  10 0F     BPL $AC7D
AC6E  A5 2F     LDA $2F
AC70  65 B3     ADC $B3
AC72  85 0C     STA $0C
AC74  A5 30     LDA $30
AC76  65 B4     ADC $B4
AC78  85 0D     STA $0D
AC7A  4C 9D AC  JMP $AC9D
AC7D  A5 B3     LDA $B3
AC7F  E5 2F     SBC $2F
AC81  85 0C     STA $0C
AC83  A5 B4     LDA $B4
AC85  E5 30     SBC $30
AC87  85 0D     STA $0D
AC89  B0 12     BCS $AC9D
AC8B  A9 01     LDA #$01
AC8D  E5 0C     SBC $0C
AC8F  85 0C     STA $0C
AC91  A9 00     LDA #$00
AC93  E5 0D     SBC $0D
AC95  85 0D     STA $0D
AC97  A5 0E     LDA $0E
AC99  49 80     EOR #$80
AC9B  85 0E     STA $0E
AC9D  A6 68     LDX $68
AC9F  A5 0C     LDA $0C
ACA1  49 FF     EOR #$FF
ACA3  85 2E     STA $2E
ACA5  A5 0D     LDA $0D
ACA7  20 22 3A  JSR $3A22
ACAA  85 30     STA $30
ACAC  A5 69     LDA $69
ACAE  45 0E     EOR $0E
ACB0  A2 00     LDX #$00
ACB2  20 08 AE  JSR $AE08
ACB5  85 0B     STA $0B
ACB7  A5 30     LDA $30
ACB9  85 0A     STA $0A
ACBB  A5 2F     LDA $2F
ACBD  85 09     STA $09
ACBF  A5 96     LDA $96
ACC1  85 9B     STA $9B
ACC3  A9 80     LDA #$80
ACC5  A2 06     LDX #$06
ACC7  20 4C AD  JSR $AD4C
ACCA  A5 A5     LDA $A5
ACCC  29 81     AND #$81
ACCE  C9 81     CMP #$81
ACD0  D0 01     BNE $ACD3
ACD2  60        RTS
ACD3  A0 09     LDY #$09
ACD5  20 A1 AD  JSR $ADA1
ACD8  A0 0F     LDY #$0F
ACDA  20 A1 AD  JSR $ADA1
ACDD  A0 15     LDY #$15
ACDF  20 A1 AD  JSR $ADA1
ACE2  A5 27     LDA $27
ACE4  29 80     AND #$80
ACE6  85 B1     STA $B1
ACE8  A5 27     LDA $27
ACEA  29 7F     AND #$7F
ACEC  F0 1D     BEQ $AD0B
ACEE  C9 7F     CMP #$7F
ACF0  E9 00     SBC #$00
ACF2  05 B1     ORA $B1
ACF4  85 27     STA $27
ACF6  A2 0F     LDX #$0F
ACF8  A0 09     LDY #$09
ACFA  20 C2 2D  JSR $2DC2
ACFD  A2 11     LDX #$11
ACFF  A0 0B     LDY #$0B
AD01  20 C2 2D  JSR $2DC2
AD04  A2 13     LDX #$13
AD06  A0 0D     LDY #$0D
AD08  20 C2 2D  JSR $2DC2
AD0B  A5 26     LDA $26
AD0D  29 80     AND #$80
AD0F  85 B1     STA $B1
AD11  A5 26     LDA $26
AD13  29 7F     AND #$7F
AD15  F0 1D     BEQ $AD34
AD17  C9 7F     CMP #$7F
AD19  E9 00     SBC #$00
AD1B  05 B1     ORA $B1
AD1D  85 26     STA $26
AD1F  A2 0F     LDX #$0F
AD21  A0 15     LDY #$15
AD23  20 C2 2D  JSR $2DC2
AD26  A2 11     LDX #$11
AD28  A0 17     LDY #$17
AD2A  20 C2 2D  JSR $2DC2
AD2D  A2 13     LDX #$13
AD2F  A0 19     LDY #$19
AD31  20 C2 2D  JSR $2DC2
AD34  A5 28     LDA $28
AD36  29 A0     AND #$A0
AD38  D0 09     BNE $AD43
AD3A  A5 28     LDA $28
AD3C  09 10     ORA #$10
AD3E  85 28     STA $28
AD40  4C 1C BD  JMP $BD1C
AD43  A5 28     LDA $28
AD45  29 EF     AND #$EF
AD47  85 28     STA $28
AD49  60        RTS

; ==== sub_AD4A (3 callers) ====
AD4A  29 80     AND #$80

; ==== sub_AD4C (1 caller) ====
AD4C  0A        ASL A
AD4D  85 9C     STA $9C
AD4F  A9 00     LDA #$00
AD51  6A        ROR A
AD52  85 BB     STA $BB
AD54  46 9C     LSR $9C
AD56  55 0B     EOR $0B,X
AD58  30 15     BMI $AD6F
AD5A  A5 9B     LDA $9B
AD5C  75 09     ADC $09,X
AD5E  95 09     STA $09,X
AD60  A5 9C     LDA $9C
AD62  75 0A     ADC $0A,X
AD64  95 0A     STA $0A,X
AD66  B5 0B     LDA $0B,X
AD68  69 00     ADC #$00
AD6A  05 BB     ORA $BB
AD6C  95 0B     STA $0B,X
AD6E  60        RTS
AD6F  B5 09     LDA $09,X
AD71  38        SEC
AD72  E5 9B     SBC $9B
AD74  95 09     STA $09,X
AD76  B5 0A     LDA $0A,X
AD78  E5 9C     SBC $9C
AD7A  95 0A     STA $0A,X
AD7C  B5 0B     LDA $0B,X
AD7E  29 7F     AND #$7F
AD80  E9 00     SBC #$00
AD82  09 80     ORA #$80
AD84  45 BB     EOR $BB
AD86  95 0B     STA $0B,X
AD88  B0 16     BCS $ADA0
AD8A  A9 01     LDA #$01
AD8C  F5 09     SBC $09,X
AD8E  95 09     STA $09,X
AD90  A9 00     LDA #$00
AD92  F5 0A     SBC $0A,X
AD94  95 0A     STA $0A,X
AD96  A9 00     LDA #$00
AD98  F5 0B     SBC $0B,X
AD9A  29 7F     AND #$7F
AD9C  05 BB     ORA $BB
AD9E  95 0B     STA $0B,X
ADA0  60        RTS

; ==== sub_ADA1 (3 callers) ====
ADA1  A5 A6     LDA $A6
ADA3  85 9A     STA $9A
ADA5  B6 0B     LDX $0B,Y
ADA7  86 9B     STX $9B
ADA9  B6 0C     LDX $0C,Y
ADAB  86 9C     STX $9C
ADAD  B6 09     LDX $09,Y
ADAF  86 2E     STX $2E
ADB1  B9 0A 00  LDA $000A,Y
ADB4  49 80     EOR #$80
ADB6  20 CB 3A  JSR $3ACB
ADB9  99 0C 00  STA $000C,Y
ADBC  96 0B     STX $0B,Y
ADBE  86 2E     STX $2E
ADC0  B6 09     LDX $09,Y
ADC2  86 9B     STX $9B
ADC4  B6 0A     LDX $0A,Y
ADC6  86 9C     STX $9C
ADC8  B9 0C 00  LDA $000C,Y
ADCB  20 CB 3A  JSR $3ACB
ADCE  99 0A 00  STA $000A,Y
ADD1  96 09     STX $09,Y
ADD3  86 2E     STX $2E
ADD5  A5 63     LDA $63
ADD7  85 9A     STA $9A
ADD9  B6 0B     LDX $0B,Y
ADDB  86 9B     STX $9B
ADDD  B6 0C     LDX $0C,Y
ADDF  86 9C     STX $9C
ADE1  B6 0D     LDX $0D,Y
ADE3  86 2E     STX $2E
ADE5  B9 0E 00  LDA $000E,Y
ADE8  49 80     EOR #$80
ADEA  20 CB 3A  JSR $3ACB
ADED  99 0C 00  STA $000C,Y
ADF0  96 0B     STX $0B,Y
ADF2  86 2E     STX $2E
ADF4  B6 0D     LDX $0D,Y
ADF6  86 9B     STX $9B
ADF8  B6 0E     LDX $0E,Y
ADFA  86 9C     STX $9C
ADFC  B9 0C 00  LDA $000C,Y
ADFF  20 CB 3A  JSR $3ACB
AE02  99 0E 00  STA $000E,Y
AE05  96 0D     STX $0D,Y
AE07  60        RTS

; ==== sub_AE08 (3 callers) ====
AE08  A8        TAY
AE09  55 0B     EOR $0B,X
AE0B  30 0F     BMI $AE1C
AE0D  A5 2F     LDA $2F
AE0F  18        CLC
AE10  75 09     ADC $09,X
AE12  85 2F     STA $2F
AE14  A5 30     LDA $30
AE16  75 0A     ADC $0A,X
AE18  85 30     STA $30
AE1A  98        TYA
AE1B  60        RTS
AE1C  B5 09     LDA $09,X
AE1E  38        SEC
AE1F  E5 2F     SBC $2F
AE21  85 2F     STA $2F
AE23  B5 0A     LDA $0A,X
AE25  E5 30     SBC $30
AE27  85 30     STA $30
AE29  90 04     BCC $AE2F
AE2B  98        TYA
AE2C  49 80     EOR #$80
AE2E  60        RTS
AE2F  A9 01     LDA #$01
AE31  E5 2F     SBC $2F
AE33  85 2F     STA $2F
AE35  A9 00     LDA #$00
AE37  E5 30     SBC $30
AE39  85 30     STA $30
AE3B  98        TYA
AE3C  60        RTS
AE3D  A5 A6     LDA $A6
AE3F  49 80     EOR #$80
AE41  85 9A     STA $9A
AE43  A5 09     LDA $09
AE45  85 2E     STA $2E
AE47  A5 0A     LDA $0A
AE49  85 2F     STA $2F
AE4B  A5 0B     LDA $0B
AE4D  20 F5 38  JSR $38F5
AE50  A2 03     LDX #$03
AE52  20 66 2D  JSR $2D66
AE55  A5 78     LDA $78
AE57  85 B3     STA $B3
AE59  85 2E     STA $2E
AE5B  A5 79     LDA $79
AE5D  85 B4     STA $B4
AE5F  85 2F     STA $2F
AE61  A5 63     LDA $63
AE63  85 9A     STA $9A
AE65  A5 7A     LDA $7A
AE67  85 B5     STA $B5
AE69  20 F5 38  JSR $38F5
AE6C  A2 06     LDX #$06
AE6E  20 66 2D  JSR $2D66
AE71  A5 78     LDA $78
AE73  85 2E     STA $2E
AE75  85 0F     STA $0F
AE77  A5 79     LDA $79
AE79  85 2F     STA $2F
AE7B  85 10     STA $10
AE7D  A5 7A     LDA $7A
AE7F  85 11     STA $11
AE81  49 80     EOR #$80
AE83  20 F5 38  JSR $38F5
AE86  A5 7A     LDA $7A
AE88  29 80     AND #$80
AE8A  85 BB     STA $BB
AE8C  45 B5     EOR $B5
AE8E  30 18     BMI $AEA8
AE90  A5 77     LDA $77
AE92  18        CLC
AE93  65 B2     ADC $B2
AE95  A5 78     LDA $78
AE97  65 B3     ADC $B3
AE99  85 0C     STA $0C
AE9B  A5 79     LDA $79
AE9D  65 B4     ADC $B4
AE9F  85 0D     STA $0D
AEA1  A5 7A     LDA $7A
AEA3  65 B5     ADC $B5
AEA5  4C DB AE  JMP $AEDB
AEA8  A5 77     LDA $77
AEAA  38        SEC
AEAB  E5 B2     SBC $B2
AEAD  A5 78     LDA $78
AEAF  E5 B3     SBC $B3
AEB1  85 0C     STA $0C
AEB3  A5 79     LDA $79
AEB5  E5 B4     SBC $B4
AEB7  85 0D     STA $0D
AEB9  A5 B5     LDA $B5
AEBB  29 7F     AND #$7F
AEBD  85 2E     STA $2E
AEBF  A5 7A     LDA $7A
AEC1  29 7F     AND #$7F
AEC3  E5 2E     SBC $2E
AEC5  85 2E     STA $2E
AEC7  B0 12     BCS $AEDB
AEC9  A9 01     LDA #$01
AECB  E5 0C     SBC $0C
AECD  85 0C     STA $0C
AECF  A9 00     LDA #$00
AED1  E5 0D     SBC $0D
AED3  85 0D     STA $0D
AED5  A9 00     LDA #$00
AED7  E5 2E     SBC $2E
AED9  09 80     ORA #$80
AEDB  45 BB     EOR $BB
AEDD  85 0E     STA $0E
AEDF  A5 A6     LDA $A6
AEE1  85 9A     STA $9A
AEE3  A5 0C     LDA $0C
AEE5  85 2E     STA $2E
AEE7  A5 0D     LDA $0D
AEE9  85 2F     STA $2F
AEEB  A5 0E     LDA $0E
AEED  20 F5 38  JSR $38F5
AEF0  A2 00     LDX #$00
AEF2  20 66 2D  JSR $2D66
AEF5  A5 78     LDA $78
AEF7  85 09     STA $09
AEF9  A5 79     LDA $79
AEFB  85 0A     STA $0A
AEFD  A5 7A     LDA $7A
AEFF  85 0B     STA $0B
AF01  4C BF AC  JMP $ACBF
AF04  .byte 38 A0 00 84 5B A2 10 B1 07 8A 86 5C 84 BB 71 5B ; 8...[......\..q[
AF14  .byte 45 BB E5 5C 88 D0 F3 E8 E0 A0 90 EE CD 1E 1D D0 ; E..\............
AF24  .byte DF 60                                           ; .`

; ==== sub_AF26 (1 caller) ====
AF26  AE 86 04  LDX $0486
AF29  F0 33     BEQ $AF5E
AF2B  CA        DEX
AF2C  D0 31     BNE $AF5F
AF2E  A5 0B     LDA $0B
AF30  49 80     EOR #$80
AF32  85 0B     STA $0B
AF34  A5 11     LDA $11
AF36  49 80     EOR #$80
AF38  85 11     STA $11
AF3A  A5 13     LDA $13
AF3C  49 80     EOR #$80
AF3E  85 13     STA $13
AF40  A5 17     LDA $17
AF42  49 80     EOR #$80
AF44  85 17     STA $17
AF46  A5 19     LDA $19
AF48  49 80     EOR #$80
AF4A  85 19     STA $19
AF4C  A5 1D     LDA $1D
AF4E  49 80     EOR #$80
AF50  85 1D     STA $1D
AF52  A5 1F     LDA $1F
AF54  49 80     EOR #$80
AF56  85 1F     STA $1F
AF58  A5 23     LDA $23
AF5A  49 80     EOR #$80
AF5C  85 23     STA $23
AF5E  60        RTS
AF5F  A9 00     LDA #$00
AF61  E0 02     CPX #$02
AF63  6A        ROR A
AF64  85 B1     STA $B1
AF66  49 80     EOR #$80
AF68  85 B0     STA $B0
AF6A  A5 09     LDA $09
AF6C  A6 0F     LDX $0F
AF6E  85 0F     STA $0F
AF70  86 09     STX $09
AF72  A5 0A     LDA $0A
AF74  A6 10     LDX $10
AF76  85 10     STA $10
AF78  86 0A     STX $0A
AF7A  A5 0B     LDA $0B
AF7C  45 B0     EOR $B0
AF7E  AA        TAX
AF7F  A5 11     LDA $11
AF81  45 B1     EOR $B1
AF83  85 0B     STA $0B
AF85  86 11     STX $11
AF87  A0 09     LDY #$09
AF89  20 93 AF  JSR $AF93
AF8C  A0 0F     LDY #$0F
AF8E  20 93 AF  JSR $AF93
AF91  A0 15     LDY #$15

; ==== sub_AF93 (2 callers) ====
AF93  B9 09 00  LDA $0009,Y
AF96  B6 0D     LDX $0D,Y
AF98  99 0D 00  STA $000D,Y
AF9B  96 09     STX $09,Y
AF9D  B9 0A 00  LDA $000A,Y
AFA0  45 B0     EOR $B0
AFA2  AA        TAX
AFA3  B9 0E 00  LDA $000E,Y
AFA6  45 B1     EOR $B1
AFA8  99 0A 00  STA $000A,Y
AFAB  96 0E     STX $0E,Y
AFAD  60        RTS
AFAE  8E 86 04  STX $0486
AFB1  20 2F B0  JSR $B02F
AFB4  20 D4 AF  JSR $AFD4
AFB7  4C E3 83  JMP $83E3

; ==== sub_AFBA (1 caller) ====
AFBA  A9 00     LDA #$00
AFBC  20 2E 73  JSR $732E
AFBF  A4 A0     LDY $A0
AFC1  D0 EB     BNE $AFAE
AFC3  EC 86 04  CPX $0486
AFC6  F0 E5     BEQ $AFAD
AFC8  8E 86 04  STX $0486
AFCB  20 2F B0  JSR $B02F
AFCE  20 0F 2A  JSR $2A0F
AFD1  20 0A 84  JSR $840A

; ==== sub_AFD4 (1 caller) ====
AFD4  A9 05     LDA #$05
AFD6  20 8B 8B  JSR $8B8B
AFD9  AC 86 04  LDY $0486
AFDC  B9 A9 04  LDA $04A9,Y
AFDF  F0 1F     BEQ $B000
AFE1  A0 C4     LDY #$C4
AFE3  C9 0F     CMP #$0F
AFE5  F0 0B     BEQ $AFF2
AFE7  C8        INY
AFE8  C9 8F     CMP #$8F
AFEA  F0 06     BEQ $AFF2
AFEC  C8        INY
AFED  C9 97     CMP #$97
AFEF  F0 01     BEQ $AFF2
AFF1  C8        INY
AFF2  8C F8 63  STY $63F8
AFF5  8C F8 67  STY $67F8
AFF8  B9 E1 3D  LDA $3DE1,Y
AFFB  8D 27 D0  STA $D027
AFFE  A9 01     LDA #$01
B000  85 BB     STA $BB
B002  AD CA 04  LDA $04CA
B005  29 7F     AND #$7F
B007  4A        LSR A
B008  4A        LSR A
B009  4A        LSR A
B00A  4A        LSR A
B00B  AA        TAX
B00C  BD 1F B0  LDA $B01F,X
B00F  8D 10 05  STA $0510
B012  BD 27 B0  LDA $B027,X
B015  05 BB     ORA $BB
B017  8D 15 D0  STA $D015
B01A  A9 04     LDA #$04
B01C  4C 8B 8B  JMP $8B8B
B01F  .byte 00 01 02 03 04 05 06 06 00 04 0C 1C 3C 7C FC FC ; ............<|..

; ==== sub_B02F (12 callers) ====
B02F  85 A0     STA $A0

; ==== sub_B031 (1 caller) ====
B031  20 6A 24  JSR $246A
B034  A9 00     LDA #$00
B036  85 7E     STA $7E
B038  A9 80     LDA #$80
B03A  85 34     STA $34
B03C  8D 16 2F  STA $2F16
B03F  20 3F 84  JSR $843F
B042  A9 00     LDA #$00
B044  8D 84 04  STA $0484
B047  8D 8B 04  STA $048B
B04A  8D 8C 04  STA $048C
B04D  A9 01     LDA #$01
B04F  85 31     STA $31
B051  85 33     STA $33
B053  20 26 BB  JSR $BB26
B056  A6 66     LDX $66
B058  F0 03     BEQ $B05D
B05A  20 24 7B  JSR $7B24
B05D  A9 01     LDA #$01
B05F  20 28 73  JSR $7328
B062  A5 A0     LDA $A0
B064  D0 15     BNE $B07B
B066  A9 0B     LDA #$0B
B068  20 25 73  JSR $7325
B06B  AD 86 04  LDA $0486
B06E  09 60     ORA #$60
B070  20 7E 80  JSR $807E
B073  20 C5 7B  JSR $7BC5
B076  A9 AF     LDA #$AF
B078  20 7E 80  JSR $807E
B07B  A2 01     LDX #$01
B07D  86 31     STX $31
B07F  86 33     STX $33
B081  CA        DEX
B082  86 34     STX $34
B084  60        RTS
B085  60        RTS

; ==== sub_B086 (2 callers) ====
B086  A9 00     LDA #$00
B088  85 67     STA $67
B08A  8D 81 04  STA $0481
B08D  20 09 BA  JSR $BA09
B090  A0 09     LDY #$09
B092  4C 22 B1  JMP $B122
B095  A2 01     LDX #$01
B097  20 05 37  JSR $3705
B09A  90 E9     BCC $B085
B09C  A9 78     LDA #$78
B09E  20 05 99  JSR $9905
B0A1  A0 04     LDY #$04
B0A3  4C 58 B1  JMP $B158

; ==== sub_B0A6 (3 callers) ====
B0A6  AD CB 04  LDA $04CB
B0A9  18        CLC
B0AA  7D 62 D0  ADC $D062,X
B0AD  8D CB 04  STA $04CB
B0B0  AD E0 04  LDA $04E0
B0B3  7D 83 D0  ADC $D083,X
B0B6  8D E0 04  STA $04E0
B0B9  90 08     BCC $B0C3
B0BB  EE E1 04  INC $04E1
B0BE  A9 65     LDA #$65
B0C0  20 05 99  JSR $9905
B0C3  A5 10     LDA $10
B0C5  A2 0B     LDX #$0B
B0C7  C9 10     CMP #$10
B0C9  B0 10     BCS $B0DB
B0CB  E8        INX
B0CC  C9 08     CMP #$08
B0CE  B0 0B     BCS $B0DB
B0D0  E8        INX
B0D1  C9 06     CMP #$06
B0D3  B0 06     BCS $B0DB
B0D5  E8        INX
B0D6  C9 03     CMP #$03
B0D8  B0 01     BCS $B0DB
B0DA  E8        INX
B0DB  8A        TXA
B0DC  0A        ASL A
B0DD  0A        ASL A
B0DE  0A        ASL A
B0DF  0A        ASL A
B0E0  09 03     ORA #$03
B0E2  A0 03     LDY #$03
B0E4  A2 51     LDX #$51
B0E6  4C 50 B1  JMP $B150

; ==== sub_B0E9 (1 caller) ====
B0E9  A5 10     LDA $10
B0EB  A2 0B     LDX #$0B
B0ED  C9 08     CMP #$08
B0EF  B0 10     BCS $B101
B0F1  E8        INX
B0F2  C9 04     CMP #$04
B0F4  B0 0B     BCS $B101
B0F6  E8        INX
B0F7  C9 03     CMP #$03
B0F9  B0 06     BCS $B101
B0FB  E8        INX
B0FC  C9 02     CMP #$02
B0FE  B0 01     BCS $B101
B100  E8        INX
B101  8A        TXA
B102  0A        ASL A
B103  0A        ASL A
B104  0A        ASL A
B105  0A        ASL A
B106  09 03     ORA #$03
B108  A0 02     LDY #$02
B10A  A2 D0     LDX #$D0
B10C  4C 50 B1  JMP $B150

; ==== sub_B10F (3 callers) ====
B10F  A0 05     LDY #$05
B111  D0 45     BNE $B158

; ==== sub_B113 (5 callers) ====
B113  A0 03     LDY #$03
B115  D0 41     BNE $B158

; ==== sub_B117 (1 caller) ====
B117  A0 03     LDY #$03
B119  A9 01     LDA #$01
B11B  99 15 B3  STA $B315,Y
B11E  88        DEY
B11F  D0 FA     BNE $B11B
B121  60        RTS
B122  A2 03     LDX #$03
B124  C8        INY
B125  84 6D     STY $6D
B127  CA        DEX
B128  30 F7     BMI $B121
B12A  BD 13 B3  LDA $B313,X
B12D  29 3F     AND #$3F
B12F  C5 6D     CMP $6D
B131  D0 F4     BNE $B127
B133  A9 01     LDA #$01
B135  9D 16 B3  STA $B316,X
B138  60        RTS

; ==== sub_B139 (1 caller) ====
B139  A0 07     LDY #$07
B13B  A9 F5     LDA #$F5
B13D  A2 F0     LDX #$F0
B13F  20 50 B1  JSR $B150
B142  A0 04     LDY #$04
B144  20 58 B1  JSR $B158
B147  A0 01     LDY #$01
B149  20 9E 3E  JSR $3E9E
B14C  A0 87     LDY #$87
B14E  D0 08     BNE $B158

; ==== sub_B150 (2 callers) ====
B150  2C 21 B1  BIT $B121
B153  85 6B     STA $6B
B155  86 6C     STX $6C
B157  50 B8     BVC $B111
B159  AD 05 1D  LDA $1D05
B15C  D0 C3     BNE $B121
B15E  A2 02     LDX #$02
B160  C8        INY
B161  84 6D     STY $6D
B163  88        DEY
B164  B9 32 B3  LDA $B332,Y
B167  4A        LSR A
B168  B0 0C     BCS $B176
B16A  BD 13 B3  LDA $B313,X
B16D  29 3F     AND #$3F
B16F  C5 6D     CMP $6D
B171  F0 18     BEQ $B18B
B173  CA        DEX
B174  10 F4     BPL $B16A
B176  A2 00     LDX #$00
B178  AD 19 B3  LDA $B319
B17B  CD 1A B3  CMP $B31A
B17E  90 04     BCC $B184
B180  E8        INX
B181  AD 1A B3  LDA $B31A
B184  CD 1B B3  CMP $B31B
B187  90 02     BCC $B18B
B189  A2 02     LDX #$02
B18B  98        TYA
B18C  29 7F     AND #$7F
B18E  A8        TAY
B18F  B9 32 B3  LDA $B332,Y
B192  DD 19 B3  CMP $B319,X
B195  90 8A     BCC $B121
B197  78        SEI
B198  9D 19 B3  STA $B319,X
B19B  70 04     BVS $B1A1
B19D  B9 82 B3  LDA $B382,Y
B1A0  CD A5 6B  CMP $6BA5
B1A3  9D 29 B3  STA $B329,X
B1A6  B9 42 B3  LDA $B342,Y
B1A9  9D 16 B3  STA $B316,X
B1AC  B9 92 B3  LDA $B392,Y
B1AF  9D 1D B3  STA $B31D,X
B1B2  B9 62 B3  LDA $B362,Y
B1B5  9D 23 B3  STA $B323,X
B1B8  70 04     BVS $B1BE
B1BA  B9 52 B3  LDA $B352,Y
B1BD  CD A5 6C  CMP $6CA5
B1C0  9D 20 B3  STA $B320,X
B1C3  B9 72 B3  LDA $B372,Y
B1C6  9D 26 B3  STA $B326,X
B1C9  B9 A2 B3  LDA $B3A2,Y
B1CC  9D 2C B3  STA $B32C,X
B1CF  C8        INY
B1D0  98        TYA
B1D1  09 80     ORA #$80
B1D3  9D 13 B3  STA $B313,X
B1D6  58        CLI
B1D7  38        SEC
B1D8  60        RTS
B1D9  .byte 00                                              ; .

; --- irq_split_tbl  $B1DA — VIC raster-split register tables (D018/D016/D012/D01C/D028/D021, per split) (data) ---
B1DA  .byte 81 81 01 00 C2 33 C0 C0 FE FC 02 00 00 00       ; .....3........
B1E8  88        DEY
B1E9  10 6D     BPL $B258
B1EB  68        PLA
B1EC  A8        TAY
B1ED  68        PLA
B1EE  AA        TAX
B1EF  A5 01     LDA $01
B1F1  29 F8     AND #$F8
B1F3  0D 9A 8B  ORA $8B9A
B1F6  85 01     STA $01
B1F8  68        PLA
B1F9  40        RTI

; --- irq_handler  $B1FA — raster-split IRQ: load the VIC split registers from the tables at $B1DA, run the SID player on the final split ---
B1FA  48        PHA
B1FB  A5 01     LDA $01
B1FD  29 F8     AND #$F8
B1FF  09 05     ORA #$05
B201  85 01     STA $01
B203  AD 19 D0  LDA $D019
B206  09 80     ORA #$80
B208  8D 19 D0  STA $D019
B20B  8A        TXA
B20C  48        PHA
B20D  AE D9 B1  LDX $B1D9
B210  BD DA B1  LDA $B1DA,X
B213  8D 18 D0  STA $D018
B216  BD E0 B1  LDA $B1E0,X
B219  8D 16 D0  STA $D016
B21C  BD DE B1  LDA $B1DE,X
B21F  8D 12 D0  STA $D012
B222  BD E2 B1  LDA $B1E2,X
B225  8D 1C D0  STA $D01C
B228  BD E4 B1  LDA $B1E4,X
B22B  8D 28 D0  STA $D028
B22E  2C C3 04  BIT $04C3
B231  10 03     BPL $B236
B233  EE E6 B1  INC $B1E6
B236  BD E6 B1  LDA $B1E6,X
B239  8D 21 D0  STA $D021
B23C  BD DC B1  LDA $B1DC,X
B23F  8D D9 B1  STA $B1D9
B242  D0 A9     BNE $B1ED
B244  98        TYA
B245  48        PHA
B246  2C 03 1D  BIT $1D03
B249  10 0B     BPL $B256
B24B  20 DC BD  JSR $BDDC
B24E  2C 11 1D  BIT $1D11
B251  30 03     BMI $B256
B253  4C 04 B3  JMP $B304
B256  A0 02     LDY #$02
B258  B9 13 B3  LDA $B313,Y
B25B  F0 8B     BEQ $B1E8
B25D  30 0A     BMI $B269
B25F  BE 2F B3  LDX $B32F,Y
B262  B9 1D B3  LDA $B31D,Y
B265  F0 47     BEQ $B2AE
B267  D0 27     BNE $B290
B269  B9 2F B3  LDA $B32F,Y
B26C  8D 74 B2  STA $B274
B26F  A9 00     LDA #$00
B271  A2 06     LDX #$06
B273  9D 00 D4  STA $D400,X
B276  CA        DEX
B277  10 FA     BPL $B273
B279  BE 2F B3  LDX $B32F,Y
B27C  B9 23 B3  LDA $B323,Y
B27F  9D 04 D4  STA $D404,X
B282  B9 26 B3  LDA $B326,Y
B285  9D 05 D4  STA $D405,X
B288  B9 29 B3  LDA $B329,Y
B28B  9D 06 D4  STA $D406,X
B28E  A9 00     LDA #$00
B290  18        CLC
B291  D8        CLD
B292  79 20 B3  ADC $B320,Y
B295  99 20 B3  STA $B320,Y
B298  48        PHA
B299  4A        LSR A
B29A  4A        LSR A
B29B  9D 01 D4  STA $D401,X
B29E  68        PLA
B29F  0A        ASL A
B2A0  0A        ASL A
B2A1  0A        ASL A
B2A2  0A        ASL A
B2A3  0A        ASL A
B2A4  0A        ASL A
B2A5  9D 00 D4  STA $D400,X
B2A8  AD 1C B3  LDA $B31C
B2AB  9D 03 D4  STA $D403,X
B2AE  B9 13 B3  LDA $B313,Y
B2B1  30 3E     BMI $B2F1
B2B3  98        TYA
B2B4  AA        TAX
B2B5  DE 19 B3  DEC $B319,X
B2B8  D0 03     BNE $B2BD
B2BA  FE 19 B3  INC $B319,X
B2BD  DE 16 B3  DEC $B316,X
B2C0  F0 1A     BEQ $B2DC
B2C2  BD 16 B3  LDA $B316,X
B2C5  39 2C B3  AND $B32C,Y
B2C8  D0 2C     BNE $B2F6
B2CA  B9 29 B3  LDA $B329,Y
B2CD  38        SEC
B2CE  E9 10     SBC #$10
B2D0  99 29 B3  STA $B329,Y
B2D3  BE 2F B3  LDX $B32F,Y
B2D6  9D 06 D4  STA $D406,X
B2D9  4C F6 B2  JMP $B2F6
B2DC  BE 2F B3  LDX $B32F,Y
B2DF  B9 23 B3  LDA $B323,Y
B2E2  29 FE     AND #$FE
B2E4  9D 04 D4  STA $D404,X
B2E7  A9 00     LDA #$00
B2E9  99 13 B3  STA $B313,Y
B2EC  99 19 B3  STA $B319,Y
B2EF  F0 05     BEQ $B2F6
B2F1  29 7F     AND #$7F
B2F3  99 13 B3  STA $B313,Y
B2F6  88        DEY
B2F7  30 03     BMI $B2FC
B2F9  4C 58 B2  JMP $B258
B2FC  AD 1C B3  LDA $B31C
B2FF  49 04     EOR #$04
B301  8D 1C B3  STA $B31C
B304  68        PLA
B305  A8        TAY
B306  68        PLA
B307  AA        TAX
B308  A5 01     LDA $01
B30A  29 F8     AND #$F8
B30C  0D 9A 8B  ORA $8B9A
B30F  85 01     STA $01
B311  68        PLA
B312  40        RTI
B313  .byte 00 00 00 00 00 00 00 00 00 02 00 00 00 00 00 00 ; ................
B323  .byte 00 00 00 00 00 00 00 00 00 00 00 00 00 07 0E 72 ; ...............r
B333  .byte 70 74 77 73 68 60 F0 30 FE 72 72 92 E1 51 02 14 ; ptwsh`.0.rr..Q..
B343  .byte 0E 0C 50 3F 05 18 80 30 FF 10 10 70 40 0F 0E 45 ; ..P?...0...p@..E
B353  .byte 48 D0 51 40 F0 40 80 10 50 34 33 60 55 80 40 41 ; H.Q@.@..P43`U.@A
B363  .byte 11 81 81 81 11 11 41 21 41 21 21 11 81 11 21 01 ; ......A!A!!...!.
B373  .byte 09 20 08 0C 00 63 18 44 11 00 00 44 11 18 09 D1 ; . ...c.D...D....
B383  .byte F1 E5 FB DC F0 F3 D8 00 E1 E1 F1 F4 E3 B0 A1 FE ; ................
B393  .byte FE F3 FF 00 00 00 44 00 55 FE FF EF 77 7B FE 03 ; ......D.U...w{..
B3A3  .byte 03 03 0F 0F FF FF 1F FF FF 03 03 0F FF FF 03    ; ...............

; ==== hw_init  $B3B2  (1 caller) — clear $0400-$06FF, set NMI/BSOUT vectors, enable the raster IRQ, install the RAM IRQ/NMI vectors ====
B3B2  A9 04     LDA #$04
B3B4  85 08     STA $08
B3B6  A2 03     LDX #$03
B3B8  A9 00     LDA #$00
B3BA  85 07     STA $07
B3BC  A8        TAY
B3BD  91 07     STA ($07),Y
B3BF  C8        INY
B3C0  D0 FB     BNE $B3BD
B3C2  E6 08     INC $08
B3C4  CA        DEX
B3C5  D0 F6     BNE $B3BD
B3C7  A9 33     LDA #$33
B3C9  8D 18 03  STA $0318
B3CC  A9 B4     LDA #$B4
B3CE  8D 19 03  STA $0319
B3D1  A9 61     LDA #$61
B3D3  8D 26 03  STA $0326
B3D6  A9 BA     LDA #$BA
B3D8  8D 27 03  STA $0327
B3DB  A9 05     LDA #$05
B3DD  20 8B 8B  JSR $8B8B
B3E0  78        SEI
B3E1  A9 37     LDA #$37
B3E3  2C 11 D0  BIT $D011
B3E6  10 FB     BPL $B3E3
B3E8  CD 12 D0  CMP $D012
B3EB  D0 F6     BNE $B3E3
B3ED  A9 03     LDA #$03
B3EF  8D 0D DC  STA $DC0D
B3F2  8D 0D DD  STA $DD0D
B3F5  A9 0F     LDA #$0F
B3F7  8D 18 D4  STA $D418
B3FA  A2 00     LDX #$00
B3FC  8E D9 B1  STX $B1D9
B3FF  E8        INX
B400  8E 1A D0  STX $D01A
B403  AD 11 D0  LDA $D011
B406  29 7F     AND #$7F
B408  8D 11 D0  STA $D011
B40B  A9 28     LDA #$28
B40D  8D 12 D0  STA $D012
B410  A5 01     LDA $01
B412  29 F8     AND #$F8
B414  09 04     ORA #$04
B416  85 01     STA $01
B418  A9 04     LDA #$04
B41A  8D 9A 8B  STA $8B9A
B41D  A9 33     LDA #$33
B41F  8D FA FF  STA $FFFA
B422  A9 B4     LDA #$B4
B424  8D FB FF  STA $FFFB
B427  A9 B1     LDA #$B1
B429  8D FF FF  STA $FFFF
B42C  A9 FA     LDA #$FA
B42E  8D FE FF  STA $FFFE
B431  58        CLI
B432  60        RTS

; --- nmi_handler  $B433 — NMI handler: CLI + RTI (the RESTORE key is neutralised) ---
B433  58        CLI
B434  40        RTI
B435  .byte A9 FF 85 32 60 85 32 60 80 40 20 10 08 04 02 01 ; ...2`.2`.@ .....
B445  .byte 80 40 C0 30 0C 03 C0 C0 60 30 18 0C 06 03 C0 C0 ; .@.0....`0......
B455  .byte 30 30 0C 0C 03 03 C0 C0 6C 8F B2 D5 F8 1B 3E 61 ; 00......l.....>a
B465  .byte B5 B5 B5 B5 B5 B6 B6 B6 72 95 B8 DB FE 21 44 67 ; ........r....!Dg
B475  .byte B5 B5 B5 B5 B5 B6 B6 B6 EC 0F 32 55 78 9B BE E1 ; ..........2Ux...
B485  .byte B6 B7 B7 B7 B7 B7 B7 B7 F2 15 38 5B 7E A1 C4 E7 ; ..........8[~...
B495  .byte B6 B7 B7 B7 B7 B7 B7 B7                         ; ........

; ==== line  $B49D  (5 callers) — draw one Bresenham line into the multicolor view bitmap ====
B49D  84 9E     STY $9E
B49F  A9 80     LDA #$80
B4A1  85 BF     STA $BF
B4A3  0A        ASL A
B4A4  8D F4 06  STA $06F4
B4A7  A5 6D     LDA $6D
B4A9  E5 6B     SBC $6B
B4AB  B0 04     BCS $B4B1
B4AD  49 FF     EOR #$FF
B4AF  69 01     ADC #$01
B4B1  85 BC     STA $BC
B4B3  38        SEC
B4B4  A5 6E     LDA $6E
B4B6  E5 6C     SBC $6C
B4B8  B0 04     BCS $B4BE
B4BA  49 FF     EOR #$FF
B4BC  69 01     ADC #$01
B4BE  85 BD     STA $BD
B4C0  C5 BC     CMP $BC
B4C2  90 03     BCC $B4C7
B4C4  4C 14 B8  JMP $B814
B4C7  A6 6B     LDX $6B
B4C9  E4 6D     CPX $6D
B4CB  90 12     BCC $B4DF
B4CD  CE F4 06  DEC $06F4
B4D0  A5 6D     LDA $6D
B4D2  85 6B     STA $6B
B4D4  86 6D     STX $6D
B4D6  AA        TAX
B4D7  A5 6E     LDA $6E
B4D9  A4 6C     LDY $6C
B4DB  85 6C     STA $6C
B4DD  84 6E     STY $6E
B4DF  A6 BD     LDX $BD
B4E1  F0 22     BEQ $B505
B4E3  BD 00 9D  LDA $9D00,X
B4E6  A6 BC     LDX $BC
B4E8  38        SEC
B4E9  FD 00 9D  SBC $9D00,X
B4EC  30 1B     BMI $B509
B4EE  A6 BD     LDX $BD
B4F0  BD 00 9C  LDA $9C00,X
B4F3  A6 BC     LDX $BC
B4F5  FD 00 9C  SBC $9C00,X
B4F8  B0 07     BCS $B501
B4FA  AA        TAX
B4FB  BD 00 9E  LDA $9E00,X
B4FE  4C 19 B5  JMP $B519
B501  A9 FF     LDA #$FF
B503  D0 14     BNE $B519
B505  A9 00     LDA #$00
B507  F0 10     BEQ $B519
B509  A6 BD     LDX $BD
B50B  BD 00 9C  LDA $9C00,X
B50E  A6 BC     LDX $BC
B510  FD 00 9C  SBC $9C00,X
B513  B0 EC     BCS $B501
B515  AA        TAX
B516  BD 00 9F  LDA $9F00,X
B519  85 BD     STA $BD
B51B  18        CLC
B51C  A4 6C     LDY $6C
B51E  C4 6E     CPY $6E
B520  B0 03     BCS $B525
B522  4C 97 B6  JMP $B697
B525  A5 6B     LDA $6B
B527  29 F8     AND #$F8
B529  18        CLC
B52A  79 00 A0  ADC $A000,Y
B52D  85 07     STA $07
B52F  B9 00 A1  LDA $A100,Y
B532  69 00     ADC #$00
B534  85 08     STA $08
B536  98        TYA
B537  29 07     AND #$07
B539  A8        TAY
B53A  A5 6B     LDA $6B
B53C  29 07     AND #$07
B53E  AA        TAX
B53F  2C F4 06  BIT $06F4
B542  30 11     BMI $B555
B544  BD 5D B4  LDA $B45D,X
B547  8D 53 B5  STA $B553
B54A  BD 65 B4  LDA $B465,X
B54D  8D 54 B5  STA $B554
B550  A6 BC     LDX $BC
B552  4C 88 88  JMP $8888
B555  BD 6D B4  LDA $B46D,X
B558  8D 67 B5  STA $B567
B55B  BD 75 B4  LDA $B475,X
B55E  8D 68 B5  STA $B568
B561  A6 BC     LDX $BC
B563  E8        INX
B564  F0 03     BEQ $B569
B566  4C 88 88  JMP $8888
B569  A4 9E     LDY $9E
B56B  60        RTS
B56C  .byte A9 80 51 07 91 07 CA F0 F4 A5 BF 65 BD 85 BF 90 ; ..Q........e....
B57C  .byte 12 88 10 0E A5 07 E9 40 85 07 A5 08 E9 01 85 08 ; .......@........
B58C  .byte A0 07 18 A9 40 51 07 91 07 CA F0 D1 A5 BF 65 BD ; ....@Q........e.
B59C  .byte 85 BF 90 12 88 10 0E A5 07 E9 40 85 07 A5 08 E9 ; ..........@.....
B5AC  .byte 01 85 08 A0 07 18 A9 20 51 07 91 07 CA F0 AE A5 ; ....... Q.......
B5BC  .byte BF 65 BD 85 BF 90 12 88 10 0E A5 07 E9 40 85 07 ; .e...........@..
B5CC  .byte A5 08 E9 01 85 08 A0 07 18 A9 10 51 07 91 07 CA ; ...........Q....
B5DC  .byte F0 8B A5 BF 65 BD 85 BF 90 12 88 10 0E A5 07 E9 ; ....e...........
B5EC  .byte 40 85 07 A5 08 E9 01 85 08 A0 07 18 A9 08 51 07 ; @.............Q.
B5FC  .byte 91 07 CA F0 44 A5 BF 65 BD 85 BF 90 12 88 10 0E ; ....D..e........
B60C  .byte A5 07 E9 40 85 07 A5 08 E9 01 85 08 A0 07 18 A9 ; ...@............
B61C  .byte 04 51 07 91 07 CA F0 70 A5 BF 65 BD 85 BF 90 12 ; .Q.....p..e.....
B62C  .byte 88 10 0E A5 07 E9 40 85 07 A5 08 E9 01 85 08 A0 ; ......@.........
B63C  .byte 07 18 A9 02 51 07 91 07 CA F0 4D A5 BF 65 BD 85 ; ....Q.....M..e..
B64C  .byte BF 90 12 88 10 0E A5 07 E9 40 85 07 A5 08 E9 01 ; .........@......
B65C  .byte 85 08 A0 07 18 A9 01 51 07 91 07 CA F0 2A A5 BF ; .......Q.....*..
B66C  .byte 65 BD 85 BF 90 12 88 10 0E A5 07 E9 40 85 07 A5 ; e...........@...
B67C  .byte 08 E9 01 85 08 A0 07 18 A5 07 69 08 85 07 B0 03 ; ..........i.....
B68C  .byte 4C 6C B5 E6 08 4C 6C B5                         ; Ll...Ll.
B694  A4 9E     LDY $9E
B696  60        RTS
B697  B9 00 A1  LDA $A100,Y
B69A  85 08     STA $08
B69C  A5 6B     LDA $6B
B69E  29 F8     AND #$F8
B6A0  79 00 A0  ADC $A000,Y
B6A3  85 07     STA $07
B6A5  90 03     BCC $B6AA
B6A7  E6 08     INC $08
B6A9  18        CLC
B6AA  E9 F7     SBC #$F7
B6AC  85 07     STA $07
B6AE  B0 02     BCS $B6B2
B6B0  C6 08     DEC $08
B6B2  98        TYA
B6B3  29 07     AND #$07
B6B5  49 F8     EOR #$F8
B6B7  A8        TAY
B6B8  A5 6B     LDA $6B
B6BA  29 07     AND #$07
B6BC  AA        TAX
B6BD  2C F4 06  BIT $06F4
B6C0  30 13     BMI $B6D5
B6C2  BD 7D B4  LDA $B47D,X
B6C5  8D D3 B6  STA $B6D3
B6C8  BD 85 B4  LDA $B485,X
B6CB  8D D4 B6  STA $B6D4
B6CE  A6 BC     LDX $BC
B6D0  F0 C2     BEQ $B694
B6D2  4C 88 88  JMP $8888
B6D5  BD 8D B4  LDA $B48D,X
B6D8  8D E7 B6  STA $B6E7
B6DB  BD 95 B4  LDA $B495,X
B6DE  8D E8 B6  STA $B6E8
B6E1  A6 BC     LDX $BC
B6E3  E8        INX
B6E4  F0 AE     BEQ $B694
B6E6  4C 88 88  JMP $8888
B6E9  .byte A4 9E 60 A9 80 51 07 91 07 CA F0 F4 A5 BF 65 BD ; ..`..Q........e.
B6F9  .byte 85 BF 90 12 C8 D0 0E A5 07 69 3F 85 07 A5 08 69 ; .........i?....i
B709  .byte 01 85 08 A0 F8 18 A9 40 51 07 91 07 CA F0 D1 A5 ; .......@Q.......
B719  .byte BF 65 BD 85 BF 90 12 C8 D0 0E A5 07 69 3F 85 07 ; .e..........i?..
B729  .byte A5 08 69 01 85 08 A0 F8 18 A9 20 51 07 91 07 CA ; ..i....... Q....
B739  .byte F0 AE A5 BF 65 BD 85 BF 90 12 C8 D0 0E A5 07 69 ; ....e..........i
B749  .byte 3F 85 07 A5 08 69 01 85 08 A0 F8 18 A9 10 51 07 ; ?....i........Q.
B759  .byte 91 07 CA F0 67 A5 BF 65 BD 85 BF 90 12 C8 D0 0E ; ....g..e........
B769  .byte A5 07 69 3F 85 07 A5 08 69 01 85 08 A0 F8 18 A9 ; ..i?....i.......
B779  .byte 08 51 07 91 07 CA F0 44 A5 BF 65 BD 85 BF 90 12 ; .Q.....D..e.....
B789  .byte C8 D0 0E A5 07 69 3F 85 07 A5 08 69 01 85 08 A0 ; .....i?....i....
B799  .byte F8 18 A9 04 51 07 91 07 CA F0 6D A5 BF 65 BD 85 ; ....Q.....m..e..
B7A9  .byte BF 90 12 C8 D0 0E A5 07 69 3F 85 07 A5 08 69 01 ; ........i?....i.
B7B9  .byte 85 08 A0 F8 18 A9 02 51 07 91 07 CA F0 4A A5 BF ; .......Q.....J..
B7C9  .byte 65 BD 85 BF 90 12 C8 D0 0E A5 07 69 3F 85 07 A5 ; e..........i?...
B7D9  .byte 08 69 01 85 08 A0 F8 18 A9 01 51 07 91 07 CA F0 ; .i........Q.....
B7E9  .byte 27 A5 BF 65 BD 85 BF 90 12 C8 D0 0E A5 07 69 3F ; '..e..........i?
B7F9  .byte 85 07 A5 08 69 01 85 08 A0 F8 18 A5 07 69 08 85 ; ....i........i..
B809  .byte 07 90 02 E6 08 4C EC B6 A4 9E 60                ; .....L....`

; --- line_steep  $B814 — the line routine's steep-axis (dy>dx) variant ---
B814  A4 6C     LDY $6C
B816  98        TYA
B817  A6 6B     LDX $6B
B819  C4 6E     CPY $6E
B81B  B0 11     BCS $B82E
B81D  CE F4 06  DEC $06F4
B820  A5 6D     LDA $6D
B822  85 6B     STA $6B
B824  86 6D     STX $6D
B826  AA        TAX
B827  A5 6E     LDA $6E
B829  85 6C     STA $6C
B82B  84 6E     STY $6E
B82D  A8        TAY
B82E  8A        TXA
B82F  29 F8     AND #$F8
B831  18        CLC
B832  79 00 A0  ADC $A000,Y
B835  85 07     STA $07
B837  B9 00 A1  LDA $A100,Y
B83A  69 00     ADC #$00
B83C  85 08     STA $08
B83E  98        TYA
B83F  29 07     AND #$07
B841  A8        TAY
B842  8A        TXA
B843  29 07     AND #$07
B845  AA        TAX
B846  BD 3D B4  LDA $B43D,X
B849  85 BE     STA $BE
B84B  A6 BC     LDX $BC
B84D  F0 34     BEQ $B883
B84F  BD 00 9D  LDA $9D00,X
B852  A6 BD     LDX $BD
B854  38        SEC
B855  FD 00 9D  SBC $9D00,X
B858  30 17     BMI $B871
B85A  A6 BC     LDX $BC
B85C  BD 00 9C  LDA $9C00,X
B85F  A6 BD     LDX $BD
B861  FD 00 9C  SBC $9C00,X
B864  B0 07     BCS $B86D
B866  AA        TAX
B867  BD 00 9E  LDA $9E00,X
B86A  4C 81 B8  JMP $B881
B86D  A9 FF     LDA #$FF
B86F  D0 10     BNE $B881
B871  A6 BC     LDX $BC
B873  BD 00 9C  LDA $9C00,X
B876  A6 BD     LDX $BD
B878  FD 00 9C  SBC $9C00,X
B87B  B0 F0     BCS $B86D
B87D  AA        TAX
B87E  BD 00 9F  LDA $9F00,X
B881  85 BC     STA $BC
B883  38        SEC
B884  A6 BD     LDX $BD
B886  E8        INX
B887  A5 6D     LDA $6D
B889  E5 6B     SBC $6B
B88B  90 3D     BCC $B8CA
B88D  18        CLC
B88E  AD F4 06  LDA $06F4
B891  F0 07     BEQ $B89A
B893  CA        DEX
B894  A5 BE     LDA $BE
B896  51 07     EOR ($07),Y
B898  91 07     STA ($07),Y
B89A  88        DEY
B89B  10 0E     BPL $B8AB
B89D  A5 07     LDA $07
B89F  E9 3F     SBC #$3F
B8A1  85 07     STA $07
B8A3  A5 08     LDA $08
B8A5  E9 01     SBC #$01
B8A7  85 08     STA $08
B8A9  A0 07     LDY #$07
B8AB  A5 BF     LDA $BF
B8AD  65 BC     ADC $BC
B8AF  85 BF     STA $BF
B8B1  90 11     BCC $B8C4
B8B3  46 BE     LSR $BE
B8B5  90 0D     BCC $B8C4
B8B7  66 BE     ROR $BE
B8B9  A5 07     LDA $07
B8BB  69 08     ADC #$08
B8BD  85 07     STA $07
B8BF  90 03     BCC $B8C4
B8C1  E6 08     INC $08
B8C3  18        CLC
B8C4  CA        DEX
B8C5  D0 CD     BNE $B894
B8C7  A4 9E     LDY $9E
B8C9  60        RTS
B8CA  AD F4 06  LDA $06F4
B8CD  F0 07     BEQ $B8D6
B8CF  CA        DEX
B8D0  A5 BE     LDA $BE
B8D2  51 07     EOR ($07),Y
B8D4  91 07     STA ($07),Y
B8D6  88        DEY
B8D7  10 0E     BPL $B8E7
B8D9  A5 07     LDA $07
B8DB  E9 3F     SBC #$3F
B8DD  85 07     STA $07
B8DF  A5 08     LDA $08
B8E1  E9 01     SBC #$01
B8E3  85 08     STA $08
B8E5  A0 07     LDY #$07
B8E7  A5 BF     LDA $BF
B8E9  65 BC     ADC $BC
B8EB  85 BF     STA $BF
B8ED  90 11     BCC $B900
B8EF  06 BE     ASL $BE
B8F1  90 0D     BCC $B900
B8F3  26 BE     ROL $BE
B8F5  A5 07     LDA $07
B8F7  E9 07     SBC #$07
B8F9  85 07     STA $07
B8FB  B0 02     BCS $B8FF
B8FD  C6 08     DEC $08
B8FF  18        CLC
B900  CA        DEX
B901  D0 CD     BNE $B8D0
B903  A4 9E     LDY $9E
B905  60        RTS

; ==== sub_B906 (2 callers) ====
B906  84 9E     STY $9E
B908  A6 6B     LDX $6B
B90A  E4 6D     CPX $6D
B90C  F0 F7     BEQ $B905
B90E  90 07     BCC $B917
B910  A5 6D     LDA $6D
B912  85 6B     STA $6B
B914  86 6D     STX $6D
B916  AA        TAX
B917  C6 6D     DEC $6D
B919  A5 6C     LDA $6C
B91B  A8        TAY
B91C  29 07     AND #$07
B91E  85 07     STA $07
B920  B9 00 A1  LDA $A100,Y
B923  85 08     STA $08
B925  8A        TXA
B926  29 F8     AND #$F8
B928  18        CLC
B929  79 00 A0  ADC $A000,Y
B92C  A8        TAY
B92D  90 02     BCC $B931
B92F  E6 08     INC $08
B931  8A        TXA
B932  29 F8     AND #$F8
B934  85 C0     STA $C0
B936  A5 6D     LDA $6D
B938  29 F8     AND #$F8
B93A  38        SEC
B93B  E5 C0     SBC $C0
B93D  F0 40     BEQ $B97F
B93F  4A        LSR A
B940  4A        LSR A
B941  4A        LSR A
B942  85 BE     STA $BE
B944  A5 6B     LDA $6B
B946  29 07     AND #$07
B948  AA        TAX
B949  BD 04 29  LDA $2904,X
B94C  51 07     EOR ($07),Y
B94E  91 07     STA ($07),Y
B950  98        TYA
B951  69 08     ADC #$08
B953  A8        TAY
B954  90 02     BCC $B958
B956  E6 08     INC $08
B958  A6 BE     LDX $BE
B95A  CA        DEX
B95B  F0 13     BEQ $B970
B95D  18        CLC
B95E  A9 FF     LDA #$FF
B960  51 07     EOR ($07),Y
B962  91 07     STA ($07),Y
B964  98        TYA
B965  69 08     ADC #$08
B967  A8        TAY
B968  90 03     BCC $B96D
B96A  E6 08     INC $08
B96C  18        CLC
B96D  CA        DEX
B96E  D0 EE     BNE $B95E
B970  A5 6D     LDA $6D
B972  29 07     AND #$07
B974  AA        TAX
B975  BD FD 28  LDA $28FD,X
B978  51 07     EOR ($07),Y
B97A  91 07     STA ($07),Y
B97C  A4 9E     LDY $9E
B97E  60        RTS
B97F  A5 6B     LDA $6B
B981  29 07     AND #$07
B983  AA        TAX
B984  BD 04 29  LDA $2904,X
B987  85 C0     STA $C0
B989  A5 6D     LDA $6D
B98B  29 07     AND #$07
B98D  AA        TAX
B98E  BD FD 28  LDA $28FD,X
B991  25 C0     AND $C0
B993  51 07     EOR ($07),Y
B995  91 07     STA ($07),Y
B997  A4 9E     LDY $9E
B999  60        RTS
B99A  .byte 80 C0 E0 F0 F8 FC FE FF 7F 3F 1F 0F 07 03 01    ; .........?.....

; ==== sub_B9A9 (1 caller) ====
B9A9  AD EB 04  LDA $04EB
B9AC  85 6C     STA $6C
B9AE  AD EA 04  LDA $04EA
B9B1  85 6B     STA $6B
B9B3  AD 01 1D  LDA $1D01
B9B6  85 32     STA $32
B9B8  C9 AA     CMP #$AA
B9BA  D0 05     BNE $B9C1

; ==== sub_B9BC (1 caller) ====
B9BC  20 C1 B9  JSR $B9C1
B9BF  C6 6C     DEC $6C

; ==== sub_B9C1 (1 caller) ====
B9C1  A4 6C     LDY $6C
B9C3  A5 6B     LDA $6B
B9C5  29 F8     AND #$F8
B9C7  18        CLC
B9C8  79 00 A0  ADC $A000,Y
B9CB  85 07     STA $07
B9CD  B9 00 A1  LDA $A100,Y
B9D0  69 00     ADC #$00
B9D2  85 08     STA $08
B9D4  98        TYA
B9D5  29 07     AND #$07
B9D7  A8        TAY
B9D8  A5 6B     LDA $6B
B9DA  29 07     AND #$07
B9DC  AA        TAX
B9DD  BD 53 B4  LDA $B453,X
B9E0  25 32     AND $32
B9E2  51 07     EOR ($07),Y
B9E4  91 07     STA ($07),Y
B9E6  BD 55 B4  LDA $B455,X
B9E9  10 0E     BPL $B9F9
B9EB  A5 07     LDA $07
B9ED  18        CLC
B9EE  69 08     ADC #$08
B9F0  85 07     STA $07
B9F2  90 02     BCC $B9F6
B9F4  E6 08     INC $08
B9F6  BD 55 B4  LDA $B455,X
B9F9  25 32     AND $32
B9FB  51 07     EOR ($07),Y
B9FD  91 07     STA ($07),Y
B9FF  60        RTS

; ==== sub_BA00 (1 caller) ====
BA00  A9 20     LDA #$20
BA02  85 67     STA $67
BA04  A0 09     LDY #$09
BA06  20 58 B1  JSR $B158

; ==== sub_BA09 (1 caller) ====
BA09  AD A3 67  LDA $67A3
BA0C  49 E0     EOR #$E0
BA0E  8D A3 67  STA $67A3
BA11  AD CB 67  LDA $67CB
BA14  49 E0     EOR #$E0
BA16  8D CB 67  STA $67CB
BA19  60        RTS

; ==== sub_BA1A (3 callers) ====
BA1A  AD B4 67  LDA $67B4
BA1D  49 E0     EOR #$E0
BA1F  8D B4 67  STA $67B4
BA22  AD DC 67  LDA $67DC
BA25  49 E0     EOR #$E0
BA27  8D DC 67  STA $67DC
BA2A  60        RTS

; ==== sub_BA2B (4 callers) ====
BA2B  CA        DEX
BA2C  8A        TXA
BA2D  E8        INX
BA2E  49 03     EOR #$03
BA30  84 07     STY $07
BA32  A8        TAY
BA33  A5 07     LDA $07
BA35  99 C6 67  STA $67C6,Y
BA38  A0 00     LDY #$00
BA3A  60        RTS
BA3B  .byte 20 FF FF C9 80 90 04 A9 07 18 60 C9 20 B0 08 C9 ;  .........`. ...
BA4B  .byte 0D F0 04 C9 15 D0 F0 18 60                      ; ........`

; ==== sub_BA54 (3 callers) ====
BA54  48        PHA
BA55  AD D9 B1  LDA $B1D9
BA58  F0 FB     BEQ $BA55
BA5A  AD D9 B1  LDA $B1D9
BA5D  D0 FB     BNE $BA5A
BA5F  68        PLA
BA60  60        RTS
BA61  .byte C9 7B B0 0D C9 0D 90 09 D0 1C A9 0C 20 87 BA A9 ; .{.......... ...
BA71  .byte 0D 18 60                                        ; ..`
BA74  20 0F B1  JSR $B10F
BA77  4C 1C BB  JMP $BB1C
BA7A  20 90 BC  JSR $BC90
BA7D  A5 35     LDA $35
BA7F  4C 95 BA  JMP $BA95
BA82  4C 1C BB  JMP $BB1C

; ==== sub_BA85 (1 caller) ====
BA85  A9 0C     LDA #$0C

; ==== sub_BA87 (4 callers) ====
BA87  85 35     STA $35
BA89  8C 90 04  STY $0490
BA8C  8E 8F 04  STX $048F
BA8F  A4 34     LDY $34
BA91  C0 FF     CPY #$FF
BA93  F0 ED     BEQ $BA82
BA95  C9 07     CMP #$07
BA97  F0 DB     BEQ $BA74
BA99  C9 20     CMP #$20
BA9B  B0 10     BCS $BAAD
BA9D  C9 0A     CMP #$0A
BA9F  F0 04     BEQ $BAA5
BAA1  A2 01     LDX #$01
BAA3  86 31     STX $31
BAA5  C9 0D     CMP #$0D
BAA7  F0 D9     BEQ $BA82
BAA9  E6 33     INC $33
BAAB  D0 D5     BNE $BA82
BAAD  A8        TAY
BAAE  A2 0A     LDX #$0A
BAB0  0A        ASL A
BAB1  0A        ASL A
BAB2  90 02     BCC $BAB6
BAB4  A2 0C     LDX #$0C
BAB6  0A        ASL A
BAB7  90 01     BCC $BABA
BAB9  E8        INX
BABA  85 2F     STA $2F
BABC  86 30     STX $30
BABE  A5 31     LDA $31
BAC0  C9 1F     CMP #$1F
BAC2  B0 DD     BCS $BAA1
BAC4  A9 80     LDA #$80
BAC6  85 07     STA $07
BAC8  A5 33     LDA $33
BACA  C9 18     CMP #$18
BACC  90 03     BCC $BAD1
BACE  4C 7A BA  JMP $BA7A
BAD1  4A        LSR A
BAD2  66 07     ROR $07
BAD4  4A        LSR A
BAD5  66 07     ROR $07
BAD7  65 33     ADC $33
BAD9  69 40     ADC #$40
BADB  85 08     STA $08
BADD  A5 31     LDA $31
BADF  0A        ASL A
BAE0  0A        ASL A
BAE1  0A        ASL A
BAE2  65 07     ADC $07
BAE4  85 07     STA $07
BAE6  90 02     BCC $BAEA
BAE8  E6 08     INC $08
BAEA  C0 7F     CPY #$7F
BAEC  D0 0B     BNE $BAF9
BAEE  C6 31     DEC $31
BAF0  C6 08     DEC $08
BAF2  A0 F8     LDY #$F8
BAF4  20 C1 BC  JSR $BCC1
BAF7  F0 23     BEQ $BB1C
BAF9  E6 31     INC $31
BAFB  2C 85 08  BIT $0885
BAFE  A0 07     LDY #$07
BB00  B1 2F     LDA ($2F),Y
BB02  51 07     EOR ($07),Y
BB04  91 07     STA ($07),Y
BB06  88        DEY
BB07  10 F7     BPL $BB00
BB09  A4 33     LDY $33
BB0B  B9 00 A2  LDA $A200,Y
BB0E  85 07     STA $07
BB10  B9 19 A2  LDA $A219,Y
BB13  85 08     STA $08
BB15  A4 31     LDY $31
BB17  AD 0C 05  LDA $050C
BB1A  91 07     STA ($07),Y
BB1C  AC 90 04  LDY $0490
BB1F  AE 8F 04  LDX $048F
BB22  A5 35     LDA $35
BB24  18        CLC
BB25  60        RTS

; ==== sub_BB26 (1 caller) ====
BB26  A9 04     LDA #$04
BB28  85 07     STA $07
BB2A  A9 60     LDA #$60
BB2C  85 08     STA $08
BB2E  A2 18     LDX #$18
BB30  A9 10     LDA #$10
BB32  A0 1F     LDY #$1F
BB34  91 07     STA ($07),Y
BB36  88        DEY
BB37  10 FB     BPL $BB34
BB39  A5 07     LDA $07
BB3B  18        CLC
BB3C  69 28     ADC #$28
BB3E  85 07     STA $07
BB40  90 02     BCC $BB44
BB42  E6 08     INC $08
BB44  CA        DEX
BB45  D0 E9     BNE $BB30
BB47  A2 40     LDX #$40
BB49  20 B3 BC  JSR $BCB3
BB4C  E8        INX
BB4D  E0 56     CPX #$56
BB4F  D0 F8     BNE $BB49
BB51  A0 7F     LDY #$7F
BB53  20 B7 BC  JSR $BCB7
BB56  91 07     STA ($07),Y
BB58  A9 01     LDA #$01
BB5A  85 31     STA $31
BB5C  85 33     STA $33
BB5E  A5 A0     LDA $A0
BB60  F0 04     BEQ $BB66
BB62  C9 0D     CMP #$0D
BB64  D0 03     BNE $BB69
BB66  4C 0D BC  JMP $BC0D
BB69  A9 81     LDA #$81
BB6B  8D DB B1  STA $B1DB
BB6E  A9 C0     LDA #$C0
BB70  8D E1 B1  STA $B1E1
BB73  20 B3 BC  JSR $BCB3
BB76  E8        INX
BB77  E0 60     CPX #$60
BB79  D0 F8     BNE $BB73
BB7B  A2 00     LDX #$00
BB7D  8E 01 1D  STX $1D01
BB80  8E 04 1D  STX $1D04
BB83  E8        INX
BB84  86 31     STX $31
BB86  86 33     STX $33
BB88  20 65 BC  JSR $BC65
BB8B  20 4D BC  JSR $BC4D
BB8E  20 73 8B  JSR $8B73
BB91  A0 1F     LDY #$1F
BB93  A9 70     LDA #$70
BB95  99 04 60  STA $6004,Y
BB98  88        DEY
BB99  10 FA     BPL $BB95
BB9B  A6 A0     LDX $A0
BB9D  E0 02     CPX #$02
BB9F  F0 10     BEQ $BBB1
BBA1  E0 40     CPX #$40
BBA3  F0 0C     BEQ $BBB1
BBA5  E0 80     CPX #$80
BBA7  F0 08     BEQ $BBB1
BBA9  A0 1F     LDY #$1F
BBAB  99 54 60  STA $6054,Y
BBAE  88        DEY
BBAF  10 FA     BPL $BBAB

; ==== sub_BBB1 (1 caller) ====
BBB1  A2 C7     LDX #$C7
BBB3  20 E1 BB  JSR $BBE1
BBB6  A9 FF     LDA #$FF
BBB8  8D 1F 5F  STA $5F1F
BBBB  A2 19     LDX #$19
BBBD  2C A2 12  BIT $12A2
BBC0  86 C0     STX $C0
BBC2  A0 18     LDY #$18
BBC4  84 07     STY $07
BBC6  A0 40     LDY #$40
BBC8  A9 03     LDA #$03
BBCA  20 ED BB  JSR $BBED
BBCD  A0 20     LDY #$20
BBCF  84 07     STY $07
BBD1  A0 41     LDY #$41
BBD3  A9 C0     LDA #$C0
BBD5  A6 C0     LDX $C0
BBD7  20 ED BB  JSR $BBED
BBDA  A9 01     LDA #$01
BBDC  8D 18 41  STA $4118
BBDF  A2 00     LDX #$00

; ==== sub_BBE1 (1 caller) ====
BBE1  86 6C     STX $6C
BBE3  A2 00     LDX #$00
BBE5  86 6B     STX $6B
BBE7  CA        DEX
BBE8  86 6D     STX $6D
BBEA  4C 06 B9  JMP $B906

; ==== sub_BBED (2 callers) ====
BBED  85 BE     STA $BE
BBEF  84 08     STY $08
BBF1  A0 07     LDY #$07
BBF3  A5 BE     LDA $BE
BBF5  51 07     EOR ($07),Y
BBF7  91 07     STA ($07),Y
BBF9  88        DEY
BBFA  10 F7     BPL $BBF3
BBFC  A5 07     LDA $07
BBFE  18        CLC
BBFF  69 40     ADC #$40
BC01  85 07     STA $07
BC03  A5 08     LDA $08
BC05  69 01     ADC #$01
BC07  85 08     STA $08
BC09  CA        DEX
BC0A  D0 E5     BNE $BBF1
BC0C  60        RTS
BC0D  20 BE BB  JSR $BBBE
BC10  A9 91     LDA #$91
BC12  8D DB B1  STA $B1DB
BC15  A9 D0     LDA #$D0
BC17  8D E1 B1  STA $B1E1
BC1A  AD 04 1D  LDA $1D04
BC1D  D0 22     BNE $BC41
BC1F  A2 08     LDX #$08
BC21  A9 00     LDA #$00
BC23  85 5B     STA $5B
BC25  A9 68     LDA #$68
BC27  85 5C     STA $5C
BC29  A9 80     LDA #$80
BC2B  85 07     STA $07
BC2D  A9 56     LDA #$56
BC2F  85 08     STA $08
BC31  20 CF BC  JSR $BCCF
BC34  A0 C0     LDY #$C0
BC36  A2 01     LDX #$01
BC38  20 D1 BC  JSR $BCD1
BC3B  20 4D BC  JSR $BC4D
BC3E  20 F0 2F  JSR $2FF0
BC41  20 65 BC  JSR $BC65
BC44  20 73 8B  JSR $8B73
BC47  A9 FF     LDA #$FF
BC49  8D 04 1D  STA $1D04
BC4C  60        RTS

; ==== sub_BC4D (2 callers) ====
BC4D  A2 00     LDX #$00
BC4F  BD 52 04  LDA $0452,X
BC52  F0 10     BEQ $BC64
BC54  30 0B     BMI $BC61
BC56  20 84 3E  JSR $3E84
BC59  A0 1F     LDY #$1F
BC5B  B1 59     LDA ($59),Y
BC5D  29 EF     AND #$EF
BC5F  91 59     STA ($59),Y
BC61  E8        INX
BC62  D0 EB     BNE $BC4F
BC64  60        RTS

; ==== sub_BC65 (2 callers) ====
BC65  A2 00     LDX #$00
BC67  A0 40     LDY #$40
BC69  20 70 BC  JSR $BC70
BC6C  A2 28     LDX #$28
BC6E  A0 41     LDY #$41

; ==== sub_BC70 (1 caller) ====
BC70  86 07     STX $07
BC72  84 08     STY $08
BC74  A2 12     LDX #$12
BC76  A0 17     LDY #$17
BC78  A9 FF     LDA #$FF
BC7A  91 07     STA ($07),Y
BC7C  88        DEY
BC7D  10 F9     BPL $BC78
BC7F  A5 07     LDA $07
BC81  18        CLC
BC82  69 40     ADC #$40
BC84  85 07     STA $07
BC86  A5 08     LDA $08
BC88  69 01     ADC #$01
BC8A  85 08     STA $08
BC8C  CA        DEX
BC8D  D0 E7     BNE $BC76
BC8F  60        RTS

; ==== sub_BC90 (1 caller) ====
BC90  A2 08     LDX #$08
BC92  A0 00     LDY #$00
BC94  18        CLC
BC95  BD 00 A0  LDA $A000,X
BC98  85 07     STA $07
BC9A  BD 00 A1  LDA $A100,X
BC9D  85 08     STA $08
BC9F  98        TYA
BCA0  91 07     STA ($07),Y
BCA2  88        DEY
BCA3  D0 FB     BNE $BCA0
BCA5  8A        TXA
BCA6  69 08     ADC #$08
BCA8  AA        TAX
BCA9  C9 C0     CMP #$C0
BCAB  90 E8     BCC $BC95
BCAD  C8        INY
BCAE  84 31     STY $31
BCB0  84 33     STY $33
BCB2  60        RTS

; ==== sub_BCB3 (2 callers) ====
BCB3  A0 00     LDY #$00
BCB5  84 07     STY $07

; ==== sub_BCB7 (1 caller) ====
BCB7  A9 00     LDA #$00
BCB9  86 08     STX $08
BCBB  91 07     STA ($07),Y
BCBD  88        DEY
BCBE  D0 FB     BNE $BCBB
BCC0  60        RTS

; ==== sub_BCC1 (1 caller) ====
BCC1  A9 00     LDA #$00
BCC3  91 07     STA ($07),Y
BCC5  C8        INY
BCC6  D0 FB     BNE $BCC3
BCC8  60        RTS
BCC9  .byte 85 31 60 85 33 60                               ; .1`.3`

; ==== sub_BCCF (1 caller) ====
BCCF  A0 00     LDY #$00

; ==== sub_BCD1 (1 caller) ====
BCD1  B1 5B     LDA ($5B),Y
BCD3  91 07     STA ($07),Y
BCD5  88        DEY
BCD6  D0 F9     BNE $BCD1
BCD8  E6 5C     INC $5C
BCDA  E6 08     INC $08
BCDC  CA        DEX
BCDD  D0 F2     BNE $BCD1
BCDF  60        RTS

; ==== sub_BCE0 (7 callers) ====
BCE0  A9 00     LDA #$00
BCE2  8D 8B 04  STA $048B
BCE5  8D 8C 04  STA $048C
BCE8  A9 FF     LDA #$FF
BCEA  8D 16 2F  STA $2F16
BCED  A9 80     LDA #$80
BCEF  85 34     STA $34
BCF1  A9 15     LDA #$15
BCF3  85 33     STA $33
BCF5  A9 01     LDA #$01
BCF7  85 31     STA $31
BCF9  A9 5A     LDA #$5A
BCFB  85 08     STA $08
BCFD  A9 60     LDA #$60
BCFF  85 07     STA $07
BD01  A2 03     LDX #$03
BD03  A9 00     LDA #$00
BD05  A8        TAY
BD06  91 07     STA ($07),Y
BD08  88        DEY
BD09  D0 FB     BNE $BD06
BD0B  18        CLC
BD0C  A5 07     LDA $07
BD0E  69 40     ADC #$40
BD10  85 07     STA $07
BD12  A5 08     LDA $08
BD14  69 01     ADC #$01
BD16  85 08     STA $08
BD18  CA        DEX
BD19  D0 E8     BNE $BD03
BD1B  60        RTS

; ==== sub_BD1C (4 callers) ====
BD1C  A5 A0     LDA $A0
BD1E  D0 FB     BNE $BD1B
BD20  A5 28     LDA $28
BD22  29 10     AND #$10
BD24  F0 F5     BEQ $BD1B
BD26  A6 A5     LDX $A5
BD28  30 F1     BMI $BD1B
BD2A  BD 7B 26  LDA $267B,X
BD2D  85 32     STA $32
BD2F  A5 0A     LDA $0A
BD31  05 0D     ORA $0D
BD33  05 10     ORA $10
BD35  29 C0     AND #$C0
BD37  D0 E2     BNE $BD1B
BD39  A5 0A     LDA $0A
BD3B  18        CLC
BD3C  A6 0B     LDX $0B
BD3E  10 04     BPL $BD44
BD40  49 FF     EOR #$FF
BD42  69 01     ADC #$01
BD44  69 7B     ADC #$7B
BD46  85 6B     STA $6B
BD48  A5 10     LDA $10
BD4A  4A        LSR A
BD4B  4A        LSR A
BD4C  18        CLC
BD4D  A6 11     LDX $11
BD4F  10 03     BPL $BD54
BD51  49 FF     EOR #$FF
BD53  38        SEC
BD54  69 53     ADC #$53
BD56  49 FF     EOR #$FF
BD58  85 07     STA $07
BD5A  A5 0D     LDA $0D
BD5C  4A        LSR A
BD5D  18        CLC
BD5E  A6 0E     LDX $0E
BD60  30 03     BMI $BD65
BD62  49 FF     EOR #$FF
BD64  38        SEC
BD65  65 07     ADC $07
BD67  C9 92     CMP #$92
BD69  B0 02     BCS $BD6D
BD6B  A9 92     LDA #$92
BD6D  C9 C7     CMP #$C7
BD6F  90 02     BCC $BD73
BD71  A9 C6     LDA #$C6
BD73  85 6C     STA $6C
BD75  38        SEC
BD76  E5 07     SBC $07
BD78  08        PHP
BD79  48        PHA
BD7A  20 BC B9  JSR $B9BC
BD7D  BD 55 B4  LDA $B455,X
BD80  25 32     AND $32
BD82  85 6B     STA $6B
BD84  68        PLA
BD85  28        PLP
BD86  AA        TAX
BD87  F0 1D     BEQ $BDA6
BD89  90 1C     BCC $BDA7
BD8B  88        DEY
BD8C  10 0F     BPL $BD9D
BD8E  A0 07     LDY #$07
BD90  A5 07     LDA $07
BD92  38        SEC
BD93  E9 40     SBC #$40
BD95  85 07     STA $07
BD97  A5 08     LDA $08
BD99  E9 01     SBC #$01
BD9B  85 08     STA $08
BD9D  A5 6B     LDA $6B
BD9F  51 07     EOR ($07),Y
BDA1  91 07     STA ($07),Y
BDA3  CA        DEX
BDA4  D0 E5     BNE $BD8B
BDA6  60        RTS
BDA7  C8        INY
BDA8  C0 08     CPY #$08
BDAA  D0 0E     BNE $BDBA
BDAC  A0 00     LDY #$00
BDAE  A5 07     LDA $07
BDB0  69 3F     ADC #$3F
BDB2  85 07     STA $07
BDB4  A5 08     LDA $08
BDB6  69 01     ADC #$01
BDB8  85 08     STA $08
BDBA  C8        INY
BDBB  C0 08     CPY #$08
BDBD  D0 0E     BNE $BDCD
BDBF  A0 00     LDY #$00
BDC1  A5 07     LDA $07
BDC3  69 3F     ADC #$3F
BDC5  85 07     STA $07
BDC7  A5 08     LDA $08
BDC9  69 01     ADC #$01
BDCB  85 08     STA $08
BDCD  A5 6B     LDA $6B
BDCF  51 07     EOR ($07),Y
BDD1  91 07     STA ($07),Y
BDD3  E8        INX
BDD4  D0 E4     BNE $BDBA
BDD6  60        RTS
BDD7  .byte 00 00 00 00 00                                  ; .....

; ==== sub_BDDC (1 caller) ====
BDDC  A0 00     LDY #$00
BDDE  C4 C6     CPY $C6
BDE0  F0 05     BEQ $BDE7
BDE2  C6 C6     DEC $C6
BDE4  4C EA BF  JMP $BFEA
BDE7  A5 D1     LDA $D1
BDE9  C9 10     CMP #$10
BDEB  B0 08     BCS $BDF5
BDED  AA        TAX
BDEE  D0 08     BNE $BDF8
BDF0  20 16 BF  JSR $BF16
BDF3  85 D1     STA $D1
BDF5  29 0F     AND #$0F
BDF7  AA        TAX
BDF8  A5 D1     LDA $D1
BDFA  4A        LSR A
BDFB  4A        LSR A
BDFC  4A        LSR A
BDFD  4A        LSR A
BDFE  85 D1     STA $D1
BE00  BD 16 C0  LDA $C016,X
BE03  8D 0D BE  STA $BE0D
BE06  BD 25 C0  LDA $C025,X
BE09  8D 0E BE  STA $BE0E
BE0C  4C E7 BD  JMP $BDE7
BE0F  .byte 20 1F BF 20 F8 BE 4C E7 BD 20 2C BF 20 02 BF 4C ;  .. ..L.. ,. ..L
BE1F  .byte E7 BD 20 4D BF 20 0C BF 4C E7 BD 20 1F BF 20 2C ; .. M. ..L.. .. ,
BE2F  .byte BF 20 F8 BE 20 02 BF 4C E7 BD 20 1F BF 20 2C BF ; . .. ..L.. .. ,.
BE3F  .byte 20 4D BF 20 F8 BE 20 02 BF 20 0C BF 4C E7 BD EE ;  M. .. .. ..L...
BE4F  .byte D7 BD 4C E7 BD A5 D1 38 2A 0A 0A 0A 85 D1 AD DB ; ..L....8*.......
BE5F  .byte BD 85 C6 4C DC BD 20 16 BF 8D 05 D4 20 16 BF 8D ; ...L.. ..... ...
BE6F  .byte 0C D4 20 16 BF 8D 13 D4 20 16 BF 8D 06 D4 20 16 ; .. ..... ..... .
BE7F  .byte BF 8D 0D D4 20 16 BF 8D 14 D4 4C E7 BD A9 00 85 ; .... .....L.....
BE8F  .byte D1 A5 C4 85 C2 A5 C5 85 C3 4C E7 BD 20 16 BF 8D ; .........L.. ...
BE9F  .byte 02 D4 20 16 BF 8D 03 D4 20 16 BF 8D 09 D4 20 16 ; .. ..... ..... .
BEAF  .byte BF 8D 0A D4 20 16 BF 8D 10 D4 20 16 BF 8D 11 D4 ; .... ..... .....
BEBF  .byte 4C E7 BD 4C 8C BE 20 16 BF 8D DB BD 4C E7 BD 20 ; L..L.. .....L.. 
BECF  .byte 16 BF 8D D8 BD 20 16 BF 8D D9 BD 20 16 BF 8D DA ; ..... ..... ....
BEDF  .byte BD 4C E7 BD 20 16 BF 8D 18 D4 20 16 BF 8D 17 D4 ; .L.. ..... .....
BEEF  .byte 20 16 BF 8D 16 D4 4C E7 BD AD D8 BD 8C 04 D4 8D ;  .....L.........
BEFF  .byte 04 D4 60 AD D9 BD 8C 0B D4 8D 0B D4 60 AD DA BD ; ..`.........`...
BF0F  .byte 8C 12 D4 8D 12 D4 60                            ; ......`

; ==== sub_BF16 (1 caller) ====
BF16  E6 C2     INC $C2
BF18  D0 02     BNE $BF1C
BF1A  E6 C3     INC $C3
BF1C  B1 C2     LDA ($C2),Y
BF1E  60        RTS
BF1F  .byte 20 16 BF 8D 01 D4 20 16 BF 8D 00 D4 60 20 16 BF ;  ..... .....` ..
BF2F  .byte 8D 08 D4 85 C9 85 CB 20 16 BF 8D 07 D4 85 CA 85 ; ....... ........
BF3F  .byte CC 18 D8 A9 20 65 CC 85 CC 90 02 E6 CB 60 20 16 ; .... e.......` .
BF4F  .byte BF 8D 0F D4 85 CD 85 CF 20 16 BF 8D 0E D4 85 CE ; ........ .......
BF5F  .byte 85 D0 18 D8 A9 20 65 D0 85 D0 90 02 E6 CF 60    ; ..... e.......`

; ==== sub_BF6E (1 caller) ====
BF6E  A9 00     LDA #$00
BF70  85 D1     STA $D1
BF72  85 C6     STA $C6
BF74  85 C7     STA $C7
BF76  85 C8     STA $C8
BF78  A2 18     LDX #$18
BF7A  9D 00 D4  STA $D400,X
BF7D  CA        DEX
BF7E  D0 FA     BNE $BF7A
BF80  A9 34     LDA #$34
BF82  85 C2     STA $C2
BF84  85 C4     STA $C4
BF86  A9 C0     LDA #$C0
BF88  85 C3     STA $C3
BF8A  85 C5     STA $C5
BF8C  A9 0F     LDA #$0F
BF8E  8D 18 D4  STA $D418
BF91  60        RTS
BF92  .byte A9 00 85 C7 A9 AE 8D F9 BF A5 CB 8D 08 D4 A5 CC ; ................
BFA2  .byte 8D 07 D4 4C FA BF                               ; ...L..
BFA8  A9 00     LDA #$00
BFAA  85 C7     STA $C7
BFAC  A9 98     LDA #$98
BFAE  8D F9 BF  STA $BFF9
BFB1  A5 C9     LDA $C9
BFB3  8D 08 D4  STA $D408
BFB6  A5 CA     LDA $CA
BFB8  8D 07 D4  STA $D407
BFBB  4C FA BF  JMP $BFFA
BFBE  .byte A9 00 85 C8 A9 E2 8D F1 BF A5 CF 8D 0F D4 A5 D0 ; ................
BFCE  .byte 8D 0E D4 4C FA BF                               ; ...L..
BFD4  A9 00     LDA #$00
BFD6  85 C8     STA $C8
BFD8  A9 CC     LDA #$CC
BFDA  8D F1 BF  STA $BFF1
BFDD  A5 CD     LDA $CD
BFDF  8D 0F D4  STA $D40F
BFE2  A5 CE     LDA $CE
BFE4  8D 0E D4  STA $D40E
BFE7  4C FA BF  JMP $BFFA
BFEA  E6 C8     INC $C8
BFEC  A9 06     LDA #$06
BFEE  C5 C8     CMP $C8
BFF0  F0 E2     BEQ $BFD4
BFF2  E6 C7     INC $C7
BFF4  A9 05     LDA #$05
BFF6  C5 C7     CMP $C7
BFF8  F0 AE     BEQ $BFA8
BFFA  A6 C6     LDX $C6
BFFC  E0 02     CPX #$02
BFFE  D0 15     BNE $C015
C000  AE D8 BD  LDX $BDD8
C003  CA        DEX
C004  8E 04 D4  STX $D404
C007  AE D9 BD  LDX $BDD9
C00A  CA        DEX
C00B  8E 0B D4  STX $D40B
C00E  AE DA BD  LDX $BDDA
C011  CA        DEX
C012  8E 12 D4  STX $D412
C015  60        RTS
C016  .byte 60 0F 18 21 2A 39 4E 65 5D 8C 9B C2 C5 CE E3 54 ; `..!*9Ne]......T
C026  .byte BE BE BE BE BE BE BE BE BE BE BE BE BE BE BE A7 ; ................
C036  .byte 26 26 48 19 19 A9 00 06 00 05 00 06 ED 21 21 41 ; &&H..........!!A
C046  .byte 1F F4 70 5C 08 0E EF 12 D1 1D DF 5F 0E EF 12 D1 ; ..p\......._....
C056  .byte 1D DF 38 1C 31 58 0E EF 1A 9C 1D DF 5F 0E EF 13 ; ..8.1X......_...
C066  .byte EF 21 87 5F 0E EF 13 EF 21 87 38 1F A5 58 0E EF ; .!._....!.8..X..
C076  .byte 19 1E 21 87 5F 0E EF 16 60 25 A2 5F 0E EF 16 60 ; ..!._...`%._...`
C086  .byte 25 A2 38 21 87 58 0E EF 1A 9C 25 A2 5F 0E EF 19 ; %.8!.X....%._...
C096  .byte 1E 27 DF 5F 0E EF 16 60 2C 31 5F 0E EF 13 EF 32 ; .'._...`,1_....2
C0A6  .byte 3C 7F 0A 0A 49 A9 A9 B8 F1 07 77 85 0E EF 12 D1 ; <...I.....w.....
C0B6  .byte 2C 31 83 2A 3E F5 0E EF 12 D1 2C C1 F1 07 77 85 ; ,1.*>.....,...w.
C0C6  .byte 0E EF 13 EF 32 3C 83 2F 6B F5 0E EF 13 EF 32 3C ; ....2<./k.....2<
C0D6  .byte F1 07 77 85 0E EF 15 1F 32 3C 83 2F 6B F5 0E EF ; ..w.....2<./k...
C0E6  .byte 15 1F 32 3C 5C 09 07 77 16 60 35 39 3F 3B BE 3F ; ..2<\..w.`59?;.?
C0F6  .byte 43 0F FF C8 0A 7E 3F A4 60 06 06 99 68 68 8C 83 ; C....~?.`...hh..
C106  .byte 35 39 83 3B BE 83 43 0F 83 1D DF F3 35 39 F4 07 ; 59.;..C.....59..
C116  .byte 77 12 D1 F4 07 77 12 D1 F4 07 77 12 D1 3D 21 11 ; w....w....w..=!.
C126  .byte 21 35 39 38 3B BE 38 43 0F 38 1D DF 38 32 3C 4F ; !598;.8C.8..82<O
C136  .byte 07 77 13 EF 4F 07 77 13 EF 4F 07 77 13 EF EF 1F ; .w..O.w..O.w....
C146  .byte A4 65 83 32 3C 83 35 39 83 3B BE 83 1D DF 57 44 ; .e.2<.59.;....WD
C156  .byte 48 48 2F 8F 89 07 77 12 D1 2C C1 3F 1A 9C 3F 1D ; HH/...w..,.?..?.
C166  .byte DF 5F 07 77 10 C3 27 DF 3F 1A 9C 3F 1D DF 5F 07 ; ._.w..'.?..?.._.
C176  .byte 77 0E EF 25 A2 3F 1A 9C 3F 1D DF 5F 07 77 1A 9C ; w..%.?..?.._.w..
C186  .byte 21 87 3F 16 60 3F 1A 9C 5F 07 77 19 1E 1D DF 3F ; !.?.`?.._.w....?
C196  .byte 13 EF 3F 19 1E CF 0C F5 07 77 16 60 1A 9C F3 12 ; ..?......w.`....
C1A6  .byte D1 F3 16 60 7D 11 11 11 27 27 27 1A 1A 1A F5 07 ; ...`}...'''.....
C1B6  .byte 77 07 7A 0E EF FF F5 06 A7 0D 4E 1A 9C FF F5 05 ; w.z.......N.....
C1C6  .byte 98 0B 30 16 60 FF 78 04 69 66 1B AB 9B DE 3F F2 ; ..0.`.x.if....?.
C1D6  .byte 60 21 11 11 21 09 F7 13 EF FF 1F 0C 8F F2 19 1E ; `!..!...........
C1E6  .byte FF 21 0E EF 1D DF FF FF C7 44 46 08 2A A9 9A 0B ; .!.......DF.*...
C1F6  .byte F5 04 FB 0C 8F 1D DF F4 09 F7 0C 8F F5 09 F7 32 ; ...............2
C206  .byte 3C 3B BE F5 04 FB 32 3C 3B BE F4 09 F7 0C 8F F5 ; <;....2<;.......
C216  .byte 09 F7 27 DF 32 3C F5 04 FB 27 DF 32 3C F4 09 F7 ; ..'.2<...'.2<...
C226  .byte 0C 8F 47 42 69 66 1B AB 9B 09 F7 13 EF 4F 09 F7 ; ..GBif.......O..
C236  .byte 13 EF 4F 0C 8F 19 1E 4F 0E EF 1D DF 7F 44 44 08 ; ..O....O.....DD.
C246  .byte 2A A9 9A F5 05 98 09 68 1D DF F4 0D 4E 0E EF F5 ; *......h....N...
C256  .byte 12 D2 35 39 3B BE F5 07 77 35 39 3B BE F4 0E EF ; ..59;...w59;....
C266  .byte 12 D1 F5 12 D1 2C C1 35 39 F5 03 BB 2C 31 35 39 ; .....,.59...,159
C276  .byte F4 0D 4E 0E EF 47 42 69 66 1B AB 9B 09 68 12 D1 ; ..N..GBif....h..
C286  .byte 4F 09 68 12 D1 4F 0B 30 16 60 4F 10 C0 21 87 7F ; O.h..O.0.`O..!..
C296  .byte 44 44 08 2A 99 6A F5 07 77 12 D1 21 87 F4 0E EF ; DD.*.j..w..!....
C2A6  .byte 12 D1 F5 12 D1 35 39 43 0F F5 03 BB 35 39 43 0F ; .....59C....59C.
C2B6  .byte F4 0E EF 12 D1 F5 12 D1 2C C1 35 39 F5 07 77 2C ; ........,.59..w,
C2C6  .byte C1 35 39 F4 0D 4E 0E EF 47 42 69 46 1B AB AB 09 ; .59..N..GBiF....
C2D6  .byte 68 12 D1 4F 09 68 12 D1 4F 0B 30 16 60 4F 10 C3 ; h..O.h..O.0.`O..
C2E6  .byte 21 87 7F 44 44 08 2A A9 9A F5 04 FB 0C 8F 21 87 ; !..DD.*.......!.
C2F6  .byte F4 0C 8F 0E EF F5 13 EF 32 3C 43 0F F5 07 77 32 ; ........2<C...w2
C306  .byte 3C 43 0F F4 0C 8F 0E EF F5 13 EF 27 DF 32 3C F5 ; <C.........'.2<.
C316  .byte 04 FB 27 DF 32 3C F4 0C 8F 0E EF DC 0C 21 21 21 ; ..'.2<.......!!!
C326  .byte E7 04 04 44 4B 4B 4B 6F F4 65 F4 09 F7 13 EF F4 ; ...DKKKo.e......
C336  .byte 09 F7 13 EF F4 0C 8F 19 1E F4 0E EF 1D DF C7 44 ; ...............D
C346  .byte 44 48 29 39 AA 0A F5 06 47 0C 8F 27 DF 84 09 F7 ; DH)9....G..'....
C356  .byte 0C 8F 83 4F BF F5 0C 8F 3B BE 4F BF F5 06 47 32 ; ...O....;.O...G2
C366  .byte 3C 4F BF 84 0C 8F 0E EF 83 3B BE F5 13 EF 32 3C ; <O.......;....2<
C376  .byte 3B BE F5 04 FB 32 3C 3B BE F4 09 F7 0C 8F 47 06 ; ;....2<;......G.
C386  .byte 46 46 6B 6B 6B 09 F7 13 EF 4F 09 F7 13 EF 4F 0C ; FFkkk....O....O.
C396  .byte 8F 19 1E 4F 0E EF 1D DF 7F 46 46 49 49 59 AA F5 ; ...O.....FFIIY..
C3A6  .byte 06 A7 06 AF 27 DF 84 0D 4E 10 C3 83 4F BF F5 0D ; ....'...N...O...
C3B6  .byte 4E 10 C3 4F BF F5 04 FB 43 0F 4F BF 84 0D 4E 10 ; N..O....C.O...N.
C3C6  .byte C3 83 43 0F F5 06 A7 35 39 43 0F F5 03 53 27 DF ; ..C....59C...S'.
C3D6  .byte 43 0F DF 21 21 41 C7 28 28 28 8B 8B 8B 0D F4 0B ; C..!!A.(((......
C3E6  .byte 30 16 60 F4 0B 30 16 60 F4 0D 4E 1A 9C F4 10 C3 ; 0.`..0.`..N.....
C3F6  .byte 21 87 C8 09 57 46 46 49 29 29 BA 03 BB 03 BB 21 ; !...WFFI)).....!
C406  .byte 87 4F 0E EF 12 D1 4F 12 D1 16 60 1F 06 A7 5F 0E ; .O....O...`..._.
C416  .byte EF 12 D1 1C 31 5F 12 D1 16 60 1D DF 5F 06 47 06 ; ....1_...`.._.G.
C426  .byte 4A 32 3C 4F 0E EF 13 EF 4F 13 EF 19 1E 1F 04 FB ; J2<O....O.......
C436  .byte 5F 0C 8F 0E EF 27 DF 5F 0E EF 13 EF 19 1E 5F 06 ; _....'._......_.
C446  .byte A7 06 AA 19 1E 4F 0D 4E 10 C3 5F 0D 4E 10 C3 16 ; .....O.N.._.N...
C456  .byte 60 5F 03 BB 03 BD 21 87 4F 0D 4E 12 D1 5F 12 D1 ; `_....!.O.N.._..
C466  .byte 16 60 1D DF 5F 09 F7 0C 8F 13 EF 8F 57 08 08 08 ; .`.._.......W...
C476  .byte 88 88 88 02 7D 04 FC 09 F9 58 02 7D 04 FC 09 F9 ; ....}....X.}....
C486  .byte FF 7D 11 11 11 28 24 46 3A 1A 5B EC 12 6F F4 65 ; .}...($F:.[..o.e
C496  .byte 32 32 3C 4F BF 28 2C C1 83 4B 45 85 05 98 2C C1 ; 22<O.(,..KE...,.
C4A6  .byte 4B 45 85 0B 30 27 DF 43 0F 85 0E 18 27 DF 43 0F ; KE..0'.C....'.C.
C4B6  .byte 81 05 98 85 0B 30 27 DF 43 0F 85 0E 18 25 A2 3F ; .....0'.C....%.?
C4C6  .byte 4B 85 05 98 25 A2 3F 4B 85 0B 30 27 DF 43 0F 85 ; K...%.?K..0'.C..
C4D6  .byte 0E 18 27 DF 43 0F 81 05 98 85 0E 18 13 EF 16 60 ; ..'.C..........`
C4E6  .byte 85 10 C3 13 EF 16 60 85 07 77 12 D1 19 1E 81 0B ; ......`..w......
C4F6  .byte 30 85 0E EF 12 D1 16 60 81 05 98 85 0B 30 12 D1 ; 0......`.....0..
C506  .byte 16 60 85 0E 18 12 D1 16 60 85 07 77 12 D1 21 87 ; .`......`..w..!.
C516  .byte 81 0B 30 85 0E EF 12 D1 1D DF 81 05 98 32 32 3C ; ..0..........22<
C526  .byte 4F BF 28 2C C1 83 4B 45 85 05 98 2C C1 4B 45 85 ; O.(,..KE...,.KE.
C536  .byte 0B 30 27 DF 43 0F 85 0E 18 27 DF 43 0F 81 05 98 ; .0'.C....'.C....
C546  .byte 85 0B 30 27 DF 43 0F 85 0D 4E 2C C1 4B 45 85 05 ; ..0'.C...N,.KE..
C556  .byte 98 38 63 59 83 85 0B 30 32 3C 4F BF 85 0E 18 32 ; .8cY...02<O....2
C566  .byte 3C 4F BF 81 05 98 5D 21 21 21 0B 30 13 EF 1C 31 ; <O....]!!!.0...1
C576  .byte 58 0B DA 13 EF 21 87 58 0C 8F 12 D1 21 87 5F 06 ; X....!.X....!._.
C586  .byte 47 12 D1 1D DF 58 09 F7 16 60 1C 31 5F 04 FB 13 ; G....X...`.1_...
C596  .byte EF 19 1E C8 09 57 08 08 08 89 89 89 0B 30 13 EF ; .....W.......0..
C5A6  .byte 19 1E 58 0B 30 13 EF 19 1E 58 0B 30 13 EF 19 1E ; ..X.0....X.0....
C5B6  .byte 5F 05 98 0E 18 16 60 5F 03 BB 07 77 0E EF FF 7D ; _.....`_...w...}
C5C6  .byte 21 11 21 06 48 68 1A 88 99 F3 1D DF 85 03 BB 0D ; !.!.Hh..........
C5D6  .byte 4E 1A 9C 82 0E EF 84 07 77 12 D1 82 16 60 85 07 ; N.......w....`..
C5E6  .byte 77 1A 9C 1D DF 82 1D EF 85 03 BB 0D 4E 1A 9C 82 ; w...........N...
C5F6  .byte 0E EF 84 07 77 12 D1 82 16 60 85 07 77 1A 9C 1D ; ....w....`..w...
C606  .byte DF 82 1D EF 57 06 48 89 1A 88 AB 03 BB 0D 4E 32 ; ....W.H.......N2
C616  .byte 3C 28 0E EF 48 07 77 12 D1 28 16 60 48 07 77 1A ; <(..H.w..(.`H.w.
C626  .byte 9C 28 1D DF 48 03 BB 0D 4E 28 0E EF 58 07 77 12 ; .(..H...N(..X.w.
C636  .byte D1 2C C1 28 16 60 58 07 77 1A 9C 1D DF 28 1D EF ; .,.(.`X.w....(..
C646  .byte 78 06 48 68 1A 88 99 85 04 FB 0C 8F 19 1E 82 0E ; x.Hh............
C656  .byte EF 84 09 F7 13 EF 82 19 1E 85 09 F7 1D EF 1D DF ; ................
C666  .byte 82 27 DF 85 04 FB 0C 8F 19 1E 82 0E EF 84 09 F7 ; .'..............
C676  .byte 13 EF 82 19 1E 85 09 F7 1D EF 1D DF 82 27 DF 57 ; .............'.W
C686  .byte 06 48 89 1A 88 AB 04 FB 0C 8F 2C C1 28 0E EF 48 ; .H........,.(..H
C696  .byte 09 F7 13 EF 28 19 1E 48 09 F7 1D DF 28 27 DF 48 ; ....(..H....('.H
C6A6  .byte 02 7D 0C 8F 28 0E EF 58 09 F7 13 EF 27 DF 48 09 ; .}..(..X....'.H.
C6B6  .byte F7 19 1E 58 09 F7 1D EF 1D DF 28 27 DF 78 06 48 ; ...X......('.x.H
C6C6  .byte 69 1A 88 A9 85 03 BB 0D 4E 1A 9C 82 0E EF 84 07 ; i.......N.......
C6D6  .byte 77 12 D1 82 16 60 85 07 77 1A 9C 1D DF 82 1D EF ; w....`..w.......
C6E6  .byte 85 03 BB 0D 4E 1A 9C 82 0E EF 84 07 77 12 D1 82 ; ....N.......w...
C6F6  .byte 16 60 85 07 77 1A 9C 1D DF 82 1D EF 57 06 48 89 ; .`..w.......W.H.
C706  .byte 1A 88 AB 03 BB 0D 4E 32 3C 28 0E EF 48 07 77 12 ; ......N2<(..H.w.
C716  .byte D1 28 16 60 48 07 77 1A 9C 28 1D DF 48 03 BB 0D ; .(.`H.w..(..H...
C726  .byte 4E 28 0E EF 58 07 77 12 D1 2C C1 28 16 60 58 07 ; N(..X.w..,.(.`X.
C736  .byte 77 1A 9C 1D DF 28 1D EF D8 21 21 21 F5 09 F7 19 ; w....(...!!!....
C746  .byte 1E 27 DF F5 12 D1 1A 9C 2C C1 F5 11 C3 1D DF 32 ; .'......,......2
C756  .byte 3C F5 06 A7 2A 3E 3B BE F1 03 53 F5 10 C3 2C C1 ; <...*>;...S...,.
C766  .byte 35 39 57 08 08 08 99 99 C9 07 77 27 DF 32 3C 58 ; 59W.......w'.2<X
C776  .byte 07 77 27 DF 32 3C 58 07 77 25 A2 32 3C 5F 03 BB ; .w'.2<X.w%.2<_..
C786  .byte 1A 9C 2C C1 5F 02 7D 19 1E 27 DF FF 7C 13 28 28 ; ..,._.}..'..|.((
C796  .byte 48 19 19 AA 83 27 DF 81 07 E9 84 0F D2 13 EF 84 ; H....'..........
C7A6  .byte 0F D2 13 EF 81 07 E9 85 0F D2 11 C3 2A 3E 85 0F ; ............*>..
C7B6  .byte D2 13 EF 27 DF 31 05 47 23 86 58 0A 8F 0D 4E 1F ; ...'.1.G#.X...N.
C7C6  .byte A5 58 0A 8F 0E EF 1D DF 58 0A 8F 0F D2 1A 9C 3F ; .X......X......?
C7D6  .byte 1A 9C 18 07 77 83 23 86 84 0E EF 11 C3 85 0E EF ; ....w.#.........
C7E6  .byte 11 C3 23 86 81 05 ED 85 0E EF 15 1F 1A 9C 85 0E ; ..#.............
C7F6  .byte EF 15 1F 17 B5 31 07 E9 17 B5 48 0F D2 13 EF 48 ; .....1....H....H
C806  .byte 0F D2 13 EF 48 0B DA 15 1F 28 13 EF 58 07 77 11 ; ....H....(..X.w.
C816  .byte C3 17 B5 18 07 E9 83 27 DF 84 0F D2 13 EF 84 0F ; .......'........
C826  .byte D2 13 EF 81 07 E9 85 0F D2 11 C3 2A 3E 85 0F D2 ; ...........*>...
C836  .byte 13 EF 27 DF 31 05 47 23 86 58 0A 8F 0D 4E 1F A5 ; ..'.1.G#.X...N..
C846  .byte 58 0A 8F 0E EF 1D DF 58 0B 30 12 D1 1A 9C 5F 07 ; X......X.0...._.
C856  .byte 77 12 D1 1A 9C 18 09 F7 83 19 1E 84 0E EF 13 EF ; w...............
C866  .byte 85 0E EF 13 EF 19 1E 81 09 F7 85 0F D2 12 D1 1A ; ................
C876  .byte 9C 85 0F D2 12 D1 1F A5 85 09 F7 19 1E 1D DF 84 ; ................
C886  .byte 07 77 0E EF 84 07 77 0E EF 84 07 77 0E EF 84 07 ; .w....w....w....
C896  .byte 77 0E EF DC 09 21 11 21 37 06 48 68 1A 88 99 1D ; w....!.!7.Hh....
C8A6  .byte DF 5F 03 BB 0D 4E 1A 9C 28 0E EF 48 07 77 12 D1 ; ._...N..(..H.w..
C8B6  .byte 28 16 60 58 07 77 1A 9C 1D DF 28 1D EF 58 03 BB ; (.`X.w....(..X..
C8C6  .byte 0D 4E 1A 9C 28 0E EF 48 07 77 12 D1 28 16 60 58 ; .N..(..H.w..(.`X
C8D6  .byte 07 77 1A 9C 1D DF 28 1D EF 78 06 48 89 1A 88 AB ; .w....(..x.H....
C8E6  .byte 85 03 BB 0D 4E 32 3C 82 0E EF 84 07 77 12 D1 82 ; ....N2<.....w...
C8F6  .byte 16 60 84 07 77 1A 9C 82 1D DF 84 03 BB 0D 4E 82 ; .`..w.........N.
C906  .byte 0E EF 85 07 77 12 D1 2C C1 82 16 60 85 07 77 1A ; ....w..,...`..w.
C916  .byte 9C 1D DF 82 1D EF 57 06 48 68 1A 88 99 04 FB 0C ; ......W.Hh......
C926  .byte 8F 19 1E 28 0E EF 48 09 F7 13 EF 28 19 1E 58 09 ; ...(..H....(..X.
C936  .byte F7 1D EF 1D DF 28 27 DF 58 04 FB 0C 8F 19 1E 28 ; .....('.X......(
C946  .byte 0E EF 48 09 F7 13 EF 28 19 1E 58 09 F7 1D EF 1D ; ..H....(..X.....
C956  .byte DF 28 27 DF 78 06 48 89 1A 88 AB 85 04 FB 0C 8F ; .('.x.H.........
C966  .byte 2C C1 82 0E EF 84 09 F7 13 EF 82 19 1E 84 09 F7 ; ,...............
C976  .byte 1D DF 82 27 DF 84 02 7D 0C 8F 82 0E EF 85 09 F7 ; ...'...}........
C986  .byte 13 EF 27 DF 84 09 F7 19 1E 85 09 F7 1D EF 1D DF ; ..'.............
C996  .byte 82 27 DF 57 06 48 69 1A 88 A9 03 BB 0D 4E 1A 9C ; .'.W.Hi......N..
C9A6  .byte 28 0E EF 48 07 77 12 D1 28 16 60 58 07 77 1A 9C ; (..H.w..(.`X.w..
C9B6  .byte 1D DF 28 1D EF 58 03 BB 0D 4E 1A 9C 28 0E EF 48 ; ..(..X...N..(..H
C9C6  .byte 07 77 12 D1 28 16 60 58 07 77 1A 9C 1D DF 28 1D ; .w..(.`X.w....(.
C9D6  .byte EF 78 06 48 89 1A 88 AB 85 03 BB 0D 4E 32 3C 82 ; .x.H........N2<.
C9E6  .byte 0E EF 84 07 77 12 D1 82 16 60 84 07 77 1A 9C 82 ; ....w....`..w...
C9F6  .byte 1D DF 84 03 BB 0D 4E 82 0E EF 85 07 77 12 D1 2C ; ......N.....w..,
CA06  .byte C1 82 16 60 85 07 77 1A 9C 1D DF 82 1D EF 5D 21 ; ...`..w.......]!
CA16  .byte 21 21 09 F7 19 1E 27 DF 5F 12 D1 1A 9C 2C C1 5F ; !!....'._....,._
CA26  .byte 11 C3 1D DF 32 3C 5F 06 A7 2A 3E 3B BE 1F 03 53 ; ....2<_..*>;...S
CA36  .byte 5F 10 C3 2C C1 35 39 7F 08 08 08 99 99 C9 85 07 ; _..,.59.........
CA46  .byte 77 27 DF 32 3C 85 07 77 27 DF 32 3C F5 07 77 25 ; w'.2<..w'.2<..w%
CA56  .byte A2 32 3C F5 03 BB 1A 9C 2C C1 85 02 7D 19 1E 27 ; .2<.....,...}..'
CA66  .byte DF 8C 30 9C 09 EC AA 00 00 00 00 00 00 00 00 00 ; ..0.............
CA76  .byte 00 00 00 00 00 00 00 00 00 00 00 00 00 00 00 00 ; ................
CA86  .byte 00 00 00 00 00 00 00 00 00 00 00 00 00 00 00 00 ; ................
CA96  .byte 00 00 00 00 00 00 00 00 00 00 00 00 00 00 00 00 ; ................
CAA6  .byte 00 00 00 00 00 00 00 00 00 00 00 00 00 00 00 00 ; ................
CAB6  .byte 00 00 00 00 00 00 00 00 00 00 00 00 00 00 00 00 ; ................
CAC6  .byte 00 00 00 00 00 00 00 00 00 00 00 00 00 00 00 00 ; ................
CAD6  .byte 00 00 00 00 00 00 00 00 00 00 00 00 00 00 00 00 ; ................
CAE6  .byte 00 00 00 00 00 00 00 00 00 00 00 00 00 00 00 00 ; ................
CAF6  .byte 00 00 00 00 00 00 00 00 00 00 00 00 00 00 00 00 ; ................
CB06  .byte 00 00 00 00 00 00 00 00 00 00 00 00 00 00 00 00 ; ................
CB16  .byte 00 00 00 00 00 00 00 00 00 00 00 00 00 00 00 00 ; ................
CB26  .byte 00 00 00 00 00 00 00 00 00 00 00 00 00 00 00 00 ; ................
CB36  .byte 00 00 00 00 00 00 00 00 00 00 00 00 00 00 00 00 ; ................
CB46  .byte 00 00 00 00 00 00 00 00 00 00 00 00 00 00 00 00 ; ................
CB56  .byte 00 00 00 00 00 00 00 00 00 00 00 00 00 00 00 00 ; ................
CB66  .byte 00 00 00 00 00 00 00 00 00 00 00 00 00 00 00 00 ; ................
CB76  .byte 00 00 00 00 00 00 00 00 00 00 00 00 00 00 00 00 ; ................
CB86  .byte 00 00 00 00 00 00 00 00 00 00 00 00 00 00 00 00 ; ................
CB96  .byte 00 00 00 00 00 00 00 00 00 00 00 00 00 00 00 00 ; ................
CBA6  .byte 00 00 00 00 00 00 00 00 00 00 00 00 00 00 00 00 ; ................
CBB6  .byte 00 00 00 00 00 00 00 00 00 00 00 00 00 00 00 00 ; ................
CBC6  .byte 00 00 00 00 00 00 00 00 00 00 00 00 00 00 00 00 ; ................
CBD6  .byte 00 00 00 00 00 00 00 00 00 00 00 00 00 00 00 00 ; ................
CBE6  .byte 00 00 00 00 00 00 00 00 00 00 00 00 00 00 00 00 ; ................
CBF6  .byte 00 00 00 00 00 00 00 00 00 00 00 00 00 00 00 00 ; ................
CC06  .byte 00 00 00 00 00 00 00 00 00 00 00 00 00 00 00 00 ; ................
CC16  .byte 00 00 00 00 00 00 00 00 00 00 00 00 00 00 00 00 ; ................
CC26  .byte 00 00 00 00 00 00 00 00 00 00 00 00 00 00 00 00 ; ................
CC36  .byte 00 00 00 00 00 00 00 00 00 00 00 00 00 00 00 00 ; ................
CC46  .byte 00 00 00 00 00 00 00 00 00 00 00 00 00 00 00 00 ; ................
CC56  .byte 00 00 00 00 00 00 00 00 00 00 00 00 00 00 00 00 ; ................
CC66  .byte 00 00 00 00 00 00 00 00 00 00 00 00 00 00 00 00 ; ................
CC76  .byte 00 00 00 00 00 00 00 00 00 00 00 00 00 00 00 00 ; ................
CC86  .byte 00 00 00 00 00 00 00 00 00 00 00 00 00 00 00 00 ; ................
CC96  .byte 00 00 00 00 00 00 00 00 00 00 00 00 00 00 00 00 ; ................
CCA6  .byte 00 00 00 00 00 00 00 00 00 00 00 00 00 00 00 00 ; ................
CCB6  .byte 00 00 00 00 00 00 00 00 00 00 00 00 00 00 00 00 ; ................
CCC6  .byte 00 00 00 00 00 00 00 00 00 00 00 00 00 00 00 00 ; ................
CCD6  .byte 00 00 00 00 00 00 00 00 00 00 00 00 00 00 00 00 ; ................
CCE6  .byte 00 00 00 00 00 00 00 00 00 00 00 00 00 00 00 00 ; ................
CCF6  .byte 00 00 00 00 00 00 00 00 00 00 00 00 00 00 00 00 ; ................
CD06  .byte 00 00 00 00 00 00 00 00 00 00 00 00 00 00 00 00 ; ................
CD16  .byte 00 00 00 00 00 00 00 00 00 00 00 00 00 00 00 00 ; ................
CD26  .byte 00 00 00 00 00 00 00 00 00 00 00 00 00 00 00 00 ; ................
CD36  .byte 00 00 00 00 00 00 00 00 00 00 00 00 00 00 00 00 ; ................
CD46  .byte 00 00 00 00 00 00 00 00 00 00 00 00 00 00 00 00 ; ................
CD56  .byte 00 00 00 00 00 00 00 00 00 00 00 00 00 00 00 00 ; ................
CD66  .byte 00 00 00 00 00 00 00 00 00 00 00 00 00 00 00 00 ; ................
CD76  .byte 00 00 00 00 00 00 00 00 00 00 00 00 00 00 00 00 ; ................
CD86  .byte 00 00 00 00 00 00 00 00 00 00 00 00 00 00 00 00 ; ................
CD96  .byte 00 00 00 00 00 00 00 00 00 00 00 00 00 00 00 00 ; ................
CDA6  .byte 00 00 00 00 00 00 00 00 00 00 00 00 00 00 00 00 ; ................
CDB6  .byte 00 00 00 00 00 00 00 00 00 00 00 00 00 00 00 00 ; ................
CDC6  .byte 00 00 00 00 00 00 00 00 00 00 00 00 00 00 00 00 ; ................
CDD6  .byte 00 00 00 00 00 00 00 00 00 00 00 00 00 00 00 00 ; ................
CDE6  .byte 00 00 00 00 00 00 00 00 00 00 00 00 00 00 00 00 ; ................
CDF6  .byte 00 00 00 00 00 00 00 00 00 00 00 00 00 AA B1 91 ; ................
CE06  .byte B3 00 00 00 00 00 00 00 00 00 00 00 00 00 00 00 ; ................
CE16  .byte 00 00 00 71 EB 86 00 00 00 00 00 00 00 00 00 00 ; ...q............
CE26  .byte 00 00 00 00 00 00 00 2C 08 00 00 00 00 00 00 00 ; .......,........
CE36  .byte 00 00 00 00 00 00 00 00 00 00 00 00 00 00 00 00 ; ................
CE46  .byte 00 00 00 00 00 00 00 00 00 00 00 00 00 00 4C 00 ; ..............L.
CE56  .byte 00 00 00 00 00 00 00 00 00 00 00 00 00 00 00 00 ; ................
CE66  .byte 00 00 00 00 00 00 00 00 00 00 00 00 00 00 00 00 ; ................
CE76  .byte 00 00 00 00 00 00 00 00 00 00 00 00 00 00 00 00 ; ................
CE86  .byte 00 00 00 00 00 00 00 00 00 00 40 00 00 00 00 00 ; ..........@.....
CE96  .byte 00 00 00 00 00 00 00 00 00 00 00 00 00 00 00 00 ; ................
CEA6  .byte 00 00 00 00 00 00 DB 03 DB 03 CA 00 00 00 00 00 ; ................
CEB6  .byte 00 00 00 00 00 00 00 00 00 00 00 00 00 00 00 00 ; ................
CEC6  .byte 00 00 00 00 00 00 00 00 00 00 00 00 00 00 00 00 ; ................
CED6  .byte 00 00 00 00 00 00 00 00 00 00 00 00 00 00 00 00 ; ................
CEE6  .byte 00 00 00 00 00 00 00 00 00 00 00 00 00 00 00 00 ; ................
CEF6  .byte 00 00 00 00 00 00 60 00 DC 00 8B E3 83 A4 7C A5 ; ......`.......|.
CF06  .byte 1A A7 E4 A7 86 AE 00 00 00 00 4C 48 B2 00 31 EA ; ..........LH..1.
CF16  .byte 28 80 47 FE 4A F3 91 F2 0E F2 50 F2 33 F3 57 F1 ; (.G.J.....P.3.W.
CF26  .byte CA F1 ED F6 3E F1 2F F3 66 FE A5 F4 ED F5 00 00 ; ....>./.f.......
CF36  .byte 00 00 00 00 00 00 00 00 00 00 00 00 00 00 00 00 ; ................
CF46  .byte 00 00 00 00 00 00 00 00 00 00 00 00 00 00 00 00 ; ................
CF56  .byte 00 00 00 00 00 00 00 00 00 00 00 00 00 00 00 00 ; ................
CF66  .byte 00 00 00 00 00 00 00 00 00 00 00 00 00 00 00 00 ; ................
CF76  .byte 00 00 00 00 00 00 00 00 00 00 00 00 00 00 00 00 ; ................
CF86  .byte 00 00 00 00 00 00 00 00 00 00 00 00 00 00 00 00 ; ................
CF96  .byte 00 00 00 00 00 00 00 00 00 00 00 00 00 00 00 00 ; ................
CFA6  .byte 00 00 00 00 00 00 00 00 00 00 00 00 00 00 00 00 ; ................
CFB6  .byte 00 00 00 00 00 00 00 00 00 00 00 00 00 00 00 00 ; ................
CFC6  .byte 00 00 00 00 00 00 00 00 00 00 00 00 00 00 00 00 ; ................
CFD6  .byte 00 00 00 00 00 00 00 00 00 00 00 00 00 00 00 00 ; ................
CFE6  .byte 00 00 00 00 00 00 00 00 00 00 00 00 00 00 00 00 ; ................
CFF6  .byte 00 00 00 00 00 00 00 00                         ; ........

; --- blueprint_ptrs  $CFFE — ship blueprint pointer table (one word per ship type) (data) ---
CFFE  .byte 00 00 A5 D0 A3 D1 BF D2 13 D3 53 D3 FB D3 9D D4 ; ..........S.....
D00E  .byte 73 D5 AF D5 E1 D6 C3 D8 4B DA 3D DB 33 DC 35 DD ; s.......K.=.3.5.
D01E  .byte 0B DE E5 DE 8D DF BB E0 A1 E1 D1 E2 95 E3 5B E4 ; ..............[.
D02E  .byte 0B E5 93 E6 BD E7 AF E8 C9 E9 A1 EA BD EB 29 EC ; ..............).
D03E  .byte 2B ED 2D EE 00 00 01 00 00 00 00 00 21 61 A0 A0 ; +.-.........!a..
D04E  .byte A0 A1 A1 C2 0C 8C 8C 8C 0C 8C 05 8C 8C 8C 82 0C ; ................
D05E  .byte 0C 04 04 20 00 95 00 10 0A 0A 06 08 0A 10 11 EA ; ... ............
D06E  .byte AA D5 00 55 1A 55 80 55 5A 55 AA 32 2A 15 2A 40 ; ...U.U.UZU.2*.*@
D07E  .byte C0 AA 21 55 55 00 00 00 00 00 00 00 00 00 00 00 ; ..!UU...........
D08E  .byte 00 00 00 01 00 00 00 00 00 00 00 00 00 01 01 01 ; ................
D09E  .byte 01 00 02 00 05 05 00 00 40 06 7A DA 55 00 0A 66 ; ........@.z.U..f
D0AE  .byte 18 00 00 24 0E 02 2C 00 00 02 00 00 00 44 1F 10 ; ...$..,......D..
D0BE  .byte 32 08 08 24 5F 21 54 08 08 24 1F 32 74 08 08 24 ; 2..$_!T..$.2t..$
D0CE  .byte 9F 30 76 08 08 24 DF 10 65 08 08 2C 3F 74 88 08 ; .0v..$..e..,?t..
D0DE  .byte 08 2C 7F 54 88 08 08 2C FF 65 88 08 08 2C BF 76 ; .,.T...,.e...,.v
D0EE  .byte 88 0C 0C 2C 28 74 88 0C 0C 2C 68 54 88 0C 0C 2C ; ...,(t...,hT...,
D0FE  .byte E8 65 88 0C 0C 2C A8 76 88 08 08 0C A8 76 77 08 ; .e...,.v.....vw.
D10E  .byte 08 0C E8 65 66 08 08 0C 28 74 77 08 08 0C 68 54 ; ...ef...(tw...hT
D11E  .byte 55 1F 21 00 04 1F 32 00 08 1F 30 00 0C 1F 10 00 ; U.!...2...0.....
D12E  .byte 10 1F 24 04 08 1F 51 04 10 1F 60 0C 10 1F 73 08 ; ..$...Q...`...s.
D13E  .byte 0C 1F 74 08 14 1F 54 04 18 1F 65 10 1C 1F 76 0C ; ..t...T...e...v.
D14E  .byte 20 1F 86 1C 20 1F 87 14 20 1F 84 14 18 1F 85 18 ;  ... ... .......
D15E  .byte 1C 08 85 18 28 08 87 14 24 08 87 20 30 08 85 1C ; ....(...$.. 0...
D16E  .byte 2C 08 74 24 3C 08 54 28 40 08 76 30 34 08 65 2C ; ,.t$<.T(@.v04.e,
D17E  .byte 38 9F 40 00 10 5F 00 40 10 1F 40 00 10 1F 00 40 ; 8.@.._.@..@....@
D18E  .byte 10 1F 20 00 00 5F 00 20 00 9F 20 00 00 1F 00 20 ; .. .._. .. .... 
D19E  .byte 00 3F 00 00 B0 00 00 64 74 E4 59 00 36 60 1C 00 ; .?.....dt.Y.6`..
D1AE  .byte 00 38 78 F0 00 00 00 00 06 A0 00 A0 1F 10 62 00 ; .8x...........b.
D1BE  .byte A0 A0 1F 20 83 A0 00 A0 9F 30 74 00 A0 A0 5F 10 ; ... .....0t..._.
D1CE  .byte 54 A0 A0 00 5F 51 A6 A0 A0 00 1F 62 B8 A0 A0 00 ; T..._Q.....b....
D1DE  .byte 9F 73 C8 A0 A0 00 DF 54 97 A0 00 A0 3F A6 DB 00 ; .s.....T....?...
D1EE  .byte A0 A0 3F B8 DC A0 00 A0 BF 97 DC 00 A0 A0 7F 95 ; ..?.............
D1FE  .byte DA 0A 1E A0 5E 00 00 0A 1E A0 1E 00 00 0A 1E A0 ; ....^...........
D20E  .byte 9E 00 00 0A 1E A0 DE 00 00 1F 10 00 0C 1F 20 00 ; .............. .
D21E  .byte 04 1F 30 04 08 1F 40 08 0C 1F 51 0C 10 1F 61 00 ; ..0...@...Q...a.
D22E  .byte 10 1F 62 00 14 1F 82 14 04 1F 83 04 18 1F 73 08 ; ..b...........s.
D23E  .byte 18 1F 74 08 1C 1F 54 0C 1C 1F DA 20 2C 1F DB 20 ; ..t...T.... ,.. 
D24E  .byte 24 1F DC 24 28 1F D9 28 2C 1F A5 10 2C 1F A6 10 ; $..$(..(,...,...
D25E  .byte 20 1F B6 14 20 1F B8 14 24 1F C8 18 24 1F C7 18 ;  ... ...$...$...
D26E  .byte 28 1F 97 1C 28 1F 95 1C 2C 1E 00 30 34 1E 00 34 ; (...(...,..04..4
D27E  .byte 38 1E 00 38 3C 1E 00 3C 30 1F 00 00 A0 5F 6B 6B ; 8..8<..<0...._kk
D28E  .byte 6B 1F 6B 6B 6B 9F 6B 6B 6B DF 6B 6B 6B 5F 00 A0 ; k.kkk.kkk.kkk_..
D29E  .byte 00 1F A0 00 00 9F A0 00 00 1F 00 A0 00 FF 6B 6B ; ..............kk
D2AE  .byte 6B 7F 6B 6B 6B 3F 6B 6B 6B BF 6B 6B 6B 3F 00 00 ; k.kkk?kkk.kkk?..
D2BE  .byte A0 20 00 01 2C 44 1D 00 16 18 06 00 00 10 08 11 ; . ..,D..........
D2CE  .byte 08 00 00 04 00 07 00 24 9F 12 33 07 0E 0C FF 02 ; .......$..3.....
D2DE  .byte 33 07 0E 0C BF 01 33 15 00 00 1F 01 22 1F 23 00 ; 3.....3.....".#.
D2EE  .byte 04 1F 03 04 08 1F 01 08 0C 1F 12 0C 00 1F 13 00 ; ................
D2FE  .byte 08 1F 02 0C 04 3F 34 00 7A 1F 27 67 1E 5F 27 67 ; .....?4.z.'g._'g
D30E  .byte 1E 9F 70 00 00 80 64 00 2C 3C 15 00 0A 18 04 00 ; ..p...d.,<......
D31E  .byte 00 04 05 10 10 00 00 03 00 0F 16 09 FF FF FF 0F ; ................
D32E  .byte 26 09 BF FF FF 13 20 0B 14 FF FF 0A 2E 06 54 FF ; &..... .......T.
D33E  .byte FF 1F FF 00 04 10 FF 04 08 14 FF 08 0C 10 FF 0C ; ................
D34E  .byte 00 00 00 00 00 00 90 01 50 8C 35 00 12 3C 0F 00 ; ........P.5..<..
D35E  .byte 00 1C 0C 11 0F 00 00 02 00 18 10 00 1F 10 55 18 ; ..............U.
D36E  .byte 05 0F 1F 10 22 18 0D 09 5F 20 33 18 0D 09 7F 30 ; ...."..._ 3....0
D37E  .byte 44 18 05 0F 3F 40 55 18 10 00 9F 51 66 18 05 0F ; D...?@U....Qf...
D38E  .byte 9F 21 66 18 0D 09 DF 32 66 18 0D 09 FF 43 66 18 ; .!f....2f....Cf.
D39E  .byte 05 0F BF 54 66 1F 10 00 04 1F 20 04 08 1F 30 08 ; ...Tf..... ...0.
D3AE  .byte 0C 1F 40 0C 10 1F 50 00 10 1F 51 00 14 1F 21 04 ; ..@...P...Q...!.
D3BE  .byte 18 1F 32 08 1C 1F 43 0C 20 1F 54 10 24 1F 61 14 ; ..2...C. .T.$.a.
D3CE  .byte 18 1F 62 18 1C 1F 63 1C 20 1F 64 20 24 1F 65 24 ; ..b...c. .d $.e$
D3DE  .byte 14 1F 60 00 00 1F 00 29 1E 5F 00 12 30 5F 00 33 ; ..`....)._..0_.3
D3EE  .byte 00 7F 00 12 30 3F 00 29 1E 9F 60 00 00 00 84 03 ; ....0?.)..`.....
D3FE  .byte 3E 7A 31 00 0E 2A 0F 01 00 28 14 14 1E 00 00 02 ; >z1..*...(......
D40E  .byte 00 12 25 0B BF 01 59 1E 07 0C 1F 12 56 1C 07 0C ; ..%...Y.....V...
D41E  .byte 7F 23 67 02 00 27 3F 34 78 1C 22 1E BF 04 89 05 ; .#g..'?4x.".....
D42E  .byte 0A 0D 5F FF FF 14 11 1E 3F FF FF 1F 15 00 04 1F ; .._.....?.......
D43E  .byte 26 04 08 1F 37 08 0C 1F 48 0C 10 1F 09 10 00 1F ; &...7...H.......
D44E  .byte 01 00 14 1F 12 04 14 1F 23 08 14 1F 34 0C 14 1F ; ........#...4...
D45E  .byte 04 10 14 1F 59 00 18 1F 56 04 18 1F 67 08 18 1F ; ....Y...V...g...
D46E  .byte 78 0C 18 1F 89 10 18 DF 0F 03 08 9F 07 0C 1E 5F ; x.............._
D47E  .byte 20 2F 18 FF 03 27 07 FF 05 04 01 1F 31 54 08 3F ;  /...'......1T.?
D48E  .byte 70 15 15 7F 4C 23 52 3F 16 38 89 3F 28 6E 26 00 ; p...L#R?.8.?(n&.
D49E  .byte 00 19 4A 9E 45 00 22 36 15 05 00 38 32 3C 1E 00 ; ..J.E."6...82<..
D4AE  .byte 00 01 00 00 50 00 1F FF FF 50 0A 00 DF FF FF 00 ; ....P....P......
D4BE  .byte 50 00 5F FF FF 46 28 00 5F FF FF 3C 32 00 1F 65 ; P._..F(._..<2..e
D4CE  .byte DC 32 00 3C 1F FF FF 28 00 46 9F 10 32 00 1E 4B ; .2.<...(.F..2..K
D4DE  .byte 3F FF FF 00 32 3C 7F 98 BA 1F 72 00 04 1F D6 00 ; ?...2<....r.....
D4EE  .byte 10 1F C5 0C 10 1F B4 08 0C 1F A3 04 08 1F 32 04 ; ..............2.
D4FE  .byte 18 1F 31 08 18 1F 41 08 14 1F 10 14 18 1F 60 00 ; ..1...A.......`.
D50E  .byte 14 1F 54 0C 14 1F 20 00 18 1F 65 10 14 1F A8 04 ; ..T... ...e.....
D51E  .byte 20 1F 87 04 1C 1F D7 00 1C 1F DC 10 1C 1F C9 0C ;  ...............
D52E  .byte 1C 1F B9 0C 20 1F BA 08 20 1F 98 1C 20 1F 09 42 ; .... ... ... ..B
D53E  .byte 51 5F 09 42 51 9F 48 40 1F DF 40 49 2F 5F 2D 4F ; Q_.BQ.H@..@I/_-O
D54E  .byte 41 1F 87 0F 23 1F 26 4C 46 BF 42 3B 27 FF 43 0F ; A...#.&LF.B;'.C.
D55E  .byte 50 7F 42 0E 4B FF 46 50 28 7F 3A 66 33 3F 51 09 ; P.B.K.FP(.:f3?Q.
D56E  .byte 43 3F 2F 5E 3F B0 00 01 78 44 1D 00 16 18 06 00 ; C?/^?...xD......
D57E  .byte 00 10 08 14 0A FD 00 05 00 18 19 10 DF 12 33 00 ; ..............3.
D58E  .byte 0C 0A 3F 02 33 0B 06 02 5F 01 33 0C 2A 07 1F 01 ; ..?.3..._.3.*...
D59E  .byte 22 1F 23 00 04 1F 03 04 08 1F 01 08 0C 1F 12 0C ; ".#.............
D5AE  .byte 00 0F C4 09 86 FE 71 00 26 72 1E 00 00 34 16 20 ; ......q.&r...4. 
D5BE  .byte 08 00 00 02 00 00 11 17 5F FF FF 11 00 17 9F FF ; ........_.......
D5CE  .byte FF 00 12 17 1F FF FF 12 00 17 1F FF FF 14 14 1B ; ................
D5DE  .byte FF 12 39 14 14 1B BF 34 59 14 14 1B 3F 56 79 14 ; ..9....4Y...?Vy.
D5EE  .byte 14 1B 7F 17 89 05 00 1B 30 99 99 00 02 1B 70 99 ; ........0.....p.
D5FE  .byte 99 05 00 1B A9 99 99 00 03 1B 29 99 99 00 09 23 ; ..........)....#
D60E  .byte 50 0A BC 03 01 1F 47 FF 02 04 0B 19 08 01 F4 0B ; P.....G.........
D61E  .byte 04 19 08 A1 3F 03 01 1F C7 6B 23 03 0B 19 88 F8 ; ....?....k#.....
D62E  .byte C0 0A 04 19 88 4F 18 1F 02 00 04 1F 4A 04 08 1F ; .....O......J...
D63E  .byte 6B 08 0C 1F 8C 00 0C 1F 18 00 1C 18 12 00 10 1F ; k...............
D64E  .byte 23 04 10 18 34 04 14 1F 45 08 14 0C 56 08 18 1F ; #...4...E...V...
D65E  .byte 67 0C 18 18 78 0C 1C 1F 39 10 14 1F 59 14 18 1F ; g...x...9...Y...
D66E  .byte 79 18 1C 1F 19 10 1C 10 0C 00 30 10 0A 04 30 10 ; y.........0...0.
D67E  .byte AB 08 30 10 BC 0C 30 10 99 20 24 07 99 24 28 09 ; ..0...0.. $..$(.
D68E  .byte 99 28 2C 07 99 20 2C 05 BB 34 38 08 BB 38 3C 07 ; .(,.. ,..48..8<.
D69E  .byte BB 34 3C 05 AA 40 44 08 AA 44 48 07 AA 40 48 DF ; .4<..@D..DH..@H.
D6AE  .byte 37 37 28 5F 00 4A 04 DF 33 33 17 9F 4A 00 04 9F ; 77(_.J..33..J...
D6BE  .byte 33 33 17 1F 00 4A 04 1F 33 33 17 1F 4A 00 04 5F ; 33...J..33..J.._
D6CE  .byte 33 33 17 3F 00 00 6B 9F 29 29 5A 1F 29 29 5A 5F ; 33.?..k.))Z.))Z_
D6DE  .byte 37 37 28 00 C4 09 F2 AA 95 30 1A DE 2E 00 00 38 ; 77(......0.....8
D6EE  .byte 10 20 0A 00 01 02 00 00 0A 1A 3F 06 77 19 04 1A ; . ........?.w...
D6FE  .byte BF 01 77 1C 03 1A FF 01 22 19 08 1A FF 02 33 1A ; ..w.....".....3.
D70E  .byte 08 1A 7F 03 44 1D 03 1A 7F 04 55 1A 04 1A 3F 05 ; ....D.....U...?.
D71E  .byte 66 00 06 0C 13 FF FF 1E 01 0C DF 17 89 21 08 0C ; f............!..
D72E  .byte DF 12 39 21 08 0C 5F 34 5A 1E 01 0C 5F 56 AB 0B ; ..9!.._4Z..._V..
D73E  .byte 02 1E DF 89 CD 0D 08 1E DF 39 DD 0E 08 1E 5F 3A ; .........9...._:
D74E  .byte DD 0B 02 1E 5F AB CD 05 06 02 87 77 77 12 03 02 ; ...._......ww...
D75E  .byte 87 77 77 05 07 07 A7 77 77 12 04 07 A7 77 77 0B ; .ww....ww....ww.
D76E  .byte 06 0E A7 77 77 0B 05 07 A7 77 77 05 07 0E 27 66 ; ...ww....ww...'f
D77E  .byte 66 12 04 0E 27 66 66 0B 05 07 27 66 66 05 06 03 ; f...'ff...'ff...
D78E  .byte 27 66 66 12 03 03 27 66 66 0B 04 08 07 66 66 0B ; 'ff...'ff....ff.
D79E  .byte 05 03 27 66 66 10 08 0D E6 33 33 10 08 10 C6 33 ; ..'ff....33....3
D7AE  .byte 33 11 08 0D 66 33 33 11 08 10 46 33 33 0D 03 1A ; 3...f33...F33...
D7BE  .byte E8 00 00 0D 03 1A 68 00 00 09 03 1A 25 00 00 08 ; ......h.....%...
D7CE  .byte 03 1A A5 00 00 1F 07 00 04 1F 01 04 08 1F 02 08 ; ................
D7DE  .byte 0C 1F 03 0C 10 1F 04 10 14 1F 05 14 18 1F 06 00 ; ................
D7EE  .byte 18 10 67 00 1C 1F 17 04 20 0B 12 08 24 1F 23 0C ; ..g..... ...$.#.
D7FE  .byte 24 1F 34 10 28 0B 45 14 28 1F 56 18 2C 11 78 1C ; $.4.(.E.(.V.,.x.
D80E  .byte 20 11 19 20 24 11 5A 28 2C 11 6B 1C 2C 13 BC 1C ;  .. $.Z(,.k.,...
D81E  .byte 3C 13 8C 1C 30 10 89 20 30 1F 39 24 34 1F 3A 28 ; <...0.. 0.9$4.:(
D82E  .byte 38 10 AB 2C 3C 1F 9D 30 34 1F 3D 34 38 1F AD 38 ; 8..,<..04.=48..8
D83E  .byte 3C 1F CD 30 3C 07 77 40 44 07 77 48 4C 07 77 4C ; <..0<.w@D.wHL.wL
D84E  .byte 50 07 77 48 50 07 77 50 54 07 66 58 5C 07 66 5C ; P.wHP.wPT.fX\.f\
D85E  .byte 60 07 66 60 58 07 66 64 68 07 66 68 6C 07 66 64 ; `.f`X.fdh.fhl.fd
D86E  .byte 6C 07 66 6C 70 06 33 74 78 06 33 7C 80 08 00 84 ; l.flp.3tx.3|....
D87E  .byte 88 05 00 88 8C 05 00 8C 90 05 00 90 84 3F 00 00 ; .............?..
D88E  .byte 67 BF 6F 30 07 FF 69 3F 15 5F 00 22 00 7F 69 3F ; g.o0..i?._."..i?
D89E  .byte 15 3F 6F 30 07 1F 08 20 03 9F 08 20 03 93 08 22 ; .?o0... ... ..."
D8AE  .byte 0B 9F 4B 20 4F 1F 4B 20 4F 13 08 22 0B 1F 00 26 ; ..K O.K O.."...&
D8BE  .byte 11 1F 00 00 79 03 41 23 BC 54 9D 54 2A A8 26 00 ; ....y.A#.T.T*.&.
D8CE  .byte 00 34 32 96 1C 00 01 01 13 20 00 4C 1F FF FF 20 ; .42...... .L... 
D8DE  .byte 00 4C 9F FF FF 00 1A 18 1F FF FF 78 03 08 FF 73 ; .L.........x...s
D8EE  .byte AA 78 03 08 7F 84 CC 58 10 28 BF FF FF 58 10 28 ; .x.....X.(...X.(
D8FE  .byte 3F FF FF 80 08 28 7F 98 CC 80 08 28 FF 97 AA 00 ; ?....(.....(....
D90E  .byte 1A 28 3F 65 99 20 18 28 FF A9 BB 20 18 28 7F B9 ; .(?e. .(... .(..
D91E  .byte CC 24 08 28 B4 99 99 08 0C 28 B4 99 99 08 0C 28 ; .$.(.....(.....(
D92E  .byte 34 99 99 24 08 28 34 99 99 24 0C 28 74 99 99 08 ; 4..$.(4..$.(t...
D93E  .byte 10 28 74 99 99 08 10 28 F4 99 99 24 0C 28 F4 99 ; .(t....(...$.(..
D94E  .byte 99 00 00 4C 06 B0 BB 00 00 5A 1F B0 BB 50 06 28 ; ...L.....Z...P.(
D95E  .byte E8 99 99 50 06 28 A8 99 99 58 00 28 A6 99 99 50 ; ...P.(...X.(...P
D96E  .byte 06 28 28 99 99 58 00 28 26 99 99 50 06 28 68 99 ; .((..X.(&..P.(h.
D97E  .byte 99 1F B0 00 04 1F C4 00 10 1F A3 04 0C 1F A7 0C ; ................
D98E  .byte 20 1F C8 10 1C 1F 98 18 1C 1F 96 18 24 1F 95 14 ;  ...........$...
D99E  .byte 24 1F 97 14 20 1F 51 08 14 1F 62 08 18 1F 73 0C ; $... .Q...b...s.
D9AE  .byte 14 1F 84 10 18 1F 10 04 08 1F 20 00 08 1F A9 20 ; .......... .... 
D9BE  .byte 28 1F B9 28 2C 1F C9 1C 2C 1F BA 04 28 1F CB 00 ; (..(,...,...(...
D9CE  .byte 2C 1D 31 04 14 1D 42 00 18 06 B0 50 54 14 99 30 ; ,.1...B....PT..0
D9DE  .byte 34 14 99 48 4C 14 99 38 3C 14 99 40 44 13 99 3C ; 4..HL..8<..@D..<
D9EE  .byte 40 11 99 38 44 13 99 34 48 13 99 30 4C 1E 65 08 ; @..8D..4H..0L.e.
D9FE  .byte 24 06 99 58 60 06 99 5C 60 08 99 58 5C 06 99 64 ; $..X`..\`..X\..d
DA0E  .byte 68 06 99 68 6C 08 99 64 6C 1F 00 3E 1F 9F 12 37 ; h..hl..dl..>...7
DA1E  .byte 10 1F 12 37 10 9F 10 34 0E 1F 10 34 0E 9F 0E 2F ; ...7...4...4.../
DA2E  .byte 00 1F 0E 2F 00 9F 3D 66 00 1F 3D 66 00 3F 00 00 ; .../..=f..=f.?..
DA3E  .byte 50 DF 07 2A 09 5F 00 1E 06 5F 07 2A 09 05 00 19 ; P..*._..._.*....
DA4E  .byte 56 BE 59 00 2A 42 1A 00 00 34 28 FA 14 00 00 00 ; V.Y.*B...4(.....
DA5E  .byte 1B 00 00 E0 1F 10 32 00 30 30 1F 10 54 60 00 10 ; ......2.00..T`..
DA6E  .byte 3F FF FF 60 00 10 BF FF FF 00 30 20 3F 54 98 00 ; ?..`......0 ?T..
DA7E  .byte 18 70 3F 89 CC 30 00 70 BF B8 CC 30 00 70 3F A9 ; .p?..0.p...0.p?.
DA8E  .byte CC 00 30 30 5F 32 76 00 30 20 7F 76 BA 00 18 70 ; ..00_2v.0 .v...p
DA9E  .byte 7F BA CC 1F 32 00 20 1F 20 00 0C 1F 31 00 08 1F ; ....2. . ...1...
DAAE  .byte 10 00 04 1F 59 08 10 1F 51 04 08 1F 37 08 20 1F ; ....Y...Q...7. .
DABE  .byte 40 04 0C 1F 62 0C 20 1F A7 08 24 1F 84 0C 10 1F ; @...b. ...$.....
DACE  .byte B6 0C 24 07 88 0C 14 07 BB 0C 28 07 99 08 14 07 ; ..$.......(.....
DADE  .byte AA 08 28 1F A9 08 1C 1F B8 0C 18 1F C8 14 18 1F ; ..(.............
DAEE  .byte C9 14 1C 1F AC 1C 28 1F CB 18 28 1F 98 10 14 1F ; ......(...(.....
DAFE  .byte BA 24 28 1F 54 04 10 1F 76 20 24 9F 1B 28 0B 1F ; .$(.T...v $..(..
DB0E  .byte 1B 28 0B DF 1B 28 0B 5F 1B 28 0B 9F 13 26 00 1F ; .(...(._.(...&..
DB1E  .byte 13 26 00 DF 13 26 00 5F 13 26 00 BF 19 25 0B 3F ; .&...&._.&...%.?
DB2E  .byte 19 25 0B 7F 19 25 0B FF 19 25 0B 3F 00 00 70 05 ; .%...%...%.?..p.
DB3E  .byte 24 13 62 C2 5D 00 26 4E 18 00 00 34 28 FA 18 00 ; $.b.].&N...4(...
DB4E  .byte 00 00 1C 00 00 5D 1F FF FF 00 28 57 38 02 33 26 ; .....]....(W8.3&
DB5E  .byte 19 63 78 01 44 26 19 63 F8 12 55 26 28 3B BF 23 ; .cx.D&.c..U&(;.#
DB6E  .byte 69 26 28 3B 3F 03 6B 3E 00 43 3F 04 8B 18 41 4F ; i&(;?.k>.C?...AO
DB7E  .byte 7F 14 8A 18 41 4F FF 15 7A 3E 00 43 BF 25 79 00 ; ....AO..z>.C.%y.
DB8E  .byte 07 6B 36 02 AA 0D 09 6B 76 01 AA 0D 09 6B F6 12 ; .k6....kv....k..
DB9E  .byte CC 1F 6B 00 14 1F 8A 00 1C 1F 79 00 24 1D 69 00 ; ..k.......y.$.i.
DBAE  .byte 10 1D 8B 00 18 1D 7A 00 20 1F 36 10 14 1F 0B 14 ; ......z. .6.....
DBBE  .byte 18 1F 48 18 1C 1F 1A 1C 20 1F 57 20 24 1F 29 10 ; ..H..... .W $.).
DBCE  .byte 24 18 23 04 10 18 03 04 14 18 25 0C 24 18 15 0C ; $.#.......%.$...
DBDE  .byte 20 18 04 08 18 18 14 08 1C 16 02 04 28 16 01 08 ;  ...........(...
DBEE  .byte 2C 16 12 0C 30 0E 0C 28 2C 0E 1C 2C 30 0E 2C 30 ; ,...0..(,..,0.,0
DBFE  .byte 28 3F 2B 25 3C 7F 00 2D 59 BF 2B 25 3C 1F 00 28 ; (?+%<..-Y.+%<..(
DC0E  .byte 00 7F 3E 20 14 FF 3E 20 14 1F 00 17 06 DF 17 0F ; ..> ..> ........
DC1E  .byte 09 5F 17 0F 09 9F 1A 0D 0A 5F 00 1F 0C 1F 1A 0D ; ._......._......
DC2E  .byte 0A 2E 00 00 6B 07 10 27 6E D2 5D 30 2E 5A 19 00 ; ....k..'n.]0.Z..
DC3E  .byte 00 30 24 FC 0E 00 00 01 3F 00 07 3A 3E 01 55 2B ; .0$.....?..:>.U+
DC4E  .byte 0D 25 FE 01 22 1A 2F 03 FE 02 33 1A 2F 03 7E 03 ; .%.."./...3./.~.
DC5E  .byte 44 2B 0D 25 7E 04 55 00 30 31 3E 15 66 45 0F 0F ; D+.%~.U.01>.fE..
DC6E  .byte BE 12 77 2B 27 28 DF 23 88 2B 27 28 5F 34 99 45 ; ..w+'(.#.+'(_4.E
DC7E  .byte 0F 0F 3E 45 AA 2B 35 17 BF FF FF 45 01 20 DF 27 ; ..>E.+5....E. .'
DC8E  .byte 88 00 00 FE 1F FF FF 45 01 20 5F 49 AA 2B 35 17 ; .......E. _I.+5.
DC9E  .byte 3F FF FF 1E 01 00 04 1E 02 04 08 1E 03 08 0C 1E ; ?...............
DCAE  .byte 04 0C 10 1E 05 00 10 1D 15 00 14 1D 12 04 18 1D ; ................
DCBE  .byte 23 08 1C 1D 34 0C 20 1D 45 10 24 1E 16 14 28 1E ; #...4. .E.$...(.
DCCE  .byte 17 18 28 1E 27 18 2C 1E 28 1C 2C 1F 38 1C 30 1F ; ..(.'.,.(.,.8.0.
DCDE  .byte 39 20 30 1E 49 20 34 1E 4A 24 34 1E 5A 24 38 1E ; 9 0.I 4.J$4.Z$8.
DCEE  .byte 56 14 38 1E 6B 28 38 1F 7B 28 30 1F 78 2C 30 1F ; V.8.k(8.{(0.x,0.
DCFE  .byte 9A 30 34 1F AB 30 38 7E 00 33 31 BE 33 12 57 FE ; .04..08~.31.3.W.
DD0E  .byte 4D 39 13 5F 00 5A 10 7E 4D 39 13 3E 33 12 57 3E ; M9._.Z.~M9.>3.W>
DD1E  .byte 00 6F 14 9F 61 48 18 DF 6C 44 22 5F 6C 44 22 1F ; .o..aH..lD"_lD".
DD2E  .byte 61 48 18 1F 00 5E 12 07 00 19 4A 9E 45 00 32 36 ; aH...^....J.E.26
DD3E  .byte 15 00 00 38 32 B4 1E 00 00 01 02 00 50 00 1F FF ; ...82.......P...
DD4E  .byte FF 50 0A 00 DF FF FF 00 50 00 5F FF FF 46 28 00 ; .P......P._..F(.
DD5E  .byte 5F FF FF 3C 32 00 1F 65 DC 32 00 3C 1F FF FF 28 ; _..<2..e.2.<...(
DD6E  .byte 00 46 9F 10 32 00 1E 4B 3F FF FF 00 32 3C 7F 98 ; .F..2..K?...2<..
DD7E  .byte BA 1F 72 00 04 1F D6 00 10 1F C5 0C 10 1F B4 08 ; ..r.............
DD8E  .byte 0C 1F A3 04 08 1F 32 04 18 1F 31 08 18 1F 41 08 ; ......2...1...A.
DD9E  .byte 14 1F 10 14 18 1F 60 00 14 1F 54 0C 14 1F 20 00 ; ......`...T... .
DDAE  .byte 18 1F 65 10 14 1F A8 04 20 1F 87 04 1C 1F D7 00 ; ..e..... .......
DDBE  .byte 1C 1F DC 10 1C 1F C9 0C 1C 1F B9 0C 20 1F BA 08 ; ............ ...
DDCE  .byte 20 1F 98 1C 20 1F 09 42 51 5F 09 42 51 9F 48 40 ;  ... ..BQ_.BQ.H@
DDDE  .byte 1F DF 40 49 2F 5F 2D 4F 41 1F 87 0F 23 1F 26 4C ; ..@I/_-OA...#.&L
DDEE  .byte 46 BF 42 3B 27 FF 43 0F 50 7F 42 0E 4B FF 46 50 ; F.B;'.C.P.B.K.FP
DDFE  .byte 28 7F 3A 66 33 3F 51 09 43 3F 2F 5E 3F 00 F9 15 ; (.:f3?Q.C?/^?...
DE0E  .byte 6E BE 51 00 2A 5A 14 00 00 1C 17 8C 20 00 00 01 ; n.Q.*Z...... ...
DE1E  .byte 11 00 00 48 1F 21 43 00 10 18 1E 10 22 00 10 18 ; ...H.!C....."...
DE2E  .byte 5E 43 55 30 00 18 3F 42 66 30 00 18 BF 31 66 18 ; ^CU0..?Bf0...1f.
DE3E  .byte 10 18 7E 54 66 18 10 18 FE 35 66 18 10 18 3F 20 ; ..~Tf....5f...? 
DE4E  .byte 66 18 10 18 BF 10 66 20 00 18 B3 66 66 20 00 18 ; f.....f ...ff ..
DE5E  .byte 33 66 66 08 08 18 33 66 66 08 08 18 B3 66 66 08 ; 3ff...3ff....ff.
DE6E  .byte 08 18 F2 66 66 08 08 18 72 66 66 1F 42 00 0C 1E ; ...ff...rff.B...
DE7E  .byte 21 00 04 1E 43 00 08 1F 31 00 10 1E 20 04 1C 1E ; !...C...1... ...
DE8E  .byte 10 04 20 1E 54 08 14 1E 53 08 18 1F 60 1C 20 1E ; .. .T...S...`. .
DE9E  .byte 65 14 18 1F 61 10 20 1E 63 10 18 1F 62 0C 1C 1E ; e...a. .c...b...
DEAE  .byte 46 0C 14 13 66 24 30 12 66 24 34 13 66 28 2C 12 ; F...f$0.f$4.f(,.
DEBE  .byte 66 28 38 10 66 2C 38 10 66 30 34 1F 00 20 00 9F ; f(8.f,8.f04.. ..
DECE  .byte 16 21 0B 1F 16 21 0B DF 16 21 0B 5F 16 21 0B 5F ; .!...!...!._.!._
DEDE  .byte 00 20 00 3F 00 00 30 00 81 10 50 8C 41 00 1E 3C ; . .?..0...P.A..<
DEEE  .byte 0F 32 00 1C 14 46 25 00 00 02 10 20 00 24 9F 10 ; .2...F%.... .$..
DEFE  .byte 54 20 00 24 1F 20 65 40 00 1C 3F 32 66 40 00 1C ; T .$. e@..?2f@..
DF0E  .byte BF 31 44 00 10 1C 3F 10 32 00 10 1C 7F 43 65 0C ; .1D...?.2....Ce.
DF1E  .byte 06 1C AF 33 33 0C 06 1C 2F 33 33 0C 06 1C 6C 33 ; ...33.../33...l3
DF2E  .byte 33 0C 06 1C EC 33 33 1F 50 00 04 1F 62 04 08 1F ; 3....33.P...b...
DF3E  .byte 20 04 10 1F 10 00 10 1F 41 00 0C 1F 31 0C 10 1F ;  .......A...1...
DF4E  .byte 32 08 10 1F 43 0C 14 1F 63 08 14 1F 65 04 14 1F ; 2...C...c...e...
DF5E  .byte 54 00 14 0F 33 18 1C 0C 33 1C 20 0C 33 18 24 0C ; T...3...3. .3.$.
DF6E  .byte 33 20 24 1F 00 20 08 9F 0C 2F 06 1F 0C 2F 06 3F ; 3 $.. .../.../.?
DF7E  .byte 00 00 70 DF 0C 2F 06 5F 00 20 08 5F 0C 2F 06 01 ; ..p../._. ._./..
DF8E  .byte 24 13 AA 1A 61 00 22 96 1C 96 00 14 19 5A 1E 00 ; $...a."......Z..
DF9E  .byte 01 02 12 00 00 40 1F 10 32 40 08 20 FF 20 44 20 ; .....@..2@. . D 
DFAE  .byte 08 20 BE 21 44 20 08 20 3E 31 44 40 08 20 7F 30 ; . .!D . >1D@. .0
DFBE  .byte 44 04 04 10 8E 11 11 04 04 10 0E 11 11 08 03 1C ; D...............
DFCE  .byte 0D 11 11 08 03 1C 8D 11 11 14 04 10 D4 00 00 14 ; ................
DFDE  .byte 04 10 54 00 00 18 07 14 F4 00 00 10 07 14 F0 00 ; ..T.............
DFEE  .byte 00 10 07 14 70 00 00 18 07 14 74 00 00 08 04 20 ; ....p.....t.... 
DFFE  .byte AD 44 44 08 04 20 2D 44 44 08 04 20 6E 44 44 08 ; .DD.. -DD.. nDD.
E00E  .byte 04 20 EE 44 44 20 04 20 A7 44 44 20 04 20 27 44 ; . .DD . .DD . 'D
E01E  .byte 44 24 04 20 67 44 44 24 04 20 E7 44 44 26 00 20 ; D$. gDD$. .DD&. 
E02E  .byte A5 44 44 26 00 20 25 44 44 1F 20 00 04 1F 30 00 ; .DD&. %DD. ...0.
E03E  .byte 10 1F 40 04 10 1E 42 04 08 1E 41 08 0C 1E 43 0C ; ..@...B...A...C.
E04E  .byte 10 0E 11 14 18 0C 11 18 1C 0D 11 1C 20 0C 11 14 ; ............ ...
E05E  .byte 20 14 00 24 2C 10 00 24 30 10 00 28 34 14 00 28 ;  ..$,..$0..(4..(
E06E  .byte 38 0E 00 34 38 0E 00 2C 30 0D 44 3C 40 0E 44 44 ; 8..48..,0.D<@.DD
E07E  .byte 48 0C 44 3C 48 0C 44 40 44 07 44 50 54 05 44 50 ; H.D<H.D@D.DPT.DP
E08E  .byte 60 05 44 54 60 07 44 4C 58 05 44 4C 5C 05 44 58 ; `.DT`.DLX.DL\.DX
E09E  .byte 5C 1E 21 00 08 1E 31 00 0C 5E 00 18 02 1E 00 18 ; \.!...1..^......
E0AE  .byte 02 9E 20 40 10 1E 20 40 10 3E 00 00 7F 01 10 0E ; .. @.. @.>......
E0BE  .byte 7A CE 59 00 12 66 15 64 00 18 14 50 1E 00 00 01 ; z.Y..f.d...P....
E0CE  .byte 10 00 00 60 1F 01 23 00 12 30 3F 03 45 00 12 30 ; ...`..#..0?.E..0
E0DE  .byte 7F 12 45 5A 00 03 3F 01 44 5A 00 03 BF 23 55 5A ; ..EZ..?.DZ...#UZ
E0EE  .byte 00 57 1E 01 11 5A 00 57 9E 23 33 00 05 35 09 00 ; .W...Z.W.#3..5..
E0FE  .byte 33 00 07 26 06 00 33 12 07 13 89 33 33 12 07 13 ; 3..&..3....33...
E10E  .byte 09 00 00 12 0B 27 28 44 44 12 0B 27 68 44 44 24 ; .....'(DD..'hDD$
E11E  .byte 00 1E 28 44 44 12 0B 27 A8 55 55 12 0B 27 E8 55 ; ..(DD..'.UU..'.U
E12E  .byte 55 24 00 1E A8 55 55 1F 03 00 04 1F 12 00 08 1F ; U$...UU.........
E13E  .byte 01 00 0C 1F 23 00 10 1F 35 04 10 1F 25 10 08 1F ; ....#...5...%...
E14E  .byte 14 08 0C 1F 04 0C 04 1E 01 0C 14 1E 23 10 18 08 ; ............#...
E15E  .byte 45 04 08 09 00 1C 28 06 00 20 28 09 33 1C 24 06 ; E.....(.. (.3.$.
E16E  .byte 33 20 24 08 44 2C 34 08 44 34 30 07 44 30 2C 07 ; 3 $.D,4.D40.D0,.
E17E  .byte 55 38 3C 08 55 3C 40 08 55 40 38 1F 03 18 03 5F ; U8<.U<@.U@8...._
E18E  .byte 03 18 03 DF 03 18 03 9F 03 18 03 3F 26 00 4D BF ; ...........?&.M.
E19E  .byte 26 00 4D 00 C4 09 80 F4 65 00 16 6C 1D 28 00 3C ; &.M.....e..l.(.<
E1AE  .byte 14 55 18 00 00 02 10 12 00 28 9F 01 BC 12 00 28 ; .U.......(.....(
E1BE  .byte 1F 01 23 1E 00 18 3F 23 45 1E 00 28 3F 45 66 12 ; ..#...?#E..(?Ef.
E1CE  .byte 07 28 7F 56 7E 12 07 28 FF 78 AE 1E 00 28 BF 89 ; .(.V~..(.x...(..
E1DE  .byte AA 1E 00 18 BF 9A BC 12 07 28 BF 78 9D 12 07 28 ; .........(.x...(
E1EE  .byte 3F 46 7D 12 07 0D 9F 09 BD 12 07 0D 1F 02 4D 12 ; ?F}...........M.
E1FE  .byte 07 0D DF 1A CE 12 07 0D 5F 13 5E 0B 03 1D 85 00 ; ........_.^.....
E20E  .byte 00 0B 03 1D 05 00 00 0B 04 18 04 00 00 0B 04 18 ; ................
E21E  .byte 84 00 00 1F 01 00 04 07 23 04 08 1F 45 08 0C 1F ; ........#...E...
E22E  .byte 56 0C 10 1F 7E 10 14 1F 8A 14 18 1F 9A 18 1C 07 ; V...~...........
E23E  .byte BC 1C 00 1F 46 0C 24 1F 7D 24 20 1F 89 20 18 1F ; ....F.$.}$ .. ..
E24E  .byte 0B 00 28 1F 9B 1C 28 1F 02 04 2C 1F 24 08 2C 1F ; ..(...(...,.$.,.
E25E  .byte 1C 00 30 1F AC 1C 30 1F 13 04 34 1F 35 08 34 1F ; ..0...0...4.5.4.
E26E  .byte 0D 28 2C 1F 1E 30 34 1F 9D 20 28 1F 4D 24 2C 1F ; .(,..04.. (.M$,.
E27E  .byte AE 14 30 1F 5E 10 34 05 00 38 3C 03 00 3C 40 04 ; ..0.^.4..8<..<@.
E28E  .byte 00 40 44 03 00 44 38 1F 00 27 0A 5F 00 27 0A 1F ; .@D..D8..'._.'..
E29E  .byte 45 32 0D 5F 45 32 0D 1F 1E 34 00 5F 1E 34 00 3F ; E2._E2...4._.4.?
E2AE  .byte 00 00 A0 3F 00 00 A0 3F 00 00 A0 9F 1E 34 00 DF ; ...?...?.....4..
E2BE  .byte 1E 34 00 9F 45 32 0D DF 45 32 0D 1F 00 1C 00 5F ; .4..E2..E2....._
E2CE  .byte 00 1C 00 00 49 26 5C A0 45 00 1A 48 11 37 00 24 ; ....I&\.E..H.7.$
E2DE  .byte 12 46 1E 00 00 03 10 0A 04 2F DF 03 45 0A 04 2F ; .F......./..E../
E2EE  .byte 5F 01 23 10 08 17 BF 05 67 10 08 17 3F 01 78 42 ; _.#.....g...?.xB
E2FE  .byte 00 03 BF 45 66 42 00 03 3F 12 88 14 0E 17 FF 34 ; ...EfB..?......4
E30E  .byte 67 14 0E 17 7F 23 78 08 06 21 D0 33 33 08 06 21 ; g....#x..!.33..!
E31E  .byte 51 33 33 08 0D 10 F0 33 33 08 0D 10 71 33 33 1F ; Q33....33...q33.
E32E  .byte 03 00 04 1F 12 04 14 1F 18 14 0C 1F 07 0C 08 1F ; ................
E33E  .byte 56 08 10 1F 45 10 00 1F 28 14 1C 1F 37 1C 18 1F ; V...E...(...7...
E34E  .byte 46 18 10 1D 05 00 08 1E 01 04 0C 1D 34 00 18 1E ; F...........4...
E35E  .byte 23 04 1C 14 67 08 18 14 78 0C 1C 10 33 20 28 11 ; #...g...x...3 (.
E36E  .byte 33 24 2C 1F 00 1F 05 1F 04 2D 08 5F 19 6C 13 5F ; 3$,......-._.l._
E37E  .byte 00 54 0C DF 19 6C 13 9F 04 2D 08 BF 58 10 D6 3F ; .T...l...-..X..?
E38E  .byte 00 00 BB 3F 58 10 D6 03 49 26 56 9E 49 28 1A 42 ; ...?X...I&V.I(.B
E39E  .byte 12 4B 00 28 13 5A 1A 00 00 02 12 12 01 32 DF 01 ; .K.(.Z.......2..
E3AE  .byte 23 12 01 32 5F 01 45 42 00 07 9F 23 88 42 00 07 ; #..2_.EB...#.B..
E3BE  .byte 1F 45 99 20 0C 26 BF 26 78 20 0C 26 3F 46 79 36 ; .E. .&.&x .&?Fy6
E3CE  .byte 0C 26 FF 13 78 36 0C 26 7F 15 79 00 0C 06 34 02 ; .&..x6.&..y...4.
E3DE  .byte 46 00 01 32 42 01 11 00 01 3C 5F 01 11 1F 01 04 ; F..2B....<_.....
E3EE  .byte 00 1F 23 00 08 1F 38 08 18 1F 17 18 1C 1F 59 1C ; ..#...8.......Y.
E3FE  .byte 0C 1F 45 0C 04 1F 28 08 10 1F 67 10 14 1F 49 14 ; ..E...(...g...I.
E40E  .byte 0C 14 02 00 20 14 04 20 04 10 26 10 20 10 46 20 ; .... .. ..&. .F 
E41E  .byte 14 1F 78 10 18 1F 79 14 1C 14 13 00 18 14 15 04 ; ..x...y.........
E42E  .byte 1C 02 01 28 24 1F 00 29 0A 5F 00 1B 03 9F 08 2E ; ...($..)._......
E43E  .byte 08 DF 0C 39 0C 1F 08 2E 08 5F 0C 39 0C 1F 00 31 ; ...9....._.9...1
E44E  .byte 00 3F 00 00 9A BF 79 6F 3E 3F 79 6F 3E 00 49 26 ; .?....yo>?yo>.I&
E45E  .byte 50 90 4D 00 12 3C 10 00 00 20 13 1E 17 00 00 03 ; P.M..<... ......
E46E  .byte 08 0A 0A 23 5F 02 77 0A 0A 23 DF 03 77 05 06 0F ; ...#_.w..#..w...
E47E  .byte 1F 01 24 05 06 0F 9F 01 35 0F 0A 19 5F 24 77 0F ; ..$.....5..._$w.
E48E  .byte 0A 19 DF 35 77 1A 0A 19 7F 46 77 1A 0A 19 FF 56 ; ...5w....Fw....V
E49E  .byte 77 08 0E 19 3F 14 66 08 0E 19 BF 15 66 1F 07 00 ; w...?.f.....f...
E4AE  .byte 04 1F 37 04 14 1F 57 14 1C 1F 67 1C 18 1F 47 18 ; ..7...W...g...G.
E4BE  .byte 10 1F 27 10 00 1F 02 00 08 1F 03 04 0C 1F 24 10 ; ..'...........$.
E4CE  .byte 08 1F 35 14 0C 1F 14 08 20 1F 46 20 18 1F 15 0C ; ..5..... .F ....
E4DE  .byte 24 1F 56 24 1C 1F 01 08 0C 1F 16 20 24 1F 00 58 ; $.V$....... $..X
E4EE  .byte 46 1F 00 45 0E 1F 46 42 23 9F 46 42 23 1F 40 31 ; F..E..FB#.FB#.@1
E4FE  .byte 0E 9F 40 31 0E 3F 00 00 C8 5F 00 50 00 01 41 23 ; ..@1.?..._.P..A#
E50E  .byte BC 54 9D 54 2A A8 26 AF 00 34 32 96 1C 00 01 01 ; .T.T*.&..42.....
E51E  .byte 12 20 00 4C 1F FF FF 20 00 4C 9F FF FF 00 1A 18 ; . .L... .L......
E52E  .byte 1F FF FF 78 03 08 FF 73 AA 78 03 08 7F 84 CC 58 ; ...x...s.x.....X
E53E  .byte 10 28 BF FF FF 58 10 28 3F FF FF 80 08 28 7F 98 ; .(...X.(?....(..
E54E  .byte CC 80 08 28 FF 97 AA 00 1A 28 3F 65 99 20 18 28 ; ...(.....(?e. .(
E55E  .byte FF A9 BB 20 18 28 7F B9 CC 24 08 28 B4 99 99 08 ; ... .(...$.(....
E56E  .byte 0C 28 B4 99 99 08 0C 28 34 99 99 24 08 28 34 99 ; .(.....(4..$.(4.
E57E  .byte 99 24 0C 28 74 99 99 08 10 28 74 99 99 08 10 28 ; .$.(t....(t....(
E58E  .byte F4 99 99 24 0C 28 F4 99 99 00 00 4C 06 B0 BB 00 ; ...$.(.....L....
E59E  .byte 00 5A 1F B0 BB 50 06 28 E8 99 99 50 06 28 A8 99 ; .Z...P.(...P.(..
E5AE  .byte 99 58 00 28 A6 99 99 50 06 28 28 99 99 58 00 28 ; .X.(...P.((..X.(
E5BE  .byte 26 99 99 50 06 28 68 99 99 1F B0 00 04 1F C4 00 ; &..P.(h.........
E5CE  .byte 10 1F A3 04 0C 1F A7 0C 20 1F C8 10 1C 1F 98 18 ; ........ .......
E5DE  .byte 1C 1F 96 18 24 1F 95 14 24 1F 97 14 20 1F 51 08 ; ....$...$... .Q.
E5EE  .byte 14 1F 62 08 18 1F 73 0C 14 1F 84 10 18 1F 10 04 ; ..b...s.........
E5FE  .byte 08 1F 20 00 08 1F A9 20 28 1F B9 28 2C 1F C9 1C ; .. .... (..(,...
E60E  .byte 2C 1F BA 04 28 1F CB 00 2C 1D 31 04 14 1D 42 00 ; ,...(...,.1...B.
E61E  .byte 18 06 B0 50 54 14 99 30 34 14 99 48 4C 14 99 38 ; ...PT..04..HL..8
E62E  .byte 3C 14 99 40 44 13 99 3C 40 11 99 38 44 13 99 34 ; <..@D..<@..8D..4
E63E  .byte 48 13 99 30 4C 1E 65 08 24 06 99 58 60 06 99 5C ; H..0L.e.$..X`..\
E64E  .byte 60 08 99 58 5C 06 99 64 68 06 99 68 6C 08 99 64 ; `..X\..dh..hl..d
E65E  .byte 6C 1F 00 3E 1F 9F 12 37 10 1F 12 37 10 9F 10 34 ; l..>...7...7...4
E66E  .byte 0E 1F 10 34 0E 9F 0E 2F 00 1F 0E 2F 00 9F 3D 66 ; ...4.../.../..=f
E67E  .byte 00 1F 3D 66 00 3F 00 00 50 DF 07 2A 09 5F 00 1E ; ..=f.?..P..*._..
E68E  .byte 06 5F 07 2A 09 00 10 0E 86 F6 69 20 1A 72 1C C8 ; ._.*......i .r..
E69E  .byte 00 30 28 96 28 00 00 01 29 00 12 00 56 01 22 00 ; .0(.(...)...V.".
E6AE  .byte 09 2D 7F 12 BB 2B 00 2D 3F 16 BB 45 03 00 5F 16 ; .-...+.-?..E.._.
E6BE  .byte 79 2B 0E 1C 5F 01 77 2B 00 2D BF 25 BB 45 03 00 ; y+.._.w+.-.%.E..
E6CE  .byte DF 25 8A 2B 0E 1C DF 02 88 1A 07 49 5F 04 79 1A ; .%.+.......I_.y.
E6DE  .byte 07 49 DF 04 8A 2B 0E 1C 1F 34 69 2B 0E 1C 9F 34 ; .I...+...4i+...4
E6EE  .byte 5A 00 09 2D 3F 35 6B 11 00 2D AA BB BB 11 00 2D ; Z..-?5k..-.....-
E6FE  .byte 29 BB BB 00 04 2D 6A BB BB 00 04 2D 28 BB BB 00 ; )....-j....-(...
E70E  .byte 07 49 4A 04 04 00 07 53 4A 04 04 16 12 00 04 16 ; .IJ....SJ.......
E71E  .byte 01 00 10 16 02 00 1C 1F 1B 04 08 1F 16 08 0C 10 ; ................
E72E  .byte 79 0C 20 1F 04 20 24 10 8A 18 24 1F 25 14 18 1F ; y. .. $...$.%...
E73E  .byte 2B 04 14 1F 17 0C 10 1F 07 10 20 1F 28 18 1C 1F ; +......... .(...
E74E  .byte 08 1C 24 1F 6B 08 30 1F 5B 14 30 16 36 28 30 16 ; ..$.k.0.[.0.6(0.
E75E  .byte 35 2C 30 16 34 28 2C 1F 5A 18 2C 1F 4A 24 2C 1F ; 5,0.4(,.Z.,.J$,.
E76E  .byte 69 0C 28 1F 49 20 28 0A BB 34 3C 09 BB 3C 38 08 ; i.(.I (..4<..<8.
E77E  .byte BB 38 40 08 BB 40 34 0A 04 48 44 5F 00 23 05 7F ; .8@..@4..HD_.#..
E78E  .byte 08 26 07 FF 08 26 07 36 00 18 01 1F 00 2B 13 BF ; .&...&.6.....+..
E79E  .byte 06 1C 02 3F 06 1C 02 5F 3B 40 1F DF 3B 40 1F 1F ; ...?..._;@..;@..
E7AE  .byte 50 2E 32 9F 50 2E 32 3F 00 00 5A 59 3A 43 4D 02 ; P.2.P.2?..ZY:CM.
E7BE  .byte 00 19 56 BE 59 00 2A 42 1A C8 00 34 28 FA 14 00 ; ..V.Y.*B...4(...
E7CE  .byte 00 00 1B 00 00 E0 1F 10 32 00 30 30 1F 10 54 60 ; ........2.00..T`
E7DE  .byte 00 10 3F FF FF 60 00 10 BF FF FF 00 30 20 3F 54 ; ..?..`......0 ?T
E7EE  .byte 98 00 18 70 3F 89 CC 30 00 70 BF B8 CC 30 00 70 ; ...p?..0.p...0.p
E7FE  .byte 3F A9 CC 00 30 30 5F 32 76 00 30 20 7F 76 BA 00 ; ?...00_2v.0 .v..
E80E  .byte 18 70 7F BA CC 1F 32 00 20 1F 20 00 0C 1F 31 00 ; .p....2. . ...1.
E81E  .byte 08 1F 10 00 04 1F 59 08 10 1F 51 04 08 1F 37 08 ; ......Y...Q...7.
E82E  .byte 20 1F 40 04 0C 1F 62 0C 20 1F A7 08 24 1F 84 0C ;  .@...b. ...$...
E83E  .byte 10 1F B6 0C 24 07 88 0C 14 07 BB 0C 28 07 99 08 ; ....$.......(...
E84E  .byte 14 07 AA 08 28 1F A9 08 1C 1F B8 0C 18 1F C8 14 ; ....(...........
E85E  .byte 18 1F C9 14 1C 1F AC 1C 28 1F CB 18 28 1F 98 10 ; ........(...(...
E86E  .byte 14 1F BA 24 28 1F 54 04 10 1F 76 20 24 9F 1B 28 ; ...$(.T...v $..(
E87E  .byte 0B 1F 1B 28 0B DF 1B 28 0B 5F 1B 28 0B 9F 13 26 ; ...(...(._.(...&
E88E  .byte 00 1F 13 26 00 DF 13 26 00 5F 13 26 00 BF 19 25 ; ...&...&._.&...%
E89E  .byte 0B 3F 19 25 0B 7F 19 25 0B FF 19 25 0B 3F 00 00 ; .?.%...%...%.?..
E8AE  .byte 70 00 40 06 86 F2 6D 00 1A 72 1B 00 00 28 28 A0 ; p.@...m..r...((.
E8BE  .byte 1E 00 00 01 12 00 0E 6C 5F 01 59 28 0E 04 FF 12 ; .......l_.Y(....
E8CE  .byte 99 0C 0E 34 FF 23 99 0C 0E 34 7F 34 99 28 0E 04 ; ...4.#...4.4.(..
E8DE  .byte 7F 45 99 28 0E 04 BC 01 26 0C 02 34 BC 23 67 0C ; .E.(....&..4.#g.
E8EE  .byte 02 34 3C 34 78 28 0E 04 3C 04 58 00 12 14 2F 06 ; .4<4x(..<.X.../.
E8FE  .byte 78 03 0B 61 CB 00 00 1A 08 12 89 00 00 10 0E 04 ; x..a............
E90E  .byte AB 00 00 03 0B 61 4B 00 00 1A 08 12 09 00 00 10 ; .....aK.........
E91E  .byte 0E 04 2B 00 00 00 0E 14 6C 99 99 0E 0E 2C CC 99 ; ..+.....l....,..
E92E  .byte 99 0E 0E 2C 4C 99 99 1F 19 00 04 1F 29 04 08 1F ; ...,L.......)...
E93E  .byte 39 08 0C 1F 49 0C 10 1F 59 00 10 1C 01 00 14 1C ; 9...I...Y.......
E94E  .byte 26 14 18 1C 37 18 1C 1C 48 1C 20 1C 05 00 20 0F ; &...7...H. ... .
E95E  .byte 06 14 24 0B 67 18 24 0B 78 1C 24 0F 08 20 24 0E ; ..$.g.$.x.$.. $.
E96E  .byte 12 04 14 0E 23 08 18 0E 34 0C 1C 0E 45 10 20 08 ; ....#...4...E. .
E97E  .byte 00 28 2C 09 00 2C 30 0B 00 28 30 08 00 34 38 09 ; .(,..,0..(0..48.
E98E  .byte 00 38 3C 0B 00 34 3C 0C 99 40 44 0C 99 40 48 08 ; .8<..4<..@D..@H.
E99E  .byte 99 44 48 1C 00 18 06 9F 44 00 18 BF 3F 00 25 3F ; .DH.....D...?.%?
E9AE  .byte 00 00 68 3F 3F 00 25 1F 44 00 18 BC 0C 2E 13 3C ; ..h??.%.D......<
E9BE  .byte 00 2D 16 3C 0C 2E 13 5F 00 1C 00 01 84 03 68 B4 ; .-.<..._......h.
E9CE  .byte 49 00 1A 54 13 32 00 24 28 64 19 00 00 02 10 0F ; I..T.2.$(d......
E9DE  .byte 00 41 1F 02 78 0F 00 41 9F 01 67 00 12 28 31 FF ; .A..x..A..g..(1.
E9EE  .byte FF 3C 00 00 9F 13 66 3C 00 00 1F 25 88 1E 1B 0A ; .<....f<...%....
E9FE  .byte 78 45 78 1E 1B 0A F8 34 67 09 04 19 E7 44 44 09 ; xEx....4g....DD.
EA0E  .byte 04 19 67 44 44 00 12 10 67 44 44 0D 03 31 05 00 ; ..gDD...gDD..1..
EA1E  .byte 00 06 00 41 05 00 00 0D 03 31 85 00 00 06 00 41 ; ...A.....1.....A
EA2E  .byte 85 00 00 1F 07 00 04 1F 16 04 0C 18 36 0C 18 18 ; ............6...
EA3E  .byte 47 14 18 18 58 10 14 1F 28 00 10 0F 67 04 18 0F ; G...X...(...g...
EA4E  .byte 78 00 14 0F 02 00 08 0F 01 04 08 11 13 08 0C 11 ; x...............
EA5E  .byte 25 08 10 0D 45 08 14 0D 34 08 18 05 44 1C 20 07 ; %...E...4...D. .
EA6E  .byte 44 1C 24 07 44 20 24 05 00 28 2C 05 00 30 34 1F ; D.$.D $..(,..04.
EA7E  .byte 00 2B 07 9F 0A 31 07 1F 0A 31 07 F8 3B 1C 65 78 ; .+...1...1..;.ex
EA8E  .byte 00 34 4E 78 3B 1C 65 DF 48 63 32 5F 00 53 1E 5F ; .4Nx;.e.Hc2_.S._
EA9E  .byte 48 63 32 00 49 26 8C F4 69 3C 26 78 1A F4 01 28 ; Hc2.I&..i<&x...(
EAAE  .byte 37 F0 27 00 00 02 16 20 30 30 5F 40 88 20 44 00 ; 7.'.... 00_@. D.
EABE  .byte 5F 10 44 20 30 30 7F 21 44 20 00 44 3F 32 44 20 ; _.D 00.!D .D?2D 
EACE  .byte 30 30 3F 43 55 20 44 00 1F 54 66 20 30 30 1F 64 ; 00?CU D..Tf 00.d
EADE  .byte 77 20 00 44 1F 74 88 18 74 74 DF 80 99 18 A4 00 ; w .D.t..tt......
EAEE  .byte DF 10 99 18 74 74 FF 21 99 18 00 A4 BF 32 99 18 ; ....tt.!.....2..
EAFE  .byte 74 74 BF 53 99 18 A4 00 9F 65 99 18 74 74 9F 76 ; tt.S.....e..tt.v
EB0E  .byte 99 18 00 A4 9F 87 99 18 40 50 9E 99 99 18 40 50 ; ........@P....@P
EB1E  .byte BE 99 99 18 40 50 FE 99 99 18 40 50 DE 99 99 1F ; ....@P....@P....
EB2E  .byte 84 00 1C 1F 40 00 04 1F 41 04 08 1F 42 08 0C 1F ; ....@...A...B...
EB3E  .byte 43 0C 10 1F 54 10 14 1F 64 14 18 1F 74 18 1C 1F ; C...T...d...t...
EB4E  .byte 80 00 20 1F 10 04 24 1F 21 08 28 1F 32 0C 2C 1F ; .. ...$.!.(.2.,.
EB5E  .byte 53 10 30 1F 65 14 34 1F 76 18 38 1F 87 1C 3C 1F ; S.0.e.4.v.8...<.
EB6E  .byte 98 20 3C 1F 90 20 24 1F 91 24 28 1F 92 28 2C 1F ; . <.. $..$(..(,.
EB7E  .byte 93 2C 30 1F 95 30 34 1F 96 34 38 1F 97 38 3C 1E ; .,0..04..48..8<.
EB8E  .byte 99 40 44 1E 99 48 4C 5F 67 3C 19 7F 67 3C 19 7F ; .@D..HL_g<..g<..
EB9E  .byte 67 19 3C 3F 67 19 3C 1F 40 00 00 3F 67 3C 19 1F ; g.<?g.<.@..?g<..
EBAE  .byte 67 3C 19 1F 67 19 3C 5F 67 19 3C 9F 30 00 00 F0 ; g<..g.<_g.<.0...
EBBE  .byte 40 06 E6 50 45 00 12 3C 0F 32 00 1C 14 14 1E E7 ; @..PE..<.2......
EBCE  .byte 00 02 10 09 00 28 9F 01 55 09 26 0C DF 01 22 09 ; .....(..U.&...".
EBDE  .byte 18 20 FF 02 33 09 18 20 BF 03 44 09 26 0C 9F 04 ; . ..3.. ..D.&...
EBEE  .byte 55 09 00 08 3F 15 66 09 0A 0F 7F 12 66 09 06 1A ; U...?.f.....f...
EBFE  .byte 7F 23 66 09 06 1A 3F 34 66 09 0A 0F 3F 45 66 9F ; .#f...?4f...?Ef.
EC0E  .byte 24 00 00 5F 14 05 07 7F 2E 2A 0E 3F 24 00 68 3F ; $.._.....*.?$.h?
EC1E  .byte 2E 2A 0E 1F 14 05 07 1F 24 00 00 03 81 10 7A DA ; .*......$.....z.
EC2E  .byte 51 00 2E 66 18 00 00 28 2D FC 24 00 00 02 34 14 ; Q..f...(-.$...4.
EC3E  .byte 07 50 5F 02 99 14 07 50 DF 01 99 36 07 28 DF 14 ; .P_....P...6.(..
EC4E  .byte 99 36 07 28 FF 45 89 14 0D 28 BF 56 88 14 0D 28 ; .6.(.E...(.V...(
EC5E  .byte 3F 67 88 36 07 28 7F 37 89 36 07 28 5F 23 99 14 ; ?g.6.(.7.6.(_#..
EC6E  .byte 0D 05 1F FF FF 14 0D 05 9F FF FF 14 07 3E 52 99 ; .............>R.
EC7E  .byte 99 14 07 3E D2 99 99 19 07 19 72 99 99 19 07 19 ; ...>......r.....
EC8E  .byte F2 99 99 0F 07 0F 6A 99 99 0F 07 0F EA 99 99 00 ; ......j.........
EC9E  .byte 07 00 40 9F 01 1F 09 00 04 1F 19 04 08 1F 01 04 ; ..@.............
ECAE  .byte 24 1F 02 00 20 1F 29 00 1C 1F 23 1C 20 1F 14 08 ; $... .)...#. ...
ECBE  .byte 24 1F 49 08 0C 1F 39 18 1C 1F 37 18 20 1F 67 14 ; $.I...9...7. .g.
ECCE  .byte 20 1F 56 10 24 1F 45 0C 24 1F 58 0C 10 1F 68 10 ;  .V.$.E.$.X...h.
ECDE  .byte 14 1F 78 14 18 1F 89 0C 18 1F 06 20 24 12 99 28 ; ..x........ $..(
ECEE  .byte 30 05 99 30 38 0A 99 38 28 0A 99 2C 3C 05 99 34 ; 0..08..8(..,<..4
ECFE  .byte 3C 12 99 2C 34 1F 00 37 0F 9F 18 4B 14 1F 18 4B ; <..,4..7...K...K
ED0E  .byte 14 1F 2C 4B 00 9F 2C 4B 00 9F 2C 4B 00 1F 00 35 ; ..,K..,K..,K...5
ED1E  .byte 00 1F 2C 4B 00 3F 00 00 A0 5F 00 1B 00 03 24 13 ; ..,K.?..._....$.
ED2E  .byte 86 EA 69 00 2A 72 19 00 00 18 22 FC 28 00 00 02 ; ..i.*r....".(...
ED3E  .byte 34 00 05 43 1F 02 44 14 00 28 9F 01 22 28 00 28 ; 4..C..D..(.."(.(
ED4E  .byte BF 01 55 00 0E 28 3E 04 55 00 0E 28 7E 12 35 14 ; ..U..(>.U..(~.5.
ED5E  .byte 00 28 1F 23 44 28 00 28 3F 34 55 24 00 38 9F 01 ; .(.#D(.(?4U$.8..
ED6E  .byte 11 3C 00 14 BF 01 11 24 00 38 1F 34 44 3C 00 14 ; .<.....$.8.4D<..
ED7E  .byte 3F 34 44 00 07 23 12 00 44 00 08 19 14 00 44 0C ; ?4D..#..D.....D.
ED8E  .byte 02 2D 94 00 00 0C 02 2D 14 44 44 0A 06 28 B4 55 ; .-.....-.DD..(.U
ED9E  .byte 55 0A 06 28 F4 55 55 0A 06 28 74 55 55 0A 06 28 ; U..(.UU..(tUU..(
EDAE  .byte 34 55 55 1F 02 00 04 1F 01 04 1C 1F 01 1C 20 1F ; 4UU........... .
EDBE  .byte 01 20 08 1E 05 08 0C 1E 45 0C 18 1E 15 08 10 1E ; . ......E.......
EDCE  .byte 35 10 18 1F 34 18 28 1F 34 28 24 1F 34 24 14 1F ; 5...4.(.4($.4$..
EDDE  .byte 24 14 00 1B 04 00 0C 1B 12 04 10 1B 23 14 10 1A ; $...........#...
EDEE  .byte 01 04 08 1A 34 14 18 14 00 30 34 12 00 34 2C 12 ; ....4....04..4,.
EDFE  .byte 44 2C 38 14 44 38 30 12 55 3C 40 14 55 40 48 12 ; D,8.D80.U<@.U@H.
EE0E  .byte 55 48 44 14 55 44 3C 9F 10 2E 04 DF 10 2E 04 5F ; UHD.UD<........_
EE1E  .byte 00 1B 05 5F 10 2E 04 1F 10 2E 04 3E 00 00 A0 00 ; ..._.......>....
EE2E  .byte 90 7E A4 2C 65 00 36 90 22 00 00 30 7D F0 00 00 ; .~.,e.6."..0}...
EE3E  .byte 01 00 00 00 96 C4 1F 01 55 8F 2E C4 1F 01 22 58 ; ........U....."X
EE4E  .byte 79 C4 5F 02 33 58 79 C4 DF 03 44 8F 2E C4 9F 04 ; y._.3Xy...D.....
EE5E  .byte 55 00 F3 2E 1F 15 66 E7 4B 2E 1F 12 77 8F C4 2E ; U.....f.K...w...
EE6E  .byte 5F 23 88 8F C4 2E DF 34 99 E7 4B 2E 9F 45 AA 8F ; _#.....4..K..E..
EE7E  .byte C4 2E 3F 16 77 E7 4B 2E 7F 27 88 00 F3 2E 7F 38 ; ..?.w.K..'.....8
EE8E  .byte 99 E7 4B 2E FF 49 AA 8F C4 2E BF 56 AA 58 79 C4 ; ..K..I.....V.Xy.
EE9E  .byte 3F 67 BB 8F 2E C4 7F 78 BB 00 96 C4 7F 89 BB 8F ; ?g.....x........
EEAE  .byte 2E C4 FF 9A BB 58 79 C4 BF 6A BB 10 20 C4 9E 00 ; .....Xy..j.. ...
EEBE  .byte 00 10 20 C4 DE 00 00 10 20 C4 17 00 00 10 20 C4 ; .. ..... ..... .
EECE  .byte 57 00 00 1F 01 00 04 1F 02 04 08 1F 03 08 0C 1F ; W...............
EEDE  .byte 04 0C 10 1F 05 10 00 1F 16 14 28 1F 17 28 18 1F ; ..........(..(..
EEEE  .byte 27 18 2C 1F 28 2C 1C 1F 38 1C 30 1F 39 30 20 1F ; '.,.(,..8.0.90 .
EEFE  .byte 49 20 34 1F 4A 34 24 1F 5A 24 38 1F 56 38 14 1F ; I 4.J4$.Z$8.V8..
EF0E  .byte 7B 3C 40 1F 8B 40 44 1F 9B 44 48 1F AB 48 4C 1F ; {<@..@D..DH..HL.
EF1E  .byte 6B 4C 3C 1F 15 00 14 1F 12 04 18 1F 23 08 1C 1F ; kL<.........#...
EF2E  .byte 34 0C 20 1F 45 10 24 1F 67 28 3C 1F 78 2C 40 1F ; 4. .E.$.g(<.x,@.
EF3E  .byte 89 30 44 1F 9A 34 48 1F 6A 38 4C 1E 00 50 54 14 ; .0D..4H.j8L..PT.
EF4E  .byte 00 54 5C 17 00 5C 58 14 00 58 50 1F 00 00 C4 1F ; .T\..\X..XP.....
EF5E  .byte 67 8E 58 5F A9 37 59 5F 00 B0 58 DF A9 37 59 9F ; g.X_.7Y_..X..7Y.
EF6E  .byte 67 8E 58 3F 00 B0 58 3F A9 37 59 7F 67 8E 58 FF ; g.X?..X?.7Y.g.X.
EF7E  .byte 67 8E 58 BF A9 37 59 3F 00 00 C4 4C 44 41 52 38 ; g.X..7Y?...LDAR8
EF8E  .byte E0 60 3F 0F 7C 24 B2 60 56 9C 67 23 FA 81 91 3F ; .`?.|$.`V.g#...?
EF9E  .byte 7C 29 BC 3D 53 65 FB C3 23 B7 9E 7A 2F 29 F5 EC ; |).=Se..#..z/)..
EFAE  .byte CA E8 0B EE CC CF 94 D8 C6 C7 3F 00 D2 E4 14 04 ; ..........?.....
EFBE  .byte D5 E6 DD 94 9E E8 DF 96 A0 FE 52 BE AA 53 C6 D2 ; ..........R..S..
EFCE  .byte F5 6B C2 25 16 E6 D6 E5 D4 5F A3 E5 1D 60 E4 D2 ; .k.%....._...`..
EFDE  .byte 00 13 E6 D5 7F B3 E5 00 B9 A7 13 E5 2D 19 D0 04 ; ............-...
EFEE  .byte 4C 87 AE 74 CA 73 D2 35 09 96 A0 EA E1 98 A2 66 ; L..t.s.5.......f
EFFE  .byte AE C6 00 00 00 00 00 00 00 00 00 00 00 00 00 00 ; ................
F00E  .byte 00 00 00 00 00 00 00 00 00 00 00 00 00 00 00 00 ; ................
F01E  .byte 00 00 00 00 00 00 00 00 00 00 00 00 00 00 00 00 ; ................
F02E  .byte 00 00 00 00 00 00 00 00 00 00 00 00 00 00 00 00 ; ................
F03E  .byte 00 00 00 00 00 00 00 00 00 00 00 00 00 00 00 00 ; ................
F04E  .byte 00 00 00 00 00 00 00 00 00 00 00 00 00 00 00 00 ; ................
F05E  .byte 00 00 00 00 00 00 00 00 00 00 00 00 00 00 00 00 ; ................
F06E  .byte 00 00 00 00 00 00 00 00 00 00 00 00 00 00 00 00 ; ................
F07E  .byte 00 00 00 00 00 00 00 00 00 00 00 00 00 00 00 00 ; ................
F08E  .byte 00 00 00 00 00 00 00 00 00 00 00 00 00 00 00 00 ; ................
F09E  .byte 00 00 00 00 00 00 00 00 00 00 00 00 00 00 00 00 ; ................
F0AE  .byte 00 00 00 00 00 00 00 00 00 00 00 00 00 00 00 00 ; ................
F0BE  .byte 00 00 00 00 00 00 00 00 00 00 00 00 00 00 00 00 ; ................
F0CE  .byte 00 00 00 00 00 00 00 00 00 00 00 00 00 00 00 00 ; ................
F0DE  .byte 00 00 00 00 00 00 00 00 00 00 00 00 00 00 00 00 ; ................
F0EE  .byte 00 00 00 00 00 00 00 00 00 00 00 00 00 00 00 00 ; ................
F0FE  .byte 00 00 00 00 00 00 00 00 00 00 00 00 00 00 00 00 ; ................
F10E  .byte 00 00 00 00 00 00 00 00 00 00 00 00 00 00 00 00 ; ................
F11E  .byte 00 00 00 00 00 00 00 00 00 00 00 00 00 00 00 00 ; ................
F12E  .byte 00 00 00 00 00 00 00 00 00 00 00 00 00 00 00 00 ; ................
F13E  .byte 00 00 00 00 00 00 00 00 00 00 00 00 00 00 00 00 ; ................
F14E  .byte 00 00 00 00 00 00 00 00 00 00 00 00 00 00 00 00 ; ................
F15E  .byte 00 00 00 00 00 00 00 00 00 00 00 00 00 00 00 00 ; ................
F16E  .byte 00 00 00 00 00 00 00 00 00 00 00 00 00 00 00 00 ; ................
F17E  .byte 00 00 00 00 00 00 00 00 00 00 00 00 00 00 00 00 ; ................
F18E  .byte 00 00 00 00 00 00 00 00 00 00 00 00 00 00 00 00 ; ................
F19E  .byte 00 00 00 00 00 00 00 00 00 00 00 00 00 00 00 00 ; ................
F1AE  .byte 00 00 00 00 00 00 00 00 00 00 00 00 00 00 00 00 ; ................
F1BE  .byte 00 00 00 00 00 00 00 00 00 00 00 00 00 00 00 00 ; ................
F1CE  .byte 00 00 00 00 00 00 00 00 00 00 00 00 00 00 00 00 ; ................
F1DE  .byte 00 00 00 00 00 00 00 00 00 00 00 00 00 00 00 00 ; ................
F1EE  .byte 00 00 00 00 00 00 00 00 00 00 00 00 00 00 00 00 ; ................
F1FE  .byte 00 00 00 00 00 00 00 00 00 00 00 00 00 00 00 00 ; ................
F20E  .byte 00 00 00 00 00 00 00 00 00 00 00 00 00 00 00 00 ; ................
F21E  .byte 00 00 00 00 00 00 00 00 00 00 00 00 00 00 00 00 ; ................
F22E  .byte 00 00 00 00 00 00 00 00 00 00 00 00 00 00 00 00 ; ................
F23E  .byte 00 00 00 00 00 00 00 00 00 00 00 00 00 00 00 00 ; ................
F24E  .byte 00 00 00 00 00 00 00 00 00 00 00 00 00 00 00 00 ; ................
F25E  .byte 00 00 00 00 00 00 00 00 00 00 00 00 00 00 00 00 ; ................
F26E  .byte 00 00 00 00 00 00 00 00 00 00 00 00 00 00 00 00 ; ................
F27E  .byte 00 00 00 00 00 00 00 00 00 00 00 00 00 00 00 00 ; ................
F28E  .byte 00 00 00 00 00 00 00 00 00 00 00 00 00 00 00 00 ; ................
F29E  .byte 00 00 00 00 00 00 00 00 00 00 00 00 00 00 00 00 ; ................
F2AE  .byte 00 00 00 00 00 00 00 00 00 00 00 00 00 00 00 00 ; ................
F2BE  .byte 00 00 00 00 00 00 00 00 00 00 00 00 00 00 00 00 ; ................
F2CE  .byte 00 00 00 00 00 00 00 00 00 00 00 00 00 00 00 00 ; ................
F2DE  .byte 00 00 00 00 00 00 00 00 00 00 00 00 00 00 00 00 ; ................
F2EE  .byte 00 00 00 00 00 00 00 00 00 00 00 00 00 00 00 00 ; ................
F2FE  .byte 00 00 00 00 00 00 00 00 00 00 00 00 00 00 00 00 ; ................
F30E  .byte 00 00 00 00 00 00 00 00 00 00 00 00 00 00 00 00 ; ................
F31E  .byte 00 00 00 00 00 00 00 00 00 00 00 00 00 00 00 00 ; ................
F32E  .byte 00 00 00 00 00 00 00 00 00 00 00 00 00 00 00 00 ; ................
F33E  .byte 00 00 00 00 00 00 00 00 00 00 00 00 00 00 00 00 ; ................
F34E  .byte 00 00 00 00 00 00 00 00 00 00 00 00 00 00 00 00 ; ................
F35E  .byte 00 00 00 00 00 00 00 00 00 00 00 00 00 00 00 00 ; ................
F36E  .byte 00 00 00 00 00 00 00 00 00 00 00 00 00 00 00 00 ; ................
F37E  .byte 00 00 00 00 00 00 00 00 00 00 00 00 00 00 00 00 ; ................
F38E  .byte 00 00 00 00 00 00 00 00 00 00 00 00 00 00 00 00 ; ................
F39E  .byte 00 00 00 00 00 00 00 00 00 00 00 00 00 00 00 00 ; ................
F3AE  .byte 00 00 00 00 00 00 00 00 00 00 00 00 00 00 00 00 ; ................
F3BE  .byte 00 00 00 00 00 00 00 00 00 00 00 00 00 00 00 00 ; ................
F3CE  .byte 00 00 00 00 00 00 00 00 00 00 00 00 00 00 00 00 ; ................
F3DE  .byte 00 00 00 00 00 00 00 00 00 00 00 00 00 00 00 00 ; ................
F3EE  .byte 00 00 00 00 00 00 00 00 00 00 00 00 00 00 00 00 ; ................
F3FE  .byte 00 00 00 00 00 00 00 00 00 00 00 00 00 00 00 00 ; ................
F40E  .byte 00 00 00 00 00 00 00 00 00 00 00 00 00 00 00 00 ; ................
F41E  .byte 00 00 00 00 00 00 00 00 00 00 00 00 00 00 00 00 ; ................
F42E  .byte 00 00 00 00 00 00 00 00 00 00 00 00 00 00 00 00 ; ................
F43E  .byte 00 00 00 00 00 00 00 00 00 00 00 00 00 00 00 00 ; ................
F44E  .byte 00 00 00 00 00 00 00 00 00 00 00 00 00 00 00 00 ; ................
F45E  .byte 00 00 00 00 00 00 00 00 00 00 00 00 00 00 00 00 ; ................
F46E  .byte 00 00 00 00 00 00 00 00 00 00 00 00 00 00 00 00 ; ................
F47E  .byte 00 00 00 00 00 00 00 00 00 00 00 00 00 00 00 00 ; ................
F48E  .byte 00 00 00 00 00 00 00 00 00 00 00 00 00 00 00 00 ; ................
F49E  .byte 00 00 00 00 00 00 00 00 00 00 00 00 00 00 00 00 ; ................
F4AE  .byte 00 00 00 00 00 00 00 00 00 00 00 00 00 00 00 00 ; ................
F4BE  .byte 00 00 00 00 00 00 00 00 00 00 00 00 00 00 00 00 ; ................
F4CE  .byte 00 00 00 00 00 00 00 00 00 00 00 00 00 00 00 00 ; ................
F4DE  .byte 00 00 00 00 00 00 00 00 00 00 00 00 00 00 00 00 ; ................
F4EE  .byte 00 00 00 00 00 00 00 00 00 00 00 00 00 00 00 00 ; ................
F4FE  .byte 00 00 00 00 00 00 00 00 00 00 00 00 00 00 00 00 ; ................
F50E  .byte 00 00 00 00 00 00 00 00 00 00 00 00 00 00 00 00 ; ................
F51E  .byte 00 00 00 00 00 00 00 00 00 00 00 00 00 00 00 00 ; ................
F52E  .byte 00 00 00 00 00 00 00 00 00 00 00 00 00 00 00 00 ; ................
F53E  .byte 00 00 00 00 00 00 00 00 00 00 00 00 00 00 00 00 ; ................
F54E  .byte 00 00 00 00 00 00 00 00 00 00 00 00 00 00 00 00 ; ................
F55E  .byte 00 00 00 00 00 00 00 00 00 00 00 00 00 00 00 00 ; ................
F56E  .byte 00 00 00 00 00 00 00 00 00 00 00 00 00 00 00 00 ; ................
F57E  .byte 00 00 00 00 00 00 00 00 00 00 00 00 00 00 00 00 ; ................
F58E  .byte 00 00 00 00 00 00 00 00 00 00 00 00 00 00 00 00 ; ................
F59E  .byte 00 00 00 00 00 00 00 00 00 00 00 00 00 00 00 00 ; ................
F5AE  .byte 00 00 00 00 00 00 00 00 00 00 00 00 00 00 00 00 ; ................
F5BE  .byte 00 00 00 00 00 00 00 00 00 00 00 00 00 00 00 00 ; ................
F5CE  .byte 00 00 00 00 00 00 00 00 00 00 00 00 00 00 00 00 ; ................
F5DE  .byte 00 00 00 00 00 00 00 00 00 00 00 00 00 00 00 00 ; ................
F5EE  .byte 00 00 00 00 00 00 00 00 00 00 00 00 00 00 00 00 ; ................
F5FE  .byte 00 00 00 00 00 00 00 00 00 00 00 00 00 00 00 00 ; ................
F60E  .byte 00 00 00 00 00 00 00 00 00 00 00 00 00 00 00 00 ; ................
F61E  .byte 00 00 00 00 00 00 00 00 00 00 00 00 00 00 00 00 ; ................
F62E  .byte 00 00 00 00 00 00 00 00 00 00 00 00 00 00 00 00 ; ................
F63E  .byte 00 00 00 00 00 00 00 00 00 00 00 00 00 00 00 00 ; ................
F64E  .byte 00 00 00 00 00 00 00 00 00 00 00 00 00 00 00 00 ; ................
F65E  .byte 00 00 00 00 00 00 00 00 00 00 00 00 00 00 00 00 ; ................
F66E  .byte 00 00 00 00 00 00 00 00 00 00 00 00 00 00 00 00 ; ................
F67E  .byte 00 00 00 00 00 00 00 00 00 00 00 00 00 00 00 00 ; ................
F68E  .byte 00 00 00 00 00 00 00 00 00 00 00 00 00 00 00 00 ; ................
F69E  .byte 00 00 00 00 00 00 00 00 00 00 00 00 00 00 00 00 ; ................
F6AE  .byte 00 00 00 00 00 00 00 00 00 00 00 00 00 00 00 00 ; ................
F6BE  .byte 00 00 00 00 00 00 00 00 00 00 00 00 00 00 00 00 ; ................
F6CE  .byte 00 00 00 00 00 00 00 00 00 00 00 00 00 00 00 00 ; ................
F6DE  .byte 00 00 00 00 00 00 00 00 00 00 00 00 00 00 00 00 ; ................
F6EE  .byte 00 00 00 00 00 00 00 00 00 00 00 00 00 00 00 00 ; ................
F6FE  .byte 00 00 00 00 00 00 00 00 00 00 00 00 00 00 00 00 ; ................
F70E  .byte 00 00 00 00 00 00 00 00 00 00 00 00 00 00 00 00 ; ................
F71E  .byte 00 00 00 00 00 00 00 00 00 00 00 00 00 00 00 00 ; ................
F72E  .byte 00 00 00 00 00 00 00 00 00 00 00 00 00 00 00 00 ; ................
F73E  .byte 00 00 00 00 00 00 00 00 00 00 00 00 00 00 00 00 ; ................
F74E  .byte 00 00 00 00 00 00 00 00 00 00 00 00 00 00 00 00 ; ................
F75E  .byte 00 00 00 00 00 00 00 00 00 00 00 00 00 00 00 00 ; ................
F76E  .byte 00 00 00 00 00 00 00 00 00 00 00 00 00 00 00 00 ; ................
F77E  .byte 00 00 00 00 00 00 00 00 00 00 00 00 00 00 00 00 ; ................
F78E  .byte 00 00 00 00 00 00 00 00 00 00 00 00 00 00 00 00 ; ................
F79E  .byte 00 00 00 00 00 00 00 00 00 00 00 00 00 00 00 00 ; ................
F7AE  .byte 00 00 00 00 00 00 00 00 00 00 00 00 00 00 00 00 ; ................
F7BE  .byte 00 00 00 00 00 00 00 00 00 00 00 00 00 00 00 00 ; ................
F7CE  .byte 00 00 00 00 00 00 00 00 00 00 00 00 00 00 00 00 ; ................
F7DE  .byte 00 00 00 00 00 00 00 00 00 00 00 00 00 00 00 00 ; ................
F7EE  .byte 00 00 00 00 00 00 00 00 00 00 00 00 00 00 00 00 ; ................
F7FE  .byte 00 00 00 00 00 00 00 00 00 00 00 00 00 00 00 00 ; ................
F80E  .byte 00 00 00 00 00 00 00 00 00 00 00 00 00 00 00 00 ; ................
F81E  .byte 00 00 00 00 00 00 00 00 00 00 00 00 00 00 00 00 ; ................
F82E  .byte 00 00 00 00 00 00 00 00 00 00 00 00 00 00 00 00 ; ................
F83E  .byte 00 00 00 00 00 00 00 00 00 00 00 00 00 00 00 00 ; ................
F84E  .byte 00 00 00 00 00 00 00 00 00 00 00 00 00 00 00 00 ; ................
F85E  .byte 00 00 00 00 00 00 00 00 00 00 00 00 00 00 00 00 ; ................
F86E  .byte 00 00 00 00 00 00 00 00 00 00 00 00 00 00 00 00 ; ................
F87E  .byte 00 00 00 00 00 00 00 00 00 00 00 00 00 00 00 00 ; ................
F88E  .byte 00 00 00 00 00 00 00 00 00 00 00 00 00 00 00 00 ; ................
F89E  .byte 00 00 00 00 00 00 00 00 00 00 00 00 00 00 00 00 ; ................
F8AE  .byte 00 00 00 00 00 00 00 00 00 00 00 00 00 00 00 00 ; ................
F8BE  .byte 00 00 00 00 00 00 00 00 00 00 00 00 00 00 00 00 ; ................
F8CE  .byte 00 00 00 00 00 00 00 00 00 00 00 00 00 00 00 00 ; ................
F8DE  .byte 00 00 00 00 00 00 00 00 00 00 00 00 00 00 00 00 ; ................
F8EE  .byte 00 00 00 00 00 00 00 00 00 00 00 00 00 00 00 00 ; ................
F8FE  .byte 00 00 00 00 00 00 00 00 00 00 00 00 00 00 00 00 ; ................
F90E  .byte 00 00 00 00 00 00 00 00 00 00 00 00 00 00 00 00 ; ................
F91E  .byte 00 00 00 00 00 00 00 00 00 00 00 00 00 00 00 00 ; ................
F92E  .byte 00 00 00 00 00 00 00 00 00 00 00 00 00 00 00 00 ; ................
F93E  .byte 00 00 00 00 00 00 00 00 00 00 00 00 00 00 00 00 ; ................
F94E  .byte 00 00 00 00 00 00 00 00 00 00 00 00 00 00 00 00 ; ................
F95E  .byte 00 00 00 00 00 00 00 00 00 00 00 00 00 00 00 00 ; ................
F96E  .byte 00 00 00 00 00 00 00 00 00 00 00 00 00 00 00 00 ; ................
F97E  .byte 00 00 00 00 00 00 00 00 00 00 00 00 00 00 00 00 ; ................
F98E  .byte 00 00 00 00 00 00 00 00 00 00 00 00 00 00 00 00 ; ................
F99E  .byte 00 00 00 00 00 00 00 00 00 00 00 00 00 00 00 00 ; ................
F9AE  .byte 00 00 00 00 00 00 00 00 00 00 00 00 00 00 00 00 ; ................
F9BE  .byte 00 00 00 00 00 00 00 00 00 00 00 00 00 00 00 00 ; ................
F9CE  .byte 00 00 00 00 00 00 00 00 00 00 00 00 00 00 00 00 ; ................
F9DE  .byte 00 00 00 00 00 00 00 00 00 00 00 00 00 00 00 00 ; ................
F9EE  .byte 00 00 00 00 00 00 00 00 00 00 00 00 00 00 00 00 ; ................
F9FE  .byte 00 00 00 00 00 00 00 00 00 00 00 00 00 00 00 00 ; ................
FA0E  .byte 00 00 00 00 00 00 00 00 00 00 00 00 00 00 00 00 ; ................
FA1E  .byte 00 00 00 00 00 00 00 00 00 00 00 00 00 00 00 00 ; ................
FA2E  .byte 00 00 00 00 00 00 00 00 00 00 00 00 00 00 00 00 ; ................
FA3E  .byte 00 00 00 00 00 00 00 00 00 00 00 00 00 00 00 00 ; ................
FA4E  .byte 00 00 00 00 00 00 00 00 00 00 00 00 00 00 00 00 ; ................
FA5E  .byte 00 00 00 00 00 00 00 00 00 00 00 00 00 00 00 00 ; ................
FA6E  .byte 00 00 00 00 00 00 00 00 00 00 00 00 00 00 00 00 ; ................
FA7E  .byte 00 00 00 00 00 00 00 00 00 00 00 00 00 00 00 00 ; ................
FA8E  .byte 00 00 00 00 00 00 00 00 00 00 00 00 00 00 00 00 ; ................
FA9E  .byte 00 00 00 00 00 00 00 00 00 00 00 00 00 00 00 00 ; ................
FAAE  .byte 00 00 00 00 00 00 00 00 00 00 00 00 00 00 00 00 ; ................
FABE  .byte 00 00 00 00 00 00 00 00 00 00 00 00 00 00 00 00 ; ................
FACE  .byte 00 00 00 00 00 00 00 00 00 00 00 00 00 00 00 00 ; ................
FADE  .byte 00 00 00 00 00 00 00 00 00 00 00 00 00 00 00 00 ; ................
FAEE  .byte 00 00 00 00 00 00 00 00 00 00 00 00 00 00 00 00 ; ................
FAFE  .byte 00 00 00 00 00 00 00 00 00 00 00 00 00 00 00 00 ; ................
FB0E  .byte 00 00 00 00 00 00 00 00 00 00 00 00 00 00 00 00 ; ................
FB1E  .byte 00 00 00 00 00 00 00 00 00 00 00 00 00 00 00 00 ; ................
FB2E  .byte 00 00 00 00 00 00 00 00 00 00 00 00 00 00 00 00 ; ................
FB3E  .byte 00 00 00 00 00 00 00 00 00 00 00 00 00 00 00 00 ; ................
FB4E  .byte 00 00 00 00 00 00 00 00 00 00 00 00 00 00 00 00 ; ................
FB5E  .byte 00 00 00 00 00 00 00 00 00 00 00 00 00 00 00 00 ; ................
FB6E  .byte 00 00 00 00 00 00 00 00 00 00 00 00 00 00 00 00 ; ................
FB7E  .byte 00 00 00 00 00 00 00 00 00 00 00 00 00 00 00 00 ; ................
FB8E  .byte 00 00 00 00 00 00 00 00 00 00 00 00 00 00 00 00 ; ................
FB9E  .byte 00 00 00 00 00 00 00 00 00 00 00 00 00 00 00 00 ; ................
FBAE  .byte 00 00 00 00 00 00 00 00 00 00 00 00 00 00 00 00 ; ................
FBBE  .byte 00 00 00 00 00 00 00 00 00 00 00 00 00 00 00 00 ; ................
FBCE  .byte 00 00 00 00 00 00 00 00 00 00 00 00 00 00 00 00 ; ................
FBDE  .byte 00 00 00 00 00 00 00 00 00 00 00 00 00 00 00 00 ; ................
FBEE  .byte 00 00 00 00 00 00 00 00 00 00 00 00 00 00 00 00 ; ................
FBFE  .byte 00 00 00 00 00 00 00 00 00 00 00 00 00 00 00 00 ; ................
FC0E  .byte 00 00 00 00 00 00 00 00 00 00 00 00 00 00 00 00 ; ................
FC1E  .byte 00 00 00 00 00 00 00 00 00 00 00 00 00 00 00 00 ; ................
FC2E  .byte 00 00 00 00 00 00 00 00 00 00 00 00 00 00 00 00 ; ................
FC3E  .byte 00 00 00 00 00 00 00 00 00 00 00 00 00 00 00 00 ; ................
FC4E  .byte 00 00 00 00 00 00 00 00 00 00 00 00 00 00 00 00 ; ................
FC5E  .byte 00 00 00 00 00 00 00 00 00 00 00 00 00 00 00 00 ; ................
FC6E  .byte 00 00 00 00 00 00 00 00 00 00 00 00 00 00 00 00 ; ................
FC7E  .byte 00 00 00 00 00 00 00 00 00 00 00 00 00 00 00 00 ; ................
FC8E  .byte 00 00 00 00 00 00 00 00 00 00 00 00 00 00 00 00 ; ................
FC9E  .byte 00 00 00 00 00 00 00 00 00 00 00 00 00 00 00 00 ; ................
FCAE  .byte 00 00 00 00 00 00 00 00 00 00 00 00 00 00 00 00 ; ................
FCBE  .byte 00 00 00 00 00 00 00 00 00 00 00 00 00 00 00 00 ; ................
FCCE  .byte 00 00 00 00 00 00 00 00 00 00 00 00 00 00 00 00 ; ................
FCDE  .byte 00 00 00 00 00 00 00 00 00 00 00 00 00 00 00 00 ; ................
FCEE  .byte 00 00 00 00 00 00 00 00 00 00 00 00 00 00 00 00 ; ................
FCFE  .byte 00 00 00 00 00 00 00 00 00 00 00 00 00 00 00 00 ; ................
FD0E  .byte 00 00 00 00 00 00 00 00 00 00 00 00 00 00 00 00 ; ................
FD1E  .byte 00 00 00 00 00 00 00 00 00 00 00 00 00 00 00 00 ; ................
FD2E  .byte 00 00 00 00 00 00 00 00 00 00 00 00 00 00 00 00 ; ................
FD3E  .byte 00 00 00 00 00 00 00 00 00 00 00 00 00 00 00 00 ; ................
FD4E  .byte 00 00 00 00 00 00 00 00 00 00 00 00 00 00 00 00 ; ................
FD5E  .byte 00 00 00 00 00 00 00 00 00 00 00 00 00 00 00 00 ; ................
FD6E  .byte 00 00 00 00 00 00 00 00 00 00 00 00 00 00 00 00 ; ................
FD7E  .byte 00 00 00 00 00 00 00 00 00 00 00 00 00 00 00 00 ; ................
FD8E  .byte 00 00 00 00 00 00 00 00 00 00 00 00 00 00 00 00 ; ................
FD9E  .byte 00 00 00 00 00 00 00 00 00 00 00 00 00 00 00 00 ; ................
FDAE  .byte 00 00 00 00 00 00 00 00 00 00 00 00 00 00 00 00 ; ................
FDBE  .byte 00 00 00 00 00 00 00 00 00 00 00 00 00 00 00 00 ; ................
FDCE  .byte 00 00 00 00 00 00 00 00 00 00 00 00 00 00 00 00 ; ................
FDDE  .byte 00 00 00 00 00 00 00 00 00 00 00 00 00 00 00 00 ; ................
FDEE  .byte 00 00 00 00 00 00 00 00 00 00 00 00 00 00 00 00 ; ................
FDFE  .byte 00 00 00 00 00 00 00 00 00 00 00 00 00 00 00 00 ; ................
FE0E  .byte 00 00 00 00 00 00 00 00 00 00 00 00 00 00 00 00 ; ................
FE1E  .byte 00 00 00 00 00 00 00 00 00 00 00 00 00 00 00 00 ; ................
FE2E  .byte 00 00 00 00 00 00 00 00 00 00 00 00 00 00 00 00 ; ................
FE3E  .byte 00 00 00 00 00 00 00 00 00 00 00 00 00 00 00 00 ; ................
FE4E  .byte 00 00 00 00 00 00 00 00 00 00 00 00 00 00 00 00 ; ................
FE5E  .byte 00 00 00 00 00 00 00 00 00 00 00 00 00 00 00 00 ; ................
FE6E  .byte 00 00 00 00 00 00 00 00 00 00 00 00 00 00 00 00 ; ................
FE7E  .byte 00 00 00 00 00 00 00 00 00 00 00 00 00 00 00 00 ; ................
FE8E  .byte 00 00 00 00 00 00 00 00 00 00 00 00 00 00 00 00 ; ................
FE9E  .byte 00 00 00 00 00 00 00 00 00 00 00 00 00 00 00 00 ; ................
FEAE  .byte 00 00 00 00 00 00 00 00 00 00 00 00 00 00 00 00 ; ................
FEBE  .byte 00 00 00 00 00 00 00 00 00 00 00 00 00 00 00 00 ; ................
FECE  .byte 00 00 00 00 00 00 00 00 00 00 00 00 00 00 00 00 ; ................
FEDE  .byte 00 00 00 00 00 00 00 00 00 00 00 00 00 00 00 00 ; ................
FEEE  .byte 00 00 00 00 00 00 00 00 00 00 00 00 00 00 00 00 ; ................
FEFE  .byte 00 00 00 00 00 00 00 00 00 00 00 00 00 00 00 00 ; ................
FF0E  .byte 00 00 00 00 00 00 00 00 00 00 00 00 00 00 00 00 ; ................
FF1E  .byte 00 00 00 00 00 00 00 00 00 00 00 00 00 00 00 00 ; ................
FF2E  .byte 00 00 00 00 00 00 00 00 00 00 00 00 00 00 00 00 ; ................
FF3E  .byte 00 00 00 00 00 00 00 00 00 00 00 00 00 00 00 00 ; ................
FF4E  .byte 00 00 00 00 00 00 00 00 00 00 00 00 00 00 00 00 ; ................
FF5E  .byte 00 00 00 00 00 00 00 00 00 00 00 00 00 00 00 00 ; ................
FF6E  .byte 00 00 00 00 00 00 00 00 00 00 00 00 00 00 00 00 ; ................
FF7E  .byte 00 00 00 00 00 00 00 00 00 00 00 00 00 00 00 00 ; ................
FF8E  .byte 00 00                                           ; ..

; ==== sub_FF90 (1 caller) ====
FF90  00        BRK
FF91  .byte 00 00 00 00 00 00 00 00 00 00 00 00 00 00 00 00 ; ................
FFA1  .byte 00 00 00 00 00 00 00 00 00 00 00 00 00 00 00 00 ; ................
FFB1  .byte 00 00 00 00 00 00 00 00 00                      ; .........

; ==== sub_FFBA (1 caller) ====
FFBA  00        BRK
FFBB  .byte 00 00                                           ; ..
FFBD  00        BRK
FFBE  .byte 00 00 00 00 00 00 00 00 00 00 00 00 00 00 00 00 ; ................
FFCE  .byte 00 00 00 00 00 00 00                            ; .......

; ==== sub_FFD5 (1 caller) ====
FFD5  00        BRK
FFD6  .byte 00 00                                           ; ..

; ==== sub_FFD8 (1 caller) ====
FFD8  00        BRK
FFD9  .byte 00 00 00 00 00 00 00 00 00 00 00 00 00 00 00 00 ; ................
FFE9  .byte 00 00 00 00 00 00 00 00 00 00 00 00 00 00 00 00 ; ................
FFF9  .byte 00 00 00 00 00 00 00                            ; .......
