
; --- cpu_vectors  $000010 — 68000 exception vector table (runtime $0-$FF; reset SSP/PC at $0/$4 set by game_entry, the rest filled during init). Not code. (data) ---
000010  .dc.b 00 00 00 00 00 00 00 00 00 00 00 00 00 00 00 00 ; ................
000020  .dc.b 00 00 00 00 00 00 00 00 00 00 00 00 00 00 00 00 ; ................
000030  .dc.b 00 00 00 00 00 00 00 00 00 00 00 00 00 00 00 00 ; ................
000040  .dc.b 00 00 00 00 00 00 00 00 00 00 00 00 00 00 00 00 ; ................
000050  .dc.b 00 00 00 00 00 00 00 00 00 00 00 00 00 00 00 00 ; ................
000060  .dc.b 00 00 00 00 00 00 00 00 00 C7 63 CE 00 C7 65 0C ; ..........c...e.
000070  .dc.b 00 00 00 00 00 00 00 00 00 00 00 00 00 00 00 00 ; ................
000080  .dc.b 00 00 00 00 00 00 00 00 00 00 00 00 00 00 00 00 ; ................
000090  .dc.b 00 00 00 00 00 00 00 00 00 00 00 00 00 00 00 00 ; ................
0000A0  .dc.b 00 00 00 00 00 00 00 00 00 00 00 00 00 00 00 00 ; ................
0000B0  .dc.b 00 00 00 00 00 00 00 00 00 00 00 00 00 00 00 00 ; ................
0000C0  45 F9 00 02 00 9E             LEA $2009E.l,a2
0000C6  0C 52 67 0C                   CMPI.w #$670C,(a2)
0000CA  66 04                         BNE $0000D0
0000CC  14 BC 00 60                   MOVE.b #$60,(a2)
0000D0  58 8A                         ADDQ.l #4,a2
0000D2  0C 52 67 0C                   CMPI.w #$670C,(a2)
0000D6  66 04                         BNE $0000DC
0000D8  14 BC 00 60                   MOVE.b #$60,(a2)
0000DC  70 00                         MOVEQ #$0,d0
0000DE  60 16                         BRA $0000F6
0000E0  .dc.b 4E 71                                           ; Nq
0000E2  B1 FC 00 08 00 00             CMPA.l #$80000,a0
0000E8  64 00 06 FE                   BCC $0007E8
0000EC  0C 58 44 89                   CMPI.w #$4489,(a0)+
0000F0  66 F0                         BNE $0000E2
0000F2  60 00 07 3C                   BRA $000830
0000F6  4C DF 0C 87                   MOVEM.l (a7)+,d0-d2/d7/a2-a3
0000FA  4E 75                         RTS
0000FC  .dc.b 00 00 00 00                                     ; ....

; --- entry_table  $000100 — The engine's internal entry vectors — a table of BRA stubs. game_init's JMP $100 falls through slot 0 to game_start; other slots ($108..$138) are engine sub-entries ($1ABA/$1AEC/$1B14/$1B38/$35AE/$438C/$234C/$7728/$78CC/$7EFC). (data) ---
000100  .dc.b 60 00 0B B2 00 00 00 00                         ; `.......

; ==== sub_000108 (1 caller) ====
000108  60 00 19 B0                   BRA $001ABA

; ==== sub_00010C (1 caller) ====
00010C  60 00 19 DE                   BRA $001AEC
000110  .dc.b 60 00 1A 02 60 00 1A 22 60 00 34 94 60 00 42 6E ; `...`.."`.4.`.Bn
000120  .dc.b 00 00 00 00 00 00 00 00 60 00 22 22 60 00 75 FA ; ........`.""`.u.
000130  .dc.b 60 00 77 9A 00 00 09 66 60 00 7D C2 00 00 00 00 ; `.w....f`.}.....
000140  .dc.b 7E FC 00 00 80 E8 00 00 81 10                   ; ~.........

; --- object_count  $00014A — Number of active objects (capped at $26+1 = 39). (data) ---
00014A  .dc.b 00 00 60 00 67 18 00 00 72 D4 00 00 19 CE 00 00 ; ..`.g...r.......
00015A  .dc.b 00 00 00 00 60 00 22 A0 60 00 22 BC 00 00 00 00 ; ....`.".`.".....
00016A  .dc.b 00 00 00 00 00 00 00 00 00 00 00 00 00 00 00 00 ; ................

; --- screen_buffers  $00017A — The three display-buffer base pointers ($17A/$192/$1AA = $5BCE0/$67CE0/$73CE0) — triple-buffering for the scrolling playfield. (data) ---
00017A  .dc.b 00 05 BC E0 00 05 BC E0 00 01 80 00 00 00 00 00 ; ................
00018A  .dc.b 00 00 00 00 00 00 00 00 00 06 7C E0 00 06 7C E0 ; ..........|...|.
00019A  .dc.b 00 00 C0 00 00 00 00 00 00 00 00 00 00 00 00 00 ; ................
0001AA  .dc.b 00 07 3C E0 00 07 3C E0 00 00 00 00 00 00 00 00 ; ..<...<.........
0001BA  .dc.b 00 00 00 00 00 00 00 00                         ; ........

; --- draw_list_ptr  $0001C2 — Pointer to the blitter draw-list structure consumed by blit_playfield / blit_objects. (data) ---
0001C2  .dc.b 00 00 00 00 00 00 60 00 19 84 60 00 19 B0 60 00 ; ......`...`...`.
0001D2  .dc.b 52 8E 60 00 2C 68 60 00 2C 94 00 FC 00 D2 00    ; R.`.,h`.,......

; --- frame_sync_flag  $0001E1 — Set at the end of each game_loop iteration; cleared by the vblank path. game_loop spins on it to lock to 50/60 Hz. (data) ---
0001E1  .dc.b 00 00 00 00 00 00 00 00 00 00 00 00 00 00 00 00 ; ................
0001F1  .dc.b 00 60 00 75 5A 00 00 00 00 00 00 73 78 00 00 73 ; .`.uZ......sx..s
000201  .dc.b 84 00 00 73 A8 00 00 73 B4 00 00 A2 70 00 00 A0 ; ...s...s....p...
000211  .dc.b 70 00 00 00 00 00 00 60 00 26 56                ; p......`.&V

; ==== sub_00021C (1 caller) ====
00021C  60 00 16 C4                   BRA $0018E2

; ==== sub_000220 (1 caller) ====
000220  60 00 16 D0                   BRA $0018F2
000224  .dc.b 60 00 16 D8 00 00 00 00 00 00 00 00 AB 70 60 00 ; `............p`.
000234  .dc.b 61 7A                                           ; az

; --- object_list  $000236 — Head of the active-object doubly-linked list. (data) ---
000236  .dc.b 00 00 00 00                                     ; ....

; --- object_free  $00023A — Head of the free-object list (the pool's spare nodes). (data) ---
00023A  .dc.b 00 00 00 00 00 00 00 00 00 00 00 00 00 00 00 00 ; ................
00024A  .dc.b 60 00 30 0C 60 00 2B C6 00 00 00 00 00 00 00 00 ; `.0.`.+.........
00025A  .dc.b 00 00 00 00 00 00 00 00 00 00 00 00 00 00 00 00 ; ................
00026A  .dc.b 00 00 00 00 7A C8 00 00 00 00 72 94 00 00 00 00 ; ....z.....r.....
00027A  .dc.b 00 00 60 00 37 72 60 00 6E F2 00 00 60 00 2B CE ; ..`.7r`.n...`.+.
00028A  .dc.b 00 00 00 00 00 00 00 00 00 00 00 00 00 00 00 00 ; ................
00029A  .dc.b 01 01 01 01 01 01 01 01 01 01 01 01 01 01 01 01 ; ................
0002AA  .dc.b 01 01 01 01 01 01 01 01 01 01 01 01 01 01 01 01 ; ................
0002BA  .dc.b 01 01 01 01 01 01 01 01 01 01 01 01 01 01 01 01 ; ................
0002CA  .dc.b 01 01 01 01 01 01 01 01 01 01 01 01 00 04 08 07 ; ................
0002DA  .dc.b 03 05 00 0D 08 00 01 48 41 4C 4C 20 4F 46 20 46 ; .......HALL OF F
0002EA  .dc.b 41 4D 45 FF 05 10 00 30 31 30 30 30 30 30 20 34 ; AME....0100000 4
0002FA  .dc.b 2D 32 20 4D 41 4E 46 52 45 44 20 54 52 45 4E 5A ; -2 MANFRED TRENZ
00030A  .dc.b 20 20 20 20 20 FF 05 18 00 30 30 39 30 30 30 30 ;      ....0090000
00031A  .dc.b 20 34 2D 31 20 48 4F 4C 47 45 52 20 53 43 48 4D ;  4-1 HOLGER SCHM
00032A  .dc.b 49 44 54 20 20 20 20 FF 05 20 00 30 30 38 30 30 ; IDT    .. .00800
00033A  .dc.b 30 30 20 33 2D 33 20 43 48 52 49 53 20 48 55 45 ; 00 3-3 CHRIS HUE
00034A  .dc.b 4C 53 42 45 43 4B 20 20 20 FF 05 28 00 30 30 37 ; LSBECK   ..(.007
00035A  .dc.b 30 30 30 30 20 33 2D 32 20 41 4E 44 52 45 41 53 ; 0000 3-2 ANDREAS
00036A  .dc.b 20 45 53 43 48 45 52 20 20 20 20 FF 05 30 00 30 ;  ESCHER    ..0.0
00037A  .dc.b 30 36 30 30 30 30 20 33 2D 31 20 4A 55 4C 49 41 ; 060000 3-1 JULIA
00038A  .dc.b 4E 20 45 47 47 45 42 52 45 43 48 54 20 FF 05 38 ; N EGGEBRECHT ..8
00039A  .dc.b 00 30 30 35 30 30 30 30 20 32 2D 32 20 4D 41 52 ; .0050000 2-2 MAR
0003AA  .dc.b 43 20 41 2E 20 55 4C 4C 52 49 43 48 20 20 20 FF ; C A. ULLRICH   .
0003BA  .dc.b 05 40 00 30 30 34 30 30 30 30 20 32 2D 31 20 53 ; .@.0040000 2-1 S
0003CA  .dc.b 45 42 41 53 54 49 41 4E 20 44 4F 53 43 48 20 20 ; EBASTIAN DOSCH  
0003DA  .dc.b 20 FF 05 48 00 30 30 33 30 30 30 30 20 31 2D 33 ;  ..H.0030000 1-3
0003EA  .dc.b 20 41 43 48 49 4D 20 4D 4F 4C 4C 45 52 20 20 20 ;  ACHIM MOLLER   
0003FA  .dc.b 20 20 20 FF 05 50 00 30 30 32 30 30 30 30 20 31 ;    ..P.0020000 1
00040A  .dc.b 2D 32 20 20 20 20 20 1D 20 31 39 39 30 20 42 59 ; -2     . 1990 BY
00041A  .dc.b 20 20 20 20 20 FF 05 58 00 30 30 31 30 30 30 30 ;      ..X.0010000
00042A  .dc.b 20 31 2D 31 20 21 21 20 52 41 49 4E 42 4F 57 20 ;  1-1 !! RAINBOW 
00043A  .dc.b 41 52 54 53 20 21 21 FF D3 00 00 00 00 00 00 00 ; ARTS !!.........
00044A  .dc.b 00 00 00 00 00 00 00 00 00 00 00 00 00 00 00 00 ; ................
00045A  .dc.b 00 00 00 00 00 00 00 00 60 00 75 3C 60 00 05 EA ; ........`.u<`...

; --- level_table  $00046A — Per-world table indexed by level number ($1938 * 8): 5 entries of (ADF byte offset, packed length) for the 5 worlds' huff-compressed scene blocks — $3F000/$1EAAC, $5DC00/$1FCB0, $7DA00/$1BEA0, $99A00/$24504, $BE000/$1DE2A. Each decodes to $3F700 bytes at $1B980. (data) ---
00046A  .dc.b 00 03 F0 00 00 01 EA AC 00 05 DC 00 00 01 FC B0 ; ................
00047A  .dc.b 00 07 DA 00 00 01 BE A0 00 09 9A 00 00 02 45 04 ; ..............E.
00048A  .dc.b 00 0B E0 00 00 01 DE 2A 00 00 00 9E             ; .......*....

; ==== sub_000496 (1 caller) ====
000496  4A 38 02 52                   TST.b $252.w
00049A  67 04                         BEQ $0004A0
00049C  61 00 6C D6                   BSR $007174

; --- load_level  $0004A0 — Load the current world ($1938): look up level_table, BSR disk_load to read the packed block to $1B780, then load_scene_block huff-decodes it to scene_manager ($1B980). ---
0004A0  50 F8 19 4C                   ST $194C.w
0004A4  61 00 00 DC                   BSR $000582
0004A8  34 38 19 38                   MOVE.w $1938.w,d2
0004AC  E7 4A                         LSL.w #3,d2
0004AE  41 FA FF BA                   LEA $00046A(pc),a0
0004B2  4C F0 00 03 20 00             MOVEM.l $0(a0,d2.w),d0-d1
0004B8  24 3C 00 01 B7 80             MOVE.l #$1B780,d2
0004BE  2F 01                         MOVE.l d1,-(a7)
0004C0  61 00 02 5A                   BSR $00071C
0004C4  22 1F                         MOVE.l (a7)+,d1
0004C6  41 F9 00 01 B7 80             LEA $1B780.l,a0
0004CC  43 F0 18 00                   LEA $0(a0,d1.l),a1
0004D0  45 F9 00 01 B9 80             LEA $1B980.l,a2
0004D6  61 00 07 1C                   BSR $000BF4
0004DA  6B CC                         BMI $0004A8
0004DC  61 00 01 34                   BSR $000612
0004E0  51 F8 19 4C                   SF $194C.w
0004E4  4E 75                         RTS

; ==== sub_0004E6 (1 caller) ====
0004E6  21 FC 00 00 72 F4 02 3E       MOVE.l #$72F4,$23E.w
0004EE  21 FC 00 00 1A 0E 02 42       MOVE.l #$1A0E,$242.w
0004F6  31 FC 00 17 02 46             MOVE.w #$17,$246.w
0004FC  61 00 6A F8                   BSR $006FF6
000500  21 FC 00 00 73 E8 02 3E       MOVE.l #$73E8,$23E.w
000508  21 FC 00 00 1A 40 02 42       MOVE.l #$1A40,$242.w
000510  31 FC 00 0E 02 46             MOVE.w #$E,$246.w
000516  61 00 6A DE                   BSR $006FF6
00051A  21 FC 00 00 74 50 02 3E       MOVE.l #$7450,$23E.w
000522  21 FC 00 00 1A 5E 02 42       MOVE.l #$1A5E,$242.w
00052A  31 FC 00 00 02 46             MOVE.w #$0,$246.w
000530  60 00 6A C4                   BRA $006FF6

; ==== sub_000534 (1 caller) ====
000534  21 FC 00 00 72 F4 02 3E       MOVE.l #$72F4,$23E.w
00053C  21 FC 00 00 19 8E 02 42       MOVE.l #$198E,$242.w
000544  31 FC 00 17 02 46             MOVE.w #$17,$246.w
00054A  61 00 6A AA                   BSR $006FF6
00054E  21 FC 00 00 73 E8 02 3E       MOVE.l #$73E8,$23E.w
000556  21 FC 00 00 19 8E 02 42       MOVE.l #$198E,$242.w
00055E  31 FC 00 0E 02 46             MOVE.w #$E,$246.w
000564  61 00 6A 90                   BSR $006FF6
000568  21 FC 00 00 74 50 02 3E       MOVE.l #$7450,$23E.w
000570  21 FC 00 00 19 8E 02 42       MOVE.l #$198E,$242.w
000578  31 FC 00 00 02 46             MOVE.w #$0,$246.w
00057E  60 00 6A 76                   BRA $006FF6

; ==== sub_000582 (2 callers) ====
000582  70 30                         MOVEQ #$30,d0
000584  22 3C 00 00 14 78             MOVE.l #$1478,d1
00058A  24 3C 00 06 80 00             MOVE.l #$68000,d2
000590  61 00 01 8A                   BSR $00071C
000594  41 FA 6D E2                   LEA $007378(pc),a0
000598  20 3C 00 00 73 84             MOVE.l #$7384,d0
00059E  48 40                         SWAP d0
0005A0  31 40 00 02                   MOVE.w d0,$2(a0)
0005A4  48 40                         SWAP d0
0005A6  31 40 00 06                   MOVE.w d0,$6(a0)
0005AA  41 FA 6D FC                   LEA $0073A8(pc),a0
0005AE  20 3C 00 00 73 B4             MOVE.l #$73B4,d0
0005B4  48 40                         SWAP d0
0005B6  31 40 00 02                   MOVE.w d0,$2(a0)
0005BA  48 40                         SWAP d0
0005BC  31 40 00 06                   MOVE.w d0,$6(a0)
0005C0  4A 38 19 4B                   TST.b $194B.w
0005C4  66 00 00 22                   BNE $0005E8
0005C8  61 00 6F E8                   BSR $0075B2
0005CC  30 3C 00 0F                   MOVE.w #$F,d0
0005D0  3F 00                         MOVE.w d0,-(a7)
0005D2  42 78 70 68                   CLR.w $7068.w
0005D6  0C 78 00 02 70 68             CMPI.w #$2,$7068.w
0005DC  6D F8                         BLT $0005D6
0005DE  61 00 FF 06                   BSR $0004E6
0005E2  30 1F                         MOVE.w (a7)+,d0
0005E4  51 C8 FF EA                   DBRA d0,$0005D0
0005E8  50 F8 19 4B                   ST $194B.w
0005EC  20 3C 00 06 82 00             MOVE.l #$68200,d0
0005F2  22 3C 00 06 80 00             MOVE.l #$68000,d1
0005F8  4E B9 00 01 A2 B4             JSR $1A2B4.l
0005FE  4E B9 00 01 A2 A8             JSR $1A2A8.l
000604  50 F8 70 67                   ST $7067.w
000608  70 00                         MOVEQ #$0,d0
00060A  4E B9 00 01 A2 AC             JSR $1A2AC.l
000610  4E 75                         RTS

; ==== sub_000612 (2 callers) ====
000612  20 3C 00 02 00 00             MOVE.l #$20000,d0
000618  4E B9 00 01 A2 C8             JSR $1A2C8.l
00061E  4E B9 00 01 A2 CC             JSR $1A2CC.l
000624  4A 90                         TST.l (a0)
000626  66 F6                         BNE $00061E
000628  70 1F                         MOVEQ #$1F,d0
00062A  4E B9 00 01 A2 AC             JSR $1A2AC.l
000630  4A 38 19 4B                   TST.b $194B.w
000634  67 1C                         BEQ $000652
000636  41 F9 00 01 B9 80             LEA $1B980.l,a0
00063C  20 28 00 10                   MOVE.l $10(a0),d0
000640  22 28 00 0C                   MOVE.l $C(a0),d1
000644  4E B9 00 01 A2 B4             JSR $1A2B4.l
00064A  4E B9 00 01 A2 A8             JSR $1A2A8.l
000650  4E 75                         RTS
000652  70 0F                         MOVEQ #$F,d0
000654  3F 00                         MOVE.w d0,-(a7)
000656  42 78 70 68                   CLR.w $7068.w
00065A  0C 78 00 02 70 68             CMPI.w #$2,$7068.w
000660  6D F8                         BLT $00065A
000662  61 00 FE D0                   BSR $000534
000666  30 1F                         MOVE.w (a7)+,d0
000668  51 C8 FF EA                   DBRA d0,$000654
00066C  4E 75                         RTS

; ==== sub_00066E (1 caller) ====
00066E  3F 00                         MOVE.w d0,-(a7)
000670  50 F8 19 4C                   ST $194C.w
000674  61 00 FF 0C                   BSR $000582
000678  70 28                         MOVEQ #$28,d0
00067A  22 3C 00 00 B5 14             MOVE.l #$B514,d1
000680  24 3C 00 01 B7 80             MOVE.l #$1B780,d2
000686  61 00 00 94                   BSR $00071C
00068A  41 F9 00 01 B7 80             LEA $1B780.l,a0
000690  43 F9 00 02 6C 94             LEA $26C94.l,a1
000696  45 F9 00 03 00 00             LEA $30000.l,a2
00069C  61 00 05 56                   BSR $000BF4
0006A0  6B D6                         BMI $000678
0006A2  70 1C                         MOVEQ #$1C,d0
0006A4  22 3C 00 00 C2 68             MOVE.l #$C268,d1
0006AA  24 3C 00 01 BB 00             MOVE.l #$1BB00,d2
0006B0  61 00 00 6A                   BSR $00071C
0006B4  51 F8 19 4B                   SF $194B.w
0006B8  61 00 FF 58                   BSR $000612
0006BC  51 F9 00 00 19 4C             SF $194C.l
0006C2  3D 7C 7F FF 00 96             MOVE.w #$7FFF,$96(a6)
0006C8  3D 7C 7F FF 00 9A             MOVE.w #$7FFF,$9A(a6)
0006CE  3D 7C 7F FF 00 9C             MOVE.w #$7FFF,$9C(a6)
0006D4  41 F8 7A B2                   LEA $7AB2.w,a0
0006D8  43 F8 02 D6                   LEA $2D6.w,a1
0006DC  70 06                         MOVEQ #$6,d0
0006DE  12 D8                         MOVE.b (a0)+,(a1)+
0006E0  51 C8 FF FC                   DBRA d0,$0006DE
0006E4  41 F8 07 08                   LEA $708.w,a0
0006E8  30 38 19 38                   MOVE.w $1938.w,d0
0006EC  D0 40                         ADD.w d0,d0
0006EE  D0 40                         ADD.w d0,d0
0006F0  D0 78 19 3A                   ADD.w $193A.w,d0
0006F4  12 F0 00 00                   MOVE.b $0(a0,d0.w),(a1)+
0006F8  30 1F                         MOVE.w (a7)+,d0
0006FA  D0 40                         ADD.w d0,d0
0006FC  D0 40                         ADD.w d0,d0
0006FE  41 F9 00 03 00 00             LEA $30000.l,a0
000704  4E F0 00 00                   JMP $0(a0,d0.w)
000708  .dc.b 00 01 02 00 03 04 00 00 05 06 07 00 08 09 0A 00 ; ................
000718  .dc.b 0B 0C 0D 00                                     ; ....

; ==== disk_load  $00071C  (5 callers) — Disk load+decode primitive (d0 = ADF offset or block id $1C/$28/$30 -> $26000/$32400/$3DA00, d1 = length, d2 = dest). Reads the packed bytes off the floppy and huff-decodes them via the resident copy of huff_decode at $74000. ====
00071C  0C 80 00 00 00 1C             CMPI.l #$1C,d0
000722  66 2E                         BNE $000752
000724  20 3C 00 02 60 00             MOVE.l #$26000,d0
00072A  61 26                         BSR $000752
00072C  48 E7 60 B0                   MOVEM.l d1-d2/a0/a2-a3,-(a7)
000730  61 00 04 E0                   BSR $000C12
000734  4C DF 00 06                   MOVEM.l (a7)+,d1-d2
000738  20 42                         MOVEA.l d2,a0
00073A  26 42                         MOVEA.l d2,a3
00073C  2E 02                         MOVE.l d2,d7
00073E  DE 81                         ADD.l d1,d7
000740  24 7C 00 02 FA 00             MOVEA.l #$2FA00,a2
000746  4E B9 00 07 40 00             JSR $74000.l
00074C  4C DF 0D 00                   MOVEM.l (a7)+,a0/a2-a3
000750  4E 75                         RTS

; ==== sub_000752 (1 caller) ====
000752  48 E7 FF FE                   MOVEM.l d0-d7/a0-a6,-(a7)
000756  0C 80 00 00 00 28             CMPI.l #$28,d0
00075C  66 06                         BNE $000764
00075E  20 3C 00 03 24 00             MOVE.l #$32400,d0
000764  0C 80 00 00 00 30             CMPI.l #$30,d0
00076A  66 06                         BNE $000772
00076C  20 3C 00 03 DA 00             MOVE.l #$3DA00,d0
000772  28 42                         MOVEA.l d2,a4
000774  4E B8 08 BE                   JSR $8BE.w
000778  80 FC 16 00                   DIVU.W #$1600,d0
00077C  2E 00                         MOVE.l d0,d7
00077E  48 47                         SWAP d7
000780  EE 4F                         LSR.w #7,d7
000782  61 00 04 E6                   BSR $000C6A
000786  67 12                         BEQ $00079A
000788  48 E7 C1 08                   MOVEM.l d0-d1/d7/a4,-(a7)
00078C  4E B8 09 10                   JSR $910.w
000790  61 38                         BSR $0007CA
000792  4C DF 10 83                   MOVEM.l (a7)+,d0-d1/d7/a4
000796  61 00 04 92                   BSR $000C2A
00079A  4D FA 00 F4                   LEA $000890(pc),a6
00079E  4D F6 70 00                   LEA $0(a6,d7.w),a6
0007A2  2A 5E                         MOVEA.l (a6)+,a5
0007A4  3C 3C 01 FF                   MOVE.w #$1FF,d6
0007A8  18 DD                         MOVE.b (a5)+,(a4)+
0007AA  53 81                         SUBQ.l #1,d1
0007AC  67 12                         BEQ $0007C0
0007AE  51 CE FF F8                   DBRA d6,$0007A8
0007B2  BD FC 00 00 08 BC             CMPA.l #$8BC,a6
0007B8  65 E8                         BCS $0007A2
0007BA  52 40                         ADDQ.w #1,d0
0007BC  7E 00                         MOVEQ #$0,d7
0007BE  60 C2                         BRA $000782
0007C0  4E B8 08 DE                   JSR $8DE.w
0007C4  4C DF 7F FF                   MOVEM.l (a7)+,d0-d7/a0-a6
0007C8  4E 75                         RTS

; ==== sub_0007CA (1 caller) ====
0007CA  4D F9 00 DF F0 24             LEA $DFF024.l,a6
0007D0  3D 7C 82 10 00 72             MOVE.w #$8210,$72(a6)
0007D6  3D 7C 44 89 00 5A             MOVE.w #$4489,$5A(a6)
0007DC  3D 7C 7F 00 00 7A             MOVE.w #$7F00,$7A(a6)
0007E2  3D 7C 95 00 00 7A             MOVE.w #$9500,$7A(a6)
0007E8  2D 7C 00 07 40 00 FF FC       MOVE.l #$74000,-$4(a6)
0007F0  3C BC 40 00                   MOVE.w #$4000,(a6)
0007F4  3D 7C 10 02 00 78             MOVE.w #$1002,$78(a6)
0007FA  3C BC 99 E0                   MOVE.w #$99E0,(a6)
0007FE  3C BC 99 E0                   MOVE.w #$99E0,(a6)
000802  70 FF                         MOVEQ #$FF,d0
000804  08 2E 00 01 FF FB             BTST.b #$1,-$5(a6)
00080A  66 0E                         BNE $00081A
00080C  04 80 00 00 00 01             SUBI.l #$1,d0
000812  66 F0                         BNE $000804
000814  3C BC 40 00                   MOVE.w #$4000,(a6)
000818  60 CE                         BRA $0007E8
00081A  3C BC 40 00                   MOVE.w #$4000,(a6)
00081E  2E 3C 55 55 55 55             MOVE.l #$55555555,d7
000824  43 FA 00 6A                   LEA $000890(pc),a1
000828  7C 0B                         MOVEQ #$B,d6
00082A  20 7C 00 07 40 00             MOVEA.l #$74000,a0
000830  0C 50 44 89                   CMPI.w #$4489,(a0)
000834  66 04                         BNE $00083A
000836  54 88                         ADDQ.l #2,a0
000838  60 F6                         BRA $000830
00083A  61 46                         BSR $000882
00083C  38 00                         MOVE.w d0,d4
00083E  E0 4C                         LSR.w #8,d4
000840  E5 4C                         LSL.w #2,d4
000842  41 E8 00 28                   LEA $28(a0),a0
000846  61 3A                         BSR $000882
000848  2A 00                         MOVE.l d0,d5
00084A  41 E8 02 00                   LEA $200(a0),a0
00084E  24 48                         MOVEA.l a0,a2
000850  72 7F                         MOVEQ #$7F,d1
000852  24 28 FE 00                   MOVE.l -$200(a0),d2
000856  26 10                         MOVE.l (a0),d3
000858  C4 87                         AND.l d7,d2
00085A  C6 87                         AND.l d7,d3
00085C  B5 85                         EOR.l d2,d5
00085E  B7 85                         EOR.l d3,d5
000860  E3 8A                         LSL.l #1,d2
000862  84 83                         OR.l d3,d2
000864  20 C2                         MOVE.l d2,(a0)+
000866  51 C9 FF EA                   DBRA d1,$000852
00086A  4A 85                         TST.l d5
00086C  66 00 FF 7A                   BNE $0007E8
000870  23 8A 40 00                   MOVE.l a2,$0(a1,d4.w)
000874  53 06                         SUBQ.b #1,d6
000876  66 02                         BNE $00087A
000878  4E 75                         RTS
00087A  60 00 F8 66                   BRA $0000E2
00087E  .dc.b 66 FA 60 AE                                     ; f.`.

; ==== sub_000882 (2 callers) ====
000882  20 18                         MOVE.l (a0)+,d0
000884  22 18                         MOVE.l (a0)+,d1
000886  C0 87                         AND.l d7,d0
000888  C2 87                         AND.l d7,d1
00088A  E3 88                         LSL.l #1,d0
00088C  80 81                         OR.l d1,d0
00088E  4E 75                         RTS
000890  .dc.b 00 00 00 00 00 00 00 00 00 00 00 00 00 00 00 00 ; ................
0008A0  .dc.b 00 00 00 00 00 00 00 00 00 00 00 00 00 00 00 00 ; ................
0008B0  .dc.b 00 00 00 00 00 00 00 00 00 00 00 00 33 33       ; ............33

; ==== sub_0008BE (2 callers) ====
0008BE  08 F9 00 03 00 BF D1 00       BSET.b #$3,$BFD100.l
0008C6  08 B9 00 07 00 BF D1 00       BCLR.b #$7,$BFD100.l
0008CE  08 B9 00 03 00 BF D1 00       BCLR.b #$3,$BFD100.l
0008D6  61 00 00 EA                   BSR $0009C2
0008DA  61 28                         BSR $000904
0008DC  4E 75                         RTS

; ==== sub_0008DE (1 caller) ====
0008DE  08 F9 00 03 00 BF D1 00       BSET.b #$3,$BFD100.l
0008E6  08 F9 00 07 00 BF D1 00       BSET.b #$7,$BFD100.l
0008EE  08 B9 00 03 00 BF D1 00       BCLR.b #$3,$BFD100.l
0008F6  08 F9 00 03 00 BF D1 00       BSET.b #$3,$BFD100.l
0008FE  61 00 00 C2                   BSR $0009C2
000902  4E 75                         RTS

; ==== sub_000904 (4 callers) ====
000904  08 39 00 05 00 BF E0 01       BTST.b #$5,$BFE001.l
00090C  66 F6                         BNE $000904
00090E  4E 75                         RTS

; ==== sub_000910 (2 callers) ====
000910  48 E7 C0 00                   MOVEM.l d0-d1,-(a7)
000914  32 38 0C AA                   MOVE.w $CAA.w,d1
000918  6A 06                         BPL $000920
00091A  61 00 00 4E                   BSR $00096A
00091E  42 41                         CLR.w d1
000920  08 F9 00 02 00 BF D1 00       BSET.b #$2,$BFD100.l
000928  08 00 00 00                   BTST.l #$0,d0
00092C  67 0C                         BEQ $00093A
00092E  4E 71                         NOP
000930  4E 71                         NOP
000932  08 B9 00 02 00 BF D1 00       BCLR.b #$2,$BFD100.l
00093A  33 C0 00 00 0C AA             MOVE.w d0,$CAA.l
000940  E2 48                         LSR.w #1,d0
000942  E2 49                         LSR.w #1,d1
000944  B2 40                         CMP.w d0,d1
000946  67 1C                         BEQ $000964
000948  92 40                         SUB.w d0,d1
00094A  6B 0C                         BMI $000958
00094C  61 34                         BSR $000982
00094E  61 72                         BSR $0009C2
000950  61 B2                         BSR $000904
000952  53 41                         SUBQ.w #1,d1
000954  66 F6                         BNE $00094C
000956  60 0C                         BRA $000964
000958  44 41                         NEG.w d1
00095A  61 46                         BSR $0009A2
00095C  61 64                         BSR $0009C2
00095E  61 A4                         BSR $000904
000960  53 41                         SUBQ.w #1,d1
000962  66 F6                         BNE $00095A
000964  4C DF 00 03                   MOVEM.l (a7)+,d0-d1
000968  4E 75                         RTS

; ==== sub_00096A (1 caller) ====
00096A  08 39 00 04 00 BF E0 01       BTST.b #$4,$BFE001.l
000972  67 08                         BEQ $00097C
000974  61 0C                         BSR $000982
000976  61 4A                         BSR $0009C2
000978  61 8A                         BSR $000904
00097A  60 EE                         BRA $00096A
00097C  42 78 0C AA                   CLR.w $CAA.w
000980  4E 75                         RTS

; ==== sub_000982 (2 callers) ====
000982  08 F9 00 01 00 BF D1 00       BSET.b #$1,$BFD100.l
00098A  08 B9 00 00 00 BF D1 00       BCLR.b #$0,$BFD100.l
000992  4E 71                         NOP
000994  4E 71                         NOP
000996  4E 71                         NOP
000998  08 F9 00 00 00 BF D1 00       BSET.b #$0,$BFD100.l
0009A0  4E 75                         RTS

; ==== sub_0009A2 (1 caller) ====
0009A2  08 B9 00 01 00 BF D1 00       BCLR.b #$1,$BFD100.l
0009AA  08 B9 00 00 00 BF D1 00       BCLR.b #$0,$BFD100.l
0009B2  4E 71                         NOP
0009B4  4E 71                         NOP
0009B6  4E 71                         NOP
0009B8  08 F9 00 00 00 BF D1 00       BSET.b #$0,$BFD100.l
0009C0  4E 75                         RTS

; ==== sub_0009C2 (5 callers) ====
0009C2  3F 00                         MOVE.w d0,-(a7)
0009C4  30 3C 40 00                   MOVE.w #$4000,d0
0009C8  51 C8 FF FE                   DBRA d0,$0009C8
0009CC  30 1F                         MOVE.w (a7)+,d0
0009CE  4E 75                         RTS

; ==== init_early  $0009D0  (1 caller) — Early init: BSR chain ($8BE, $910, $AF2) then reads packed/interleaved data from the streamed region ($74002+) and deinterleaves it (AND #$55555555 — even/odd bitplane split). ====
0009D0  61 00 FE EC                   BSR $0008BE
0009D4  70 01                         MOVEQ #$1,d0
0009D6  61 00 FF 38                   BSR $000910
0009DA  7E 05                         MOVEQ #$5,d7
0009DC  61 00 01 14                   BSR $000AF2
0009E0  41 F9 00 07 40 02             LEA $74002.l,a0
0009E6  20 18                         MOVE.l (a0)+,d0
0009E8  22 18                         MOVE.l (a0)+,d1
0009EA  C0 BC 55 55 55 55             AND.l #$55555555,d0
0009F0  C2 BC 55 55 55 55             AND.l #$55555555,d1
0009F6  E3 88                         LSL.l #1,d0
0009F8  80 81                         OR.l d1,d0
0009FA  0A 80 12 34 56 78             EORI.l #$12345678,d0
000A00  2C 00                         MOVE.l d0,d6
000A02  50 88                         ADDQ.l #8,a0
000A04  22 48                         MOVEA.l a0,a1
000A06  34 3C 00 C7                   MOVE.w #$C7,d2
000A0A  20 3C 00 00 00 00             MOVE.l #$0,d0
000A10  22 18                         MOVE.l (a0)+,d1
000A12  B3 80                         EOR.l d1,d0
000A14  51 CA FF FA                   DBRA d2,$000A10
000A18  C0 BC 55 55 55 55             AND.l #$55555555,d0
000A1E  B0 86                         CMP.l d6,d0
000A20  66 28                         BNE $000A4A
000A22  20 49                         MOVEA.l a1,a0
000A24  43 F8 02 D6                   LEA $2D6.w,a1
000A28  34 3C 00 60                   MOVE.w #$60,d2
000A2C  20 18                         MOVE.l (a0)+,d0
000A2E  22 18                         MOVE.l (a0)+,d1
000A30  C0 BC 55 55 55 55             AND.l #$55555555,d0
000A36  C2 BC 55 55 55 55             AND.l #$55555555,d1
000A3C  E3 88                         LSL.l #1,d0
000A3E  80 81                         OR.l d1,d0
000A40  22 C0                         MOVE.l d0,(a1)+
000A42  51 CA FF E8                   DBRA d2,$000A2C
000A46  60 00 FE 96                   BRA $0008DE
000A4A  51 CF FF 90                   DBRA d7,$0009DC
000A4E  60 00 FE 8E                   BRA $0008DE
000A52  .dc.b 61 00 7D 02 6A 02 4E 75 61 00 FE 62 08 39 00 03 ; a.}.j.Nua..b.9..
000A62  .dc.b 00 BF E0 01 67 00 00 86 70 01 61 00 FE A2 43 F9 ; ....g...p.a...C.
000A72  .dc.b 00 07 40 00 30 3C 0B B7 22 FC AA AA AA AA 51 C8 ; ..@.0<..".....Q.
000A82  .dc.b FF F8 43 F9 00 07 43 E8 22 FC 44 89 2A AA 22 FC ; ..C...C.".D.*.".
000A92  .dc.b AA AA AA AA 22 FC AA AA AA AA 22 FC AA AA AA AA ; ....".....".....
000AA2  .dc.b 22 FC AA AA AA AA 24 49 41 F8 02 D6 38 3C 00 63 ; ".....$IA...8<.c
000AB2  .dc.b 20 18 61 00 01 06 51 CC FF F8 20 4A 34 3C 00 C7 ;  .a...Q... J4<..
000AC2  .dc.b 20 3C 00 00 00 00 22 18 B3 80 51 CA FF FA 43 EA ;  <...."...Q...C.
000AD2  .dc.b FF F0 C0 BC 55 55 55 55 0A 80 12 34 56 78 61 00 ; ....UUUU...4Vxa.
000AE2  .dc.b 00 DA 70 00 61 00 00 D4 61 00 00 5E 60 00 FD EE ; ..p.a...a..^`...

; ==== sub_000AF2 (1 caller) ====
000AF2  4D F9 00 DF F0 00             LEA $DFF000.l,a6
000AF8  3D 7C 82 10 00 96             MOVE.w #$8210,$96(a6)
000AFE  3D 7C 7F FF 00 9E             MOVE.w #$7FFF,$9E(a6)
000B04  3D 7C 95 00 00 9E             MOVE.w #$9500,$9E(a6)
000B0A  3D 7C 44 89 00 7E             MOVE.w #$4489,$7E(a6)
000B10  3D 7C 40 00 00 24             MOVE.w #$4000,$24(a6)
000B16  2D 7C 00 07 40 00 00 20       MOVE.l #$74000,$20(a6)
000B1E  08 39 00 05 00 BF E0 01       BTST.b #$5,$BFE001.l
000B26  66 F6                         BNE $000B1E
000B28  3D 7C 83 00 00 24             MOVE.w #$8300,$24(a6)
000B2E  3D 7C 83 00 00 24             MOVE.w #$8300,$24(a6)
000B34  02 6E 00 02 00 1E             ANDI.w #$2,$1E(a6)
000B3A  67 F8                         BEQ $000B34
000B3C  3D 7C 00 02 00 9C             MOVE.w #$2,$9C(a6)
000B42  3D 7C 40 00 00 24             MOVE.w #$4000,$24(a6)
000B48  4E 75                         RTS
000B4A  .dc.b 4D F9 00 DF F0 00 3D 7C 82 10 00 96 3D 7C 7F FF ; M.....=|....=|..
000B5A  .dc.b 00 9E 3D 7C 91 00 00 9E 3D 7C 40 00 00 24 3D 7C ; ..=|....=|@..$=|
000B6A  .dc.b 00 02 00 9C 2D 7C 00 07 40 00 00 20 1E 39 00 BF ; ....-|..@.. .9..
000B7A  .dc.b DD 00 1E 39 00 BF DD 00 08 07 00 04 67 F4 3D 7C ; ...9........g.=|
000B8A  .dc.b D9 4E 00 24 3D 7C D9 4E 00 24 2E 3C 00 0F FF FF ; .N.$=|.N.$.<....
000B9A  .dc.b 02 6E 00 02 00 1E 66 0C 53 87 66 F4 3D 7C 40 00 ; .n....f.S.f.=|@.
000BAA  .dc.b 00 24 4E 75 3D 7C 40 00 00 24 3D 7C 00 02 00 9C ; .$Nu=|@..$=|....
000BBA  .dc.b 4E 75 26 00 E2 88 61 06 20 03 61 02 4E 75 C0 BC ; Nu&...a. .a.Nu..
000BCA  .dc.b 55 55 55 55 24 00 0A 82 55 55 55 55 22 02 E3 8A ; UUUU$...UUUU"...
000BDA  .dc.b E2 89 08 C1 00 1F C2 82 80 81 08 29 00 00 FF FF ; ...........)....
000BEA  .dc.b 67 04 08 80 00 1F 22 C0 4E 75                   ; g.....".Nu

; ==== load_scene_block  $000BF4  (2 callers) — Bring in huff_decode (load_decoder) and run it ($74000) to decompress the packed scene block at $1B780 into $1B980..$5C000. ====
000BF4  48 E7 E1 30                   MOVEM.l d0-d2/d7/a2-a3,-(a7)
000BF8  61 18                         BSR $000C12
000BFA  2E 09                         MOVE.l a1,d7
000BFC  26 4A                         MOVEA.l a2,a3
000BFE  24 7C 00 05 C0 00             MOVEA.l #$5C000,a2
000C04  4E B9 00 07 40 00             JSR $74000.l
000C0A  70 00                         MOVEQ #$0,d0
000C0C  4E F8 00 C0                   JMP $C0.w
000C10  .dc.b 4E 75                                           ; Nu

; ==== load_decoder  $000C12  (2 callers) — Load the huff_decode routine itself from ADF $25C00 ($400 bytes) to $74000 — the same three-pass decoder as $50008/$5F000, used for all the streamed level data. ====
000C12  20 3C 00 02 5C 00             MOVE.l #$25C00,d0
000C18  22 3C 00 00 04 00             MOVE.l #$400,d1
000C1E  24 3C 00 07 40 00             MOVE.l #$74000,d2
000C24  61 00 FA F6                   BSR $00071C
000C28  4E 75                         RTS

; ==== sub_000C2A (1 caller) ====
000C2A  4A B8 0C AC                   TST.l $CAC.w
000C2E  67 38                         BEQ $000C68
000C30  2C 78 0C AC                   MOVEA.l $CAC.w,a6
000C34  4A 56                         TST.w (a6)
000C36  6B 0A                         BMI $000C42
000C38  B0 56                         CMP.w (a6),d0
000C3A  67 2C                         BEQ $000C68
000C3C  4D EE 16 02                   LEA $1602(a6),a6
000C40  60 F2                         BRA $000C34
000C42  76 FF                         MOVEQ #$FF,d3
000C44  BD F8 0C B0                   CMPA.l $CB0.w,a6
000C48  66 06                         BNE $000C50
000C4A  76 00                         MOVEQ #$0,d3
000C4C  2C 78 0C AC                   MOVEA.l $CAC.w,a6
000C50  3C C0                         MOVE.w d0,(a6)+
000C52  4B FA FC 3C                   LEA $000890(pc),a5
000C56  7A 0A                         MOVEQ #$A,d5
000C58  78 7F                         MOVEQ #$7F,d4
000C5A  26 5D                         MOVEA.l (a5)+,a3
000C5C  2C DB                         MOVE.l (a3)+,(a6)+
000C5E  51 CC FF FC                   DBRA d4,$000C5C
000C62  51 CD FF F4                   DBRA d5,$000C58
000C66  87 56                         OR.w d3,(a6)
000C68  4E 75                         RTS

; ==== sub_000C6A (1 caller) ====
000C6A  4A B8 0C AC                   TST.l $CAC.w
000C6E  66 04                         BNE $000C74
000C70  7A FF                         MOVEQ #$FF,d5
000C72  4E 75                         RTS
000C74  2C 78 0C AC                   MOVEA.l $CAC.w,a6
000C78  4A 56                         TST.w (a6)
000C7A  6B EC                         BMI $000C68
000C7C  B0 5E                         CMP.w (a6)+,d0
000C7E  67 06                         BEQ $000C86
000C80  4D EE 16 00                   LEA $1600(a6),a6
000C84  60 F2                         BRA $000C78
000C86  7A 0A                         MOVEQ #$A,d5
000C88  4B FA FC 06                   LEA $000890(pc),a5
000C8C  2A CE                         MOVE.l a6,(a5)+
000C8E  DD FC 00 00 02 00             ADDA.l #$200,a6
000C94  51 CD FF F6                   DBRA d5,$000C8C
000C98  7A 00                         MOVEQ #$0,d5
000C9A  4E 75                         RTS
000C9C  .dc.b 00 00 00 00 00 00 00 00 00 00 00 00 00 00 00 00 ; ................
000CAC  .dc.b 00 00 00 00 00 00 00 00                         ; ........

; --- game_start  $000CB4 — Real game start (entry_table slot 0). Supervisor mode, stack $89DC, a6=$DFF000; stash the trainer-option regs ($CAA/$CAC); init_early; JSR $30000 (the PP20 graphics/engine module); init_object_table, init_map_grid, init_54BC, setup_irq_display; then fall into main_loop. ---
000CB4  46 FC 20 00                   MOVE #$2000,sr
000CB8  4F F9 00 00 89 DC             LEA $89DC.l,a7
000CBE  4D F9 00 DF F0 00             LEA $DFF000.l,a6
000CC4  48 F8 03 00 0C AC             MOVEM.l a0-a1,$CAC.w
000CCA  31 C0 0C AA                   MOVE.w d0,$CAA.w
000CCE  2F 0A                         MOVE.l a2,-(a7)
000CD0  61 00 FC FE                   BSR $0009D0
000CD4  24 5F                         MOVEA.l (a7)+,a2
000CD6  14 BC 00 0F                   MOVE.b #$F,(a2)
000CDA  4A 52                         TST.w (a2)
000CDC  66 FC                         BNE $000CDA
000CDE  4E B9 00 03 00 00             JSR $30000.l
000CE4  4F F9 00 00 89 DC             LEA $89DC.l,a7
000CEA  4D F9 00 DF F0 00             LEA $DFF000.l,a6
000CF0  61 00 67 98                   BSR $00748A
000CF4  61 00 67 CA                   BSR $0074C0
000CF8  61 00 47 C2                   BSR $0054BC
000CFC  61 00 00 16                   BSR $000D14
000D00  42 78 02 52                   CLR.w $252.w
000D04  60 00 00 46                   BRA $000D4C
000D08  70 01                         MOVEQ #$1,d0
000D0A  61 00 F9 62                   BSR $00066E
000D0E  60 D4                         BRA $000CE4
000D10  70 02                         MOVEQ #$2,d0
000D12  60 F6                         BRA $000D0A

; ==== setup_irq_display  $000D14  (1 caller) — Interrupt/display bring-up: INTENA/INTREQ/DMACON off, DMACON #$8240 (SET|DMAEN|BLTEN), BSR $6D4A/$706C/$712A (copper/sprite/playfield setup), INTENA #$C018 (SET|INTEN|VERTB|COPER). ====
000D14  4D F9 00 DF F0 00             LEA $DFF000.l,a6
000D1A  3D 7C 7F FF 00 9A             MOVE.w #$7FFF,$9A(a6)
000D20  3D 7C 7F FF 00 9C             MOVE.w #$7FFF,$9C(a6)
000D26  3D 7C 7F FF 00 96             MOVE.w #$7FFF,$96(a6)
000D2C  3D 7C 82 40 00 96             MOVE.w #$8240,$96(a6)
000D32  61 00 60 16                   BSR $006D4A
000D36  61 00 63 34                   BSR $00706C
000D3A  61 00 63 EE                   BSR $00712A
000D3E  3D 7C C0 18 00 9A             MOVE.w #$C018,$9A(a6)
000D44  3D 7C 87 E0 00 96             MOVE.w #$87E0,$96(a6)
000D4A  4E 75                         RTS

; --- level_setup  $000D4C — Per-level setup (entered from game_start and on level change). Clears the playfield via the blitter (writes BLTSIZE $58(a6), spins on BBUSY in DMACONR $2(a6)); installs the three display buffers ($17A/$192/$1AA = $5BCE0/$67CE0/$73CE0, triple-buffered); primes level/game state ($1938 level no., $193A, $7AAF, $194B …); and runs a long chain of subsystem-init BSRs ($3258, $6E9C, init_54BC, $78B0, $7968, $147E, $16DE, $1A68, $43D8 …) before falling into game_loop. ---
000D4C  3D 7C 01 F0 00 40             MOVE.w #$1F0,$40(a6)
000D52  42 6E 00 42                   CLR.w $42(a6)
000D56  42 6E 00 74                   CLR.w $74(a6)
000D5A  42 6E 00 66                   CLR.w $66(a6)
000D5E  2D 78 01 7A 00 54             MOVE.l $17A.w,$54(a6)
000D64  3D 7C 80 30 00 58             MOVE.w #$8030,$58(a6)
000D6A  08 2E 00 0E 00 02             BTST.b #$E,$2(a6)
000D70  66 F8                         BNE $000D6A
000D72  3D 7C 80 30 00 58             MOVE.w #$8030,$58(a6)
000D78  08 2E 00 0E 00 02             BTST.b #$E,$2(a6)
000D7E  66 F8                         BNE $000D78
000D80  3D 7C 80 30 00 58             MOVE.w #$8030,$58(a6)
000D86  08 2E 00 0E 00 02             BTST.b #$E,$2(a6)
000D8C  66 F8                         BNE $000D86
000D8E  42 78 19 38                   CLR.w $1938.w
000D92  42 78 19 3A                   CLR.w $193A.w
000D96  11 FC 00 03 7A AF             MOVE.b #$3,$7AAF.w
000D9C  51 F8 19 4B                   SF $194B.w
000DA0  51 F8 19 4C                   SF $194C.w
000DA4  50 F8 02 17                   ST $217.w
000DA8  42 78 02 84                   CLR.w $284.w
000DAC  41 F8 1A 0E                   LEA $1A0E.w,a0
000DB0  43 F9 00 00 19 DE             LEA $19DE.l,a1
000DB6  4C D0 00 FF                   MOVEM.l (a0),d0-d7
000DBA  48 D1 00 FF                   MOVEM.l d0-d7,(a1)
000DBE  4C A8 00 FF 00 20             MOVEM.w $20(a0),d0-d7
000DC4  48 A9 00 FF 00 20             MOVEM.w d0-d7,$20(a1)
000DCA  41 F8 19 8E                   LEA $198E.w,a0
000DCE  61 00 64 8E                   BSR $00725E
000DD2  21 FC 00 05 BC E0 01 7A       MOVE.l #$5BCE0,$17A.w
000DDA  21 FC 00 06 7C E0 01 92       MOVE.l #$67CE0,$192.w
000DE2  21 FC 00 07 3C E0 01 AA       MOVE.l #$73CE0,$1AA.w
000DEA  42 B8 01 72                   CLR.l $172.w
000DEE  31 FC FF E0 01 BE             MOVE.w #$FFE0,$1BE.w
000DF4  42 78 01 C0                   CLR.w $1C0.w
000DF8  50 F8 70 6A                   ST $706A.w
000DFC  41 F8 01 76                   LEA $176.w,a0
000E00  61 00 24 56                   BSR $003258
000E04  61 00 60 96                   BSR $006E9C
000E08  61 00 46 B2                   BSR $0054BC
000E0C  31 FC 00 03 7A B0             MOVE.w #$3,$7AB0.w
000E12  42 B8 7B 10                   CLR.l $7B10.w
000E16  61 00 6A 98                   BSR $0078B0
000E1A  61 00 6B 4C                   BSR $007968
000E1E  61 00 6B 9E                   BSR $0079BE
000E22  61 00 06 5A                   BSR $00147E
000E26  4E B9 00 01 A2 A8             JSR $1A2A8.l
000E2C  70 1F                         MOVEQ #$1F,d0
000E2E  4E B9 00 01 A2 AC             JSR $1A2AC.l
000E34  61 00 68 20                   BSR $007656
000E38  30 38 19 38                   MOVE.w $1938.w,d0
000E3C  61 00 F6 58                   BSR $000496
000E40  61 00 08 9C                   BSR $0016DE
000E44  61 00 0C 22                   BSR $001A68
000E48  61 00 07 C4                   BSR $00160E
000E4C  61 00 2A 42                   BSR $003890
000E50  61 00 46 7C                   BSR $0054CE
000E54  42 B8 01 04                   CLR.l $104.w
000E58  61 00 35 7E                   BSR $0043D8
000E5C  11 FC 00 0F 01 35             MOVE.b #$F,$135.w
000E62  21 FC 00 00 72 D4 02 3E       MOVE.l #$72D4,$23E.w
000E6A  21 FC 00 00 19 CE 02 42       MOVE.l #$19CE,$242.w
000E72  31 FC 00 1F 02 46             MOVE.w #$1F,$246.w
000E78  11 FC 00 01 02 48             MOVE.b #$1,$248.w
000E7E  4A 38 01 35                   TST.b $135.w
000E82  66 FA                         BNE $000E7E
000E84  61 00 06 36                   BSR $0014BC
000E88  30 38 19 3C                   MOVE.w $193C.w,d0
000E8C  4E B9 00 00 02 1C             JSR $21C.l
000E92  20 3C 00 02 00 40             MOVE.l #$20040,d0
000E98  4E B9 00 00 02 20             JSR $220.l
000E9E  21 F9 00 00 45 A4 01 04       MOVE.l $45A4.l,$104.w
000EA6  4A 38 02 53                   TST.b $253.w
000EAA  67 0C                         BEQ $000EB8
000EAC  31 FC 00 9A 01 04             MOVE.w #$9A,$104.w
000EB2  31 FC 00 84 01 06             MOVE.w #$84,$106.w
000EB8  61 00 35 1E                   BSR $0043D8

; --- game_loop  $000EBC — The per-frame game loop. Each frame it runs a fixed render/update pipeline — blit_playfield, blit_objects, $2F56, then JSR (a0) with a0 = the current mode handler ($1942), then $1710 (x2), $3A56, $5576, $68AC, $64B8, $1B94, $1C0C, $1850/$18BA/$189E — then raises the frame-sync flag $1E1 and spins until the vblank ISR clears it (wait for vertical blank), and loops. Exits on $26D/$15D (to $1404 or the $F22 variant used when $15C is set). ---
000EBC  4A 38 01 5C                   TST.b $15C.w
000EC0  66 00 00 60                   BNE $000F22
000EC4  61 00 0C EE                   BSR $001BB4
000EC8  61 00 4F 76                   BSR $005E40
000ECC  61 00 20 88                   BSR $002F56
000ED0  20 78 19 42                   MOVEA.l $1942.w,a0
000ED4  4E 90                         JSR (a0)
000ED6  61 00 08 38                   BSR $001710
000EDA  61 00 08 34                   BSR $001710
000EDE  61 00 2B 76                   BSR $003A56
000EE2  61 00 46 92                   BSR $005576
000EE6  61 00 59 C4                   BSR $0068AC
000EEA  61 00 55 CC                   BSR $0064B8
000EEE  61 00 0C A4                   BSR $001B94
000EF2  61 00 0D 18                   BSR $001C0C
000EF6  50 F9 00 00 01 E1             ST $1E1.l
000EFC  61 00 09 52                   BSR $001850
000F00  61 00 09 B8                   BSR $0018BA
000F04  61 00 09 98                   BSR $00189E
000F08  4A 39 00 00 01 E1             TST.b $1E1.l
000F0E  66 F8                         BNE $000F08
000F10  4A 38 02 6D                   TST.b $26D.w
000F14  66 00 00 62                   BNE $000F78
000F18  4A 38 01 5D                   TST.b $15D.w
000F1C  67 9E                         BEQ $000EBC
000F1E  60 00 04 E4                   BRA $001404
000F22  42 B8 01 20                   CLR.l $120.w
000F26  42 B8 01 24                   CLR.l $124.w
000F2A  61 00 0C 88                   BSR $001BB4
000F2E  61 00 4F 10                   BSR $005E40
000F32  61 00 20 22                   BSR $002F56
000F36  20 78 19 42                   MOVEA.l $1942.w,a0
000F3A  4E 90                         JSR (a0)
000F3C  61 00 2B 18                   BSR $003A56
000F40  61 00 0C 52                   BSR $001B94
000F44  61 00 15 32                   BSR $002478
000F48  61 00 46 2C                   BSR $005576
000F4C  61 00 55 6A                   BSR $0064B8
000F50  61 00 0C BA                   BSR $001C0C
000F54  50 F9 00 00 01 E1             ST $1E1.l
000F5A  61 00 08 F4                   BSR $001850
000F5E  61 00 09 5A                   BSR $0018BA
000F62  4A 39 00 00 01 E1             TST.b $1E1.l
000F68  66 F8                         BNE $000F62
000F6A  4A 38 01 5C                   TST.b $15C.w
000F6E  67 00 FF 4C                   BEQ $000EBC
000F72  4A 38 02 6D                   TST.b $26D.w
000F76  67 B2                         BEQ $000F2A
000F78  4A B8 7B 0C                   TST.l $7B0C.w
000F7C  66 04                         BNE $000F82
000F7E  61 00 00 8A                   BSR $00100A
000F82  4A 78 7A B0                   TST.w $7AB0.w
000F86  67 00 00 A8                   BEQ $001030
000F8A  61 00 6A 14                   BSR $0079A0
000F8E  4A 38 01 5C                   TST.b $15C.w
000F92  66 2E                         BNE $000FC2
000F94  4A 38 02 52                   TST.b $252.w
000F98  66 28                         BNE $000FC2
000F9A  61 00 05 62                   BSR $0014FE
000F9E  61 00 0A C8                   BSR $001A68
000FA2  61 00 06 6A                   BSR $00160E
000FA6  61 00 28 E8                   BSR $003890
000FAA  61 00 44 EA                   BSR $005496
000FAE  61 00 04 CE                   BSR $00147E
000FB2  42 B8 01 04                   CLR.l $104.w
000FB6  61 00 34 20                   BSR $0043D8
000FBA  61 00 05 00                   BSR $0014BC
000FBE  60 00 FE D2                   BRA $000E92
000FC2  53 38 54 51                   SUBQ.b #1,$5451.w
000FC6  6A 04                         BPL $000FCC
000FC8  42 38 54 51                   CLR.b $5451.w
000FCC  53 38 54 52                   SUBQ.b #1,$5452.w
000FD0  6A 0A                         BPL $000FDC
000FD2  42 38 54 52                   CLR.b $5452.w
000FD6  11 FC 00 01 54 4F             MOVE.b #$1,$544F.w
000FDC  53 38 59 4C                   SUBQ.b #1,$594C.w
000FE0  6A 04                         BPL $000FE6
000FE2  42 38 59 4C                   CLR.b $594C.w
000FE6  28 78 19 3E                   MOVEA.l $193E.w,a4
000FEA  21 EC 00 1C 7B 0C             MOVE.l $1C(a4),$7B0C.w
000FF0  70 00                         MOVEQ #$0,d0
000FF2  61 00 68 90                   BSR $007884
000FF6  21 F9 00 00 45 A4 01 04       MOVE.l $45A4.l,$104.w
000FFE  61 00 28 90                   BSR $003890
001002  61 00 04 7A                   BSR $00147E
001006  60 00 FE 8A                   BRA $000E92

; ==== sub_00100A (1 caller) ====
00100A  4E B8 01 08                   JSR $108.w
00100E  2B 7C 00 00 12 1E 00 22       MOVE.l #$121E,$22(a5)
001016  1B 7C 00 81 00 1E             MOVE.b #$81,$1E(a5)
00101C  4E B8 01 0C                   JSR $10C.w
001020  51 F8 10 90                   SF $1090.w
001024  61 00 01 94                   BSR $0011BA
001028  4A 38 10 90                   TST.b $1090.w
00102C  67 F6                         BEQ $001024
00102E  4E 75                         RTS
001030  61 00 0A 88                   BSR $001ABA
001034  2B 7C 00 00 12 1E 00 22       MOVE.l #$121E,$22(a5)
00103C  1B 7C 00 80 00 1E             MOVE.b #$80,$1E(a5)
001042  61 00 0A A8                   BSR $001AEC
001046  51 F8 10 90                   SF $1090.w
00104A  61 00 01 6E                   BSR $0011BA
00104E  4A 38 10 90                   TST.b $1090.w
001052  67 F6                         BEQ $00104A
001054  4A 38 7A AF                   TST.b $7AAF.w
001058  67 38                         BEQ $001092
00105A  61 00 0A 5E                   BSR $001ABA
00105E  2B 7C 00 00 12 1E 00 22       MOVE.l #$121E,$22(a5)
001066  1B 7C 00 82 00 1E             MOVE.b #$82,$1E(a5)
00106C  61 00 0A 7E                   BSR $001AEC
001070  51 F8 10 90                   SF $1090.w
001074  61 00 01 44                   BSR $0011BA
001078  4A 38 10 90                   TST.b $1090.w
00107C  67 F6                         BEQ $001074
00107E  6B 12                         BMI $001092
001080  61 00 68 D6                   BSR $007958
001084  42 78 19 3A                   CLR.w $193A.w
001088  61 00 00 10                   BSR $00109A
00108C  60 00 FD 7A                   BRA $000E08
001090  .dc.b 00 00                                           ; ..
001092  61 00 00 06                   BSR $00109A
001096  60 00 FC 70                   BRA $000D08

; ==== sub_00109A (2 callers) ====
00109A  4A 38 02 52                   TST.b $252.w
00109E  66 1C                         BNE $0010BC
0010A0  61 00 04 5C                   BSR $0014FE
0010A4  20 3C 00 02 00 00             MOVE.l #$20000,d0
0010AA  4E B9 00 01 A2 C8             JSR $1A2C8.l
0010B0  4E B9 00 01 A2 CC             JSR $1A2CC.l
0010B6  4A 50                         TST.w (a0)
0010B8  66 F6                         BNE $0010B0
0010BA  4E 75                         RTS
0010BC  41 F8 19 CE                   LEA $19CE.w,a0
0010C0  70 1F                         MOVEQ #$1F,d0
0010C2  42 58                         CLR.w (a0)+
0010C4  51 C8 FF FC                   DBRA d0,$0010C2
0010C8  11 FC 00 0F 01 35             MOVE.b #$F,$135.w
0010CE  21 FC 00 00 72 D4 02 3E       MOVE.l #$72D4,$23E.w
0010D6  21 FC 00 00 19 CE 02 42       MOVE.l #$19CE,$242.w
0010DE  31 FC 00 1F 02 46             MOVE.w #$1F,$246.w
0010E4  11 FC 00 01 02 48             MOVE.b #$1,$248.w
0010EA  20 3C 00 02 00 00             MOVE.l #$20000,d0
0010F0  4E B9 00 01 A2 C8             JSR $1A2C8.l
0010F6  4A 38 01 35                   TST.b $135.w
0010FA  66 FA                         BNE $0010F6
0010FC  70 1F                         MOVEQ #$1F,d0
0010FE  4E B9 00 01 A2 AC             JSR $1A2AC.l
001104  20 3C 00 01 00 40             MOVE.l #$10040,d0
00110A  4E B9 00 01 A2 C8             JSR $1A2C8.l
001110  61 00 60 62                   BSR $007174
001114  21 FC 00 05 BC E0 01 7A       MOVE.l #$5BCE0,$17A.w
00111C  21 FC 00 06 7C E0 01 92       MOVE.l #$67CE0,$192.w
001124  21 FC 00 07 3C E0 01 AA       MOVE.l #$73CE0,$1AA.w
00112C  42 B8 01 72                   CLR.l $172.w
001130  31 FC FF E0 01 BE             MOVE.w #$FFE0,$1BE.w
001136  42 78 01 C0                   CLR.w $1C0.w
00113A  50 F8 70 6A                   ST $706A.w
00113E  41 F8 01 76                   LEA $176.w,a0
001142  61 00 21 14                   BSR $003258
001146  61 00 5D 54                   BSR $006E9C
00114A  3D 7C 01 F0 00 40             MOVE.w #$1F0,$40(a6)
001150  42 6E 00 42                   CLR.w $42(a6)
001154  42 6E 00 74                   CLR.w $74(a6)
001158  42 6E 00 66                   CLR.w $66(a6)
00115C  2D 78 01 7A 00 54             MOVE.l $17A.w,$54(a6)
001162  3D 7C 80 30 00 58             MOVE.w #$8030,$58(a6)
001168  08 2E 00 0E 00 02             BTST.b #$E,$2(a6)
00116E  66 F8                         BNE $001168
001170  3D 7C 80 30 00 58             MOVE.w #$8030,$58(a6)
001176  08 2E 00 0E 00 02             BTST.b #$E,$2(a6)
00117C  66 F8                         BNE $001176
00117E  3D 7C 80 30 00 58             MOVE.w #$8030,$58(a6)
001184  08 2E 00 0E 00 02             BTST.b #$E,$2(a6)
00118A  66 F8                         BNE $001184
00118C  41 F8 1A 0E                   LEA $1A0E.w,a0
001190  43 F9 00 00 19 DE             LEA $19DE.l,a1
001196  4C D0 00 FF                   MOVEM.l (a0),d0-d7
00119A  48 D1 00 FF                   MOVEM.l d0-d7,(a1)
00119E  4C A8 00 FF 00 20             MOVEM.w $20(a0),d0-d7
0011A4  48 A9 00 FF 00 20             MOVEM.w d0-d7,$20(a1)
0011AA  41 F8 19 CE                   LEA $19CE.w,a0
0011AE  61 00 60 AE                   BSR $00725E
0011B2  61 00 03 4A                   BSR $0014FE
0011B6  70 FF                         MOVEQ #$FF,d0
0011B8  4E 75                         RTS

; ==== sub_0011BA (3 callers) ====
0011BA  4A 38 01 5C                   TST.b $15C.w
0011BE  66 3A                         BNE $0011FA
0011C0  61 00 09 F2                   BSR $001BB4
0011C4  61 00 4C 7A                   BSR $005E40
0011C8  42 B8 01 20                   CLR.l $120.w
0011CC  42 B8 01 24                   CLR.l $124.w
0011D0  61 00 1D 84                   BSR $002F56
0011D4  20 78 19 42                   MOVEA.l $1942.w,a0
0011D8  4E 90                         JSR (a0)
0011DA  61 00 56 D0                   BSR $0068AC
0011DE  61 00 52 D8                   BSR $0064B8
0011E2  61 00 09 B0                   BSR $001B94
0011E6  61 00 0A 24                   BSR $001C0C
0011EA  50 F9 00 00 01 E1             ST $1E1.l
0011F0  4A 39 00 00 01 E1             TST.b $1E1.l
0011F6  66 F8                         BNE $0011F0
0011F8  4E 75                         RTS
0011FA  61 00 09 B8                   BSR $001BB4
0011FE  61 00 4C 40                   BSR $005E40
001202  61 00 1D 52                   BSR $002F56
001206  20 78 19 42                   MOVEA.l $1942.w,a0
00120A  4E 90                         JSR (a0)
00120C  61 00 09 86                   BSR $001B94
001210  61 00 12 66                   BSR $002478
001214  61 00 52 A2                   BSR $0064B8
001218  61 00 09 F2                   BSR $001C0C
00121C  60 CC                         BRA $0011EA
00121E  .dc.b 10 2D 00 1E 6A 40 51 ED 00 1E C0 7C 00 7F 3B 40 ; .-..j@Q....|..;@
00122E  .dc.b 00 0C 2B 7C 00 00 13 8C 00 12 50 ED 00 1C 50 ED ; ..+|......P...P.
00123E  .dc.b 00 1F 42 6D 00 2E 42 6D 00 1A 3B 7C 00 70 00 18 ; ..Bm..Bm..;|.p..
00124E  .dc.b B0 7C 00 02 66 0E 04 6D 00 0C 00 1A 70 0C 72 0C ; .|..f..m....p.r.
00125E  .dc.b 60 00 00 DA 4E 75 4C AD 00 03 00 18 90 78 01 20 ; `...NuL......x. 
00126E  .dc.b 92 78 01 22 34 2D 00 2E 66 24 58 41 B2 7C 00 72 ; .x."4-..f$XA.|.r
00127E  .dc.b 6D 14 52 6D 00 2E 3B 7C 00 46 00 30 3B 7C 01 00 ; m.Rm..;|.F.0;|..
00128E  .dc.b 00 32 51 F8 01 E6 48 AD 00 03 00 18 4E 75 B4 7C ; .2Q...H.....Nu.|
00129E  .dc.b 00 01 66 22 48 AD 00 03 00 18 0C 6D 00 02 00 0C ; ..f"H......m....
0012AE  .dc.b 67 48 0C 6D 00 03 00 0C 67 0A 53 6D 00 30 6A 04 ; gH.m....g.Sm.0j.
0012BE  .dc.b 52 6D 00 2E 4E 75 B4 7C 00 02 66 2A 58 41 B2 7C ; Rm..Nu.|..f*XA.|
0012CE  .dc.b 00 D4 6F 1A 0C 6D 00 02 00 0C 66 0A 11 ED 00 32 ; ..o..m....f....2
0012DE  .dc.b 10 90 60 00 08 56 50 F8 10 90 60 00 08 4E 48 AD ; ..`..VP...`..NH.
0012EE  .dc.b 00 03 00 18 4E 75 60 00 08 42 2F 0D 61 00 31 D0 ; ....Nu`..B/.a.1.
0012FE  .dc.b 2A 5F 4A 40 67 16 6A 0C 1B 7C 00 01 00 32 42 2D ; *_J@g.j..|...2B-
00130E  .dc.b 00 33 60 08 50 ED 00 32 42 2D 00 33 52 2D 00 33 ; .3`.P..2B-.3R-.3
00131E  .dc.b 10 2D 00 33 C0 3C 00 10 67 06 70 0C 72 0C 60 0C ; .-.3.<..g.p.r.`.
00132E  .dc.b 70 0C 72 00 4A 2D 00 32 6B 02 C1 41 41 FA 00 98 ; p.r.J-.2k..AA...
00133E  .dc.b D0 C0 61 14 41 FA 00 A8 D0 C1 61 20 4A 38 01 E6 ; ..a.A.....a J8..
00134E  .dc.b 67 04 52 6D 00 2E 4E 75 3D 7C 09 F0 00 40 42 6E ; g.Rm..Nu=|...@Bn
00135E  .dc.b 00 42 74 FF 2D 42 00 44 42 6E 00 64 3D 68 00 02 ; .Bt.-B.DBn.d=h..
00136E  .dc.b 00 66 2D 68 00 04 00 50 22 68 00 08 2D 49 00 54 ; .f-h...P"h..-I.T
00137E  .dc.b 3D 50 00 58 08 2E 00 0E 00 02 66 F8 4E 75 00 00 ; =P.X......f.Nu..
00138E  .dc.b 13 9C 00 00 13 AA 00 00 13 B8 00 00 13 C6 00 01 ; ................
00139E  .dc.b 8E B8 00 01 93 C8 00 AC 06 0A 18 00 00 01 87 F8 ; ................
0013AE  .dc.b 00 01 8D 08 00 AC 06 0A 18 00 00 01 7C 28 00 01 ; ............|(..
0013BE  .dc.b 85 04 00 AC 0A 8A 2A 00 00 01 9B 98 00 01 A0 A8 ; ......*.........
0013CE  .dc.b 00 AC 06 0A 18 00 03 84 00 0A 00 01 96 58 00 01 ; .............X..
0013DE  .dc.b 84 0A 03 84 00 0A 00 01 98 18 00 01 84 0A 03 83 ; ................
0013EE  .dc.b 00 0C 00 01 99 A0 00 01 84 12 03 83 00 0C 00 01 ; ................
0013FE  .dc.b 9A F0 00 01 84 12                               ; ......
001404  52 78 19 3A                   ADDQ.w #1,$193A.w
001408  51 F8 01 5D                   SF $15D.w
00140C  4A 38 02 17                   TST.b $217.w
001410  67 0C                         BEQ $00141E
001412  42 78 70 68                   CLR.w $7068.w
001416  0C 78 00 64 70 68             CMPI.w #$64,$7068.w
00141C  6D F8                         BLT $001416
00141E  61 00 00 DE                   BSR $0014FE
001422  41 F9 00 01 B9 80             LEA $1B980.l,a0
001428  30 28 00 14                   MOVE.w $14(a0),d0
00142C  B0 78 19 3A                   CMP.w $193A.w,d0
001430  6F 28                         BLE $00145A
001432  51 F8 19 4A                   SF $194A.w
001436  61 00 06 30                   BSR $001A68
00143A  61 00 01 D2                   BSR $00160E
00143E  61 00 24 50                   BSR $003890
001442  61 00 40 8A                   BSR $0054CE
001446  61 00 62 0E                   BSR $007656
00144A  42 B8 01 04                   CLR.l $104.w
00144E  61 00 2F 88                   BSR $0043D8
001452  61 00 00 68                   BSR $0014BC
001456  60 00 FA 30                   BRA $000E88
00145A  52 78 19 38                   ADDQ.w #1,$1938.w
00145E  42 78 19 3A                   CLR.w $193A.w
001462  0C 78 00 05 19 38             CMPI.w #$5,$1938.w
001468  6D 10                         BLT $00147A
00146A  31 FC 00 04 19 38             MOVE.w #$4,$1938.w
001470  31 FC 00 02 19 3A             MOVE.w #$2,$193A.w
001476  60 00 F8 98                   BRA $000D10
00147A  60 00 F9 AA                   BRA $000E26

; ==== sub_00147E (3 callers) ====
00147E  21 FC 00 00 03 00 7B 1C       MOVE.l #$300,$7B1C.w
001486  21 FC 00 00 03 00 7B 18       MOVE.l #$300,$7B18.w
00148E  21 FC 00 00 03 00 7B 14       MOVE.l #$300,$7B14.w
001496  61 00 63 1C                   BSR $0077B4
00149A  61 00 61 BA                   BSR $007656
00149E  70 00                         MOVEQ #$0,d0
0014A0  61 00 63 E2                   BSR $007884
0014A4  70 01                         MOVEQ #$1,d0
0014A6  61 00 63 DC                   BSR $007884
0014AA  70 02                         MOVEQ #$2,d0
0014AC  61 00 63 D6                   BSR $007884
0014B0  70 03                         MOVEQ #$3,d0
0014B2  61 00 63 D0                   BSR $007884
0014B6  70 04                         MOVEQ #$4,d0
0014B8  60 00 63 CA                   BRA $007884

; ==== sub_0014BC (3 callers) ====
0014BC  20 38 01 C2                   MOVE.l $1C2.w,d0
0014C0  B0 BC 00 00 01 8E             CMP.l #$18E,d0
0014C6  67 0A                         BEQ $0014D2
0014C8  50 F8 01 E1                   ST $1E1.w
0014CC  4A 38 01 E1                   TST.b $1E1.w
0014D0  66 FA                         BNE $0014CC
0014D2  42 78 7B 2C                   CLR.w $7B2C.w
0014D6  42 78 7B 2A                   CLR.w $7B2A.w
0014DA  42 78 70 68                   CLR.w $7068.w
0014DE  4A 78 70 68                   TST.w $7068.w
0014E2  67 FA                         BEQ $0014DE
0014E4  30 38 7B 2A                   MOVE.w $7B2A.w,d0
0014E8  C0 7C 00 04                   AND.w #$4,d0
0014EC  66 08                         BNE $0014F6
0014EE  70 1C                         MOVEQ #$1C,d0
0014F0  4E B9 00 01 A2 DC             JSR $1A2DC.l
0014F6  61 00 5F FE                   BSR $0074F6
0014FA  6A DE                         BPL $0014DA
0014FC  4E 75                         RTS

; ==== sub_0014FE (4 callers) ====
0014FE  4A 38 19 4C                   TST.b $194C.w
001502  66 00 00 DA                   BNE $0015DE
001506  20 38 01 C2                   MOVE.l $1C2.w,d0
00150A  B0 BC 00 00 01 76             CMP.l #$176,d0
001510  67 0A                         BEQ $00151C
001512  50 F8 01 E1                   ST $1E1.w
001516  4A 38 01 E1                   TST.b $1E1.w
00151A  66 FA                         BNE $001516
00151C  3D 7C 09 F0 00 40             MOVE.w #$9F0,$40(a6)
001522  42 6E 00 42                   CLR.w $42(a6)
001526  42 AE 00 64                   CLR.l $64(a6)
00152A  70 FF                         MOVEQ #$FF,d0
00152C  2D 40 00 44                   MOVE.l d0,$44(a6)
001530  20 38 01 AA                   MOVE.l $1AA.w,d0
001534  22 38 01 7A                   MOVE.l $17A.w,d1
001538  20 78 02 0A                   MOVEA.l $20A.w,a0
00153C  38 38 01 C0                   MOVE.w $1C0.w,d4
001540  67 44                         BEQ $001586
001542  3A 04                         MOVE.w d4,d5
001544  9A 7C 01 00                   SUB.w #$100,d5
001548  44 45                         NEG.w d5
00154A  3C 05                         MOVE.w d5,d6
00154C  DC 46                         ADD.w d6,d6
00154E  DC 46                         ADD.w d6,d6
001550  24 00                         MOVE.l d0,d2
001552  D4 B0 60 00                   ADD.l $0(a0,d6.w),d2
001556  EF 4C                         LSL.w #7,d4
001558  88 7C 00 30                   OR.w #$30,d4
00155C  2D 42 00 50                   MOVE.l d2,$50(a6)
001560  2D 41 00 54                   MOVE.l d1,$54(a6)
001564  3D 44 00 58                   MOVE.w d4,$58(a6)
001568  08 2E 00 0E 00 02             BTST.b #$E,$2(a6)
00156E  66 F8                         BNE $001568
001570  EF 4D                         LSL.w #7,d5
001572  8A 7C 00 30                   OR.w #$30,d5
001576  2D 40 00 50                   MOVE.l d0,$50(a6)
00157A  3D 45 00 58                   MOVE.w d5,$58(a6)
00157E  08 2E 00 0E 00 02             BTST.b #$E,$2(a6)
001584  66 F8                         BNE $00157E
001586  42 B8 01 72                   CLR.l $172.w
00158A  31 FC FF E0 01 BE             MOVE.w #$FFE0,$1BE.w
001590  42 78 01 C0                   CLR.w $1C0.w
001594  51 F8 02 29                   SF $229.w
001598  20 3C 00 00 73 84             MOVE.l #$7384,d0
00159E  41 F8 73 78                   LEA $7378.w,a0
0015A2  48 40                         SWAP d0
0015A4  31 40 00 02                   MOVE.w d0,$2(a0)
0015A8  48 40                         SWAP d0
0015AA  31 40 00 06                   MOVE.w d0,$6(a0)
0015AE  20 3C 00 00 73 B4             MOVE.l #$73B4,d0
0015B4  41 F8 73 A8                   LEA $73A8.w,a0
0015B8  48 40                         SWAP d0
0015BA  31 40 00 02                   MOVE.w d0,$2(a0)
0015BE  48 40                         SWAP d0
0015C0  31 40 00 06                   MOVE.w d0,$6(a0)
0015C4  42 B8 74 58                   CLR.l $7458.w
0015C8  42 B8 74 60                   CLR.l $7460.w
0015CC  41 F8 01 76                   LEA $176.w,a0
0015D0  61 00 1C 86                   BSR $003258
0015D4  50 F8 01 E1                   ST $1E1.w
0015D8  4A 38 01 E1                   TST.b $1E1.w
0015DC  66 FA                         BNE $0015D8
0015DE  31 FC 00 01 7B 2C             MOVE.w #$1,$7B2C.w
0015E4  31 FC 00 76 7B 2A             MOVE.w #$76,$7B2A.w
0015EA  42 78 70 68                   CLR.w $7068.w
0015EE  4A 78 70 68                   TST.w $7068.w
0015F2  67 FA                         BEQ $0015EE
0015F4  30 38 7B 2A                   MOVE.w $7B2A.w,d0
0015F8  C0 7C 00 04                   AND.w #$4,d0
0015FC  66 08                         BNE $001606
0015FE  70 1C                         MOVEQ #$1C,d0
001600  4E B9 00 01 A2 DC             JSR $1A2DC.l
001606  61 00 5E EE                   BSR $0074F6
00160A  6A DE                         BPL $0015EA
00160C  4E 75                         RTS

; ==== select_scene  $00160E  (3 callers) — The state-machine core. Reads the scene id $193A, indexes the scene-descriptor pointer table at $1B980+$16 (a4 = table[id*4]), publishes it as the current descriptor $193E, and installs the descriptor's fields: +$8/+$C data ptrs -> $45AA/$45A4, +$10 -> $1932, +$1C -> $7B0C, +$18 -> mode_handler_ptr ($1942), +$2E -> mode_handler2_ptr ($1946). First entry per scene also runs the descriptor's setup ($194A guards it). Handlers default to null_handler when a field is 0. ====
00160E  42 78 19 36                   CLR.w $1936.w
001612  47 F9 00 01 B9 80             LEA $1B980.l,a3
001618  30 38 19 3A                   MOVE.w $193A.w,d0
00161C  D0 40                         ADD.w d0,d0
00161E  D0 40                         ADD.w d0,d0
001620  28 73 00 16                   MOVEA.l $16(a3,d0.w),a4
001624  21 CC 19 3E                   MOVE.l a4,$193E.w
001628  4A 38 19 4A                   TST.b $194A.w
00162C  66 2C                         BNE $00165A
00162E  21 EC 00 08 45 AA             MOVE.l $8(a4),$45AA.w
001634  21 EC 00 0C 45 A4             MOVE.l $C(a4),$45A4.w
00163A  50 F8 47 65                   ST $4765.w
00163E  50 F8 19 4A                   ST $194A.w
001642  41 F9 00 01 B9 80             LEA $1B980.l,a0
001648  20 28 00 10                   MOVE.l $10(a0),d0
00164C  22 28 00 0C                   MOVE.l $C(a0),d1
001650  4E B9 00 01 A2 B4             JSR $1A2B4.l
001656  50 F8 70 67                   ST $7067.w
00165A  31 EC 00 2C 19 3C             MOVE.w $2C(a4),$193C.w
001660  4C B8 00 03 45 AA             MOVEM.w $45AA.w,d0-d1
001666  D0 40                         ADD.w d0,d0
001668  D0 40                         ADD.w d0,d0
00166A  D2 41                         ADD.w d1,d1
00166C  D2 41                         ADD.w d1,d1
00166E  48 B8 00 03 01 58             MOVEM.w d0-d1,$158.w
001674  20 2C 00 14                   MOVE.l $14(a4),d0
001678  67 0E                         BEQ $001688
00167A  20 40                         MOVEA.l d0,a0
00167C  4E 90                         JSR (a0)
00167E  47 F9 00 01 B9 80             LEA $1B980.l,a3
001684  28 78 19 3E                   MOVEA.l $193E.w,a4
001688  20 2C 00 2E                   MOVE.l $2E(a4),d0
00168C  66 06                         BNE $001694
00168E  20 3C 00 00 16 DC             MOVE.l #$16DC,d0
001694  21 C0 19 46                   MOVE.l d0,$1946.w
001698  4C B8 00 03 45 AA             MOVEM.w $45AA.w,d0-d1
00169E  4C AC 00 0C 00 04             MOVEM.w $4(a4),d2-d3
0016A4  20 6B 00 00                   MOVEA.l $0(a3),a0
0016A8  22 6C 00 00                   MOVEA.l $0(a4),a1
0016AC  24 6B 00 04                   MOVEA.l $4(a3),a2
0016B0  61 00 12 E2                   BSR $002994
0016B4  28 78 19 3E                   MOVEA.l $193E.w,a4
0016B8  23 EC 00 10 00 00 19 32       MOVE.l $10(a4),$1932.l
0016C0  21 EC 00 1C 7B 0C             MOVE.l $1C(a4),$7B0C.w
0016C6  20 2C 00 18                   MOVE.l $18(a4),d0
0016CA  66 06                         BNE $0016D2
0016CC  20 3C 00 00 16 DC             MOVE.l #$16DC,d0
0016D2  21 C0 19 42                   MOVE.l d0,$1942.w
0016D6  70 00                         MOVEQ #$0,d0
0016D8  60 00 61 AA                   BRA $007884

; --- null_handler  $0016DC — Empty per-frame handler (just RTS); the default mode when a scene descriptor leaves a handler slot 0. (data) ---
0016DC  .dc.b 4E 75                                           ; Nu

; ==== sub_0016DE (1 caller) ====
0016DE  47 F9 00 01 B9 80             LEA $1B980.l,a3
0016E4  20 6B 00 08                   MOVEA.l $8(a3),a0
0016E8  4C D0 00 FF                   MOVEM.l (a0),d0-d7
0016EC  48 F8 00 FF 19 CE             MOVEM.l d0-d7,$19CE.w
0016F2  51 F8 19 4A                   SF $194A.w
0016F6  4A 38 02 52                   TST.b $252.w
0016FA  67 04                         BEQ $001700
0016FC  60 00 5A 76                   BRA $007174
001700  4E 75                         RTS
001702  58 78 19 36                   ADDQ.w #4,$1936.w
001706  B4 7C 00 20                   CMP.w #$20,d2
00170A  6D 04                         BLT $001710
00170C  42 78 19 36                   CLR.w $1936.w

; ==== enemy_spawner  $001710  (2 callers) — The scroll-triggered enemy spawner (called twice per frame from game_loop). Computes the spawn window from the camera ($1F6/$172) — the visible screen plus a margin ($2C x $1C tiles) — and walks the scene's placement list for the camera column; any entry inside the window is allocated (obj_alloc_checked), positioned ($18/$1A from the entry's x/y), typed ($1E from the entry), given its AI handler ($22 from the type), linked active and marked spawned. This is why enemies appear just as the screen reaches them. The placement list lives in the scene block: a grid at descriptor +$28 (indexed by camera column, with the per-row offsets at +$24) points into a sorted-by-x stream of 6-byte entries — `type.w, x.w, y.w` (x/y in 8-pixel units), `$00` ends a column run and `$D3` ends the list. The type's low nibble selects the scene's enemy-AI handler (descriptor +$20 table), wiring each placement to one of the world's sprites. extract/cmd/placements pulls these from the disk. ====
001710  4C B8 00 03 01 F6             MOVEM.w $1F6.w,d0-d1
001716  E6 48                         LSR.w #3,d0
001718  E6 49                         LSR.w #3,d1
00171A  48 B8 00 03 19 2E             MOVEM.w d0-d1,$192E.w
001720  2A 78 19 3E                   MOVEA.l $193E.w,a5
001724  28 6D 00 24                   MOVEA.l $24(a5),a4
001728  2A 6D 00 28                   MOVEA.l $28(a5),a5
00172C  34 38 19 36                   MOVE.w $1936.w,d2
001730  41 F8 19 0A                   LEA $190A.w,a0
001734  D0 70 20 00                   ADD.w $0(a0,d2.w),d0
001738  6B C8                         BMI $001702
00173A  D2 70 20 02                   ADD.w $2(a0,d2.w),d1
00173E  6B C2                         BMI $001702
001740  4A 38 02 52                   TST.b $252.w
001744  67 02                         BEQ $001748
001746  42 40                         CLR.w d0
001748  B0 78 19 32                   CMP.w $1932.w,d0
00174C  6E B4                         BGT $001702
00174E  B2 78 19 34                   CMP.w $1934.w,d1
001752  6E AE                         BGT $001702
001754  58 78 19 36                   ADDQ.w #4,$1936.w
001758  B4 7C 00 20                   CMP.w #$20,d2
00175C  6D 04                         BLT $001762
00175E  42 78 19 36                   CLR.w $1936.w
001762  D2 41                         ADD.w d1,d1
001764  DA F4 10 00                   ADDA.w $0(a4,d1.w),a5
001768  D0 40                         ADD.w d0,d0
00176A  D0 40                         ADD.w d0,d0
00176C  DA C0                         ADDA.w d0,a5
00176E  28 55                         MOVEA.l (a5),a4
001770  4C B8 00 03 01 F6             MOVEM.w $1F6.w,d0-d1
001776  D0 40                         ADD.w d0,d0
001778  D0 40                         ADD.w d0,d0
00177A  D2 41                         ADD.w d1,d1
00177C  D2 41                         ADD.w d1,d1
00177E  4C B8 00 0C 01 72             MOVEM.w $172.w,d2-d3
001784  E6 4A                         LSR.w #3,d2
001786  E6 4B                         LSR.w #3,d3
001788  D0 42                         ADD.w d2,d0
00178A  D2 43                         ADD.w d3,d1
00178C  34 00                         MOVE.w d0,d2
00178E  36 01                         MOVE.w d1,d3
001790  D4 7C 00 2C                   ADD.w #$2C,d2
001794  D6 7C 00 1C                   ADD.w #$1C,d3
001798  59 41                         SUBQ.w #4,d1
00179A  6A 02                         BPL $00179E
00179C  72 00                         MOVEQ #$0,d1
00179E  38 14                         MOVE.w (a4),d4
0017A0  67 00 00 A6                   BEQ $001848
0017A4  B8 7C 00 D3                   CMP.w #$D3,d4
0017A8  67 00 00 A4                   BEQ $00184E
0017AC  B0 6C 00 02                   CMP.w $2(a4),d0
0017B0  6E 00 00 96                   BGT $001848
0017B4  B2 6C 00 04                   CMP.w $4(a4),d1
0017B8  6E 00 00 8E                   BGT $001848
0017BC  B4 6C 00 02                   CMP.w $2(a4),d2
0017C0  6D 00 00 86                   BLT $001848
0017C4  B6 6C 00 04                   CMP.w $4(a4),d3
0017C8  6D 00 00 7E                   BLT $001848
0017CC  18 14                         MOVE.b (a4),d4
0017CE  48 84                         EXT.W d4
0017D0  B8 7C 00 03                   CMP.w #$3,d4
0017D4  6C 08                         BGE $0017DE
0017D6  47 F8 1A 60                   LEA $1A60.w,a3
0017DA  53 44                         SUBQ.w #1,d4
0017DC  60 0A                         BRA $0017E8
0017DE  26 78 19 3E                   MOVEA.l $193E.w,a3
0017E2  26 6B 00 20                   MOVEA.l $20(a3),a3
0017E6  57 44                         SUBQ.w #3,d4
0017E8  C8 7C 00 0F                   AND.w #$F,d4
0017EC  D8 44                         ADD.w d4,d4
0017EE  D8 44                         ADD.w d4,d4
0017F0  D6 C4                         ADDA.w d4,a3
0017F2  2A 13                         MOVE.l (a3),d5
0017F4  67 50                         BEQ $001846
0017F6  48 A7 F0 00                   MOVEM.w d0-d3,-(a7)
0017FA  61 00 02 BE                   BSR $001ABA
0017FE  4C AC 00 03 00 02             MOVEM.w $2(a4),d0-d1
001804  4C B8 00 0C 01 F6             MOVEM.w $1F6.w,d2-d3
00180A  52 42                         ADDQ.w #1,d2
00180C  D4 42                         ADD.w d2,d2
00180E  D4 42                         ADD.w d2,d2
001810  D6 43                         ADD.w d3,d3
001812  D6 43                         ADD.w d3,d3
001814  90 42                         SUB.w d2,d0
001816  92 43                         SUB.w d3,d1
001818  E7 48                         LSL.w #3,d0
00181A  E7 49                         LSL.w #3,d1
00181C  4C B8 00 0C 01 72             MOVEM.w $172.w,d2-d3
001822  D0 42                         ADD.w d2,d0
001824  D2 43                         ADD.w d3,d1
001826  48 AD 00 03 00 18             MOVEM.w d0-d1,$18(a5)
00182C  1B 6C 00 01 00 1E             MOVE.b $1(a4),$1E(a5)
001832  2B 53 00 22                   MOVE.l (a3),$22(a5)
001836  61 00 02 B4                   BSR $001AEC
00183A  4C 9F 00 0F                   MOVEM.w (a7)+,d0-d3
00183E  3B 54 00 28                   MOVE.w (a4),$28(a5)
001842  2B 4C 00 2A                   MOVE.l a4,$2A(a5)
001846  42 54                         CLR.w (a4)
001848  5C 4C                         ADDQ.w #6,a4
00184A  60 00 FF 52                   BRA $00179E
00184E  4E 75                         RTS

; ==== sub_001850 (2 callers) ====
001850  0C 38 00 63 02 16             CMPI.b #$63,$216.w
001856  67 0A                         BEQ $001862
001858  0C 38 00 19 02 16             CMPI.b #$19,$216.w
00185E  67 02                         BEQ $001862
001860  4E 75                         RTS
001862  42 38 02 16                   CLR.b $216.w
001866  42 38 01 E6                   CLR.b $1E6.w
00186A  42 38 01 E8                   CLR.b $1E8.w
00186E  70 20                         MOVEQ #$20,d0
001870  4E B9 00 01 A2 DC             JSR $1A2DC.l
001876  61 00 2C 54                   BSR $0044CC
00187A  10 38 02 16                   MOVE.b $216.w,d0
00187E  80 38 01 E6                   OR.b $1E6.w,d0
001882  80 38 01 E8                   OR.b $1E8.w,d0
001886  4A 00                         TST.b d0
001888  67 EC                         BEQ $001876
00188A  42 38 02 16                   CLR.b $216.w
00188E  4A 38 59 4A                   TST.b $594A.w
001892  67 08                         BEQ $00189C
001894  70 02                         MOVEQ #$2,d0
001896  4E B9 00 01 A2 DC             JSR $1A2DC.l
00189C  4E 75                         RTS

; ==== sub_00189E (1 caller) ====
00189E  0C 38 00 45 02 16             CMPI.b #$45,$216.w
0018A4  67 02                         BEQ $0018A8
0018A6  4E 75                         RTS
0018A8  51 F8 7A C8                   SF $7AC8.w
0018AC  51 F8 7A C9                   SF $7AC9.w
0018B0  42 78 7A B0                   CLR.w $7AB0.w
0018B4  42 38 7A AF                   CLR.b $7AAF.w
0018B8  4E 75                         RTS

; ==== sub_0018BA (2 callers) ====
0018BA  0C 38 00 21 02 16             CMPI.b #$21,$216.w
0018C0  67 02                         BEQ $0018C4
0018C2  4E 75                         RTS
0018C4  42 38 02 16                   CLR.b $216.w
0018C8  46 38 02 17                   NOT.b $217.w
0018CC  66 08                         BNE $0018D6
0018CE  70 1F                         MOVEQ #$1F,d0
0018D0  4E F9 00 01 A2 AC             JMP $1A2AC.l
0018D6  70 00                         MOVEQ #$0,d0
0018D8  30 38 19 3C                   MOVE.w $193C.w,d0
0018DC  4E F9 00 01 A2 AC             JMP $1A2AC.l
0018E2  4A 38 02 17                   TST.b $217.w
0018E6  66 02                         BNE $0018EA
0018E8  70 1F                         MOVEQ #$1F,d0
0018EA  4E F9 00 01 A2 AC             JMP $1A2AC.l
0018F0  4E 75                         RTS
0018F2  4A 38 02 17                   TST.b $217.w
0018F6  67 F8                         BEQ $0018F0
0018F8  4E F9 00 01 A2 C8             JMP $1A2C8.l
0018FE  .dc.b 4A 38 02 17 67 EC 4E F9 00 01 A2 E0 FF FF FF FF ; J8..g.N.........
00190E  .dc.b 00 00 FF FF 00 01 FF FF FF FF 00 00 00 00 00 00 ; ................
00191E  .dc.b 00 01 00 00 FF FF 00 01 00 00 00 01 00 01 00 01 ; ................
00192E  .dc.b 00 00 00 00 00 00 00 00 00 00                   ; ..........

; --- level_number  $001938 — Current level/world number (read during level_setup and by mode handlers). (data) ---
001938  .dc.b 00 00                                           ; ..

; --- scene_id  $00193A — Current scene/state index; select_scene maps it through the descriptor table to pick the active state. (data) ---
00193A  .dc.b 00 00 00 00                                     ; ....

; --- scene_descriptor  $00193E — Pointer to the active scene descriptor (set by select_scene). Descriptor layout: +$8/+$C data, +$10 field, +$18 primary handler, +$1C field, +$2E secondary handler. (data) ---
00193E  .dc.b 00 00 00 00                                     ; ....

; --- mode_handler_ptr  $001942 — Pointer to the current game-mode/state handler, called every frame by game_loop via JSR (a0). Swapping it changes state (title / play / etc.); installed by select_scene from the active scene descriptor's +$18 field. (data) ---
001942  .dc.b 00 00 00 00                                     ; ....

; --- mode_handler2_ptr  $001946 — Secondary per-frame handler, installed by select_scene from the descriptor's +$2E field (defaults to null_handler). (data) ---
001946  .dc.b 00 00 00 00 00 00 00 00 0F FF 0F FF 0F FF 0F FF ; ................
001956  .dc.b 0F FF 0F FF 0F FF 0F FF 0F FF 0F FF 0F FF 0F FF ; ................
001966  .dc.b 0F FF 0F FF 0F FF 0F FF 0F FF 0F FF 0F FF 0F FF ; ................
001976  .dc.b 0F FF 0F FF 0F FF 0F FF 0F FF 0F FF 0F FF 0F FF ; ................
001986  .dc.b 0F FF 0F FF 0F FF 0F FF 00 00 00 00 00 00 00 00 ; ................
001996  .dc.b 00 00 00 00 00 00 00 00 00 00 00 00 00 00 00 00 ; ................
0019A6  .dc.b 00 00 00 00 00 00 00 00 00 00 00 00 00 00 00 00 ; ................
0019B6  .dc.b 00 00 00 00 00 00 00 00 00 00 00 00 00 00 00 00 ; ................
0019C6  .dc.b 00 00 00 00 00 00 00 00 00 00 00 00 00 00 00 00 ; ................
0019D6  .dc.b 00 00 00 00 00 0F 00 00 02 23 04 45 07 78 0A AB ; .........#.E.x..
0019E6  .dc.b 0C 00 0F 60 0F F0 0F FF 00 00 09 00 0B BE 08 8B ; ...`............
0019F6  .dc.b 04 47 02 25 0B BB 08 88 05 55 02 22 00 5F 00 3A ; .G.%.....U."._.:
001A06  .dc.b 0F 33 0F FF 08 AF 00 3F 02 23 04 45 07 78 0A AB ; .3.....?.#.E.x..
001A16  .dc.b 0C 00 0F 60 0F F0 0F FF 00 00 09 00 0B BE 08 8B ; ...`............
001A26  .dc.b 04 47 02 25 0B BB 08 88 05 55 02 22 00 5F 00 3A ; .G.%.....U."._.:
001A36  .dc.b 0F 33 0F FF 08 AF 00 3F 00 00 0F FF 0B BB 08 88 ; .3.....?........
001A46  .dc.b 05 55 02 22 0F D0 00 0F 01 D2 0B 00 0F 40 0B BF ; .U.".........@..
001A56  .dc.b 08 8F 06 6B 04 49 02 26 01 D2 00 00 7D 0E 00 00 ; ...k.I.&....}...
001A66  .dc.b 7E FC                                           ; ~.

; ==== obj_pool_init  $001A68  (3 callers) — Build the object pool: 39 nodes x $3A bytes at $9184 chained onto the free list $23A; clear the active list $236 and the count $14A. Called from level_setup. ====
001A68  4B F9 00 00 91 84             LEA $9184.l,a5
001A6E  21 CD 02 3A                   MOVE.l a5,$23A.w
001A72  42 B8 02 36                   CLR.l $236.w
001A76  42 AD 00 04                   CLR.l $4(a5)
001A7A  70 26                         MOVEQ #$26,d0
001A7C  22 4D                         MOVEA.l a5,a1
001A7E  DB FC 00 00 00 3A             ADDA.l #$3A,a5
001A84  23 4D 00 00                   MOVE.l a5,$0(a1)
001A88  2B 49 00 04                   MOVE.l a1,$4(a5)
001A8C  51 C8 FF EE                   DBRA d0,$001A7C
001A90  21 FC 00 00 8F A4 01 76       MOVE.l #$8FA4,$176.w
001A98  21 FC 00 00 8D C4 01 8E       MOVE.l #$8DC4,$18E.w
001AA0  42 B9 00 00 8F A8             CLR.l $8FA8.l
001AA6  42 B9 00 00 8D C8             CLR.l $8DC8.l
001AAC  42 78 01 4A                   CLR.w $14A.w
001AB0  42 38 01 5C                   CLR.b $15C.w
001AB4  42 38 28 F0                   CLR.b $28F0.w
001AB8  4E 75                         RTS

; ==== obj_alloc_checked  $001ABA  (4 callers) — obj_alloc guarded by the count: if $14A > $26 (pool full) return the sentinel $23C6, else obj_alloc. ====
001ABA  0C 78 00 26 01 4A             CMPI.w #$26,$14A.w
001AC0  6F 06                         BLE $001AC8
001AC2  4B F8 23 C6                   LEA $23C6.w,a5
001AC6  4E 75                         RTS

; --- obj_alloc  $001AC8 — Pop a node off the free list ($23A): a5 = $23A, $23A = a5.next, clear its flags. Returns the node in a5. ---
001AC8  2A 78 02 3A                   MOVEA.l $23A.w,a5
001ACC  21 ED 00 00 02 3A             MOVE.l $0(a5),$23A.w
001AD2  51 ED 00 1D                   SF $1D(a5)
001AD6  51 ED 00 1F                   SF $1F(a5)
001ADA  51 ED 00 1C                   SF $1C(a5)
001ADE  51 ED 00 20                   SF $20(a5)
001AE2  42 6D 00 0C                   CLR.w $C(a5)
001AE6  42 6D 00 28                   CLR.w $28(a5)
001AEA  4E 75                         RTS

; ==== obj_link  $001AEC  (4 callers) — Link node a5 into the active list at $236 (doubly-linked, new head) and bump the count $14A. ====
001AEC  43 F8 23 C6                   LEA $23C6.w,a1
001AF0  BB C9                         CMPA.l a1,a5
001AF2  66 02                         BNE $001AF6
001AF4  4E 75                         RTS
001AF6  22 78 02 36                   MOVEA.l $236.w,a1
001AFA  21 CD 02 36                   MOVE.l a5,$236.w
001AFE  2B 7C 00 00 02 36 00 04       MOVE.l #$236,$4(a5)
001B06  2B 49 00 00                   MOVE.l a1,$0(a5)
001B0A  23 4D 00 04                   MOVE.l a5,$4(a1)
001B0E  52 78 01 4A                   ADDQ.w #1,$14A.w
001B12  4E 75                         RTS

; ==== obj_unlink  $001B14  (1 caller) — Unlink node a5 from the active list and return it to the free list $23A; decrement $14A. ====
001B14  22 6D 00 04                   MOVEA.l $4(a5),a1
001B18  24 6D 00 00                   MOVEA.l $0(a5),a2
001B1C  23 4A 00 00                   MOVE.l a2,$0(a1)
001B20  25 49 00 04                   MOVE.l a1,$4(a2)
001B24  2B 78 02 3A 00 00             MOVE.l $23A.w,$0(a5)
001B2A  42 AD 00 04                   CLR.l $4(a5)
001B2E  21 CD 02 3A                   MOVE.l a5,$23A.w
001B32  53 78 01 4A                   SUBQ.w #1,$14A.w
001B36  4E 75                         RTS
001B38  41 F8 23 C6                   LEA $23C6.w,a0
001B3C  21 6D 00 00 00 00             MOVE.l $0(a5),$0(a0)
001B42  61 D0                         BSR $001B14
001B44  4B F8 23 C6                   LEA $23C6.w,a5
001B48  51 ED 00 1C                   SF $1C(a5)
001B4C  4E 75                         RTS

; ==== sub_001B4E (1 caller) ====
001B4E  22 6D 00 04                   MOVEA.l $4(a5),a1
001B52  24 6D 00 00                   MOVEA.l $0(a5),a2
001B56  23 4A 00 00                   MOVE.l a2,$0(a1)
001B5A  25 49 00 04                   MOVE.l a1,$4(a2)
001B5E  2B 78 02 3A 00 00             MOVE.l $23A.w,$0(a5)
001B64  42 AD 00 04                   CLR.l $4(a5)
001B68  21 CD 02 3A                   MOVE.l a5,$23A.w
001B6C  53 78 01 4A                   SUBQ.w #1,$14A.w
001B70  30 2D 00 28                   MOVE.w $28(a5),d0
001B74  67 06                         BEQ $001B7C
001B76  22 6D 00 2A                   MOVEA.l $2A(a5),a1
001B7A  32 80                         MOVE.w d0,(a1)
001B7C  4E 75                         RTS
001B7E  41 F8 23 C6                   LEA $23C6.w,a0
001B82  21 6D 00 00 00 00             MOVE.l $0(a5),$0(a0)
001B88  61 C4                         BSR $001B4E
001B8A  4B F8 23 C6                   LEA $23C6.w,a5
001B8E  51 ED 00 1C                   SF $1C(a5)
001B92  4E 75                         RTS

; ==== object_update  $001B94  (4 callers) — Per-frame: walk the $236 active list and JSR each node's AI handler (+$22) — the enemy/effect logic that moves them, animates ($C frame index) and spawns/kills. ====
001B94  4A B8 02 36                   TST.l $236.w
001B98  66 02                         BNE $001B9C
001B9A  4E 75                         RTS
001B9C  2A 78 02 36                   MOVEA.l $236.w,a5
001BA0  20 6D 00 22                   MOVEA.l $22(a5),a0
001BA4  4E 90                         JSR (a0)
001BA6  4A AD 00 00                   TST.l $0(a5)
001BAA  67 06                         BEQ $001BB2
001BAC  2A 6D 00 00                   MOVEA.l $0(a5),a5
001BB0  60 EE                         BRA $001BA0
001BB2  4E 75                         RTS

; ==== blit_playfield  $001BB4  (4 callers) — Blitter copy into a screen buffer: sets BLTCON0 $40(a6)=$9F0 (D = A, copy) and BLTAFWM/ALWM $44(a6)=-1, then blits the spans described by the draw-list at $1C2. One of the per-frame render steps. ====
001BB4  3D 7C 09 F0 00 40             MOVE.w #$9F0,$40(a6)
001BBA  42 6E 00 42                   CLR.w $42(a6)
001BBE  2D 7C FF FF FF FF 00 44       MOVE.l #$FFFFFFFF,$44(a6)
001BC6  22 78 01 C2                   MOVEA.l $1C2.w,a1
001BCA  24 69 00 00                   MOVEA.l $0(a1),a2
001BCE  20 29 00 0C                   MOVE.l $C(a1),d0
001BD2  32 3C 00 90                   MOVE.w #$90,d1
001BD6  4A 6A 00 04                   TST.w $4(a2)
001BDA  67 26                         BEQ $001C02
001BDC  24 1A                         MOVE.l (a2)+,d2
001BDE  2D 42 00 54                   MOVE.l d2,$54(a6)
001BE2  D4 80                         ADD.l d0,d2
001BE4  2D 42 00 50                   MOVE.l d2,$50(a6)
001BE8  4C 9A 00 0C                   MOVEM.w (a2)+,d2-d3
001BEC  94 41                         SUB.w d1,d2
001BEE  3D 42 00 64                   MOVE.w d2,$64(a6)
001BF2  3D 42 00 66                   MOVE.w d2,$66(a6)
001BF6  D6 43                         ADD.w d3,d3
001BF8  D6 43                         ADD.w d3,d3
001BFA  E4 0B                         LSR.b #2,d3
001BFC  3D 43 00 58                   MOVE.w d3,$58(a6)
001C00  60 D4                         BRA $001BD6
001C02  24 69 00 00                   MOVEA.l $0(a1),a2
001C06  42 6A 00 04                   CLR.w $4(a2)
001C0A  4E 75                         RTS

; ==== object_draw  $001C0C  (4 callers) — Per-frame: walk the $236 list and cookie-cut each node into the back buffer using its frame table (+$12) at frame (+$C) and position (+$18/$1A) — the same BOB blit as draw_object_bob. This is what puts the extracted sprites on screen. ====
001C0C  4A B8 02 36                   TST.l $236.w
001C10  66 02                         BNE $001C14
001C12  4E 75                         RTS
001C14  2D 7C FF FE FF FE 00 62       MOVE.l #$FFFEFFFE,$62(a6)
001C1C  2D 7C FF FF 00 00 00 44       MOVE.l #$FFFF0000,$44(a6)
001C24  22 78 02 0E                   MOVEA.l $20E.w,a1
001C28  24 78 01 C2                   MOVEA.l $1C2.w,a2
001C2C  26 6A 00 00                   MOVEA.l $0(a2),a3
001C30  28 78 74 F2                   MOVEA.l $74F2.w,a4
001C34  7A 30                         MOVEQ #$30,d5
001C36  3C 38 01 72                   MOVE.w $172.w,d6
001C3A  3E 38 01 74                   MOVE.w $174.w,d7
001C3E  2A 78 02 36                   MOVEA.l $236.w,a5
001C42  4A 2D 00 1C                   TST.b $1C(a5)
001C46  67 00 00 20                   BEQ $001C68
001C4A  70 00                         MOVEQ #$0,d0
001C4C  30 2D 00 18                   MOVE.w $18(a5),d0
001C50  32 2D 00 1A                   MOVE.w $1A(a5),d1
001C54  34 2D 00 0C                   MOVE.w $C(a5),d2
001C58  20 6D 00 12                   MOVEA.l $12(a5),a0
001C5C  D4 42                         ADD.w d2,d2
001C5E  D4 42                         ADD.w d2,d2
001C60  20 70 20 00                   MOVEA.l $0(a0,d2.w),a0
001C64  61 00 00 14                   BSR $001C7A
001C68  4A AD 00 00                   TST.l $0(a5)
001C6C  67 06                         BEQ $001C74
001C6E  2A 6D 00 00                   MOVEA.l $0(a5),a5
001C72  60 CE                         BRA $001C42
001C74  42 6B 00 04                   CLR.w $4(a3)
001C78  4E 75                         RTS

; ==== sub_001C7A (1 caller) ====
001C7A  D0 7C 00 40                   ADD.w #$40,d0
001C7E  90 46                         SUB.w d6,d0
001C80  6B 00 00 D2                   BMI $001D54
001C84  B0 7C 01 90                   CMP.w #$190,d0
001C88  6C 00 00 CA                   BGE $001D54
001C8C  B2 7C 00 D4                   CMP.w #$D4,d1
001C90  6C 00 00 C2                   BGE $001D54
001C94  92 47                         SUB.w d7,d1
001C96  92 78 01 C0                   SUB.w $1C0.w,d1
001C9A  C2 7C 00 FF                   AND.w #$FF,d1
001C9E  E8 98                         ROR.l #4,d0
001CA0  34 01                         MOVE.w d1,d2
001CA2  D4 42                         ADD.w d2,d2
001CA4  48 40                         SWAP d0
001CA6  3D 40 00 42                   MOVE.w d0,$42(a6)
001CAA  80 7C 0F CA                   OR.w #$FCA,d0
001CAE  3D 40 00 40                   MOVE.w d0,$40(a6)
001CB2  42 40                         CLR.w d0
001CB4  48 40                         SWAP d0
001CB6  D0 71 20 00                   ADD.w $0(a1,d2.w),d0
001CBA  59 40                         SUBQ.w #4,d0
001CBC  6B 00 00 96                   BMI $001D54
001CC0  38 02                         MOVE.w d2,d4
001CC2  D0 40                         ADD.w d0,d0
001CC4  D0 AA 00 04                   ADD.l $4(a2),d0
001CC8  4A 2D 00 20                   TST.b $20(a5)
001CCC  66 00 03 28                   BNE $001FF6
001CD0  4A 28 00 0D                   TST.b $D(a0)
001CD4  66 00 01 6E                   BNE $001E44
001CD8  34 28 00 08                   MOVE.w $8(a0),d2
001CDC  3D 42 00 60                   MOVE.w d2,$60(a6)
001CE0  3D 42 00 66                   MOVE.w d2,$66(a6)
001CE4  36 28 00 0A                   MOVE.w $A(a0),d3
001CE8  D2 28 00 0C                   ADD.b $C(a0),d1
001CEC  65 68                         BCS $001D56
001CEE  26 C0                         MOVE.l d0,(a3)+
001CF0  36 C2                         MOVE.w d2,(a3)+
001CF2  36 C3                         MOVE.w d3,(a3)+
001CF4  24 00                         MOVE.l d0,d2
001CF6  2D 50 00 4C                   MOVE.l (a0),$4C(a6)
001CFA  22 28 00 04                   MOVE.l $4(a0),d1
001CFE  48 EE 00 06 00 50             MOVEM.l d1-d2,$50(a6)
001D04  2D 42 00 48                   MOVE.l d2,$48(a6)
001D08  3D 43 00 58                   MOVE.w d3,$58(a6)
001D0C  08 2E 00 0E 00 02             BTST.b #$E,$2(a6)
001D12  66 F8                         BNE $001D0C
001D14  D4 85                         ADD.l d5,d2
001D16  48 EE 00 06 00 50             MOVEM.l d1-d2,$50(a6)
001D1C  2D 42 00 48                   MOVE.l d2,$48(a6)
001D20  3D 43 00 58                   MOVE.w d3,$58(a6)
001D24  08 2E 00 0E 00 02             BTST.b #$E,$2(a6)
001D2A  66 F8                         BNE $001D24
001D2C  D4 85                         ADD.l d5,d2
001D2E  48 EE 00 06 00 50             MOVEM.l d1-d2,$50(a6)
001D34  2D 42 00 48                   MOVE.l d2,$48(a6)
001D38  3D 43 00 58                   MOVE.w d3,$58(a6)
001D3C  08 2E 00 0E 00 02             BTST.b #$E,$2(a6)
001D42  66 F8                         BNE $001D3C
001D44  D4 85                         ADD.l d5,d2
001D46  48 EE 00 06 00 50             MOVEM.l d1-d2,$50(a6)
001D4C  2D 42 00 48                   MOVE.l d2,$48(a6)
001D50  3D 43 00 58                   MOVE.w d3,$58(a6)
001D54  4E 75                         RTS
001D56  67 96                         BEQ $001CEE
001D58  37 42 00 04                   MOVE.w d2,$4(a3)
001D5C  37 42 00 0C                   MOVE.w d2,$C(a3)
001D60  48 C4                         EXT.L d4
001D62  38 31 40 00                   MOVE.w $0(a1,d4.w),d4
001D66  D8 44                         ADD.w d4,d4
001D68  24 00                         MOVE.l d0,d2
001D6A  90 84                         SUB.l d4,d0
001D6C  D2 41                         ADD.w d1,d1
001D6E  32 34 10 00                   MOVE.w $0(a4,d1.w),d1
001D72  96 41                         SUB.w d1,d3
001D74  38 03                         MOVE.w d3,d4
001D76  C8 7C 00 3F                   AND.w #$3F,d4
001D7A  88 41                         OR.w d1,d4
001D7C  26 82                         MOVE.l d2,(a3)
001D7E  37 43 00 06                   MOVE.w d3,$6(a3)
001D82  27 40 00 08                   MOVE.l d0,$8(a3)
001D86  37 44 00 0E                   MOVE.w d4,$E(a3)
001D8A  D6 FC 00 10                   ADDA.w #$10,a3
001D8E  2D 50 00 4C                   MOVE.l (a0),$4C(a6)
001D92  22 28 00 04                   MOVE.l $4(a0),d1
001D96  48 EE 00 06 00 50             MOVEM.l d1-d2,$50(a6)
001D9C  2D 42 00 48                   MOVE.l d2,$48(a6)
001DA0  3D 43 00 58                   MOVE.w d3,$58(a6)
001DA4  08 2E 00 0E 00 02             BTST.b #$E,$2(a6)
001DAA  66 F8                         BNE $001DA4
001DAC  2D 40 00 48                   MOVE.l d0,$48(a6)
001DB0  2D 40 00 54                   MOVE.l d0,$54(a6)
001DB4  3D 44 00 58                   MOVE.w d4,$58(a6)
001DB8  08 2E 00 0E 00 02             BTST.b #$E,$2(a6)
001DBE  66 F8                         BNE $001DB8
001DC0  D0 85                         ADD.l d5,d0
001DC2  D4 85                         ADD.l d5,d2
001DC4  48 EE 00 06 00 50             MOVEM.l d1-d2,$50(a6)
001DCA  2D 42 00 48                   MOVE.l d2,$48(a6)
001DCE  3D 43 00 58                   MOVE.w d3,$58(a6)
001DD2  08 2E 00 0E 00 02             BTST.b #$E,$2(a6)
001DD8  66 F8                         BNE $001DD2
001DDA  2D 40 00 48                   MOVE.l d0,$48(a6)
001DDE  2D 40 00 54                   MOVE.l d0,$54(a6)
001DE2  3D 44 00 58                   MOVE.w d4,$58(a6)
001DE6  08 2E 00 0E 00 02             BTST.b #$E,$2(a6)
001DEC  66 F8                         BNE $001DE6
001DEE  D0 85                         ADD.l d5,d0
001DF0  D4 85                         ADD.l d5,d2
001DF2  48 EE 00 06 00 50             MOVEM.l d1-d2,$50(a6)
001DF8  2D 42 00 48                   MOVE.l d2,$48(a6)
001DFC  3D 43 00 58                   MOVE.w d3,$58(a6)
001E00  08 2E 00 0E 00 02             BTST.b #$E,$2(a6)
001E06  66 F8                         BNE $001E00
001E08  2D 40 00 48                   MOVE.l d0,$48(a6)
001E0C  2D 40 00 54                   MOVE.l d0,$54(a6)
001E10  3D 44 00 58                   MOVE.w d4,$58(a6)
001E14  08 2E 00 0E 00 02             BTST.b #$E,$2(a6)
001E1A  66 F8                         BNE $001E14
001E1C  D0 85                         ADD.l d5,d0
001E1E  D4 85                         ADD.l d5,d2
001E20  48 EE 00 06 00 50             MOVEM.l d1-d2,$50(a6)
001E26  2D 42 00 48                   MOVE.l d2,$48(a6)
001E2A  3D 43 00 58                   MOVE.w d3,$58(a6)
001E2E  08 2E 00 0E 00 02             BTST.b #$E,$2(a6)
001E34  66 F8                         BNE $001E2E
001E36  2D 40 00 48                   MOVE.l d0,$48(a6)
001E3A  2D 40 00 54                   MOVE.l d0,$54(a6)
001E3E  3D 44 00 58                   MOVE.w d4,$58(a6)
001E42  4E 75                         RTS
001E44  34 28 00 08                   MOVE.w $8(a0),d2
001E48  3D 42 00 60                   MOVE.w d2,$60(a6)
001E4C  3D 42 00 66                   MOVE.w d2,$66(a6)
001E50  36 28 00 0E                   MOVE.w $E(a0),d3
001E54  3D 43 00 62                   MOVE.w d3,$62(a6)
001E58  3D 43 00 64                   MOVE.w d3,$64(a6)
001E5C  36 28 00 0A                   MOVE.w $A(a0),d3
001E60  D2 28 00 0C                   ADD.b $C(a0),d1
001E64  65 00 00 82                   BCS $001EE8
001E68  26 C0                         MOVE.l d0,(a3)+
001E6A  36 C2                         MOVE.w d2,(a3)+
001E6C  36 C3                         MOVE.w d3,(a3)+
001E6E  D0 BC 00 00 00 90             ADD.l #$90,d0
001E74  24 00                         MOVE.l d0,d2
001E76  2D 68 00 10 00 4C             MOVE.l $10(a0),$4C(a6)
001E7C  22 28 00 14                   MOVE.l $14(a0),d1
001E80  48 EE 00 06 00 50             MOVEM.l d1-d2,$50(a6)
001E86  2D 42 00 48                   MOVE.l d2,$48(a6)
001E8A  3D 43 00 58                   MOVE.w d3,$58(a6)
001E8E  08 2E 00 0E 00 02             BTST.b #$E,$2(a6)
001E94  66 F8                         BNE $001E8E
001E96  94 85                         SUB.l d5,d2
001E98  48 EE 00 06 00 50             MOVEM.l d1-d2,$50(a6)
001E9E  2D 42 00 48                   MOVE.l d2,$48(a6)
001EA2  3D 43 00 58                   MOVE.w d3,$58(a6)
001EA6  08 2E 00 0E 00 02             BTST.b #$E,$2(a6)
001EAC  66 F8                         BNE $001EA6
001EAE  94 85                         SUB.l d5,d2
001EB0  48 EE 00 06 00 50             MOVEM.l d1-d2,$50(a6)
001EB6  2D 42 00 48                   MOVE.l d2,$48(a6)
001EBA  3D 43 00 58                   MOVE.w d3,$58(a6)
001EBE  08 2E 00 0E 00 02             BTST.b #$E,$2(a6)
001EC4  66 F8                         BNE $001EBE
001EC6  94 85                         SUB.l d5,d2
001EC8  48 EE 00 06 00 50             MOVEM.l d1-d2,$50(a6)
001ECE  2D 42 00 48                   MOVE.l d2,$48(a6)
001ED2  3D 43 00 58                   MOVE.w d3,$58(a6)
001ED6  25 4B 00 14                   MOVE.l a3,$14(a2)
001EDA  42 6B 00 04                   CLR.w $4(a3)
001EDE  2D 7C FF FE FF FE 00 62       MOVE.l #$FFFEFFFE,$62(a6)
001EE6  4E 75                         RTS
001EE8  67 00 FF 7E                   BEQ $001E68
001EEC  37 42 00 04                   MOVE.w d2,$4(a3)
001EF0  37 42 00 0C                   MOVE.w d2,$C(a3)
001EF4  48 C4                         EXT.L d4
001EF6  38 31 40 00                   MOVE.w $0(a1,d4.w),d4
001EFA  D8 44                         ADD.w d4,d4
001EFC  24 00                         MOVE.l d0,d2
001EFE  90 84                         SUB.l d4,d0
001F00  D2 41                         ADD.w d1,d1
001F02  32 34 10 00                   MOVE.w $0(a4,d1.w),d1
001F06  96 41                         SUB.w d1,d3
001F08  38 03                         MOVE.w d3,d4
001F0A  C8 7C 00 3F                   AND.w #$3F,d4
001F0E  88 41                         OR.w d1,d4
001F10  26 82                         MOVE.l d2,(a3)
001F12  37 43 00 06                   MOVE.w d3,$6(a3)
001F16  27 40 00 08                   MOVE.l d0,$8(a3)
001F1A  37 44 00 0E                   MOVE.w d4,$E(a3)
001F1E  D6 FC 00 10                   ADDA.w #$10,a3
001F22  D0 BC 00 00 00 90             ADD.l #$90,d0
001F28  D4 BC 00 00 00 90             ADD.l #$90,d2
001F2E  2D 68 00 10 00 4C             MOVE.l $10(a0),$4C(a6)
001F34  22 28 00 14                   MOVE.l $14(a0),d1
001F38  48 EE 00 06 00 50             MOVEM.l d1-d2,$50(a6)
001F3E  2D 42 00 48                   MOVE.l d2,$48(a6)
001F42  3D 43 00 58                   MOVE.w d3,$58(a6)
001F46  08 2E 00 0E 00 02             BTST.b #$E,$2(a6)
001F4C  66 F8                         BNE $001F46
001F4E  2D 40 00 48                   MOVE.l d0,$48(a6)
001F52  2D 40 00 54                   MOVE.l d0,$54(a6)
001F56  3D 44 00 58                   MOVE.w d4,$58(a6)
001F5A  08 2E 00 0E 00 02             BTST.b #$E,$2(a6)
001F60  66 F8                         BNE $001F5A
001F62  90 85                         SUB.l d5,d0
001F64  94 85                         SUB.l d5,d2
001F66  48 EE 00 06 00 50             MOVEM.l d1-d2,$50(a6)
001F6C  2D 42 00 48                   MOVE.l d2,$48(a6)
001F70  3D 43 00 58                   MOVE.w d3,$58(a6)
001F74  08 2E 00 0E 00 02             BTST.b #$E,$2(a6)
001F7A  66 F8                         BNE $001F74
001F7C  2D 40 00 48                   MOVE.l d0,$48(a6)
001F80  2D 40 00 54                   MOVE.l d0,$54(a6)
001F84  3D 44 00 58                   MOVE.w d4,$58(a6)
001F88  08 2E 00 0E 00 02             BTST.b #$E,$2(a6)
001F8E  66 F8                         BNE $001F88
001F90  90 85                         SUB.l d5,d0
001F92  94 85                         SUB.l d5,d2
001F94  48 EE 00 06 00 50             MOVEM.l d1-d2,$50(a6)
001F9A  2D 42 00 48                   MOVE.l d2,$48(a6)
001F9E  3D 43 00 58                   MOVE.w d3,$58(a6)
001FA2  08 2E 00 0E 00 02             BTST.b #$E,$2(a6)
001FA8  66 F8                         BNE $001FA2
001FAA  2D 40 00 48                   MOVE.l d0,$48(a6)
001FAE  2D 40 00 54                   MOVE.l d0,$54(a6)
001FB2  3D 44 00 58                   MOVE.w d4,$58(a6)
001FB6  08 2E 00 0E 00 02             BTST.b #$E,$2(a6)
001FBC  66 F8                         BNE $001FB6
001FBE  90 85                         SUB.l d5,d0
001FC0  94 85                         SUB.l d5,d2
001FC2  48 EE 00 06 00 50             MOVEM.l d1-d2,$50(a6)
001FC8  2D 42 00 48                   MOVE.l d2,$48(a6)
001FCC  3D 43 00 58                   MOVE.w d3,$58(a6)
001FD0  08 2E 00 0E 00 02             BTST.b #$E,$2(a6)
001FD6  66 F8                         BNE $001FD0
001FD8  2D 40 00 48                   MOVE.l d0,$48(a6)
001FDC  2D 40 00 54                   MOVE.l d0,$54(a6)
001FE0  3D 44 00 58                   MOVE.w d4,$58(a6)
001FE4  25 4B 00 14                   MOVE.l a3,$14(a2)
001FE8  42 6B 00 04                   CLR.w $4(a3)
001FEC  2D 7C FF FE FF FE 00 62       MOVE.l #$FFFEFFFE,$62(a6)
001FF4  4E 75                         RTS
001FF6  53 2D 00 20                   SUBQ.b #1,$20(a5)
001FFA  67 00 FC D4                   BEQ $001CD0
001FFE  4A 28 00 0D                   TST.b $D(a0)
002002  66 00 01 7E                   BNE $002182
002006  34 28 00 08                   MOVE.w $8(a0),d2
00200A  3D 42 00 60                   MOVE.w d2,$60(a6)
00200E  3D 42 00 66                   MOVE.w d2,$66(a6)
002012  36 28 00 0A                   MOVE.w $A(a0),d3
002016  D2 28 00 0C                   ADD.b $C(a0),d1
00201A  65 70                         BCS $00208C
00201C  26 C0                         MOVE.l d0,(a3)+
00201E  36 C2                         MOVE.w d2,(a3)+
002020  36 C3                         MOVE.w d3,(a3)+
002022  24 00                         MOVE.l d0,d2
002024  2D 50 00 4C                   MOVE.l (a0),$4C(a6)
002028  22 28 00 04                   MOVE.l $4(a0),d1
00202C  48 EE 00 06 00 50             MOVEM.l d1-d2,$50(a6)
002032  2D 42 00 48                   MOVE.l d2,$48(a6)
002036  3D 43 00 58                   MOVE.w d3,$58(a6)
00203A  08 2E 00 0E 00 02             BTST.b #$E,$2(a6)
002040  66 F8                         BNE $00203A
002042  D4 85                         ADD.l d5,d2
002044  48 EE 00 06 00 50             MOVEM.l d1-d2,$50(a6)
00204A  2D 42 00 48                   MOVE.l d2,$48(a6)
00204E  3D 43 00 58                   MOVE.w d3,$58(a6)
002052  08 2E 00 0E 00 02             BTST.b #$E,$2(a6)
002058  66 F8                         BNE $002052
00205A  D4 85                         ADD.l d5,d2
00205C  2D 41 00 4C                   MOVE.l d1,$4C(a6)
002060  48 EE 00 06 00 50             MOVEM.l d1-d2,$50(a6)
002066  2D 42 00 48                   MOVE.l d2,$48(a6)
00206A  3D 43 00 58                   MOVE.w d3,$58(a6)
00206E  08 2E 00 0E 00 02             BTST.b #$E,$2(a6)
002074  66 F8                         BNE $00206E
002076  D4 85                         ADD.l d5,d2
002078  2D 41 00 4C                   MOVE.l d1,$4C(a6)
00207C  48 EE 00 06 00 50             MOVEM.l d1-d2,$50(a6)
002082  2D 42 00 48                   MOVE.l d2,$48(a6)
002086  3D 43 00 58                   MOVE.w d3,$58(a6)
00208A  4E 75                         RTS
00208C  67 8E                         BEQ $00201C
00208E  37 42 00 04                   MOVE.w d2,$4(a3)
002092  37 42 00 0C                   MOVE.w d2,$C(a3)
002096  48 C4                         EXT.L d4
002098  38 31 40 00                   MOVE.w $0(a1,d4.w),d4
00209C  D8 44                         ADD.w d4,d4
00209E  24 00                         MOVE.l d0,d2
0020A0  90 84                         SUB.l d4,d0
0020A2  D2 41                         ADD.w d1,d1
0020A4  32 34 10 00                   MOVE.w $0(a4,d1.w),d1
0020A8  96 41                         SUB.w d1,d3
0020AA  38 03                         MOVE.w d3,d4
0020AC  C8 7C 00 3F                   AND.w #$3F,d4
0020B0  88 41                         OR.w d1,d4
0020B2  26 82                         MOVE.l d2,(a3)
0020B4  37 43 00 06                   MOVE.w d3,$6(a3)
0020B8  27 40 00 08                   MOVE.l d0,$8(a3)
0020BC  37 44 00 0E                   MOVE.w d4,$E(a3)
0020C0  D6 FC 00 10                   ADDA.w #$10,a3
0020C4  2D 50 00 4C                   MOVE.l (a0),$4C(a6)
0020C8  22 28 00 04                   MOVE.l $4(a0),d1
0020CC  48 EE 00 06 00 50             MOVEM.l d1-d2,$50(a6)
0020D2  2D 42 00 48                   MOVE.l d2,$48(a6)
0020D6  3D 43 00 58                   MOVE.w d3,$58(a6)
0020DA  08 2E 00 0E 00 02             BTST.b #$E,$2(a6)
0020E0  66 F8                         BNE $0020DA
0020E2  2D 40 00 48                   MOVE.l d0,$48(a6)
0020E6  2D 40 00 54                   MOVE.l d0,$54(a6)
0020EA  3D 44 00 58                   MOVE.w d4,$58(a6)
0020EE  08 2E 00 0E 00 02             BTST.b #$E,$2(a6)
0020F4  66 F8                         BNE $0020EE
0020F6  D0 85                         ADD.l d5,d0
0020F8  D4 85                         ADD.l d5,d2
0020FA  48 EE 00 06 00 50             MOVEM.l d1-d2,$50(a6)
002100  2D 42 00 48                   MOVE.l d2,$48(a6)
002104  3D 43 00 58                   MOVE.w d3,$58(a6)
002108  08 2E 00 0E 00 02             BTST.b #$E,$2(a6)
00210E  66 F8                         BNE $002108
002110  2D 40 00 48                   MOVE.l d0,$48(a6)
002114  2D 40 00 54                   MOVE.l d0,$54(a6)
002118  3D 44 00 58                   MOVE.w d4,$58(a6)
00211C  08 2E 00 0E 00 02             BTST.b #$E,$2(a6)
002122  66 F8                         BNE $00211C
002124  D0 85                         ADD.l d5,d0
002126  D4 85                         ADD.l d5,d2
002128  2D 41 00 4C                   MOVE.l d1,$4C(a6)
00212C  48 EE 00 06 00 50             MOVEM.l d1-d2,$50(a6)
002132  2D 42 00 48                   MOVE.l d2,$48(a6)
002136  3D 43 00 58                   MOVE.w d3,$58(a6)
00213A  08 2E 00 0E 00 02             BTST.b #$E,$2(a6)
002140  66 F8                         BNE $00213A
002142  2D 40 00 48                   MOVE.l d0,$48(a6)
002146  2D 40 00 54                   MOVE.l d0,$54(a6)
00214A  3D 44 00 58                   MOVE.w d4,$58(a6)
00214E  08 2E 00 0E 00 02             BTST.b #$E,$2(a6)
002154  66 F8                         BNE $00214E
002156  D0 85                         ADD.l d5,d0
002158  D4 85                         ADD.l d5,d2
00215A  2D 41 00 4C                   MOVE.l d1,$4C(a6)
00215E  48 EE 00 06 00 50             MOVEM.l d1-d2,$50(a6)
002164  2D 42 00 48                   MOVE.l d2,$48(a6)
002168  3D 43 00 58                   MOVE.w d3,$58(a6)
00216C  08 2E 00 0E 00 02             BTST.b #$E,$2(a6)
002172  66 F8                         BNE $00216C
002174  2D 40 00 48                   MOVE.l d0,$48(a6)
002178  2D 40 00 54                   MOVE.l d0,$54(a6)
00217C  3D 44 00 58                   MOVE.w d4,$58(a6)
002180  4E 75                         RTS
002182  34 28 00 08                   MOVE.w $8(a0),d2
002186  3D 42 00 60                   MOVE.w d2,$60(a6)
00218A  3D 42 00 66                   MOVE.w d2,$66(a6)
00218E  36 28 00 0E                   MOVE.w $E(a0),d3
002192  3D 43 00 62                   MOVE.w d3,$62(a6)
002196  3D 43 00 64                   MOVE.w d3,$64(a6)
00219A  36 28 00 0A                   MOVE.w $A(a0),d3
00219E  D2 28 00 0C                   ADD.b $C(a0),d1
0021A2  65 00 00 8E                   BCS $002232
0021A6  26 C0                         MOVE.l d0,(a3)+
0021A8  36 C2                         MOVE.w d2,(a3)+
0021AA  36 C3                         MOVE.w d3,(a3)+
0021AC  D0 BC 00 00 00 90             ADD.l #$90,d0
0021B2  24 00                         MOVE.l d0,d2
0021B4  2D 68 00 10 00 4C             MOVE.l $10(a0),$4C(a6)
0021BA  22 28 00 14                   MOVE.l $14(a0),d1
0021BE  48 EE 00 06 00 50             MOVEM.l d1-d2,$50(a6)
0021C4  2D 42 00 48                   MOVE.l d2,$48(a6)
0021C8  3D 43 00 58                   MOVE.w d3,$58(a6)
0021CC  08 2E 00 0E 00 02             BTST.b #$E,$2(a6)
0021D2  66 F8                         BNE $0021CC
0021D4  94 85                         SUB.l d5,d2
0021D6  2D 41 00 4C                   MOVE.l d1,$4C(a6)
0021DA  48 EE 00 06 00 50             MOVEM.l d1-d2,$50(a6)
0021E0  2D 42 00 48                   MOVE.l d2,$48(a6)
0021E4  3D 43 00 58                   MOVE.w d3,$58(a6)
0021E8  08 2E 00 0E 00 02             BTST.b #$E,$2(a6)
0021EE  66 F8                         BNE $0021E8
0021F0  94 85                         SUB.l d5,d2
0021F2  2D 41 00 4C                   MOVE.l d1,$4C(a6)
0021F6  48 EE 00 06 00 50             MOVEM.l d1-d2,$50(a6)
0021FC  2D 42 00 48                   MOVE.l d2,$48(a6)
002200  3D 43 00 58                   MOVE.w d3,$58(a6)
002204  08 2E 00 0E 00 02             BTST.b #$E,$2(a6)
00220A  66 F8                         BNE $002204
00220C  94 85                         SUB.l d5,d2
00220E  2D 41 00 4C                   MOVE.l d1,$4C(a6)
002212  48 EE 00 06 00 50             MOVEM.l d1-d2,$50(a6)
002218  2D 42 00 48                   MOVE.l d2,$48(a6)
00221C  3D 43 00 58                   MOVE.w d3,$58(a6)
002220  25 4B 00 14                   MOVE.l a3,$14(a2)
002224  42 6B 00 04                   CLR.w $4(a3)
002228  2D 7C FF FE FF FE 00 62       MOVE.l #$FFFEFFFE,$62(a6)
002230  4E 75                         RTS
002232  67 00 FF 72                   BEQ $0021A6
002236  37 42 00 04                   MOVE.w d2,$4(a3)
00223A  37 42 00 0C                   MOVE.w d2,$C(a3)
00223E  48 C4                         EXT.L d4
002240  38 31 40 00                   MOVE.w $0(a1,d4.w),d4
002244  D8 44                         ADD.w d4,d4
002246  24 00                         MOVE.l d0,d2
002248  90 84                         SUB.l d4,d0
00224A  D2 41                         ADD.w d1,d1
00224C  32 34 10 00                   MOVE.w $0(a4,d1.w),d1
002250  96 41                         SUB.w d1,d3
002252  38 03                         MOVE.w d3,d4
002254  C8 7C 00 3F                   AND.w #$3F,d4
002258  88 41                         OR.w d1,d4
00225A  26 82                         MOVE.l d2,(a3)
00225C  37 43 00 06                   MOVE.w d3,$6(a3)
002260  27 40 00 08                   MOVE.l d0,$8(a3)
002264  37 44 00 0E                   MOVE.w d4,$E(a3)
002268  D6 FC 00 10                   ADDA.w #$10,a3
00226C  D0 BC 00 00 00 90             ADD.l #$90,d0
002272  D4 BC 00 00 00 90             ADD.l #$90,d2
002278  2D 68 00 10 00 4C             MOVE.l $10(a0),$4C(a6)
00227E  22 28 00 14                   MOVE.l $14(a0),d1
002282  48 EE 00 06 00 50             MOVEM.l d1-d2,$50(a6)
002288  2D 42 00 48                   MOVE.l d2,$48(a6)
00228C  3D 43 00 58                   MOVE.w d3,$58(a6)
002290  08 2E 00 0E 00 02             BTST.b #$E,$2(a6)
002296  66 F8                         BNE $002290
002298  2D 40 00 48                   MOVE.l d0,$48(a6)
00229C  2D 40 00 54                   MOVE.l d0,$54(a6)
0022A0  3D 44 00 58                   MOVE.w d4,$58(a6)
0022A4  08 2E 00 0E 00 02             BTST.b #$E,$2(a6)
0022AA  66 F8                         BNE $0022A4
0022AC  90 85                         SUB.l d5,d0
0022AE  94 85                         SUB.l d5,d2
0022B0  2D 41 00 4C                   MOVE.l d1,$4C(a6)
0022B4  48 EE 00 06 00 50             MOVEM.l d1-d2,$50(a6)
0022BA  2D 42 00 48                   MOVE.l d2,$48(a6)
0022BE  3D 43 00 58                   MOVE.w d3,$58(a6)
0022C2  08 2E 00 0E 00 02             BTST.b #$E,$2(a6)
0022C8  66 F8                         BNE $0022C2
0022CA  2D 40 00 48                   MOVE.l d0,$48(a6)
0022CE  2D 40 00 54                   MOVE.l d0,$54(a6)
0022D2  3D 44 00 58                   MOVE.w d4,$58(a6)
0022D6  08 2E 00 0E 00 02             BTST.b #$E,$2(a6)
0022DC  66 F8                         BNE $0022D6
0022DE  90 85                         SUB.l d5,d0
0022E0  94 85                         SUB.l d5,d2
0022E2  2D 41 00 4C                   MOVE.l d1,$4C(a6)
0022E6  48 EE 00 06 00 50             MOVEM.l d1-d2,$50(a6)
0022EC  2D 42 00 48                   MOVE.l d2,$48(a6)
0022F0  3D 43 00 58                   MOVE.w d3,$58(a6)
0022F4  08 2E 00 0E 00 02             BTST.b #$E,$2(a6)
0022FA  66 F8                         BNE $0022F4
0022FC  2D 40 00 48                   MOVE.l d0,$48(a6)
002300  2D 40 00 54                   MOVE.l d0,$54(a6)
002304  3D 44 00 58                   MOVE.w d4,$58(a6)
002308  08 2E 00 0E 00 02             BTST.b #$E,$2(a6)
00230E  66 F8                         BNE $002308
002310  90 85                         SUB.l d5,d0
002312  94 85                         SUB.l d5,d2
002314  2D 41 00 4C                   MOVE.l d1,$4C(a6)
002318  48 EE 00 06 00 50             MOVEM.l d1-d2,$50(a6)
00231E  2D 42 00 48                   MOVE.l d2,$48(a6)
002322  3D 43 00 58                   MOVE.w d3,$58(a6)
002326  08 2E 00 0E 00 02             BTST.b #$E,$2(a6)
00232C  66 F8                         BNE $002326
00232E  2D 40 00 48                   MOVE.l d0,$48(a6)
002332  2D 40 00 54                   MOVE.l d0,$54(a6)
002336  3D 44 00 58                   MOVE.w d4,$58(a6)
00233A  25 4B 00 14                   MOVE.l a3,$14(a2)
00233E  42 6B 00 04                   CLR.w $4(a3)
002342  2D 7C FF FE FF FE 00 62       MOVE.l #$FFFEFFFE,$62(a6)
00234A  4E 75                         RTS
00234C  4C AD 00 0C 00 18             MOVEM.w $18(a5),d2-d3
002352  D4 40                         ADD.w d0,d2
002354  D6 41                         ADD.w d1,d3
002356  94 78 01 20                   SUB.w $120.w,d2
00235A  96 78 01 22                   SUB.w $122.w,d3
00235E  48 AD 00 0C 00 18             MOVEM.w d2-d3,$18(a5)
002364  3B 7C 00 07 00 0C             MOVE.w #$7,$C(a5)
00236A  50 ED 00 1F                   ST $1F(a5)
00236E  2B 7C 00 00 23 84 00 22       MOVE.l #$2384,$22(a5)
002376  2B 7C 00 00 29 04 00 12       MOVE.l #$2904,$12(a5)
00237E  50 ED 00 1C                   ST $1C(a5)
002382  4E 75                         RTS
002384  .dc.b 4C AD 00 03 00 18 90 78 01 20 6B 00 F7 A8 92 78 ; L......x. k....x
002394  .dc.b 01 22 6B 00 F7 A0 B0 7C 01 50 6C 00 F7 98 B2 7C ; ."k....|.Pl....|
0023A4  .dc.b 00 D4 6C 00 F7 90 48 AD 00 03 00 18 10 2D 00 1F ; ..l...H......-..
0023B4  .dc.b C0 7C 00 01 91 6D 00 0C 6B 00 F7 7A 53 2D 00 1F ; .|...m..k..zS-..
0023C4  .dc.b 4E 75 00 00 00 00 00 00 00 00 00 00 00 00 00 00 ; Nu..............
0023D4  .dc.b 00 00 00 00 00 00 00 00 00 00 00 00 00 00 00 00 ; ................
0023E4  .dc.b 00 00 00 00 00 00 00 00 00 00 00 00 00 00 00 00 ; ................
0023F4  .dc.b 00 00 00 00 00 00 00 00 00 00 00 00 50 F8 01 5C ; ............P..\
002404  .dc.b 21 C8 28 5E 48 B8 00 03 01 66 42 B8 28 64 42 B8 ; !.(^H....fB.(dB.
002414  .dc.b 28 68 51 F8 28 62 42 38 01 C6 4E 75 50 F8 28 62 ; (hQ.(bB8..NuP.(b
002424  .dc.b 4E 75                                           ; Nu
002426  51 F8 01 5C                   SF $15C.w
00242A  3D 7C 09 F0 00 40             MOVE.w #$9F0,$40(a6)
002430  42 6E 00 42                   CLR.w $42(a6)
002434  70 FF                         MOVEQ #$FF,d0
002436  2D 40 00 44                   MOVE.l d0,$44(a6)
00243A  42 AE 00 64                   CLR.l $64(a6)
00243E  20 38 01 7A                   MOVE.l $17A.w,d0
002442  22 38 01 92                   MOVE.l $192.w,d1
002446  24 38 01 AA                   MOVE.l $1AA.w,d2
00244A  36 3C 80 30                   MOVE.w #$8030,d3
00244E  2D 42 00 50                   MOVE.l d2,$50(a6)
002452  2D 40 00 54                   MOVE.l d0,$54(a6)
002456  3D 43 00 58                   MOVE.w d3,$58(a6)
00245A  08 2E 00 0E 00 02             BTST.b #$E,$2(a6)
002460  66 F8                         BNE $00245A
002462  2D 42 00 50                   MOVE.l d2,$50(a6)
002466  2D 41 00 54                   MOVE.l d1,$54(a6)
00246A  3D 43 00 58                   MOVE.w d3,$58(a6)
00246E  08 2E 00 0E 00 02             BTST.b #$E,$2(a6)
002474  66 F8                         BNE $00246E
002476  4E 75                         RTS

; ==== sub_002478 (2 callers) ====
002478  4A 38 01 5C                   TST.b $15C.w
00247C  6B 02                         BMI $002480
00247E  4E 75                         RTS
002480  4A 38 28 62                   TST.b $2862.w
002484  66 A0                         BNE $002426
002486  20 78 28 5E                   MOVEA.l $285E.w,a0
00248A  2A 78 02 0E                   MOVEA.l $20E.w,a5
00248E  28 78 01 C2                   MOVEA.l $1C2.w,a4
002492  26 78 74 F2                   MOVEA.l $74F2.w,a3
002496  3E 28 00 0A                   MOVE.w $A(a0),d7
00249A  3C 28 00 08                   MOVE.w $8(a0),d6
00249E  22 68 00 00                   MOVEA.l $0(a0),a1
0024A2  24 68 00 04                   MOVEA.l $4(a0),a2
0024A6  42 AE 00 44                   CLR.l $44(a6)
0024AA  7A FC                         MOVEQ #$FC,d5
0024AC  30 38 01 66                   MOVE.w $166.w,d0
0024B0  D0 7C 00 20                   ADD.w #$20,d0
0024B4  90 78 01 72                   SUB.w $172.w,d0
0024B8  48 C0                         EXT.L d0
0024BA  E8 98                         ROR.l #4,d0
0024BC  4A 40                         TST.w d0
0024BE  6A 18                         BPL $0024D8
0024C0  B0 7C FF F5                   CMP.w #$FFF5,d0
0024C4  6E 02                         BGT $0024C8
0024C6  4E 75                         RTS
0024C8  DE 40                         ADD.w d0,d7
0024CA  D0 40                         ADD.w d0,d0
0024CC  92 C0                         SUBA.w d0,a1
0024CE  94 C0                         SUBA.w d0,a2
0024D0  9C 40                         SUB.w d0,d6
0024D2  9A 40                         SUB.w d0,d5
0024D4  42 40                         CLR.w d0
0024D6  60 16                         BRA $0024EE
0024D8  72 0D                         MOVEQ #$D,d1
0024DA  92 40                         SUB.w d0,d1
0024DC  6A 10                         BPL $0024EE
0024DE  B0 7C 00 18                   CMP.w #$18,d0
0024E2  6D 02                         BLT $0024E6
0024E4  4E 75                         RTS
0024E6  DE 41                         ADD.w d1,d7
0024E8  D2 41                         ADD.w d1,d1
0024EA  9C 41                         SUB.w d1,d6
0024EC  9A 41                         SUB.w d1,d5
0024EE  48 40                         SWAP d0
0024F0  C0 7C F0 00                   AND.w #$F000,d0
0024F4  3D 40 00 42                   MOVE.w d0,$42(a6)
0024F8  80 7C 0F CA                   OR.w #$FCA,d0
0024FC  3D 40 00 40                   MOVE.w d0,$40(a6)
002500  42 40                         CLR.w d0
002502  48 40                         SWAP d0
002504  32 38 01 68                   MOVE.w $168.w,d1
002508  76 00                         MOVEQ #$0,d3
00250A  16 28 00 0C                   MOVE.b $C(a0),d3
00250E  4A 41                         TST.w d1
002510  6A 20                         BPL $002532
002512  D6 41                         ADD.w d1,d3
002514  6A 02                         BPL $002518
002516  4E 75                         RTS
002518  66 02                         BNE $00251C
00251A  4E 75                         RTS
00251C  44 41                         NEG.w d1
00251E  D2 41                         ADD.w d1,d1
002520  34 01                         MOVE.w d1,d2
002522  38 02                         MOVE.w d2,d4
002524  E7 4A                         LSL.w #3,d2
002526  D4 41                         ADD.w d1,d2
002528  D2 C2                         ADDA.w d2,a1
00252A  D4 C2                         ADDA.w d2,a2
00252C  9E 73 10 00                   SUB.w $0(a3,d1.w),d7
002530  72 00                         MOVEQ #$0,d1
002532  92 78 01 74                   SUB.w $174.w,d1
002536  92 78 01 C0                   SUB.w $1C0.w,d1
00253A  C2 7C 00 FF                   AND.w #$FF,d1
00253E  28 00                         MOVE.l d0,d4
002540  D8 80                         ADD.l d0,d4
002542  34 01                         MOVE.w d1,d2
002544  D4 42                         ADD.w d2,d2
002546  D0 75 20 00                   ADD.w $0(a5,d2.w),d0
00254A  D0 80                         ADD.l d0,d0
00254C  3D 45 00 64                   MOVE.w d5,$64(a6)
002550  3D 45 00 62                   MOVE.w d5,$62(a6)
002554  3D 46 00 60                   MOVE.w d6,$60(a6)
002558  3D 46 00 66                   MOVE.w d6,$66(a6)
00255C  3C 28 00 0E                   MOVE.w $E(a0),d6
002560  4A 38 01 C6                   TST.b $1C6.w
002564  66 00 01 6C                   BNE $0026D2
002568  D2 03                         ADD.b d3,d1
00256A  65 00 00 56                   BCS $0025C2
00256E  D0 AC 00 04                   ADD.l $4(a4),d0
002572  59 80                         SUBQ.l #4,d0
002574  22 00                         MOVE.l d0,d1
002576  D2 AC 00 0C                   ADD.l $C(a4),d1
00257A  2D 4A 00 50                   MOVE.l a2,$50(a6)
00257E  2D 49 00 4C                   MOVE.l a1,$4C(a6)
002582  2D 41 00 48                   MOVE.l d1,$48(a6)
002586  2D 40 00 54                   MOVE.l d0,$54(a6)
00258A  3D 47 00 58                   MOVE.w d7,$58(a6)
00258E  08 2E 00 0E 00 02             BTST.b #$E,$2(a6)
002594  66 F8                         BNE $00258E
002596  78 30                         MOVEQ #$30,d4
002598  7A 02                         MOVEQ #$2,d5
00259A  D0 84                         ADD.l d4,d0
00259C  D2 84                         ADD.l d4,d1
00259E  D2 C6                         ADDA.w d6,a1
0025A0  2D 4A 00 50                   MOVE.l a2,$50(a6)
0025A4  2D 49 00 4C                   MOVE.l a1,$4C(a6)
0025A8  2D 41 00 48                   MOVE.l d1,$48(a6)
0025AC  2D 40 00 54                   MOVE.l d0,$54(a6)
0025B0  3D 47 00 58                   MOVE.w d7,$58(a6)
0025B4  08 2E 00 0E 00 02             BTST.b #$E,$2(a6)
0025BA  66 F8                         BNE $0025B4
0025BC  51 CD FF DC                   DBRA d5,$00259A
0025C0  4E 75                         RTS
0025C2  67 AA                         BEQ $00256E
0025C4  3A 01                         MOVE.w d1,d5
0025C6  D0 AC 00 04                   ADD.l $4(a4),d0
0025CA  59 80                         SUBQ.l #4,d0
0025CC  22 00                         MOVE.l d0,d1
0025CE  D2 AC 00 0C                   ADD.l $C(a4),d1
0025D2  24 04                         MOVE.l d4,d2
0025D4  D4 AC 00 04                   ADD.l $4(a4),d2
0025D8  59 82                         SUBQ.l #4,d2
0025DA  26 02                         MOVE.l d2,d3
0025DC  D6 AC 00 0C                   ADD.l $C(a4),d3
0025E0  DA 45                         ADD.w d5,d5
0025E2  38 33 50 00                   MOVE.w $0(a3,d5.w),d4
0025E6  9E 44                         SUB.w d4,d7
0025E8  3A 07                         MOVE.w d7,d5
0025EA  CA 7C 00 3F                   AND.w #$3F,d5
0025EE  8A 44                         OR.w d4,d5
0025F0  2D 4A 00 50                   MOVE.l a2,$50(a6)
0025F4  2D 49 00 4C                   MOVE.l a1,$4C(a6)
0025F8  2D 41 00 48                   MOVE.l d1,$48(a6)
0025FC  2D 40 00 54                   MOVE.l d0,$54(a6)
002600  3D 47 00 58                   MOVE.w d7,$58(a6)
002604  08 2E 00 0E 00 02             BTST.b #$E,$2(a6)
00260A  66 F8                         BNE $002604
00260C  2D 43 00 48                   MOVE.l d3,$48(a6)
002610  2D 42 00 54                   MOVE.l d2,$54(a6)
002614  3D 45 00 58                   MOVE.w d5,$58(a6)
002618  08 2E 00 0E 00 02             BTST.b #$E,$2(a6)
00261E  66 F8                         BNE $002618
002620  78 30                         MOVEQ #$30,d4
002622  D0 84                         ADD.l d4,d0
002624  D4 84                         ADD.l d4,d2
002626  D2 84                         ADD.l d4,d1
002628  D6 84                         ADD.l d4,d3
00262A  D2 C6                         ADDA.w d6,a1
00262C  2D 4A 00 50                   MOVE.l a2,$50(a6)
002630  2D 49 00 4C                   MOVE.l a1,$4C(a6)
002634  2D 41 00 48                   MOVE.l d1,$48(a6)
002638  2D 40 00 54                   MOVE.l d0,$54(a6)
00263C  3D 47 00 58                   MOVE.w d7,$58(a6)
002640  08 2E 00 0E 00 02             BTST.b #$E,$2(a6)
002646  66 F8                         BNE $002640
002648  2D 43 00 48                   MOVE.l d3,$48(a6)
00264C  2D 42 00 54                   MOVE.l d2,$54(a6)
002650  3D 45 00 58                   MOVE.w d5,$58(a6)
002654  08 2E 00 0E 00 02             BTST.b #$E,$2(a6)
00265A  66 F8                         BNE $002654
00265C  D0 84                         ADD.l d4,d0
00265E  D4 84                         ADD.l d4,d2
002660  D2 84                         ADD.l d4,d1
002662  D6 84                         ADD.l d4,d3
002664  D2 C6                         ADDA.w d6,a1
002666  2D 4A 00 50                   MOVE.l a2,$50(a6)
00266A  2D 49 00 4C                   MOVE.l a1,$4C(a6)
00266E  2D 41 00 48                   MOVE.l d1,$48(a6)
002672  2D 40 00 54                   MOVE.l d0,$54(a6)
002676  3D 47 00 58                   MOVE.w d7,$58(a6)
00267A  08 2E 00 0E 00 02             BTST.b #$E,$2(a6)
002680  66 F8                         BNE $00267A
002682  2D 43 00 48                   MOVE.l d3,$48(a6)
002686  2D 42 00 54                   MOVE.l d2,$54(a6)
00268A  3D 45 00 58                   MOVE.w d5,$58(a6)
00268E  08 2E 00 0E 00 02             BTST.b #$E,$2(a6)
002694  66 F8                         BNE $00268E
002696  D0 84                         ADD.l d4,d0
002698  D4 84                         ADD.l d4,d2
00269A  D2 84                         ADD.l d4,d1
00269C  D6 84                         ADD.l d4,d3
00269E  D2 C6                         ADDA.w d6,a1
0026A0  2D 4A 00 50                   MOVE.l a2,$50(a6)
0026A4  2D 49 00 4C                   MOVE.l a1,$4C(a6)
0026A8  2D 41 00 48                   MOVE.l d1,$48(a6)
0026AC  2D 40 00 54                   MOVE.l d0,$54(a6)
0026B0  3D 47 00 58                   MOVE.w d7,$58(a6)
0026B4  08 2E 00 0E 00 02             BTST.b #$E,$2(a6)
0026BA  66 F8                         BNE $0026B4
0026BC  2D 43 00 48                   MOVE.l d3,$48(a6)
0026C0  2D 42 00 54                   MOVE.l d2,$54(a6)
0026C4  3D 45 00 58                   MOVE.w d5,$58(a6)
0026C8  08 2E 00 0E 00 02             BTST.b #$E,$2(a6)
0026CE  66 F8                         BNE $0026C8
0026D0  4E 75                         RTS
0026D2  53 38 01 C6                   SUBQ.b #1,$1C6.w
0026D6  67 00 FE 90                   BEQ $002568
0026DA  D2 03                         ADD.b d3,d1
0026DC  65 00 00 80                   BCS $00275E
0026E0  D0 AC 00 04                   ADD.l $4(a4),d0
0026E4  59 80                         SUBQ.l #4,d0
0026E6  22 00                         MOVE.l d0,d1
0026E8  D2 AC 00 0C                   ADD.l $C(a4),d1
0026EC  2D 4A 00 50                   MOVE.l a2,$50(a6)
0026F0  2D 49 00 4C                   MOVE.l a1,$4C(a6)
0026F4  2D 41 00 48                   MOVE.l d1,$48(a6)
0026F8  2D 40 00 54                   MOVE.l d0,$54(a6)
0026FC  3D 47 00 58                   MOVE.w d7,$58(a6)
002700  08 2E 00 0E 00 02             BTST.b #$E,$2(a6)
002706  66 F8                         BNE $002700
002708  D0 BC 00 00 00 30             ADD.l #$30,d0
00270E  D2 BC 00 00 00 30             ADD.l #$30,d1
002714  D2 C6                         ADDA.w d6,a1
002716  2D 4A 00 50                   MOVE.l a2,$50(a6)
00271A  2D 49 00 4C                   MOVE.l a1,$4C(a6)
00271E  2D 41 00 48                   MOVE.l d1,$48(a6)
002722  2D 40 00 54                   MOVE.l d0,$54(a6)
002726  3D 47 00 58                   MOVE.w d7,$58(a6)
00272A  08 2E 00 0E 00 02             BTST.b #$E,$2(a6)
002730  66 F8                         BNE $00272A
002732  78 30                         MOVEQ #$30,d4
002734  7A 01                         MOVEQ #$1,d5
002736  D0 84                         ADD.l d4,d0
002738  D2 84                         ADD.l d4,d1
00273A  D2 C6                         ADDA.w d6,a1
00273C  2D 4A 00 50                   MOVE.l a2,$50(a6)
002740  2D 4A 00 4C                   MOVE.l a2,$4C(a6)
002744  2D 41 00 48                   MOVE.l d1,$48(a6)
002748  2D 40 00 54                   MOVE.l d0,$54(a6)
00274C  3D 47 00 58                   MOVE.w d7,$58(a6)
002750  08 2E 00 0E 00 02             BTST.b #$E,$2(a6)
002756  66 F8                         BNE $002750
002758  51 CD FF DC                   DBRA d5,$002736
00275C  4E 75                         RTS
00275E  67 80                         BEQ $0026E0
002760  3A 01                         MOVE.w d1,d5
002762  D0 AC 00 04                   ADD.l $4(a4),d0
002766  59 80                         SUBQ.l #4,d0
002768  22 00                         MOVE.l d0,d1
00276A  D2 AC 00 0C                   ADD.l $C(a4),d1
00276E  24 04                         MOVE.l d4,d2
002770  D4 AC 00 04                   ADD.l $4(a4),d2
002774  59 82                         SUBQ.l #4,d2
002776  26 02                         MOVE.l d2,d3
002778  D6 AC 00 0C                   ADD.l $C(a4),d3
00277C  DA 45                         ADD.w d5,d5
00277E  38 33 50 00                   MOVE.w $0(a3,d5.w),d4
002782  9E 44                         SUB.w d4,d7
002784  3A 07                         MOVE.w d7,d5
002786  CA 7C 00 3F                   AND.w #$3F,d5
00278A  8A 44                         OR.w d4,d5
00278C  2D 4A 00 50                   MOVE.l a2,$50(a6)
002790  2D 49 00 4C                   MOVE.l a1,$4C(a6)
002794  2D 41 00 48                   MOVE.l d1,$48(a6)
002798  2D 40 00 54                   MOVE.l d0,$54(a6)
00279C  3D 47 00 58                   MOVE.w d7,$58(a6)
0027A0  08 2E 00 0E 00 02             BTST.b #$E,$2(a6)
0027A6  66 F8                         BNE $0027A0
0027A8  2D 43 00 48                   MOVE.l d3,$48(a6)
0027AC  2D 42 00 54                   MOVE.l d2,$54(a6)
0027B0  3D 45 00 58                   MOVE.w d5,$58(a6)
0027B4  08 2E 00 0E 00 02             BTST.b #$E,$2(a6)
0027BA  66 F8                         BNE $0027B4
0027BC  78 30                         MOVEQ #$30,d4
0027BE  D0 84                         ADD.l d4,d0
0027C0  D4 84                         ADD.l d4,d2
0027C2  D2 84                         ADD.l d4,d1
0027C4  D6 84                         ADD.l d4,d3
0027C6  D2 C6                         ADDA.w d6,a1
0027C8  2D 4A 00 50                   MOVE.l a2,$50(a6)
0027CC  2D 49 00 4C                   MOVE.l a1,$4C(a6)
0027D0  2D 41 00 48                   MOVE.l d1,$48(a6)
0027D4  2D 40 00 54                   MOVE.l d0,$54(a6)
0027D8  3D 47 00 58                   MOVE.w d7,$58(a6)
0027DC  08 2E 00 0E 00 02             BTST.b #$E,$2(a6)
0027E2  66 F8                         BNE $0027DC
0027E4  2D 43 00 48                   MOVE.l d3,$48(a6)
0027E8  2D 42 00 54                   MOVE.l d2,$54(a6)
0027EC  3D 45 00 58                   MOVE.w d5,$58(a6)
0027F0  08 2E 00 0E 00 02             BTST.b #$E,$2(a6)
0027F6  66 F8                         BNE $0027F0
0027F8  D0 84                         ADD.l d4,d0
0027FA  D4 84                         ADD.l d4,d2
0027FC  D2 84                         ADD.l d4,d1
0027FE  D6 84                         ADD.l d4,d3
002800  D2 C6                         ADDA.w d6,a1
002802  2D 4A 00 50                   MOVE.l a2,$50(a6)
002806  2D 4A 00 4C                   MOVE.l a2,$4C(a6)
00280A  2D 41 00 48                   MOVE.l d1,$48(a6)
00280E  2D 40 00 54                   MOVE.l d0,$54(a6)
002812  3D 47 00 58                   MOVE.w d7,$58(a6)
002816  08 2E 00 0E 00 02             BTST.b #$E,$2(a6)
00281C  66 F8                         BNE $002816
00281E  2D 43 00 48                   MOVE.l d3,$48(a6)
002822  2D 42 00 54                   MOVE.l d2,$54(a6)
002826  3D 45 00 58                   MOVE.w d5,$58(a6)
00282A  D0 84                         ADD.l d4,d0
00282C  D4 84                         ADD.l d4,d2
00282E  D2 84                         ADD.l d4,d1
002830  D6 84                         ADD.l d4,d3
002832  D2 C6                         ADDA.w d6,a1
002834  2D 4A 00 50                   MOVE.l a2,$50(a6)
002838  2D 4A 00 4C                   MOVE.l a2,$4C(a6)
00283C  2D 41 00 48                   MOVE.l d1,$48(a6)
002840  2D 40 00 54                   MOVE.l d0,$54(a6)
002844  3D 47 00 58                   MOVE.w d7,$58(a6)
002848  08 2E 00 0E 00 02             BTST.b #$E,$2(a6)
00284E  66 F8                         BNE $002848
002850  2D 43 00 48                   MOVE.l d3,$48(a6)
002854  2D 42 00 54                   MOVE.l d2,$54(a6)
002858  3D 45 00 58                   MOVE.w d5,$58(a6)
00285C  4E 75                         RTS
00285E  .dc.b 00 00 00 00 00 00 00 00 00 00 00 00 00 00 00 00 ; ................
00286E  .dc.b 00 00 4A 2D 00 1E 6A 2C 4A 38 28 F0 67 04 60 00 ; ..J-..j,J8(.g.`.
00287E  .dc.b F3 00 50 F8 28 F0 2B 7C 00 00 28 F2 00 12 51 ED ; ..P.(.+|..(...Q.
00288E  .dc.b 00 1E 51 ED 00 1C 50 ED 00 1F 42 6D 00 0C 42 6D ; ..Q...P...Bm..Bm
00289E  .dc.b 00 2E 4E 75 4C AD 00 03 00 18 90 78 01 20 92 78 ; ..NuL......x. .x
0028AE  .dc.b 01 22 48 AD 00 03 00 18 B0 7C FF E0 6D 00 00 2C ; ."H......|..m..,
0028BE  .dc.b B0 7C FF E0 6D 00 00 24 B0 7C 01 70 6E 00 00 1C ; .|..m..$.|.pn...
0028CE  .dc.b B2 7C 00 F4 6E 00 00 14 53 6D 00 2E 6A 0A 70 14 ; .|..n...Sm..j.p.
0028DE  .dc.b 46 2D 00 1C 3B 40 00 2E 4E 75 51 F8 28 F0 60 00 ; F-..;@..NuQ.(.`.
0028EE  .dc.b F2 90 00 00 00 00 28 F6 00 01 7B 68 00 01 7B F8 ; ......(...{h..{.
0028FE  .dc.b 00 BA 03 03 0C 00 00 00 29 86 00 00 29 78 00 00 ; ........)...)x..
00290E  .dc.b 29 6A 00 00 29 5C 00 00 29 4E 00 00 29 40 00 00 ; )j..)\..)N..)@..
00291E  .dc.b 29 32 00 00 29 24 00 01 17 E8 00 01 19 68 00 BA ; )2..)$.......h..
00292E  .dc.b 08 03 20 00 00 01 19 E8 00 01 1B 68 00 BA 08 03 ; .. ........h....
00293E  .dc.b 20 00 00 01 1B E8 00 01 1D 68 00 BA 08 03 20 00 ;  ........h.... .
00294E  .dc.b 00 01 1D E8 00 01 1F 68 00 BA 08 03 20 00 00 01 ; .......h.... ...
00295E  .dc.b 1F E8 00 01 21 68 00 BA 08 03 20 00 00 01 21 E8 ; ....!h.... ...!.
00296E  .dc.b 00 01 23 68 00 BA 08 03 20 00 00 01 23 E8 00 01 ; ..#h.... ...#...
00297E  .dc.b 25 68 00 BA 08 03 20 00 00 01 25 E8 00 01 27 68 ; %h.... ...%...'h
00298E  .dc.b 00 BA 08 03 20 00                               ; .... .

; ==== sub_002994 (1 caller) ====
002994  21 C8 35 D8                   MOVE.l a0,$35D8.w
002998  21 C9 02 2A                   MOVE.l a1,$22A.w
00299C  21 CA 35 DC                   MOVE.l a2,$35DC.w
0029A0  48 B8 00 03 01 F6             MOVEM.w d0-d1,$1F6.w
0029A6  48 B8 00 0C 35 E0             MOVEM.w d2-d3,$35E0.w
0029AC  4A 50                         TST.w (a0)
0029AE  66 04                         BNE $0029B4
0029B0  61 00 4A C6                   BSR $007478
0029B4  24 78 02 2E                   MOVEA.l $22E.w,a2
0029B8  78 00                         MOVEQ #$0,d4
0029BA  3A 02                         MOVE.w d2,d5
0029BC  54 45                         ADDQ.w #2,d5
0029BE  34 C4                         MOVE.w d4,(a2)+
0029C0  D8 43                         ADD.w d3,d4
0029C2  51 CD FF FA                   DBRA d5,$0029BE
0029C6  42 9A                         CLR.l (a2)+
0029C8  42 9A                         CLR.l (a2)+
0029CA  28 00                         MOVE.l d0,d4
0029CC  E5 4C                         LSL.w #2,d4
0029CE  2A 04                         MOVE.l d4,d5
0029D0  DA BC 00 05 B6 C0             ADD.l #$5B6C0,d5
0029D6  21 C5 02 12                   MOVE.l d5,$212.w
0029DA  D8 BC 00 05 BC E0             ADD.l #$5BCE0,d4
0029E0  21 C4 01 7A                   MOVE.l d4,$17A.w
0029E4  21 C4 01 7E                   MOVE.l d4,$17E.w
0029E8  D8 BC 00 00 C0 00             ADD.l #$C000,d4
0029EE  21 C4 01 92                   MOVE.l d4,$192.w
0029F2  21 C4 01 96                   MOVE.l d4,$196.w
0029F6  D8 BC 00 00 C0 00             ADD.l #$C000,d4
0029FC  21 C4 01 AA                   MOVE.l d4,$1AA.w
002A00  21 C4 01 AE                   MOVE.l d4,$1AE.w
002A04  3D 7C 09 F0 00 40             MOVE.w #$9F0,$40(a6)
002A0A  42 6E 00 42                   CLR.w $42(a6)
002A0E  2D 7C FF FF FF FF 00 44       MOVE.l #$FFFFFFFF,$44(a6)
002A16  42 6E 00 64                   CLR.w $64(a6)
002A1A  3D 7C 00 2C 00 66             MOVE.w #$2C,$66(a6)
002A20  24 78 02 2E                   MOVEA.l $22E.w,a2
002A24  D0 40                         ADD.w d0,d0
002A26  D2 72 00 00                   ADD.w $0(a2,d0.w),d1
002A2A  D2 C1                         ADDA.w d1,a1
002A2C  20 38 01 AA                   MOVE.l $1AA.w,d0
002A30  32 3C 20 02                   MOVE.w #$2002,d1
002A34  34 03                         MOVE.w d3,d2
002A36  51 42                         SUBQ.w #8,d2
002A38  24 79 00 00 02 12             MOVEA.l $212.l,a2
002A3E  26 79 00 00 35 DC             MOVEA.l $35DC.l,a3
002A44  78 0B                         MOVEQ #$B,d4
002A46  7A 07                         MOVEQ #$7,d5
002A48  28 4A                         MOVEA.l a2,a4
002A4A  2D 40 00 54                   MOVE.l d0,$54(a6)
002A4E  76 00                         MOVEQ #$0,d3
002A50  16 19                         MOVE.b (a1)+,d3
002A52  D6 43                         ADD.w d3,d3
002A54  D6 43                         ADD.w d3,d3
002A56  2D 70 30 00 00 50             MOVE.l $0(a0,d3.w),$50(a6)
002A5C  3D 41 00 58                   MOVE.w d1,$58(a6)
002A60  D6 43                         ADD.w d3,d3
002A62  D6 43                         ADD.w d3,d3
002A64  4B F3 30 00                   LEA $0(a3,d3.w),a5
002A68  28 9D                         MOVE.l (a5)+,(a4)
002A6A  29 5D 00 30                   MOVE.l (a5)+,$30(a4)
002A6E  29 5D 00 60                   MOVE.l (a5)+,$60(a4)
002A72  29 5D 00 90                   MOVE.l (a5)+,$90(a4)
002A76  D8 FC 00 C0                   ADDA.w #$C0,a4
002A7A  08 2E 00 0E 00 02             BTST.b #$E,$2(a6)
002A80  66 F8                         BNE $002A7A
002A82  51 CD FF CA                   DBRA d5,$002A4E
002A86  D2 C2                         ADDA.w d2,a1
002A88  58 80                         ADDQ.l #4,d0
002A8A  58 8A                         ADDQ.l #4,a2
002A8C  51 CC FF B8                   DBRA d4,$002A46
002A90  42 38 02 77                   CLR.b $277.w
002A94  42 38 02 28                   CLR.b $228.w
002A98  31 FC 00 00 01 72             MOVE.w #$0,$172.w
002A9E  31 FC 00 00 01 74             MOVE.w #$0,$174.w
002AA4  31 FC FF E0 01 BE             MOVE.w #$FFE0,$1BE.w
002AAA  42 78 01 20                   CLR.w $120.w
002AAE  42 78 01 22                   CLR.w $122.w
002AB2  42 78 35 EC                   CLR.w $35EC.w
002AB6  42 78 35 EE                   CLR.w $35EE.w
002ABA  42 78 35 F2                   CLR.w $35F2.w
002ABE  4C B8 00 03 01 F6             MOVEM.w $1F6.w,d0-d1
002AC4  52 40                         ADDQ.w #1,d0
002AC6  52 41                         ADDQ.w #1,d1
002AC8  4C B8 00 0C 01 72             MOVEM.w $172.w,d2-d3
002ACE  E6 4A                         LSR.w #3,d2
002AD0  E6 4B                         LSR.w #3,d3
002AD2  D0 40                         ADD.w d0,d0
002AD4  D0 40                         ADD.w d0,d0
002AD6  D2 41                         ADD.w d1,d1
002AD8  D2 41                         ADD.w d1,d1
002ADA  90 42                         SUB.w d2,d0
002ADC  92 43                         SUB.w d3,d1
002ADE  48 B8 00 03 01 58             MOVEM.w d0-d1,$158.w
002AE4  61 00 4B 1E                   BSR $007604
002AE8  41 F8 01 76                   LEA $176.w,a0
002AEC  61 00 07 6A                   BSR $003258
002AF0  41 F8 01 8E                   LEA $18E.w,a0
002AF4  61 00 07 62                   BSR $003258
002AF8  51 F8 70 6A                   SF $706A.w
002AFC  61 00 43 7E                   BSR $006E7C
002B00  61 00 4A B0                   BSR $0075B2
002B04  61 00 43 76                   BSR $006E7C
002B08  42 6E 00 66                   CLR.w $66(a6)
002B0C  2D 78 01 AA 00 50             MOVE.l $1AA.w,$50(a6)
002B12  2D 78 01 92 00 54             MOVE.l $192.w,$54(a6)
002B18  3D 7C 80 30 00 58             MOVE.w #$8030,$58(a6)
002B1E  08 2E 00 0E 00 02             BTST.b #$E,$2(a6)
002B24  66 F8                         BNE $002B1E
002B26  20 38 01 AA                   MOVE.l $1AA.w,d0
002B2A  22 38 01 7A                   MOVE.l $17A.w,d1
002B2E  48 EE 00 03 00 50             MOVEM.l d0-d1,$50(a6)
002B34  3D 7C 10 30 00 58             MOVE.w #$1030,$58(a6)
002B3A  08 2E 00 0E 00 02             BTST.b #$E,$2(a6)
002B40  66 F8                         BNE $002B3A
002B42  24 00                         MOVE.l d0,d2
002B44  26 01                         MOVE.l d1,d3
002B46  D4 BC 00 00 9F 00             ADD.l #$9F00,d2
002B4C  D6 BC 00 00 9F 00             ADD.l #$9F00,d3
002B52  48 EE 00 0C 00 50             MOVEM.l d2-d3,$50(a6)
002B58  3D 7C 16 30 00 58             MOVE.w #$1630,$58(a6)
002B5E  08 2E 00 0E 00 02             BTST.b #$E,$2(a6)
002B64  66 F8                         BNE $002B5E
002B66  D0 BC 00 00 17 FC             ADD.l #$17FC,d0
002B6C  D2 BC 00 00 17 FC             ADD.l #$17FC,d1
002B72  48 EE 00 03 00 50             MOVEM.l d0-d1,$50(a6)
002B78  3D 7C 00 28 00 64             MOVE.w #$28,$64(a6)
002B7E  3D 7C 00 28 00 66             MOVE.w #$28,$66(a6)
002B84  3D 7C B5 04 00 58             MOVE.w #$B504,$58(a6)
002B8A  41 F8 35 F8                   LEA $35F8.w,a0
002B8E  42 68 00 00                   CLR.w $0(a0)
002B92  41 F8 36 0E                   LEA $360E.w,a0
002B96  42 68 00 00                   CLR.w $0(a0)
002B9A  41 F8 37 80                   LEA $3780.w,a0
002B9E  43 F8 37 B4                   LEA $37B4.w,a1
002BA2  70 00                         MOVEQ #$0,d0
002BA4  72 0B                         MOVEQ #$B,d1
002BA6  30 18                         MOVE.w (a0)+,d0
002BA8  C0 F8 35 E2                   MULU.W $35E2.w,d0
002BAC  30 C0                         MOVE.w d0,(a0)+
002BAE  30 19                         MOVE.w (a1)+,d0
002BB0  C0 F8 35 E2                   MULU.W $35E2.w,d0
002BB4  32 C0                         MOVE.w d0,(a1)+
002BB6  51 C9 FF EE                   DBRA d1,$002BA6
002BBA  4C B8 00 03 35 E0             MOVEM.w $35E0.w,d0-d1
002BC0  90 7C 00 0B                   SUB.w #$B,d0
002BC4  92 7C 00 08                   SUB.w #$8,d1
002BC8  48 B8 00 03 35 E4             MOVEM.w d0-d1,$35E4.w
002BCE  4C B8 00 03 01 F6             MOVEM.w $1F6.w,d0-d1
002BD4  EB 48                         LSL.w #5,d0
002BD6  EB 49                         LSL.w #5,d1
002BD8  48 B8 00 03 35 E8             MOVEM.w d0-d1,$35E8.w
002BDE  70 0A                         MOVEQ #$A,d0
002BE0  2F 38 01 F6                   MOVE.l $1F6.w,-(a7)
002BE4  2F 38 01 AA                   MOVE.l $1AA.w,-(a7)
002BE8  2F 38 02 12                   MOVE.l $212.w,-(a7)
002BEC  06 78 00 0A 01 F6             ADDI.w #$A,$1F6.w
002BF2  06 B8 00 00 00 28 01 AA       ADDI.l #$28,$1AA.w
002BFA  06 B8 00 00 00 28 02 12       ADDI.l #$28,$212.w
002C02  3F 00                         MOVE.w d0,-(a7)
002C04  4C B8 00 03 01 F6             MOVEM.w $1F6.w,d0-d1
002C0A  4C B8 00 0C 01 F6             MOVEM.w $1F6.w,d2-d3
002C10  90 7C 00 0A                   SUB.w #$A,d0
002C14  5D 41                         SUBQ.w #6,d1
002C16  78 00                         MOVEQ #$0,d4
002C18  7A 00                         MOVEQ #$0,d5
002C1A  7C 01                         MOVEQ #$1,d6
002C1C  4C B8 01 80 01 F6             MOVEM.w $1F6.w,d7/a0
002C22  DE 44                         ADD.w d4,d7
002C24  DE 47                         ADD.w d7,d7
002C26  22 78 02 2E                   MOVEA.l $22E.w,a1
002C2A  D0 F1 70 00                   ADDA.w $0(a1,d7.w),a0
002C2E  D1 F8 02 2A                   ADDA.l $22A.w,a0
002C32  7E 06                         MOVEQ #$6,d7
002C34  24 78 19 46                   MOVEA.l $1946.w,a2
002C38  4E 92                         JSR (a2)
002C3A  30 1F                         MOVE.w (a7)+,d0
002C3C  53 78 01 F6                   SUBQ.w #1,$1F6.w
002C40  59 B8 01 AA                   SUBQ.l #4,$1AA.w
002C44  59 B8 02 12                   SUBQ.l #4,$212.w
002C48  51 C8 FF B8                   DBRA d0,$002C02
002C4C  21 DF 02 12                   MOVE.l (a7)+,$212.w
002C50  21 DF 01 AA                   MOVE.l (a7)+,$1AA.w
002C54  21 DF 01 F6                   MOVE.l (a7)+,$1F6.w
002C58  4E 75                         RTS

; ==== sub_002C5A (1 caller) ====
002C5A  74 00                         MOVEQ #$0,d2
002C5C  76 00                         MOVEQ #$0,d3
002C5E  4A 40                         TST.w d0
002C60  66 0A                         BNE $002C6C
002C62  34 38 35 F2                   MOVE.w $35F2.w,d2
002C66  C4 7C 00 02                   AND.w #$2,d2
002C6A  60 04                         BRA $002C70
002C6C  6A 02                         BPL $002C70
002C6E  74 02                         MOVEQ #$2,d2
002C70  4A 41                         TST.w d1
002C72  66 0A                         BNE $002C7E
002C74  36 38 35 F2                   MOVE.w $35F2.w,d3
002C78  C6 7C 00 01                   AND.w #$1,d3
002C7C  60 04                         BRA $002C82
002C7E  6A 02                         BPL $002C82
002C80  76 01                         MOVEQ #$1,d3
002C82  D4 43                         ADD.w d3,d2
002C84  36 38 35 F2                   MOVE.w $35F2.w,d3
002C88  48 B8 00 03 01 20             MOVEM.w d0-d1,$120.w
002C8E  31 C2 35 F2                   MOVE.w d2,$35F2.w
002C92  B4 43                         CMP.w d3,d2
002C94  67 1A                         BEQ $002CB0
002C96  E5 4B                         LSL.w #2,d3
002C98  86 42                         OR.w d2,d3
002C9A  D6 43                         ADD.w d3,d3
002C9C  D6 43                         ADD.w d3,d3
002C9E  41 F8 2C B2                   LEA $2CB2.w,a0
002CA2  20 70 30 00                   MOVEA.l $0(a0,d3.w),a0
002CA6  48 A7 E0 00                   MOVEM.w d0-d2,-(a7)
002CAA  4E 90                         JSR (a0)
002CAC  4C 9F 00 07                   MOVEM.w (a7)+,d0-d2
002CB0  4E 75                         RTS
002CB2  .dc.b 00 00 2C F2 00 00 2C F4 00 00 2D 00 00 00 2C FA ; ..,...,...-...,.
002CC2  .dc.b 00 00 2D 06 00 00 2C F2 00 00 2D 0C 00 00 2D 12 ; ..-...,...-...-.
002CD2  .dc.b 00 00 2D 18 00 00 2D 1E 00 00 2C F2 00 00 2D 24 ; ..-...-...,...-$
002CE2  .dc.b 00 00 2D 2A 00 00 2D 30 00 00 2D 36 00 00 2C F2 ; ..-*..-0..-6..,.
002CF2  .dc.b 4E 75 70 00 60 00 00 B0 70 00 61 00 00 AA 70 00 ; Nup.`...p.a...p.
002D02  .dc.b 60 00 00 38 70 01 60 00 00 9E 70 01 61 00 00 98 ; `..8p.`...p.a...
002D12  .dc.b 70 00 60 00 00 26 70 01 60 00 00 20 70 01 61 00 ; p.`..&p.`.. p.a.
002D22  .dc.b 00 1A 70 00 60 00 00 80 70 01 61 00 00 7A 70 01 ; ..p.`...p.a..zp.
002D32  .dc.b 60 00 00 08 70 01 60 00 00 6E 41 F8 35 F8 3E 00 ; `...p.`..nA.5.>.
002D42  .dc.b 70 00 72 00 4C B8 00 03 01 F6 4A 47 67 0C D0 7C ; p.r.L.....JGg..|
002D52  .dc.b 00 0B 24 3C 00 00 36 80 60 14 53 40 6A 0A 42 68 ; ..$<..6.`.S@j.Bh
002D62  .dc.b 00 00 30 07 60 00 00 1C 24 3C 00 00 37 00 76 08 ; ..0.`...$<..7.v.
002D72  .dc.b 61 00 03 5E 30 07 66 06 52 78 35 EC 60 04 53 78 ; a..^0.f.Rx5.`.Sx
002D82  .dc.b 35 EC 45 F8 36 0E 4A 6A 00 00 67 18 4A 40 66 06 ; 5.E.6.Jj..g.J@f.
002D92  .dc.b 43 F8 37 80 60 04 43 F8 37 B4 25 49 00 02 35 7C ; C.7.`.C.7.%I..5|
002DA2  .dc.b 00 0C 00 00 4E 75 41 F8 36 0E 3E 00 70 00 72 00 ; ....NuA.6.>.p.r.
002DB2  .dc.b 4C B8 00 03 01 F6 4A 47 67 04 5E 41 60 0E 53 41 ; L.....JGg.^A`.SA
002DC2  .dc.b 6A 0A 42 78 36 0E 30 07 60 00 00 26 34 38 01 BE ; j.Bx6.0.`..&48..
002DD2  .dc.b C4 7C FF E0 76 0C 61 00 04 C2 30 38 01 74 D1 78 ; .|..v.a...08.t.x
002DE2  .dc.b 01 BE 30 07 66 06 52 78 35 EE 60 04 53 78 35 EE ; ..0.f.Rx5.`.Sx5.
002DF2  .dc.b 45 F8 35 F8 4A 6A 00 00 67 18 4A 40 66 06 43 F8 ; E.5.Jj..g.J@f.C.
002E02  .dc.b 36 38 60 04 43 F8 36 5C 25 49 00 02 35 7C 00 08 ; 68`.C.6\%I..5|..
002E12  .dc.b 00 00 4E 75 70 01 72 01 61 00 FE 3E 70 FF 72 FF ; ..Nup.r.a..>p.r.
002E22  .dc.b 61 00 FE 36 70 00 72 00 60 00 FE 2E             ; a..6p.r.`...
002E2E  21 F8 01 72 2E A4             MOVE.l $172.w,$2EA4.w
002E34  42 B8 01 20                   CLR.l $120.w
002E38  50 F8 02 77                   ST $277.w
002E3C  4E 75                         RTS
002E3E  21 F8 01 72 2E A4             MOVE.l $172.w,$2EA4.w
002E44  21 F8 01 20 2E A8             MOVE.l $120.w,$2EA8.w
002E4A  11 FC 00 02 02 77             MOVE.b #$2,$277.w
002E50  42 78 01 20                   CLR.w $120.w
002E54  4E 75                         RTS
002E56  .dc.b 21 F8 01 72 2E A4 21 F8 01 20 2E A8 11 FC 00 01 ; !..r..!.. ......
002E66  .dc.b 02 77 42 78 01 22 4E 75                         ; .wBx."Nu
002E6E  11 FC 00 03 02 77             MOVE.b #$3,$277.w
002E74  4E 75                         RTS
002E76  11 FC 00 04 02 77             MOVE.b #$4,$277.w
002E7C  4C B9 00 03 00 00 01 72       MOVEM.w $172.l,d0-d1
002E84  90 78 2E A4                   SUB.w $2EA4.w,d0
002E88  92 78 2E A6                   SUB.w $2EA6.w,d1
002E8C  48 B8 00 03 01 20             MOVEM.w d0-d1,$120.w
002E92  21 F8 2E A4 01 72             MOVE.l $2EA4.w,$172.w
002E98  4E 75                         RTS
002E9A  51 F8 02 77                   SF $277.w
002E9E  42 B8 01 20                   CLR.l $120.w
002EA2  4E 75                         RTS
002EA4  .dc.b 00 00 00 00 00 00 00 00                         ; ........
002EAC  30 2E 00 06                   MOVE.w $6(a6),d0
002EB0  D0 78 01 36                   ADD.w $136.w,d0
002EB4  E2 58                         ROR.w #1,d0
002EB6  31 C0 01 36                   MOVE.w d0,$136.w
002EBA  10 38 02 77                   MOVE.b $277.w,d0
002EBE  B0 3C 00 02                   CMP.b #$2,d0
002EC2  67 34                         BEQ $002EF8
002EC4  B0 3C 00 03                   CMP.b #$3,d0
002EC8  67 AC                         BEQ $002E76
002ECA  B0 3C 00 04                   CMP.b #$4,d0
002ECE  67 CA                         BEQ $002E9A
002ED0  10 38 01 36                   MOVE.b $136.w,d0
002ED4  C0 7C 00 07                   AND.w #$7,d0
002ED8  32 38 01 72                   MOVE.w $172.w,d1
002EDC  34 01                         MOVE.w d1,d2
002EDE  C2 7C 00 18                   AND.w #$18,d1
002EE2  82 40                         OR.w d0,d1
002EE4  31 C1 01 72                   MOVE.w d1,$172.w
002EE8  94 41                         SUB.w d1,d2
002EEA  31 C2 01 20                   MOVE.w d2,$120.w
002EEE  0C 38 00 01 02 77             CMPI.b #$1,$277.w
002EF4  67 00 03 5E                   BEQ $003254
002EF8  10 38 01 37                   MOVE.b $137.w,d0
002EFC  C0 7C 00 07                   AND.w #$7,d0
002F00  32 38 01 74                   MOVE.w $174.w,d1
002F04  34 01                         MOVE.w d1,d2
002F06  C2 7C 00 18                   AND.w #$18,d1
002F0A  82 40                         OR.w d0,d1
002F0C  31 C1 01 74                   MOVE.w d1,$174.w
002F10  94 41                         SUB.w d1,d2
002F12  31 C2 01 22                   MOVE.w d2,$122.w
002F16  60 00 03 3C                   BRA $003254
002F1A  42 78 01 24                   CLR.w $124.w
002F1E  4A 78 01 72                   TST.w $172.w
002F22  67 10                         BEQ $002F34
002F24  70 01                         MOVEQ #$1,d0
002F26  0C 78 00 10 01 72             CMPI.w #$10,$172.w
002F2C  6D 02                         BLT $002F30
002F2E  44 40                         NEG.w d0
002F30  31 C0 01 24                   MOVE.w d0,$124.w
002F34  42 78 01 26                   CLR.w $126.w
002F38  4A 78 01 74                   TST.w $174.w
002F3C  67 16                         BEQ $002F54
002F3E  70 01                         MOVEQ #$1,d0
002F40  4A 78 01 F8                   TST.w $1F8.w
002F44  67 0A                         BEQ $002F50
002F46  0C 78 00 10 01 74             CMPI.w #$10,$174.w
002F4C  6D 02                         BLT $002F50
002F4E  44 40                         NEG.w d0
002F50  31 C0 01 26                   MOVE.w d0,$126.w
002F54  60 18                         BRA $002F6E

; ==== sub_002F56 (4 callers) ====
002F56  4A 38 02 77                   TST.b $277.w
002F5A  66 00 FF 50                   BNE $002EAC
002F5E  4A 38 02 28                   TST.b $228.w
002F62  66 B6                         BNE $002F1A
002F64  4A 38 01 5C                   TST.b $15C.w
002F68  67 04                         BEQ $002F6E
002F6A  60 00 02 E8                   BRA $003254
002F6E  30 38 01 24                   MOVE.w $124.w,d0
002F72  32 38 01 26                   MOVE.w $126.w,d1
002F76  61 00 FC E2                   BSR $002C5A
002F7A  61 00 01 D6                   BSR $003152
002F7E  61 28                         BSR $002FA8
002F80  4C B8 00 03 01 F6             MOVEM.w $1F6.w,d0-d1
002F86  52 40                         ADDQ.w #1,d0
002F88  52 41                         ADDQ.w #1,d1
002F8A  4C B8 00 0C 01 72             MOVEM.w $172.w,d2-d3
002F90  E6 4A                         LSR.w #3,d2
002F92  E6 4B                         LSR.w #3,d3
002F94  D0 40                         ADD.w d0,d0
002F96  D0 40                         ADD.w d0,d0
002F98  D2 41                         ADD.w d1,d1
002F9A  D2 41                         ADD.w d1,d1
002F9C  90 42                         SUB.w d2,d0
002F9E  92 43                         SUB.w d3,d1
002FA0  48 B8 00 03 01 58             MOVEM.w d0-d1,$158.w
002FA6  4E 75                         RTS

; ==== sub_002FA8 (1 caller) ====
002FA8  42 78 35 F0                   CLR.w $35F0.w
002FAC  4A 78 01 20                   TST.w $120.w
002FB0  66 02                         BNE $002FB4
002FB2  4E 75                         RTS
002FB4  61 00 04 AE                   BSR $003464
002FB8  30 38 01 20                   MOVE.w $120.w,d0
002FBC  91 79 00 00 01 72             SUB.w d0,$172.l
002FC2  6A 00 00 96                   BPL $00305A
002FC6  70 00                         MOVEQ #$0,d0
002FC8  72 00                         MOVEQ #$0,d1
002FCA  4C B8 00 03 01 F6             MOVEM.w $1F6.w,d0-d1
002FD0  52 40                         ADDQ.w #1,d0
002FD2  B0 78 35 E4                   CMP.w $35E4.w,d0
002FD6  63 10                         BLS $002FE8
002FD8  42 78 01 20                   CLR.w $120.w
002FDC  42 78 01 24                   CLR.w $124.w
002FE0  31 FC 00 00 01 72             MOVE.w #$0,$172.w
002FE6  4E 75                         RTS
002FE8  48 B8 00 03 01 F6             MOVEM.w d0-d1,$1F6.w
002FEE  58 B8 01 7A                   ADDQ.l #4,$17A.w
002FF2  58 B8 01 7E                   ADDQ.l #4,$17E.w
002FF6  58 B8 01 92                   ADDQ.l #4,$192.w
002FFA  58 B8 01 96                   ADDQ.l #4,$196.w
002FFE  58 B8 01 AA                   ADDQ.l #4,$1AA.w
003002  58 B8 01 AE                   ADDQ.l #4,$1AE.w
003006  06 78 00 20 01 72             ADDI.w #$20,$172.w
00300C  58 B8 02 12                   ADDQ.l #4,$212.w
003010  D0 7C 00 0B                   ADD.w #$B,d0
003014  24 3C 00 00 36 80             MOVE.l #$3680,d2
00301A  76 08                         MOVEQ #$8,d3
00301C  61 00 00 B4                   BSR $0030D2
003020  4C B8 00 03 01 F6             MOVEM.w $1F6.w,d0-d1
003026  4C B8 00 0C 01 F6             MOVEM.w $1F6.w,d2-d3
00302C  90 7C 00 0A                   SUB.w #$A,d0
003030  92 7C 00 06                   SUB.w #$6,d1
003034  78 0A                         MOVEQ #$A,d4
003036  7A 00                         MOVEQ #$0,d5
003038  7C 01                         MOVEQ #$1,d6
00303A  4C B8 01 80 01 F6             MOVEM.w $1F6.w,d7/a0
003040  DE 44                         ADD.w d4,d7
003042  D0 C5                         ADDA.w d5,a0
003044  DE 47                         ADD.w d7,d7
003046  22 78 02 2E                   MOVEA.l $22E.w,a1
00304A  D0 F1 70 00                   ADDA.w $0(a1,d7.w),a0
00304E  D1 F8 02 2A                   ADDA.l $22A.w,a0
003052  7E 06                         MOVEQ #$6,d7
003054  24 78 19 46                   MOVEA.l $1946.w,a2
003058  4E D2                         JMP (a2)
00305A  0C 78 00 20 01 72             CMPI.w #$20,$172.w
003060  6D 6E                         BLT $0030D0
003062  70 00                         MOVEQ #$0,d0
003064  72 00                         MOVEQ #$0,d1
003066  4C B8 00 03 01 F6             MOVEM.w $1F6.w,d0-d1
00306C  53 40                         SUBQ.w #1,d0
00306E  6A 10                         BPL $003080
003070  42 78 01 20                   CLR.w $120.w
003074  42 78 01 24                   CLR.w $124.w
003078  31 FC 00 1F 01 72             MOVE.w #$1F,$172.w
00307E  4E 75                         RTS
003080  48 B8 00 03 01 F6             MOVEM.w d0-d1,$1F6.w
003086  59 B8 01 7A                   SUBQ.l #4,$17A.w
00308A  59 B8 01 7E                   SUBQ.l #4,$17E.w
00308E  59 B8 01 92                   SUBQ.l #4,$192.w
003092  59 B8 01 96                   SUBQ.l #4,$196.w
003096  59 B8 01 AA                   SUBQ.l #4,$1AA.w
00309A  59 B8 01 AE                   SUBQ.l #4,$1AE.w
00309E  04 78 00 20 01 72             SUBI.w #$20,$172.w
0030A4  59 B8 02 12                   SUBQ.l #4,$212.w
0030A8  53 40                         SUBQ.w #1,d0
0030AA  24 3C 00 00 37 00             MOVE.l #$3700,d2
0030B0  76 08                         MOVEQ #$8,d3
0030B2  61 1E                         BSR $0030D2
0030B4  4C B8 00 03 01 F6             MOVEM.w $1F6.w,d0-d1
0030BA  4C B8 00 0C 01 F6             MOVEM.w $1F6.w,d2-d3
0030C0  90 7C 00 0A                   SUB.w #$A,d0
0030C4  5D 41                         SUBQ.w #6,d1
0030C6  78 00                         MOVEQ #$0,d4
0030C8  7A 00                         MOVEQ #$0,d5
0030CA  7C 01                         MOVEQ #$1,d6
0030CC  60 00 FF 6C                   BRA $00303A
0030D0  4E 75                         RTS

; ==== sub_0030D2 (2 callers) ====
0030D2  41 F8 35 F8                   LEA $35F8.w,a0
0030D6  31 43 00 00                   MOVE.w d3,$0(a0)
0030DA  67 60                         BEQ $00313C
0030DC  4A 40                         TST.w d0
0030DE  6A 08                         BPL $0030E8
0030E0  42 68 00 00                   CLR.w $0(a0)
0030E4  60 00 00 4A                   BRA $003130
0030E8  22 78 02 2E                   MOVEA.l $22E.w,a1
0030EC  D0 40                         ADD.w d0,d0
0030EE  D2 71 00 00                   ADD.w $0(a1,d0.w),d1
0030F2  D2 B8 02 2A                   ADD.l $22A.w,d1
0030F6  21 41 00 0A                   MOVE.l d1,$A(a0)
0030FA  21 79 00 00 02 12 00 12       MOVE.l $212.l,$12(a0)
003102  30 38 35 F2                   MOVE.w $35F2.w,d0
003106  C0 7C 00 01                   AND.w #$1,d0
00310A  67 06                         BEQ $003112
00310C  43 F8 36 38                   LEA $3638.w,a1
003110  60 04                         BRA $003116
003112  43 F8 36 5C                   LEA $365C.w,a1
003116  21 49 00 02                   MOVE.l a1,$2(a0)
00311A  30 38 01 BE                   MOVE.w $1BE.w,d0
00311E  C0 7C FF E0                   AND.w #$FFE0,d0
003122  90 7C 00 E0                   SUB.w #$E0,d0
003126  44 40                         NEG.w d0
003128  E4 48                         LSR.w #2,d0
00312A  D0 82                         ADD.l d2,d0
00312C  21 40 00 06                   MOVE.l d0,$6(a0)
003130  45 F8 36 24                   LEA $3624.w,a2
003134  76 07                         MOVEQ #$7,d3
003136  42 1A                         CLR.b (a2)+
003138  51 CB FF FC                   DBRA d3,$003136
00313C  42 78 35 EE                   CLR.w $35EE.w
003140  4A 78 01 20                   TST.w $120.w
003144  6B 06                         BMI $00314C
003146  52 78 35 EC                   ADDQ.w #1,$35EC.w
00314A  60 04                         BRA $003150
00314C  53 78 35 EC                   SUBQ.w #1,$35EC.w
003150  4E 75                         RTS

; ==== sub_003152 (1 caller) ====
003152  4A 78 01 22                   TST.w $122.w
003156  67 00 00 FC                   BEQ $003254
00315A  61 00 03 40                   BSR $00349C
00315E  30 38 01 22                   MOVE.w $122.w,d0
003162  91 79 00 00 01 74             SUB.w d0,$174.l
003168  6A 00 00 82                   BPL $0031EC
00316C  34 38 01 BE                   MOVE.w $1BE.w,d2
003170  C4 7C FF E0                   AND.w #$FFE0,d2
003174  94 7C 00 20                   SUB.w #$20,d2
003178  06 78 00 20 01 74             ADDI.w #$20,$174.w
00317E  70 00                         MOVEQ #$0,d0
003180  72 00                         MOVEQ #$0,d1
003182  4C B8 00 03 01 F6             MOVEM.w $1F6.w,d0-d1
003188  52 41                         ADDQ.w #1,d1
00318A  B2 78 35 E6                   CMP.w $35E6.w,d1
00318E  63 10                         BLS $0031A0
003190  42 78 01 22                   CLR.w $122.w
003194  42 78 01 26                   CLR.w $126.w
003198  42 78 01 74                   CLR.w $174.w
00319C  60 00 00 B6                   BRA $003254
0031A0  48 B8 00 03 01 F6             MOVEM.w d0-d1,$1F6.w
0031A6  5E 41                         ADDQ.w #7,d1
0031A8  76 0C                         MOVEQ #$C,d3
0031AA  61 00 00 F0                   BSR $00329C
0031AE  61 00 00 A4                   BSR $003254
0031B2  4C B8 00 03 01 F6             MOVEM.w $1F6.w,d0-d1
0031B8  4C B8 00 0C 01 F6             MOVEM.w $1F6.w,d2-d3
0031BE  90 7C 00 0A                   SUB.w #$A,d0
0031C2  5D 41                         SUBQ.w #6,d1
0031C4  78 00                         MOVEQ #$0,d4
0031C6  7A 06                         MOVEQ #$6,d5
0031C8  4C B8 01 80 01 F6             MOVEM.w $1F6.w,d7/a0
0031CE  DE 44                         ADD.w d4,d7
0031D0  D0 C5                         ADDA.w d5,a0
0031D2  DE 47                         ADD.w d7,d7
0031D4  22 78 02 2E                   MOVEA.l $22E.w,a1
0031D8  D0 F1 70 00                   ADDA.w $0(a1,d7.w),a0
0031DC  D1 F8 02 2A                   ADDA.l $22A.w,a0
0031E0  3C 38 35 E2                   MOVE.w $35E2.w,d6
0031E4  7E 0A                         MOVEQ #$A,d7
0031E6  24 78 19 46                   MOVEA.l $1946.w,a2
0031EA  4E D2                         JMP (a2)
0031EC  0C 78 00 20 01 74             CMPI.w #$20,$174.w
0031F2  6D 00 00 60                   BLT $003254
0031F6  34 38 01 BE                   MOVE.w $1BE.w,d2
0031FA  C4 7C FF E0                   AND.w #$FFE0,d2
0031FE  D4 7C 00 20                   ADD.w #$20,d2
003202  04 78 00 20 01 74             SUBI.w #$20,$174.w
003208  70 00                         MOVEQ #$0,d0
00320A  72 00                         MOVEQ #$0,d1
00320C  4C B8 00 03 01 F6             MOVEM.w $1F6.w,d0-d1
003212  53 41                         SUBQ.w #1,d1
003214  6A 12                         BPL $003228
003216  42 78 01 22                   CLR.w $122.w
00321A  42 78 01 26                   CLR.w $126.w
00321E  31 FC 00 1F 01 74             MOVE.w #$1F,$174.w
003224  60 00 00 2E                   BRA $003254
003228  48 B8 00 03 01 F6             MOVEM.w d0-d1,$1F6.w
00322E  53 41                         SUBQ.w #1,d1
003230  76 0C                         MOVEQ #$C,d3
003232  61 00 00 68                   BSR $00329C
003236  61 00 00 1C                   BSR $003254
00323A  4C B8 00 03 01 F6             MOVEM.w $1F6.w,d0-d1
003240  4C B8 00 0C 01 F6             MOVEM.w $1F6.w,d2-d3
003246  90 7C 00 0A                   SUB.w #$A,d0
00324A  5D 41                         SUBQ.w #6,d1
00324C  78 00                         MOVEQ #$0,d4
00324E  7A 00                         MOVEQ #$0,d5
003250  60 00 FF 76                   BRA $0031C8

; ==== sub_003254 (2 callers) ====
003254  20 78 01 C2                   MOVEA.l $1C2.w,a0

; ==== sub_003258 (5 callers) ====
003258  32 38 01 BE                   MOVE.w $1BE.w,d1
00325C  C2 7C FF E0                   AND.w #$FFE0,d1
003260  34 01                         MOVE.w d1,d2
003262  D4 7C 00 20                   ADD.w #$20,d2
003266  33 C2 00 00 01 C0             MOVE.w d2,$1C0.l
00326C  D2 78 01 74                   ADD.w $174.w,d1
003270  22 78 02 0A                   MOVEA.l $20A.w,a1
003274  24 28 00 04                   MOVE.l $4(a0),d2
003278  26 02                         MOVE.l d2,d3
00327A  31 C1 01 BE                   MOVE.w d1,$1BE.w
00327E  6B 00 00 0A                   BMI $00328A
003282  67 00 00 10                   BEQ $003294
003286  92 7C 01 00                   SUB.w #$100,d1
00328A  44 41                         NEG.w d1
00328C  D2 41                         ADD.w d1,d1
00328E  D2 41                         ADD.w d1,d1
003290  D6 B1 10 00                   ADD.l $0(a1,d1.w),d3
003294  48 E8 00 0C 00 04             MOVEM.l d2-d3,$4(a0)
00329A  4E 75                         RTS

; ==== sub_00329C (2 callers) ====
00329C  41 F8 36 0E                   LEA $360E.w,a0
0032A0  31 43 00 00                   MOVE.w d3,$0(a0)
0032A4  67 00 00 9C                   BEQ $003342
0032A8  B4 7C FF C0                   CMP.w #$FFC0,d2
0032AC  6E 04                         BGT $0032B2
0032AE  34 3C 00 C0                   MOVE.w #$C0,d2
0032B2  B4 7C 00 E0                   CMP.w #$E0,d2
0032B6  6D 02                         BLT $0032BA
0032B8  74 E0                         MOVEQ #$E0,d2
0032BA  31 C2 01 BE                   MOVE.w d2,$1BE.w
0032BE  4A 41                         TST.w d1
0032C0  6A 08                         BPL $0032CA
0032C2  42 68 00 00                   CLR.w $0(a0)
0032C6  60 00 00 6E                   BRA $003336
0032CA  22 78 02 2E                   MOVEA.l $22E.w,a1
0032CE  D0 40                         ADD.w d0,d0
0032D0  D2 71 00 00                   ADD.w $0(a1,d0.w),d1
0032D4  D2 B8 02 2A                   ADD.l $22A.w,d1
0032D8  21 41 00 0A                   MOVE.l d1,$A(a0)
0032DC  36 02                         MOVE.w d2,d3
0032DE  96 7C 00 C0                   SUB.w #$C0,d3
0032E2  44 43                         NEG.w d3
0032E4  C6 7C 00 FF                   AND.w #$FF,d3
0032E8  22 78 02 0A                   MOVEA.l $20A.w,a1
0032EC  E6 4B                         LSR.w #3,d3
0032EE  26 31 30 00                   MOVE.l $0(a1,d3.w),d3
0032F2  D6 B8 02 12                   ADD.l $212.w,d3
0032F6  21 43 00 12                   MOVE.l d3,$12(a0)
0032FA  30 38 35 F2                   MOVE.w $35F2.w,d0
0032FE  C0 7C 00 02                   AND.w #$2,d0
003302  67 06                         BEQ $00330A
003304  43 F8 37 80                   LEA $3780.w,a1
003308  60 04                         BRA $00330E
00330A  43 F8 37 B4                   LEA $37B4.w,a1
00330E  21 49 00 02                   MOVE.l a1,$2(a0)
003312  21 7C 00 00 38 28 00 06       MOVE.l #$3828,$6(a0)
00331A  30 02                         MOVE.w d2,d0
00331C  90 7C 00 C0                   SUB.w #$C0,d0
003320  44 40                         NEG.w d0
003322  D0 40                         ADD.w d0,d0
003324  D0 40                         ADD.w d0,d0
003326  24 78 02 0A                   MOVEA.l $20A.w,a2
00332A  20 32 00 00                   MOVE.l $0(a2,d0.w),d0
00332E  D0 B8 01 7A                   ADD.l $17A.w,d0
003332  21 40 00 0E                   MOVE.l d0,$E(a0)
003336  45 F8 36 2C                   LEA $362C.w,a2
00333A  76 0B                         MOVEQ #$B,d3
00333C  42 1A                         CLR.b (a2)+
00333E  51 CB FF FC                   DBRA d3,$00333C
003342  42 78 35 EC                   CLR.w $35EC.w
003346  4A 78 01 22                   TST.w $122.w
00334A  6B 06                         BMI $003352
00334C  52 78 35 EE                   ADDQ.w #1,$35EE.w
003350  60 04                         BRA $003356
003352  53 78 35 EE                   SUBQ.w #1,$35EE.w
003356  4E 75                         RTS
003358  .dc.b 48 E7 00 04 4B F8 36 24 3C 02 3E 38 35 EE 08 38 ; H...K.6$<.>85..8
003368  .dc.b 00 00 35 F3 67 02 53 47 4A 47 67 18 6A 0C 5E 47 ; ..5.g.SGJGg.j.^G
003378  .dc.b B4 47 63 10 51 44 60 08 60 06 B4 47 64 06 50 44 ; .Gc.QD`.`..Gd.PD
003388  .dc.b 51 F5 60 00 4A 35 60 00 66 32 50 F5 60 00 72 00 ; Q.`.J5`.f2P.`.r.
003398  .dc.b 12 31 40 00 E7 4A 2A 73 20 04 DB E8 00 12 20 78 ; .1@..J*s ..... x
0033A8  .dc.b 35 DC 3E 01 E9 4F D0 C7 2A 98 2B 58 00 30 2B 58 ; 5.>..O..*.+X.0+X
0033B8  .dc.b 00 60 2B 58 00 90 41 F8 35 F8 7E 00 4C DF 20 00 ; .`+X..A.5.~.L. .
0033C8  .dc.b 4E 75 48 E7 00 04 3C 02 3E 38 35 EC 08 38 00 01 ; NuH...<.>85..8..
0033D8  .dc.b 35 F3 67 02 53 47 4A 47 67 3E 6A 20 DE 7C 00 0B ; 5.g.SGJGg>j .|..
0033E8  .dc.b B4 47 63 34 94 7C 00 0C 38 02 44 44 2A 78 02 2E ; .Gc4.|..8.DD*x..
0033F8  .dc.b D8 44 38 35 40 00 44 44 60 16 60 14 B4 47 64 18 ; .D85@.DD`.`..Gd.
003408  .dc.b D4 7C 00 0C 38 02 2A 78 02 2E D8 44 38 35 40 00 ; .|..8.*x...D85@.
003418  .dc.b 4B F8 36 2C 51 F5 60 00 4B F8 36 2C 4A 35 60 00 ; K.6,Q.`.K.6,J5`.
003428  .dc.b 66 34 50 F5 60 00 72 00 12 31 40 00 D4 42 D4 42 ; f4P.`.r..1@..B.B
003438  .dc.b 2A 73 20 00 DB E8 00 12 20 78 35 DC 3E 01 E9 4F ; *s ..... x5.>..O
003448  .dc.b D0 C7 2A 98 2B 58 00 30 2B 58 00 60 2B 58 00 90 ; ..*.+X.0+X.`+X..
003458  .dc.b 41 F8 36 0E 7E 00 4C DF 20 00 4E 75             ; A.6.~.L. .Nu

; ==== sub_003464 (1 caller) ====
003464  41 F8 35 F8                   LEA $35F8.w,a0
003468  4A 38 02 52                   TST.b $252.w
00346C  67 02                         BEQ $003470
00346E  4E 75                         RTS
003470  30 38 01 72                   MOVE.w $172.w,d0
003474  32 38 01 20                   MOVE.w $120.w,d1
003478  26 38 01 7A                   MOVE.l $17A.w,d3
00347C  4B F8 33 58                   LEA $3358.w,a5
003480  42 78 35 F0                   CLR.w $35F0.w
003484  34 38 35 EE                   MOVE.w $35EE.w,d2
003488  B4 7C 00 07                   CMP.w #$7,d2
00348C  6D 06                         BLT $003494
00348E  42 68 00 00                   CLR.w $0(a0)
003492  4E 75                         RTS
003494  B4 7C FF F9                   CMP.w #$FFF9,d2
003498  6F F4                         BLE $00348E
00349A  60 2A                         BRA $0034C6

; ==== sub_00349C (1 caller) ====
00349C  41 F8 36 0E                   LEA $360E.w,a0
0034A0  30 38 01 74                   MOVE.w $174.w,d0
0034A4  32 38 01 22                   MOVE.w $122.w,d1
0034A8  26 28 00 0E                   MOVE.l $E(a0),d3
0034AC  4B F8 33 CA                   LEA $33CA.w,a5
0034B0  34 38 35 EC                   MOVE.w $35EC.w,d2
0034B4  B4 7C 00 0B                   CMP.w #$B,d2
0034B8  6D 06                         BLT $0034C0
0034BA  42 68 00 00                   CLR.w $0(a0)
0034BE  4E 75                         RTS
0034C0  B4 7C FF F5                   CMP.w #$FFF5,d2
0034C4  6F F4                         BLE $0034BA
0034C6  4A 68 00 00                   TST.w $0(a0)
0034CA  66 02                         BNE $0034CE
0034CC  4E 75                         RTS
0034CE  22 68 00 0A                   MOVEA.l $A(a0),a1
0034D2  28 78 35 D8                   MOVEA.l $35D8.w,a4
0034D6  4A 38 02 52                   TST.b $252.w
0034DA  67 04                         BEQ $0034E0
0034DC  70 01                         MOVEQ #$1,d0
0034DE  60 32                         BRA $003512
0034E0  24 78 35 F4                   MOVEA.l $35F4.w,a2
0034E4  4A 41                         TST.w d1
0034E6  6A 08                         BPL $0034F0
0034E8  90 7C 00 1F                   SUB.w #$1F,d0
0034EC  44 40                         NEG.w d0
0034EE  44 41                         NEG.w d1
0034F0  52 40                         ADDQ.w #1,d0
0034F2  53 41                         SUBQ.w #1,d1
0034F4  EB 48                         LSL.w #5,d0
0034F6  D0 41                         ADD.w d1,d0
0034F8  12 32 00 00                   MOVE.b $0(a2,d0.w),d1
0034FC  53 41                         SUBQ.w #1,d1
0034FE  3A 01                         MOVE.w d1,d5
003500  48 45                         SWAP d5
003502  30 28 00 00                   MOVE.w $0(a0),d0
003506  3A 00                         MOVE.w d0,d5
003508  EB 48                         LSL.w #5,d0
00350A  D2 40                         ADD.w d0,d1
00350C  10 32 10 00                   MOVE.b $0(a2,d1.w),d0
003510  48 80                         EXT.W d0
003512  91 68 00 00                   SUB.w d0,$0(a0)
003516  53 40                         SUBQ.w #1,d0
003518  3D 7C 09 F0 00 40             MOVE.w #$9F0,$40(a6)
00351E  42 6E 00 42                   CLR.w $42(a6)
003522  2D 7C FF FF FF FF 00 44       MOVE.l #$FFFFFFFF,$44(a6)
00352A  42 6E 00 64                   CLR.w $64(a6)
00352E  3D 7C 00 2C 00 66             MOVE.w #$2C,$66(a6)
003534  24 68 00 02                   MOVEA.l $2(a0),a2
003538  26 68 00 06                   MOVEA.l $6(a0),a3
00353C  34 1A                         MOVE.w (a2)+,d2
00353E  38 1A                         MOVE.w (a2)+,d4
003540  4E 95                         JSR (a5)
003542  66 60                         BNE $0035A4
003544  52 78 35 F0                   ADDQ.w #1,$35F0.w
003548  D2 41                         ADD.w d1,d1
00354A  D2 41                         ADD.w d1,d1
00354C  22 34 10 00                   MOVE.l $0(a4,d1.w),d1
003550  24 33 20 00                   MOVE.l $0(a3,d2.w),d2
003554  D4 83                         ADD.l d3,d2
003556  2D 41 00 50                   MOVE.l d1,$50(a6)
00355A  2D 42 00 54                   MOVE.l d2,$54(a6)
00355E  3D 7C 20 02 00 58             MOVE.w #$2002,$58(a6)
003564  08 2E 00 0E 00 02             BTST.b #$E,$2(a6)
00356A  66 F8                         BNE $003564
00356C  D4 BC 00 00 C0 00             ADD.l #$C000,d2
003572  2D 41 00 50                   MOVE.l d1,$50(a6)
003576  2D 42 00 54                   MOVE.l d2,$54(a6)
00357A  3D 7C 20 02 00 58             MOVE.w #$2002,$58(a6)
003580  08 2E 00 0E 00 02             BTST.b #$E,$2(a6)
003586  66 F8                         BNE $003580
003588  D4 BC 00 00 C0 00             ADD.l #$C000,d2
00358E  2D 41 00 50                   MOVE.l d1,$50(a6)
003592  2D 42 00 54                   MOVE.l d2,$54(a6)
003596  3D 7C 20 02 00 58             MOVE.w #$2002,$58(a6)
00359C  08 2E 00 0E 00 02             BTST.b #$E,$2(a6)
0035A2  66 F8                         BNE $00359C
0035A4  51 C8 FF 96                   DBRA d0,$00353C
0035A8  21 4A 00 02                   MOVE.l a2,$2(a0)
0035AC  4E 75                         RTS

; ==== sub_0035AE (22 callers) ====
0035AE  90 78 01 72                   SUB.w $172.w,d0
0035B2  92 78 01 74                   SUB.w $174.w,d1
0035B6  24 78 02 12                   MOVEA.l $212.w,a2
0035BA  92 78 01 C0                   SUB.w $1C0.w,d1
0035BE  C2 7C 00 F8                   AND.w #$F8,d1
0035C2  D2 41                         ADD.w d1,d1
0035C4  34 01                         MOVE.w d1,d2
0035C6  D4 42                         ADD.w d2,d2
0035C8  D2 42                         ADD.w d2,d1
0035CA  4A 40                         TST.w d0
0035CC  6B 04                         BMI $0035D2
0035CE  E6 48                         LSR.w #3,d0
0035D0  D2 40                         ADD.w d0,d1
0035D2  10 32 10 00                   MOVE.b $0(a2,d1.w),d0
0035D6  4E 75                         RTS
0035D8  .dc.b 00 00 00 00 00 00 00 00 00 00 00 00 00 00 00 00 ; ................
0035E8  .dc.b 00 00 00 00 00 00 00 00 00 00 00 00 00 00 A6 70 ; ...............p
0035F8  .dc.b 00 00 00 00 00 00 00 00 00 00 00 00 00 00 00 00 ; ................
003608  .dc.b 00 00 00 00 00 00 00 00 00 00 00 00 00 00 00 00 ; ................
003618  .dc.b 00 00 00 00 00 00 00 00 00 00 00 00 00 00 00 00 ; ................
003628  .dc.b 00 00 00 00 00 00 00 00 00 00 00 00 00 00 00 00 ; ................
003638  .dc.b 00 00 00 00 00 01 00 01 00 02 00 02 00 03 00 03 ; ................
003648  .dc.b 00 04 00 04 00 05 00 05 00 06 00 06 00 07 00 07 ; ................
003658  .dc.b FF FF FF FF 00 07 00 07 00 06 00 06 00 05 00 05 ; ................
003668  .dc.b 00 04 00 04 00 03 00 03 00 02 00 02 00 01 00 01 ; ................
003678  .dc.b 00 00 00 00 FF FF FF FF 00 00 00 2C 00 00 00 2C ; ...........,...,
003688  .dc.b 00 00 18 2C 00 00 00 EC 00 00 30 2C 00 00 01 AC ; ...,......0,....
003698  .dc.b 00 00 48 2C 00 00 02 6C 00 00 60 2C 00 00 03 2C ; ..H,...l..`,...,
0036A8  .dc.b 00 00 78 2C 00 00 03 EC 00 00 90 2C 00 00 04 AC ; ..x,.......,....
0036B8  .dc.b 00 00 A8 2C 00 00 05 6C 00 00 00 2C 00 00 00 2C ; ...,...l...,...,
0036C8  .dc.b 00 00 18 2C 00 00 00 EC 00 00 30 2C 00 00 01 AC ; ...,......0,....
0036D8  .dc.b 00 00 48 2C 00 00 02 6C 00 00 60 2C 00 00 03 2C ; ..H,...l..`,...,
0036E8  .dc.b 00 00 78 2C 00 00 03 EC 00 00 90 2C 00 00 04 AC ; ..x,.......,....
0036F8  .dc.b 00 00 A8 2C 00 00 05 6C FF FF FF FC FF FF FF FC ; ...,...l........
003708  .dc.b 00 00 17 FC 00 00 00 BC 00 00 2F FC 00 00 01 7C ; ........../....|
003718  .dc.b 00 00 47 FC 00 00 02 3C 00 00 5F FC 00 00 02 FC ; ..G....<.._.....
003728  .dc.b 00 00 77 FC 00 00 03 BC 00 00 8F FC 00 00 04 7C ; ..w............|
003738  .dc.b 00 00 A7 FC 00 00 05 3C FF FF FF FC FF FF FF FC ; .......<........
003748  .dc.b 00 00 17 FC 00 00 00 BC 00 00 2F FC 00 00 01 7C ; ........../....|
003758  .dc.b 00 00 47 FC 00 00 02 3C 00 00 5F FC 00 00 02 FC ; ..G....<.._.....
003768  .dc.b 00 00 77 FC 00 00 03 BC 00 00 8F FC 00 00 04 7C ; ..w............|
003778  .dc.b 00 00 A7 FC 00 00 05 3C 00 00 00 00 00 01 00 00 ; .......<........
003788  .dc.b 00 02 00 00 00 03 00 00 00 04 00 00 00 05 00 00 ; ................
003798  .dc.b 00 06 00 00 00 07 00 00 00 08 00 00 00 09 00 00 ; ................
0037A8  .dc.b 00 0A 00 00 00 0B 00 00 FF FF FF FF 00 0B 00 00 ; ................
0037B8  .dc.b 00 0A 00 00 00 09 00 00 00 08 00 00 00 07 00 00 ; ................
0037C8  .dc.b 00 06 00 00 00 05 00 00 00 04 00 00 00 03 00 00 ; ................
0037D8  .dc.b 00 02 00 00 00 01 00 00 00 00 00 00 FF FF FF FF ; ................
0037E8  .dc.b FF FF FF C0 FF FF FF C4 FF FF FF C8 FF FF FF CC ; ................
0037F8  .dc.b FF FF FF D0 FF FF FF D4 FF FF FF D8 FF FF FF DC ; ................
003808  .dc.b FF FF FF E0 FF FF FF E4 FF FF FF E8 FF FF FF EC ; ................
003818  .dc.b FF FF FF F0 FF FF FF F4 FF FF FF F8 FF FF FF FC ; ................
003828  .dc.b 00 00 00 00 00 00 00 04 00 00 00 08 00 00 00 0C ; ................
003838  .dc.b 00 00 00 10 00 00 00 14 00 00 00 18 00 00 00 1C ; ................
003848  .dc.b 00 00 00 20 00 00 00 24 00 00 00 28 00 00 00 2C ; ... ...$...(...,
003858  .dc.b 00 00 00 30 00 00 00 34 00 00 00 38 00 00 00 3C ; ...0...4...8...<
003868  .dc.b 00 00 00 40 00 00 00 44 00 00 00 48 00 00 00 4C ; ...@...D...H...L
003878  .dc.b 00 00 00 50 00 00 00 54 00 00 00 58 00 00 00 5C ; ...P...T...X...\
003888  .dc.b 00 00 00 60 00 00 00 64                         ; ...`...d

; ==== sub_003890 (4 callers) ====
003890  42 38 02 6D                   CLR.b $26D.w
003894  42 38 02 76                   CLR.b $276.w
003898  42 78 02 5C                   CLR.w $25C.w
00389C  42 38 38 E8                   CLR.b $38E8.w
0038A0  42 78 02 62                   CLR.w $262.w
0038A4  42 38 38 E9                   CLR.b $38E9.w
0038A8  42 38 38 EA                   CLR.b $38EA.w
0038AC  31 FC 00 21 02 5C             MOVE.w #$21,$25C.w
0038B2  11 F8 47 65 02 6C             MOVE.b $4765.w,$26C.w
0038B8  21 F9 00 00 45 A4 01 04       MOVE.l $45A4.l,$104.w
0038C0  61 00 0B 16                   BSR $0043D8
0038C4  51 F8 01 E0                   SF $1E0.w
0038C8  4A 38 02 52                   TST.b $252.w
0038CC  67 0A                         BEQ $0038D8
0038CE  20 38 02 78                   MOVE.l $278.w,d0
0038D2  67 04                         BEQ $0038D8
0038D4  20 40                         MOVEA.l d0,a0
0038D6  4E D0                         JMP (a0)
0038D8  4A 38 02 53                   TST.b $253.w
0038DC  67 06                         BEQ $0038E4
0038DE  31 FC 00 9C 01 04             MOVE.w #$9C,$104.w
0038E4  4E 75                         RTS
0038E6  .dc.b 00 00 00 00 00 00 00 00 00 00 00 00 00 00 00 00 ; ................
0038F6  .dc.b 00 00 00 00 00 00 00 00 00 00 00 08 00 04 FF FE ; ................
003906  .dc.b 00 08 00 10 FF FC 00 00 00 0A 00 08 FF F8 00 0A ; ................
003916  .dc.b 00 0E 00 18 FF FD FF F8 00 18 00 10 00 10 00 06 ; ................
003926  .dc.b FF FE 00 12 00 08 00 00 00 0A 00 08 FF F8 00 0A ; ................
003936  .dc.b 00 0E 00 18 FF FD FF F8 00 18 00 10 00 10 00 06 ; ................
003946  .dc.b FF FE 00 12 00 08 00 00 00 00 00 08 00 04 FF FE ; ................
003956  .dc.b 00 08 00 10 FF FC                               ; ......
00395C  61 00 3D 36                   BSR $007694
003960  53 78 38 F6                   SUBQ.w #1,$38F6.w
003964  6B 38                         BMI $00399E
003966  4A 78 38 F4                   TST.w $38F4.w
00396A  67 30                         BEQ $00399C
00396C  53 78 38 FA                   SUBQ.w #1,$38FA.w
003970  6A 2A                         BPL $00399C
003972  20 78 01 DC                   MOVEA.l $1DC.w,a0
003976  30 10                         MOVE.w (a0),d0
003978  54 B8 01 DC                   ADDQ.l #2,$1DC.w
00397C  B1 FC 00 FF FF DE             CMPA.l #$FFFFDE,a0
003982  6D 08                         BLT $00398C
003984  21 FC 00 FC 00 D2 01 DC       MOVE.l #$FC00D2,$1DC.w
00398C  C0 7C 00 07                   AND.w #$7,d0
003990  31 C0 38 FA                   MOVE.w d0,$38FA.w
003994  70 1F                         MOVEQ #$1F,d0
003996  4E B9 00 01 A2 DC             JSR $1A2DC.l
00399C  4E 75                         RTS
00399E  4A 78 38 F4                   TST.w $38F4.w
0039A2  66 0A                         BNE $0039AE
0039A4  50 F8 02 6D                   ST $26D.w
0039A8  51 F8 02 28                   SF $228.w
0039AC  4E 75                         RTS

; ==== sub_0039AE (1 caller) ====
0039AE  31 FC 00 02 38 F6             MOVE.w #$2,$38F6.w
0039B4  53 78 38 F4                   SUBQ.w #1,$38F4.w
0039B8  66 0E                         BNE $0039C8
0039BA  31 FC 00 14 38 F6             MOVE.w #$14,$38F6.w
0039C0  70 06                         MOVEQ #$6,d0
0039C2  4E F9 00 01 A2 DC             JMP $1A2DC.l
0039C8  3E 38 38 F8                   MOVE.w $38F8.w,d7
0039CC  47 F8 38 FC                   LEA $38FC.w,a3
0039D0  61 00 E0 E8                   BSR $001ABA
0039D4  2B 78 38 F0 00 18             MOVE.l $38F0.w,$18(a5)
0039DA  4C B3 00 03 70 00             MOVEM.w $0(a3,d7.w),d0-d1
0039E0  58 78 38 F8                   ADDQ.w #4,$38F8.w
0039E4  51 ED 00 1E                   SF $1E(a5)
0039E8  61 00 E1 02                   BSR $001AEC
0039EC  60 00 E9 5E                   BRA $00234C
0039F0  21 F8 01 04 38 F0             MOVE.l $104.w,$38F0.w
0039F6  42 B8 01 04                   CLR.l $104.w
0039FA  42 B8 01 24                   CLR.l $124.w
0039FE  4A 38 01 5C                   TST.b $15C.w
003A02  57 F8 02 28                   SEQ $228.w
003A06  42 78 38 FA                   CLR.w $38FA.w
003A0A  50 F8 02 76                   ST $276.w
003A0E  70 20                         MOVEQ #$20,d0
003A10  4E B9 00 01 A2 DC             JSR $1A2DC.l
003A16  4A 38 02 52                   TST.b $252.w
003A1A  67 0A                         BEQ $003A26
003A1C  51 F8 02 28                   SF $228.w
003A20  20 78 02 54                   MOVEA.l $254.w,a0
003A24  4E 90                         JSR (a0)
003A26  4C B8 00 03 38 F0             MOVEM.w $38F0.w,d0-d1
003A2C  B2 7C 00 D4                   CMP.w #$D4,d1
003A30  6D 12                         BLT $003A44
003A32  42 78 38 F4                   CLR.w $38F4.w
003A36  31 FC 00 14 38 F6             MOVE.w #$14,$38F6.w
003A3C  70 21                         MOVEQ #$21,d0
003A3E  4E F9 00 01 A2 DC             JMP $1A2DC.l
003A44  31 FC 00 17 38 F4             MOVE.w #$17,$38F4.w
003A4A  42 78 38 F8                   CLR.w $38F8.w
003A4E  61 00 FF 5E                   BSR $0039AE
003A52  60 00 FF 5A                   BRA $0039AE

; ==== sub_003A56 (2 callers) ====
003A56  4A 38 02 76                   TST.b $276.w
003A5A  66 00 FF 00                   BNE $00395C
003A5E  42 38 02 85                   CLR.b $285.w
003A62  4A 38 7A C8                   TST.b $7AC8.w
003A66  66 06                         BNE $003A6E
003A68  4A 38 7A C9                   TST.b $7AC9.w
003A6C  67 82                         BEQ $0039F0
003A6E  4A 38 01 E0                   TST.b $1E0.w
003A72  66 08                         BNE $003A7C
003A74  4A B8 7B 0C                   TST.l $7B0C.w
003A78  67 00 FF 76                   BEQ $0039F0
003A7C  4A 38 02 52                   TST.b $252.w
003A80  67 14                         BEQ $003A96
003A82  61 00 0A 48                   BSR $0044CC
003A86  48 B8 00 03 01 EE             MOVEM.w d0-d1,$1EE.w
003A8C  20 78 02 54                   MOVEA.l $254.w,a0
003A90  4E 90                         JSR (a0)
003A92  60 00 08 64                   BRA $0042F8
003A96  4A 38 01 5C                   TST.b $15C.w
003A9A  66 1C                         BNE $003AB8
003A9C  4A 38 02 77                   TST.b $277.w
003AA0  67 16                         BEQ $003AB8
003AA2  4C B8 00 C0 01 04             MOVEM.w $104.w,d6-d7
003AA8  9C 78 01 20                   SUB.w $120.w,d6
003AAC  9E 78 01 22                   SUB.w $122.w,d7
003AB0  48 B8 00 C0 01 04             MOVEM.w d6-d7,$104.w
003AB6  4E 75                         RTS
003AB8  61 00 0A 12                   BSR $0044CC
003ABC  48 B8 00 03 01 EE             MOVEM.w d0-d1,$1EE.w
003AC2  4C B8 00 C0 01 04             MOVEM.w $104.w,d6-d7
003AC8  9C 78 01 20                   SUB.w $120.w,d6
003ACC  9E 78 01 22                   SUB.w $122.w,d7
003AD0  BE 7C 00 D4                   CMP.w #$D4,d7
003AD4  6E 00 FF 1A                   BGT $0039F0
003AD8  4A 38 59 4A                   TST.b $594A.w
003ADC  66 00 06 CE                   BNE $0041AC
003AE0  4A 38 38 E9                   TST.b $38E9.w
003AE4  66 00 06 3A                   BNE $004120
003AE8  4A 38 38 EB                   TST.b $38EB.w
003AEC  66 00 04 BE                   BNE $003FAC
003AF0  61 00 01 38                   BSR $003C2A
003AF4  6B 00 05 56                   BMI $00404C
003AF8  66 00 00 C6                   BNE $003BC0
003AFC  30 06                         MOVE.w d6,d0
003AFE  32 07                         MOVE.w d7,d1
003B00  58 40                         ADDQ.w #4,d0
003B02  D2 7C 00 25                   ADD.w #$25,d1
003B06  4A 38 02 6C                   TST.b $26C.w
003B0A  66 02                         BNE $003B0E
003B0C  5C 40                         ADDQ.w #6,d0
003B0E  4A 38 38 E8                   TST.b $38E8.w
003B12  67 04                         BEQ $003B18
003B14  30 06                         MOVE.w d6,d0
003B16  5C 40                         ADDQ.w #6,d0
003B18  51 F8 02 49                   SF $249.w
003B1C  38 00                         MOVE.w d0,d4
003B1E  3A 01                         MOVE.w d1,d5
003B20  61 00 FA 8C                   BSR $0035AE
003B24  67 18                         BEQ $003B3E
003B26  6A 12                         BPL $003B3A
003B28  48 E7 40 20                   MOVEM.l d1/a2,-(a7)
003B2C  32 04                         MOVE.w d4,d1
003B2E  34 05                         MOVE.w d5,d2
003B30  61 00 02 10                   BSR $003D42
003B34  4C DF 04 02                   MOVEM.l (a7)+,d1/a2
003B38  60 04                         BRA $003B3E
003B3A  50 F8 02 49                   ST $249.w
003B3E  52 41                         ADDQ.w #1,d1
003B40  50 44                         ADDQ.w #8,d4
003B42  10 32 10 00                   MOVE.b $0(a2,d1.w),d0
003B46  67 18                         BEQ $003B60
003B48  6A 12                         BPL $003B5C
003B4A  48 E7 40 20                   MOVEM.l d1/a2,-(a7)
003B4E  32 04                         MOVE.w d4,d1
003B50  34 05                         MOVE.w d5,d2
003B52  61 00 01 EE                   BSR $003D42
003B56  4C DF 04 02                   MOVEM.l (a7)+,d1/a2
003B5A  60 04                         BRA $003B60
003B5C  50 F8 02 49                   ST $249.w
003B60  52 41                         ADDQ.w #1,d1
003B62  50 44                         ADDQ.w #8,d4
003B64  10 32 10 00                   MOVE.b $0(a2,d1.w),d0
003B68  67 18                         BEQ $003B82
003B6A  6A 12                         BPL $003B7E
003B6C  48 E7 40 20                   MOVEM.l d1/a2,-(a7)
003B70  32 04                         MOVE.w d4,d1
003B72  34 05                         MOVE.w d5,d2
003B74  61 00 01 CC                   BSR $003D42
003B78  4C DF 04 02                   MOVEM.l (a7)+,d1/a2
003B7C  60 04                         BRA $003B82
003B7E  50 F8 02 49                   ST $249.w
003B82  4A 38 02 49                   TST.b $249.w
003B86  67 00 04 C4                   BEQ $00404C
003B8A  4A 38 38 E8                   TST.b $38E8.w
003B8E  66 12                         BNE $003BA2
003B90  4A 38 38 EE                   TST.b $38EE.w
003B94  67 0C                         BEQ $003BA2
003B96  51 F8 38 EE                   SF $38EE.w
003B9A  70 0A                         MOVEQ #$A,d0
003B9C  4E B9 00 01 A2 DC             JSR $1A2DC.l
003BA2  4A 38 01 3C                   TST.b $13C.w
003BA6  66 18                         BNE $003BC0
003BA8  30 07                         MOVE.w d7,d0
003BAA  D0 7C 00 25                   ADD.w #$25,d0
003BAE  90 78 01 74                   SUB.w $174.w,d0
003BB2  C0 7C FF F8                   AND.w #$FFF8,d0
003BB6  D0 78 01 74                   ADD.w $174.w,d0
003BBA  90 7C 00 24                   SUB.w #$24,d0
003BBE  3E 00                         MOVE.w d0,d7
003BC0  42 78 47 6A                   CLR.w $476A.w
003BC4  4A 78 01 F0                   TST.w $1F0.w
003BC8  6A 1A                         BPL $003BE4
003BCA  4A 38 38 ED                   TST.b $38ED.w
003BCE  66 4A                         BNE $003C1A
003BD0  50 F8 38 ED                   ST $38ED.w
003BD4  50 F8 38 EB                   ST $38EB.w
003BD8  42 78 47 6C                   CLR.w $476C.w
003BDC  42 38 38 EC                   CLR.b $38EC.w
003BE0  60 00 03 CA                   BRA $003FAC
003BE4  42 38 38 ED                   CLR.b $38ED.w
003BE8  4A 38 38 EA                   TST.b $38EA.w
003BEC  67 1E                         BEQ $003C0C
003BEE  51 F8 38 EA                   SF $38EA.w
003BF2  11 FC 00 04 38 E9             MOVE.b #$4,$38E9.w
003BF8  42 78 47 C8                   CLR.w $47C8.w
003BFC  42 78 47 C6                   CLR.w $47C6.w
003C00  70 0B                         MOVEQ #$B,d0
003C02  4E B9 00 01 A2 DC             JSR $1A2DC.l
003C08  60 00 05 16                   BRA $004120
003C0C  4A 38 38 E8                   TST.b $38E8.w
003C10  66 08                         BNE $003C1A
003C12  4A 78 01 F0                   TST.w $1F0.w
003C16  66 00 04 BE                   BNE $0040D6
003C1A  4A 78 01 EE                   TST.w $1EE.w
003C1E  6B 00 02 94                   BMI $003EB4
003C22  66 00 01 98                   BNE $003DBC
003C26  60 00 01 46                   BRA $003D6E

; ==== sub_003C2A (1 caller) ====
003C2A  4A 38 02 84                   TST.b $284.w
003C2E  66 02                         BNE $003C32
003C30  4E 75                         RTS
003C32  30 06                         MOVE.w d6,d0
003C34  32 07                         MOVE.w d7,d1
003C36  D0 7C 00 10                   ADD.w #$10,d0
003C3A  D2 7C 00 26                   ADD.w #$26,d1
003C3E  90 78 01 72                   SUB.w $172.w,d0
003C42  92 78 01 74                   SUB.w $174.w,d1
003C46  34 00                         MOVE.w d0,d2
003C48  36 01                         MOVE.w d1,d3
003C4A  EA 48                         LSR.w #5,d0
003C4C  EA 49                         LSR.w #5,d1
003C4E  D0 78 01 F6                   ADD.w $1F6.w,d0
003C52  D2 78 01 F8                   ADD.w $1F8.w,d1
003C56  24 78 02 2E                   MOVEA.l $22E.w,a2
003C5A  D0 40                         ADD.w d0,d0
003C5C  D2 72 00 00                   ADD.w $0(a2,d0.w),d1
003C60  24 78 02 2A                   MOVEA.l $22A.w,a2
003C64  10 32 10 00                   MOVE.b $0(a2,d1.w),d0
003C68  B0 3C 00 08                   CMP.b #$8,d0
003C6C  66 10                         BNE $003C7E
003C6E  30 02                         MOVE.w d2,d0
003C70  C0 7C 00 1F                   AND.w #$1F,d0
003C74  E2 48                         LSR.w #1,d0
003C76  50 F8 02 85                   ST $285.w
003C7A  60 00 00 82                   BRA $003CFE
003C7E  B0 3C 00 09                   CMP.b #$9,d0
003C82  66 12                         BNE $003C96
003C84  30 02                         MOVE.w d2,d0
003C86  C0 7C 00 1F                   AND.w #$1F,d0
003C8A  E2 48                         LSR.w #1,d0
003C8C  D0 7C 00 10                   ADD.w #$10,d0
003C90  50 F8 02 85                   ST $285.w
003C94  60 68                         BRA $003CFE
003C96  B0 3C 00 16                   CMP.b #$16,d0
003C9A  67 E8                         BEQ $003C84
003C9C  B0 3C 00 10                   CMP.b #$10,d0
003CA0  66 12                         BNE $003CB4
003CA2  70 0F                         MOVEQ #$F,d0
003CA4  C4 7C 00 1F                   AND.w #$1F,d2
003CA8  E2 4A                         LSR.w #1,d2
003CAA  90 42                         SUB.w d2,d0
003CAC  11 FC 00 01 02 85             MOVE.b #$1,$285.w
003CB2  60 4A                         BRA $003CFE
003CB4  B0 3C 00 0F                   CMP.b #$F,d0
003CB8  66 12                         BNE $003CCC
003CBA  70 1F                         MOVEQ #$1F,d0
003CBC  C4 7C 00 1F                   AND.w #$1F,d2
003CC0  E2 4A                         LSR.w #1,d2
003CC2  90 42                         SUB.w d2,d0
003CC4  11 FC 00 01 02 85             MOVE.b #$1,$285.w
003CCA  60 32                         BRA $003CFE
003CCC  B0 3C 00 17                   CMP.b #$17,d0
003CD0  67 E8                         BEQ $003CBA
003CD2  30 03                         MOVE.w d3,d0
003CD4  C0 7C 00 1F                   AND.w #$1F,d0
003CD8  90 7C 00 1C                   SUB.w #$1C,d0
003CDC  6B 1C                         BMI $003CFA
003CDE  0C 32 00 08 10 01             CMPI.b #$8,$1(a2,d1.w)
003CE4  66 06                         BNE $003CEC
003CE6  D6 7C 00 20                   ADD.w #$20,d3
003CEA  60 82                         BRA $003C6E
003CEC  0C 32 00 10 10 01             CMPI.b #$10,$1(a2,d1.w)
003CF2  66 06                         BNE $003CFA
003CF4  D6 7C 00 20                   ADD.w #$20,d3
003CF8  60 A8                         BRA $003CA2
003CFA  70 00                         MOVEQ #$0,d0
003CFC  4E 75                         RTS
003CFE  32 03                         MOVE.w d3,d1
003D00  C2 7C FF E0                   AND.w #$FFE0,d1
003D04  D2 40                         ADD.w d0,d1
003D06  D2 78 01 74                   ADD.w $174.w,d1
003D0A  92 7C 00 26                   SUB.w #$26,d1
003D0E  BE 41                         CMP.w d1,d7
003D10  6C 08                         BGE $003D1A
003D12  42 38 02 85                   CLR.b $285.w
003D16  70 FF                         MOVEQ #$FF,d0
003D18  4E 75                         RTS
003D1A  3E 01                         MOVE.w d1,d7
003D1C  70 01                         MOVEQ #$1,d0
003D1E  4E 75                         RTS

; ==== sub_003D20 (6 callers) ====
003D20  4A 78 02 62                   TST.w $262.w
003D24  66 1A                         BNE $003D40
003D26  4A 38 38 E8                   TST.b $38E8.w
003D2A  66 14                         BNE $003D40
003D2C  B0 3C 00 D3                   CMP.b #$D3,d0
003D30  66 0E                         BNE $003D40
003D32  48 E7 40 20                   MOVEM.l d1/a2,-(a7)
003D36  61 00 39 F0                   BSR $007728
003D3A  4C DF 04 02                   MOVEM.l (a7)+,d1/a2
003D3E  70 00                         MOVEQ #$0,d0
003D40  4E 75                         RTS

; ==== sub_003D42 (7 callers) ====
003D42  B0 3C 00 80                   CMP.b #$80,d0
003D46  66 24                         BNE $003D6C
003D48  48 E7 FF FC                   MOVEM.l d0-d7/a0-a5,-(a7)
003D4C  61 00 26 60                   BSR $0063AE
003D50  70 13                         MOVEQ #$13,d0
003D52  4E B9 00 01 A2 DC             JSR $1A2DC.l
003D58  70 01                         MOVEQ #$1,d0
003D5A  61 00 3A 9A                   BSR $0077F6
003D5E  70 03                         MOVEQ #$3,d0
003D60  72 04                         MOVEQ #$4,d1
003D62  61 00 3B 68                   BSR $0078CC
003D66  4C DF 3F FF                   MOVEM.l (a7)+,d0-d7/a0-a5
003D6A  70 00                         MOVEQ #$0,d0
003D6C  4E 75                         RTS
003D6E  4A 38 38 E8                   TST.b $38E8.w
003D72  66 00 00 40                   BNE $003DB4
003D76  4A 38 01 3C                   TST.b $13C.w
003D7A  66 1E                         BNE $003D9A
003D7C  21 F8 01 F6 45 AA             MOVE.l $1F6.w,$45AA.w
003D82  30 06                         MOVE.w d6,d0
003D84  32 07                         MOVE.w d7,d1
003D86  90 78 01 72                   SUB.w $172.w,d0
003D8A  92 78 01 74                   SUB.w $174.w,d1
003D8E  48 B8 00 03 45 A4             MOVEM.w d0-d1,$45A4.w
003D94  11 F8 02 6C 47 65             MOVE.b $26C.w,$4765.w
003D9A  48 B8 00 C0 01 04             MOVEM.w d6-d7,$104.w
003DA0  42 78 47 6A                   CLR.w $476A.w
003DA4  10 38 02 6C                   MOVE.b $26C.w,d0
003DA8  C0 7C 00 01                   AND.w #$1,d0
003DAC  31 C0 02 5C                   MOVE.w d0,$25C.w
003DB0  60 00 04 36                   BRA $0041E8
003DB4  4A 38 02 6C                   TST.b $26C.w
003DB8  67 00 00 FA                   BEQ $003EB4
003DBC  50 F8 02 6C                   ST $26C.w
003DC0  4A 38 38 E8                   TST.b $38E8.w
003DC4  67 06                         BEQ $003DCC
003DC6  41 F8 47 5D                   LEA $475D.w,a0
003DCA  60 04                         BRA $003DD0
003DCC  41 F8 47 3B                   LEA $473B.w,a0
003DD0  30 38 47 62                   MOVE.w $4762.w,d0
003DD4  10 30 00 00                   MOVE.b $0(a0,d0.w),d0
003DD8  6A 06                         BPL $003DE0
003DDA  42 78 47 62                   CLR.w $4762.w
003DDE  10 10                         MOVE.b (a0),d0
003DE0  52 78 47 62                   ADDQ.w #1,$4762.w
003DE4  48 80                         EXT.W d0
003DE6  31 C0 02 5C                   MOVE.w d0,$25C.w
003DEA  30 06                         MOVE.w d6,d0
003DEC  32 07                         MOVE.w d7,d1
003DEE  D0 7C 00 1C                   ADD.w #$1C,d0
003DF2  D2 7C 00 20                   ADD.w #$20,d1
003DF6  38 00                         MOVE.w d0,d4
003DF8  3A 01                         MOVE.w d1,d5
003DFA  4A 38 02 85                   TST.b $285.w
003DFE  6B 12                         BMI $003E12
003E00  67 10                         BEQ $003E12
003E02  92 7C 00 10                   SUB.w #$10,d1
003E06  9A 7C 00 10                   SUB.w #$10,d5
003E0A  61 00 F7 A2                   BSR $0035AE
003E0E  66 46                         BNE $003E56
003E10  60 60                         BRA $003E72
003E12  61 00 F7 9A                   BSR $0035AE
003E16  66 3E                         BNE $003E56
003E18  51 45                         SUBQ.w #8,d5
003E1A  92 7C 00 30                   SUB.w #$30,d1
003E1E  6A 04                         BPL $003E24
003E20  D2 7C 06 00                   ADD.w #$600,d1
003E24  10 32 10 00                   MOVE.b $0(a2,d1.w),d0
003E28  66 2C                         BNE $003E56
003E2A  4A 38 38 E8                   TST.b $38E8.w
003E2E  66 42                         BNE $003E72
003E30  51 45                         SUBQ.w #8,d5
003E32  92 7C 00 30                   SUB.w #$30,d1
003E36  6A 04                         BPL $003E3C
003E38  D2 7C 06 00                   ADD.w #$600,d1
003E3C  10 32 10 00                   MOVE.b $0(a2,d1.w),d0
003E40  66 14                         BNE $003E56
003E42  51 45                         SUBQ.w #8,d5
003E44  92 7C 00 30                   SUB.w #$30,d1
003E48  6A 04                         BPL $003E4E
003E4A  D2 7C 06 00                   ADD.w #$600,d1
003E4E  10 32 10 00                   MOVE.b $0(a2,d1.w),d0
003E52  67 00 00 1E                   BEQ $003E72
003E56  6A 0A                         BPL $003E62
003E58  32 04                         MOVE.w d4,d1
003E5A  34 05                         MOVE.w d5,d2
003E5C  61 00 FE E4                   BSR $003D42
003E60  60 10                         BRA $003E72
003E62  4A 38 38 E8                   TST.b $38E8.w
003E66  67 00 03 76                   BEQ $0041DE
003E6A  51 F8 02 6C                   SF $26C.w
003E6E  60 00 03 6E                   BRA $0041DE
003E72  10 38 01 E0                   MOVE.b $1E0.w,d0
003E76  67 08                         BEQ $003E80
003E78  B0 3C 00 D3                   CMP.b #$D3,d0
003E7C  66 00 00 08                   BNE $003E86
003E80  BC 7C 01 30                   CMP.w #$130,d6
003E84  6C 2A                         BGE $003EB0
003E86  10 38 38 E8                   MOVE.b $38E8.w,d0
003E8A  C0 7C 00 02                   AND.w #$2,d0
003E8E  54 40                         ADDQ.w #2,d0
003E90  DC 40                         ADD.w d0,d6
003E92  31 C0 47 68                   MOVE.w d0,$4768.w
003E96  4A 38 02 85                   TST.b $285.w
003E9A  67 14                         BEQ $003EB0
003E9C  6B 0A                         BMI $003EA8
003E9E  E2 48                         LSR.w #1,d0
003EA0  9E 40                         SUB.w d0,d7
003EA2  31 C0 47 6A                   MOVE.w d0,$476A.w
003EA6  60 08                         BRA $003EB0
003EA8  E2 48                         LSR.w #1,d0
003EAA  DE 40                         ADD.w d0,d7
003EAC  31 C0 47 6A                   MOVE.w d0,$476A.w
003EB0  60 00 03 2C                   BRA $0041DE
003EB4  51 F8 02 6C                   SF $26C.w
003EB8  4A 38 38 E8                   TST.b $38E8.w
003EBC  67 06                         BEQ $003EC4
003EBE  41 F8 47 58                   LEA $4758.w,a0
003EC2  60 04                         BRA $003EC8
003EC4  41 F8 47 1E                   LEA $471E.w,a0
003EC8  30 38 47 62                   MOVE.w $4762.w,d0
003ECC  10 30 00 00                   MOVE.b $0(a0,d0.w),d0
003ED0  6A 06                         BPL $003ED8
003ED2  42 78 47 62                   CLR.w $4762.w
003ED6  10 10                         MOVE.b (a0),d0
003ED8  52 78 47 62                   ADDQ.w #1,$4762.w
003EDC  48 80                         EXT.W d0
003EDE  31 C0 02 5C                   MOVE.w d0,$25C.w
003EE2  30 06                         MOVE.w d6,d0
003EE4  32 07                         MOVE.w d7,d1
003EE6  54 40                         ADDQ.w #2,d0
003EE8  D2 7C 00 20                   ADD.w #$20,d1
003EEC  38 00                         MOVE.w d0,d4
003EEE  3A 01                         MOVE.w d1,d5
003EF0  4A 38 02 85                   TST.b $285.w
003EF4  6A 10                         BPL $003F06
003EF6  92 7C 00 10                   SUB.w #$10,d1
003EFA  9A 7C 00 10                   SUB.w #$10,d5
003EFE  61 00 F6 AE                   BSR $0035AE
003F02  66 46                         BNE $003F4A
003F04  60 60                         BRA $003F66
003F06  61 00 F6 A6                   BSR $0035AE
003F0A  66 3E                         BNE $003F4A
003F0C  51 45                         SUBQ.w #8,d5
003F0E  92 7C 00 30                   SUB.w #$30,d1
003F12  6A 04                         BPL $003F18
003F14  D2 7C 06 00                   ADD.w #$600,d1
003F18  10 32 10 00                   MOVE.b $0(a2,d1.w),d0
003F1C  66 2C                         BNE $003F4A
003F1E  4A 38 38 E8                   TST.b $38E8.w
003F22  66 42                         BNE $003F66
003F24  51 45                         SUBQ.w #8,d5
003F26  92 7C 00 30                   SUB.w #$30,d1
003F2A  6A 04                         BPL $003F30
003F2C  D2 7C 06 00                   ADD.w #$600,d1
003F30  10 32 10 00                   MOVE.b $0(a2,d1.w),d0
003F34  66 14                         BNE $003F4A
003F36  51 45                         SUBQ.w #8,d5
003F38  92 7C 00 30                   SUB.w #$30,d1
003F3C  6A 04                         BPL $003F42
003F3E  D2 7C 06 00                   ADD.w #$600,d1
003F42  10 32 10 00                   MOVE.b $0(a2,d1.w),d0
003F46  67 00 00 1E                   BEQ $003F66
003F4A  6A 0A                         BPL $003F56
003F4C  32 04                         MOVE.w d4,d1
003F4E  34 05                         MOVE.w d5,d2
003F50  61 00 FD F0                   BSR $003D42
003F54  60 10                         BRA $003F66
003F56  4A 38 38 E8                   TST.b $38E8.w
003F5A  67 00 02 82                   BEQ $0041DE
003F5E  50 F8 02 6C                   ST $26C.w
003F62  60 00 02 7A                   BRA $0041DE
003F66  10 38 01 E0                   MOVE.b $1E0.w,d0
003F6A  67 06                         BEQ $003F72
003F6C  B0 3C 00 D3                   CMP.b #$D3,d0
003F70  66 06                         BNE $003F78
003F72  BC 7C 00 20                   CMP.w #$20,d6
003F76  6F 30                         BLE $003FA8
003F78  10 38 38 E8                   MOVE.b $38E8.w,d0
003F7C  C0 7C 00 02                   AND.w #$2,d0
003F80  54 40                         ADDQ.w #2,d0
003F82  9C 40                         SUB.w d0,d6
003F84  44 40                         NEG.w d0
003F86  31 C0 47 68                   MOVE.w d0,$4768.w
003F8A  4A 38 02 85                   TST.b $285.w
003F8E  67 18                         BEQ $003FA8
003F90  6A 0C                         BPL $003F9E
003F92  44 40                         NEG.w d0
003F94  E2 48                         LSR.w #1,d0
003F96  9E 40                         SUB.w d0,d7
003F98  31 C0 47 6A                   MOVE.w d0,$476A.w
003F9C  60 0A                         BRA $003FA8
003F9E  44 40                         NEG.w d0
003FA0  E2 48                         LSR.w #1,d0
003FA2  DE 40                         ADD.w d0,d7
003FA4  31 C0 47 6A                   MOVE.w d0,$476A.w
003FA8  60 00 02 34                   BRA $0041DE
003FAC  4A 39 00 00 38 E8             TST.b $38E8.l
003FB2  67 08                         BEQ $003FBC
003FB4  51 F8 38 E8                   SF $38E8.w
003FB8  42 78 47 62                   CLR.w $4762.w
003FBC  4A 78 01 F0                   TST.w $1F0.w
003FC0  6A 00 00 5A                   BPL $00401C
003FC4  4A 38 01 3D                   TST.b $13D.w
003FC8  66 00 00 52                   BNE $00401C
003FCC  30 06                         MOVE.w d6,d0
003FCE  32 07                         MOVE.w d7,d1
003FD0  58 41                         ADDQ.w #4,d1
003FD2  4A 38 02 6C                   TST.b $26C.w
003FD6  66 02                         BNE $003FDA
003FD8  5C 40                         ADDQ.w #6,d0
003FDA  D0 7C 00 0C                   ADD.w #$C,d0
003FDE  38 00                         MOVE.w d0,d4
003FE0  3A 01                         MOVE.w d1,d5
003FE2  61 00 F5 CA                   BSR $0035AE
003FE6  66 26                         BNE $00400E
003FE8  51 44                         SUBQ.w #8,d4
003FEA  50 45                         ADDQ.w #8,d5
003FEC  53 41                         SUBQ.w #1,d1
003FEE  D2 7C 00 30                   ADD.w #$30,d1
003FF2  B2 7C 06 00                   CMP.w #$600,d1
003FF6  6D 04                         BLT $003FFC
003FF8  92 7C 06 00                   SUB.w #$600,d1
003FFC  10 32 10 00                   MOVE.b $0(a2,d1.w),d0
004000  66 0C                         BNE $00400E
004002  D8 7C 00 10                   ADD.w #$10,d4
004006  54 41                         ADDQ.w #2,d1
004008  10 32 10 00                   MOVE.b $0(a2,d1.w),d0
00400C  67 16                         BEQ $004024
00400E  6A 0C                         BPL $00401C
004010  32 04                         MOVE.w d4,d1
004012  34 05                         MOVE.w d5,d2
004014  61 00 FD 2C                   BSR $003D42
004018  60 00 00 0A                   BRA $004024
00401C  31 FC 00 40 47 6C             MOVE.w #$40,$476C.w
004022  60 06                         BRA $00402A
004024  BE 7C 00 20                   CMP.w #$20,d7
004028  6D F2                         BLT $00401C
00402A  41 F8 47 6E                   LEA $476E.w,a0
00402E  30 28 FF FE                   MOVE.w -$2(a0),d0
004032  30 30 00 00                   MOVE.w $0(a0,d0.w),d0
004036  DE 40                         ADD.w d0,d7
004038  44 40                         NEG.w d0
00403A  33 C0 00 00 47 6A             MOVE.w d0,$476A.l
004040  66 04                         BNE $004046
004042  51 F8 38 EB                   SF $38EB.w
004046  54 68 FF FE                   ADDQ.w #2,-$2(a0)
00404A  60 4E                         BRA $00409A
00404C  4A 39 00 00 01 3C             TST.b $13C.l
004052  66 00 FB 36                   BNE $003B8A
004056  50 F8 38 EE                   ST $38EE.w
00405A  41 F8 47 6E                   LEA $476E.w,a0
00405E  30 28 FF FE                   MOVE.w -$2(a0),d0
004062  67 1E                         BEQ $004082
004064  0C 70 80 00 00 00             CMPI.w #$8000,$0(a0,d0.w)
00406A  66 06                         BNE $004072
00406C  42 68 FF FE                   CLR.w -$2(a0)
004070  60 18                         BRA $00408A
004072  54 68 FF FE                   ADDQ.w #2,-$2(a0)
004076  30 30 00 00                   MOVE.w $0(a0,d0.w),d0
00407A  DE 40                         ADD.w d0,d7
00407C  31 C0 47 6A                   MOVE.w d0,$476A.w
004080  60 10                         BRA $004092
004082  4A 38 38 E8                   TST.b $38E8.w
004086  56 F8 38 EA                   SNE $38EA.w
00408A  58 47                         ADDQ.w #4,d7
00408C  31 FC 00 04 47 6A             MOVE.w #$4,$476A.w
004092  4A 38 38 E8                   TST.b $38E8.w
004096  66 00 FD 1C                   BNE $003DB4
00409A  4A 78 01 EE                   TST.w $1EE.w
00409E  66 18                         BNE $0040B8
0040A0  10 38 02 6C                   MOVE.b $26C.w,d0
0040A4  C0 7C 00 01                   AND.w #$1,d0
0040A8  D0 7C 00 20                   ADD.w #$20,d0
0040AC  31 C0 02 5C                   MOVE.w d0,$25C.w
0040B0  42 78 47 68                   CLR.w $4768.w
0040B4  60 00 01 28                   BRA $0041DE
0040B8  6A 0E                         BPL $0040C8
0040BA  51 F8 02 6C                   SF $26C.w
0040BE  31 FC 00 20 02 5C             MOVE.w #$20,$25C.w
0040C4  60 00 FE 1C                   BRA $003EE2
0040C8  50 F8 02 6C                   ST $26C.w
0040CC  31 FC 00 21 02 5C             MOVE.w #$21,$25C.w
0040D2  60 00 FD 16                   BRA $003DEA
0040D6  4A 78 01 EE                   TST.w $1EE.w
0040DA  67 04                         BEQ $0040E0
0040DC  5A F8 02 6C                   SPL $26C.w
0040E0  4A 38 01 E8                   TST.b $1E8.w
0040E4  67 1A                         BEQ $004100
0040E6  42 38 01 E8                   CLR.b $1E8.w
0040EA  42 38 02 16                   CLR.b $216.w
0040EE  61 00 36 92                   BSR $007782
0040F2  6B 14                         BMI $004108
0040F4  42 78 47 62                   CLR.w $4762.w
0040F8  50 F8 38 E8                   ST $38E8.w
0040FC  60 00 FC B6                   BRA $003DB4
004100  0C 38 00 40 02 16             CMPI.b #$40,$216.w
004106  67 DE                         BEQ $0040E6
004108  10 38 02 6C                   MOVE.b $26C.w,d0
00410C  C0 7C 00 01                   AND.w #$1,d0
004110  54 40                         ADDQ.w #2,d0
004112  31 C0 02 5C                   MOVE.w d0,$25C.w
004116  48 B8 00 C0 01 04             MOVEM.w d6-d7,$104.w
00411C  60 00 00 CA                   BRA $0041E8
004120  41 F8 47 CA                   LEA $47CA.w,a0
004124  30 28 FF FE                   MOVE.w -$2(a0),d0
004128  0C 70 80 01 00 00             CMPI.w #$8001,$0(a0,d0.w)
00412E  66 0C                         BNE $00413C
004130  51 F8 38 E9                   SF $38E9.w
004134  51 F8 38 EA                   SF $38EA.w
004138  60 00 F9 1C                   BRA $003A56
00413C  4A 70 00 00                   TST.w $0(a0,d0.w)
004140  6B 54                         BMI $004196
004142  32 07                         MOVE.w d7,d1
004144  30 06                         MOVE.w d6,d0
004146  58 40                         ADDQ.w #4,d0
004148  D2 7C 00 25                   ADD.w #$25,d1
00414C  38 00                         MOVE.w d0,d4
00414E  3A 01                         MOVE.w d1,d5
004150  61 00 F4 5C                   BSR $0035AE
004154  66 14                         BNE $00416A
004156  50 44                         ADDQ.w #8,d4
004158  52 41                         ADDQ.w #1,d1
00415A  10 32 10 00                   MOVE.b $0(a2,d1.w),d0
00415E  66 0A                         BNE $00416A
004160  50 44                         ADDQ.w #8,d4
004162  52 41                         ADDQ.w #1,d1
004164  10 32 10 00                   MOVE.b $0(a2,d1.w),d0
004168  67 2C                         BEQ $004196
00416A  6A 0A                         BPL $004176
00416C  32 04                         MOVE.w d4,d1
00416E  34 05                         MOVE.w d5,d2
004170  61 00 FB D0                   BSR $003D42
004174  60 20                         BRA $004196
004176  54 78 47 C6                   ADDQ.w #2,$47C6.w
00417A  31 78 47 C6 FF FE             MOVE.w $47C6.w,-$2(a0)
004180  53 38 38 E9                   SUBQ.b #1,$38E9.w
004184  66 08                         BNE $00418E
004186  51 F8 38 E9                   SF $38E9.w
00418A  60 00 F8 CA                   BRA $003A56
00418E  30 28 FF FE                   MOVE.w -$2(a0),d0
004192  30 30 00 00                   MOVE.w $0(a0,d0.w),d0
004196  30 28 FF FE                   MOVE.w -$2(a0),d0
00419A  54 68 FF FE                   ADDQ.w #2,-$2(a0)
00419E  30 30 00 00                   MOVE.w $0(a0,d0.w),d0
0041A2  DE 40                         ADD.w d0,d7
0041A4  31 C0 47 6A                   MOVE.w d0,$476A.w
0041A8  60 00 FC 0A                   BRA $003DB4
0041AC  4A 38 47 66                   TST.b $4766.w
0041B0  67 08                         BEQ $0041BA
0041B2  53 39 00 00 47 66             SUBQ.b #1,$4766.l
0041B8  4E 75                         RTS
0041BA  13 FC 00 01 00 00 47 66       MOVE.b #$1,$4766.l
0041C2  30 38 01 EE                   MOVE.w $1EE.w,d0
0041C6  D0 38 59 4B                   ADD.b $594B.w,d0
0041CA  C0 3C 00 1F                   AND.b #$1F,d0
0041CE  11 C0 59 4B                   MOVE.b d0,$594B.w
0041D2  42 78 47 68                   CLR.w $4768.w
0041D6  61 10                         BSR $0041E8
0041D8  42 B8 01 24                   CLR.l $124.w
0041DC  4E 75                         RTS
0041DE  48 B8 00 C0 01 04             MOVEM.w d6-d7,$104.w
0041E4  42 78 01 EA                   CLR.w $1EA.w

; ==== sub_0041E8 (1 caller) ====
0041E8  61 00 01 0E                   BSR $0042F8
0041EC  4C B8 00 03 02 64             MOVEM.w $264.w,d0-d1
0041F2  58 41                         ADDQ.w #4,d1
0041F4  61 00 F3 B8                   BSR $0035AE
0041F8  6A 06                         BPL $004200
0041FA  61 00 FB 24                   BSR $003D20
0041FE  67 16                         BEQ $004216
004200  10 32 10 01                   MOVE.b $1(a2,d1.w),d0
004204  6A 06                         BPL $00420C
004206  61 00 FB 18                   BSR $003D20
00420A  67 0A                         BEQ $004216
00420C  10 32 10 02                   MOVE.b $2(a2,d1.w),d0
004210  6A 04                         BPL $004216
004212  61 00 FB 0C                   BSR $003D20
004216  30 38 02 64                   MOVE.w $264.w,d0
00421A  32 38 02 6A                   MOVE.w $26A.w,d1
00421E  59 41                         SUBQ.w #4,d1
004220  61 00 F3 8C                   BSR $0035AE
004224  6A 06                         BPL $00422C
004226  61 00 FA F8                   BSR $003D20
00422A  67 16                         BEQ $004242
00422C  10 32 10 01                   MOVE.b $1(a2,d1.w),d0
004230  6A 06                         BPL $004238
004232  61 00 FA EC                   BSR $003D20
004236  67 0A                         BEQ $004242
004238  10 32 10 02                   MOVE.b $2(a2,d1.w),d0
00423C  6A 04                         BPL $004242
00423E  61 00 FA E0                   BSR $003D20
004242  51 F8 01 3C                   SF $13C.w
004246  51 F8 01 3D                   SF $13D.w
00424A  4A 38 38 EC                   TST.b $38EC.w
00424E  66 00 00 40                   BNE $004290
004252  11 FC 00 05 38 EC             MOVE.b #$5,$38EC.w
004258  30 38 01 04                   MOVE.w $104.w,d0
00425C  34 38 01 20                   MOVE.w $120.w,d2
004260  38 38 47 68                   MOVE.w $4768.w,d4
004264  B0 7C 00 84                   CMP.w #$84,d0
004268  6C 08                         BGE $004272
00426A  53 42                         SUBQ.w #1,d2
00426C  B4 44                         CMP.w d4,d2
00426E  6D 10                         BLT $004280
004270  60 1A                         BRA $00428C
004272  B0 7C 00 D4                   CMP.w #$D4,d0
004276  6F 08                         BLE $004280
004278  52 42                         ADDQ.w #1,d2
00427A  B4 44                         CMP.w d4,d2
00427C  6E 02                         BGT $004280
00427E  60 0C                         BRA $00428C
004280  4A 42                         TST.w d2
004282  67 08                         BEQ $00428C
004284  6A 04                         BPL $00428A
004286  52 42                         ADDQ.w #1,d2
004288  60 02                         BRA $00428C
00428A  53 42                         SUBQ.w #1,d2
00428C  31 C2 01 24                   MOVE.w d2,$124.w
004290  53 38 38 EC                   SUBQ.b #1,$38EC.w
004294  42 78 01 26                   CLR.w $126.w
004298  32 38 01 06                   MOVE.w $106.w,d1
00429C  30 38 47 6A                   MOVE.w $476A.w,d0
0042A0  66 02                         BNE $0042A4
0042A2  70 01                         MOVEQ #$1,d0
0042A4  B2 7C 00 48                   CMP.w #$48,d1
0042A8  6C 06                         BGE $0042B0
0042AA  91 78 01 26                   SUB.w d0,$126.w
0042AE  4E 75                         RTS
0042B0  B2 7C 00 8E                   CMP.w #$8E,d1
0042B4  6F 04                         BLE $0042BA
0042B6  D1 78 01 26                   ADD.w d0,$126.w
0042BA  30 38 01 24                   MOVE.w $124.w,d0
0042BE  66 14                         BNE $0042D4
0042C0  4A 78 01 20                   TST.w $120.w
0042C4  67 0E                         BEQ $0042D4
0042C6  34 38 35 F8                   MOVE.w $35F8.w,d2
0042CA  B4 7C 00 04                   CMP.w #$4,d2
0042CE  6F 04                         BLE $0042D4
0042D0  30 38 01 20                   MOVE.w $120.w,d0
0042D4  32 38 01 26                   MOVE.w $126.w,d1
0042D8  66 14                         BNE $0042EE
0042DA  4A 78 01 22                   TST.w $122.w
0042DE  67 0E                         BEQ $0042EE
0042E0  34 38 36 0E                   MOVE.w $360E.w,d2
0042E4  B4 7C 00 06                   CMP.w #$6,d2
0042E8  6F 04                         BLE $0042EE
0042EA  32 38 01 22                   MOVE.w $122.w,d1
0042EE  31 C0 01 24                   MOVE.w d0,$124.w
0042F2  31 C1 01 26                   MOVE.w d1,$126.w
0042F6  4E 75                         RTS

; ==== sub_0042F8 (1 caller) ====
0042F8  4C B8 00 03 01 04             MOVEM.w $104.w,d0-d1
0042FE  D0 7C 00 0C                   ADD.w #$C,d0
004302  54 41                         ADDQ.w #2,d1
004304  4A 38 02 6C                   TST.b $26C.w
004308  67 02                         BEQ $00430C
00430A  5D 40                         SUBQ.w #6,d0
00430C  34 00                         MOVE.w d0,d2
00430E  36 01                         MOVE.w d1,d3
004310  D4 7C 00 0E                   ADD.w #$E,d2
004314  D6 7C 00 22                   ADD.w #$22,d3
004318  4A 38 38 E8                   TST.b $38E8.w
00431C  66 08                         BNE $004326
00431E  4A 78 01 F0                   TST.w $1F0.w
004322  67 08                         BEQ $00432C
004324  6B 06                         BMI $00432C
004326  D2 7C 00 0E                   ADD.w #$E,d1
00432A  60 14                         BRA $004340
00432C  0C 78 00 20 02 5C             CMPI.w #$20,$25C.w
004332  67 08                         BEQ $00433C
004334  0C 78 00 21 02 5C             CMPI.w #$21,$25C.w
00433A  66 04                         BNE $004340
00433C  59 41                         SUBQ.w #4,d1
00433E  5F 43                         SUBQ.w #7,d3
004340  48 B8 00 0F 02 64             MOVEM.w d0-d3,$264.w
004346  3C 38 02 62                   MOVE.w $262.w,d6
00434A  8C 38 38 E8                   OR.b $38E8.w,d6
00434E  4B F8 4A BA                   LEA $4ABA.w,a5
004352  7E 0E                         MOVEQ #$E,d7
004354  4A 55                         TST.w (a5)
004356  67 2C                         BEQ $004384
004358  4C B8 00 0F 02 64             MOVEM.w $264.w,d0-d3
00435E  4C AD 00 30 00 02             MOVEM.w $2(a5),d4-d5
004364  B8 42                         CMP.w d2,d4
004366  6E 1C                         BGT $004384
004368  BA 43                         CMP.w d3,d5
00436A  6E 18                         BGT $004384
00436C  5C 44                         ADDQ.w #6,d4
00436E  B8 40                         CMP.w d0,d4
004370  6D 12                         BLT $004384
004372  5C 45                         ADDQ.w #6,d5
004374  BA 41                         CMP.w d1,d5
004376  6D 0C                         BLT $004384
004378  42 55                         CLR.w (a5)
00437A  4A 46                         TST.w d6
00437C  66 06                         BNE $004384
00437E  72 04                         MOVEQ #$4,d1
004380  61 00 33 CC                   BSR $00774E
004384  5C 4D                         ADDQ.w #6,a5
004386  51 CF FF CC                   DBRA d7,$004354
00438A  4E 75                         RTS

; ==== sub_00438C (1 caller) ====
00438C  4C B8 00 0F 02 64             MOVEM.w $264.w,d0-d3
004392  4C AD 00 30 00 18             MOVEM.w $18(a5),d4-d5
004398  28 6D 00 08                   MOVEA.l $8(a5),a4
00439C  3C 2D 00 0C                   MOVE.w $C(a5),d6
0043A0  E7 4E                         LSL.w #3,d6
0043A2  D8 C6                         ADDA.w d6,a4
0043A4  D8 5C                         ADD.w (a4)+,d4
0043A6  B4 44                         CMP.w d4,d2
0043A8  6D 2A                         BLT $0043D4
0043AA  DA 5C                         ADD.w (a4)+,d5
0043AC  B6 45                         CMP.w d5,d3
0043AE  6D 24                         BLT $0043D4
0043B0  D8 5C                         ADD.w (a4)+,d4
0043B2  B0 44                         CMP.w d4,d0
0043B4  6E 1E                         BGT $0043D4
0043B6  DA 5C                         ADD.w (a4)+,d5
0043B8  B2 45                         CMP.w d5,d1
0043BA  6E 18                         BGT $0043D4
0043BC  4A 38 38 E8                   TST.b $38E8.w
0043C0  67 04                         BEQ $0043C6
0043C2  7C FF                         MOVEQ #$FF,d6
0043C4  4E 75                         RTS
0043C6  4A 78 02 62                   TST.w $262.w
0043CA  67 04                         BEQ $0043D0
0043CC  7C FF                         MOVEQ #$FF,d6
0043CE  4E 75                         RTS
0043D0  7C 01                         MOVEQ #$1,d6
0043D2  4E 75                         RTS
0043D4  7C 00                         MOVEQ #$0,d6
0043D6  4E 75                         RTS

; ==== sub_0043D8 (5 callers) ====
0043D8  4A 38 02 52                   TST.b $252.w
0043DC  67 02                         BEQ $0043E0
0043DE  4E 75                         RTS
0043E0  4C B8 00 03 01 04             MOVEM.w $104.w,d0-d1
0043E6  4A 78 02 62                   TST.w $262.w
0043EA  67 3A                         BEQ $004426
0043EC  53 78 02 62                   SUBQ.w #1,$262.w
0043F0  53 78 02 60                   SUBQ.w #1,$260.w
0043F4  6A 10                         BPL $004406
0043F6  31 FC 00 03 02 60             MOVE.w #$3,$260.w
0043FC  52 78 02 5E                   ADDQ.w #1,$25E.w
004400  02 78 00 07 02 5E             ANDI.w #$7,$25E.w
004406  38 38 02 62                   MOVE.w $262.w,d4
00440A  B8 7C 00 64                   CMP.w #$64,d4
00440E  6C 06                         BGE $004416
004410  C8 7C 00 03                   AND.w #$3,d4
004414  60 04                         BRA $00441A
004416  C8 7C 00 01                   AND.w #$1,d4
00441A  66 0A                         BNE $004426
00441C  38 38 02 5E                   MOVE.w $25E.w,d4
004420  D8 7C 00 26                   ADD.w #$26,d4
004424  60 04                         BRA $00442A
004426  38 38 02 5C                   MOVE.w $25C.w,d4
00442A  E7 4C                         LSL.w #3,d4
00442C  41 F8 45 AE                   LEA $45AE.w,a0
004430  D0 C4                         ADDA.w d4,a0
004432  D2 68 00 04                   ADD.w $4(a0),d1
004436  74 00                         MOVEQ #$0,d2
004438  36 3C 00 80                   MOVE.w #$80,d3
00443C  D2 3C 00 0C                   ADD.b #$C,d1
004440  D0 7C 00 71                   ADD.w #$71,d0
004444  E2 48                         LSR.w #1,d0
004446  64 04                         BCC $00444C
004448  08 C3 00 00                   BSET.l #$0,d3
00444C  14 01                         MOVE.b d1,d2
00444E  E1 4A                         LSL.w #8,d2
004450  14 00                         MOVE.b d0,d2
004452  D2 28 00 03                   ADD.b $3(a0),d1
004456  64 04                         BCC $00445C
004458  08 C3 00 01                   BSET.l #$1,d3
00445C  E1 49                         LSL.w #8,d1
00445E  86 41                         OR.w d1,d3
004460  70 00                         MOVEQ #$0,d0
004462  72 00                         MOVEQ #$0,d1
004464  30 10                         MOVE.w (a0),d0
004466  D0 BC 00 00 AD 00             ADD.l #$AD00,d0
00446C  32 28 00 06                   MOVE.w $6(a0),d1
004470  43 F8 72 94                   LEA $7294.w,a1
004474  48 40                         SWAP d0
004476  33 40 00 02                   MOVE.w d0,$2(a1)
00447A  48 40                         SWAP d0
00447C  33 40 00 06                   MOVE.w d0,$6(a1)
004480  20 40                         MOVEA.l d0,a0
004482  48 90 00 0C                   MOVEM.w d2-d3,(a0)
004486  50 49                         ADDQ.w #8,a1
004488  D0 81                         ADD.l d1,d0
00448A  48 40                         SWAP d0
00448C  33 40 00 02                   MOVE.w d0,$2(a1)
004490  48 40                         SWAP d0
004492  33 40 00 06                   MOVE.w d0,$6(a1)
004496  20 40                         MOVEA.l d0,a0
004498  48 90 00 0C                   MOVEM.w d2-d3,(a0)
00449C  50 02                         ADDQ.b #8,d2
00449E  50 49                         ADDQ.w #8,a1
0044A0  D0 81                         ADD.l d1,d0
0044A2  48 40                         SWAP d0
0044A4  33 40 00 02                   MOVE.w d0,$2(a1)
0044A8  48 40                         SWAP d0
0044AA  33 40 00 06                   MOVE.w d0,$6(a1)
0044AE  20 40                         MOVEA.l d0,a0
0044B0  48 90 00 0C                   MOVEM.w d2-d3,(a0)
0044B4  50 49                         ADDQ.w #8,a1
0044B6  D0 81                         ADD.l d1,d0
0044B8  48 40                         SWAP d0
0044BA  33 40 00 02                   MOVE.w d0,$2(a1)
0044BE  48 40                         SWAP d0
0044C0  33 40 00 06                   MOVE.w d0,$6(a1)
0044C4  20 40                         MOVEA.l d0,a0
0044C6  48 90 00 0C                   MOVEM.w d2-d3,(a0)
0044CA  4E 75                         RTS

; ==== sub_0044CC (3 callers) ====
0044CC  42 6E 00 36                   CLR.w $36(a6)
0044D0  30 2E 00 0C                   MOVE.w $C(a6),d0
0044D4  4B F8 45 68                   LEA $4568.w,a5
0044D8  72 08                         MOVEQ #$8,d1
0044DA  B0 55                         CMP.w (a5),d0
0044DC  67 06                         BEQ $0044E4
0044DE  5C 4D                         ADDQ.w #6,a5
0044E0  51 C9 FF F8                   DBRA d1,$0044DA
0044E4  4C AD 00 03 00 02             MOVEM.w $2(a5),d0-d1
0044EA  4A 38 01 E7                   TST.b $1E7.w
0044EE  66 12                         BNE $004502
0044F0  08 39 00 07 00 BF E0 01       BTST.b #$7,$BFE001.l
0044F8  66 24                         BNE $00451E
0044FA  50 F8 01 E7                   ST $1E7.w
0044FE  50 F8 01 E6                   ST $1E6.w
004502  08 39 00 07 00 BF E0 01       BTST.b #$7,$BFE001.l
00450A  67 0E                         BEQ $00451A
00450C  42 78 01 EA                   CLR.w $1EA.w
004510  51 F8 01 E7                   SF $1E7.w
004514  51 F8 01 E6                   SF $1E6.w
004518  60 04                         BRA $00451E
00451A  52 78 01 EA                   ADDQ.w #1,$1EA.w
00451E  4A 38 01 E9                   TST.b $1E9.w
004522  66 16                         BNE $00453A
004524  3D 7C FF 00 00 34             MOVE.w #$FF00,$34(a6)
00452A  08 2E 00 0E 00 16             BTST.b #$E,$16(a6)
004530  66 28                         BNE $00455A
004532  50 F8 01 E9                   ST $1E9.w
004536  50 F8 01 E8                   ST $1E8.w
00453A  3D 7C FF 00 00 34             MOVE.w #$FF00,$34(a6)
004540  08 2E 00 0E 00 16             BTST.b #$E,$16(a6)
004546  67 0E                         BEQ $004556
004548  42 78 01 EC                   CLR.w $1EC.w
00454C  51 F8 01 E9                   SF $1E9.w
004550  51 F8 01 E8                   SF $1E8.w
004554  60 04                         BRA $00455A
004556  52 78 01 EC                   ADDQ.w #1,$1EC.w
00455A  4A 38 01 E0                   TST.b $1E0.w
00455E  67 06                         BEQ $004566
004560  20 78 01 E2                   MOVEA.l $1E2.w,a0
004564  4E D0                         JMP (a0)
004566  4E 75                         RTS
004568  .dc.b 00 00 00 00 00 00 03 00 FF FF 00 00 00 03 00 01 ; ................
004578  .dc.b 00 00 01 00 00 00 FF FF 00 01 00 00 00 01 02 00 ; ................
004588  .dc.b FF FF FF FF 03 01 FF FF 00 01 00 02 00 01 00 01 ; ................
004598  .dc.b 01 03 00 01 FF FF 00 00 00 00 00 00 00 00 00 00 ; ................
0045A8  .dc.b 00 00 00 00 00 00 00 00 00 25 00 00 00 9C 02 70 ; .........%.....p
0045B8  .dc.b 00 25 00 00 00 9C 04 E0 00 25 00 00 00 9C 07 50 ; .%.......%.....P
0045C8  .dc.b 00 25 00 00 00 9C 09 C0 00 25 00 00 00 9C 0C 30 ; .%.......%.....0
0045D8  .dc.b 00 25 00 00 00 9C 0E A0 00 25 00 00 00 9C 11 10 ; .%.......%......
0045E8  .dc.b 00 25 00 00 00 9C 13 80 00 25 00 00 00 9C 15 F0 ; .%.......%......
0045F8  .dc.b 00 25 00 00 00 9C 18 60 00 25 00 00 00 9C 1A D0 ; .%.....`.%......
004608  .dc.b 00 25 00 00 00 9C 1D 40 00 25 00 00 00 9C 1F B0 ; .%.....@.%......
004618  .dc.b 00 25 00 00 00 9C 22 20 00 25 00 00 00 9C 24 90 ; .%...." .%....$.
004628  .dc.b 00 25 00 00 00 9C 27 00 00 25 00 00 00 9C 29 70 ; .%....'..%....)p
004638  .dc.b 00 25 00 00 00 9C 2B E0 00 25 00 00 00 9C 2E 50 ; .%....+..%.....P
004648  .dc.b 00 25 00 00 00 9C 30 C0 00 25 00 00 00 9C 33 30 ; .%....0..%....30
004658  .dc.b 00 25 00 00 00 9C 35 A0 00 25 00 00 00 9C 38 10 ; .%....5..%....8.
004668  .dc.b 00 25 00 00 00 9C 3A 80 00 25 00 00 00 9C 3C F0 ; .%....:..%....<.
004678  .dc.b 00 25 00 00 00 9C 3F 60 00 25 00 00 00 9C 41 D0 ; .%....?`.%....A.
004688  .dc.b 00 25 00 00 00 9C 44 40 00 25 00 00 00 9C 46 B0 ; .%....D@.%....F.
004698  .dc.b 00 25 00 00 00 9C 49 20 00 25 00 00 00 9C 4B 90 ; .%....I .%....K.
0046A8  .dc.b 00 25 00 00 00 9C 4E 00 00 29 00 00 00 AC 50 B0 ; .%....N..)....P.
0046B8  .dc.b 00 29 00 00 00 AC 53 60 00 15 00 10 00 5C 54 D0 ; .)....S`.....\T.
0046C8  .dc.b 00 15 00 10 00 5C 56 40 00 15 00 10 00 5C 57 B0 ; .....\V@.....\W.
0046D8  .dc.b 00 15 00 10 00 5C A2 08 00 29 FF FE 00 AC A4 B8 ; .....\...)......
0046E8  .dc.b 00 29 FF FE 00 AC A7 68 00 29 FF FE 00 AC AA 18 ; .).....h.)......
0046F8  .dc.b 00 29 FF FE 00 AC AC C8 00 29 FF FE 00 AC AF 78 ; .).......).....x
004708  .dc.b 00 29 FF FE 00 AC B2 28 00 29 FF FE 00 AC B4 D8 ; .).....(.)......
004718  .dc.b 00 29 FF FE 00 AC 04 04 05 05 06 06 07 07 08 08 ; .)..............
004728  .dc.b 09 09 0A 0A 0B 0B 0C 0C 0D 0D 0E 0E 0F 0F 10 10 ; ................
004738  .dc.b 11 11 FF 12 12 13 13 14 14 15 15 16 16 17 17 18 ; ................
004748  .dc.b 18 19 19 1A 1A 1B 1B 1C 1C 1D 1D 1E 1E 1F 1F FF ; ................
004758  .dc.b 22 23 24 25 FF 25 24 23 22 FF 00 00 00 00 00 00 ; "#$%.%$#".......
004768  .dc.b 00 00 00 00 00 00 FF F9 FF F9 FF FA FF FA FF FB ; ................
004778  .dc.b FF FA FF FB FF FB FF FC FF FC FF FC FF FC FF FD ; ................
004788  .dc.b FF FD FF FD FF FD FF FD FF FE FF FE FF FE FF FE ; ................
004798  .dc.b FF FE FF FE FF FF FF FF FF FF FF FF FF FF FF FF ; ................
0047A8  .dc.b FF FF 00 00 00 00 00 00 00 00 00 01 00 01 00 01 ; ................
0047B8  .dc.b 00 02 00 02 00 02 00 03 00 03 00 04 80 00 00 00 ; ................
0047C8  .dc.b 00 00 FF FD FF FE FF FE FF FF FF FF 00 00 00 01 ; ................
0047D8  .dc.b 00 01 00 02 00 02 00 03 00 04 80 01 00 00 00 00 ; ................
0047E8  .dc.b 00 00 00 00 00 00 00 00 00 00 00 00 00 00 00 00 ; ................
0047F8  .dc.b 00 00 00 00 00 00 00 00 00 00 00 00 00 00 00 00 ; ................
004808  .dc.b 00 00 00 00 00 00 00 00 00 00 00 00 00 00 00 00 ; ................
004818  .dc.b 00 00 00 00 00 00 00 00 00 00 00 00 00 00 00 00 ; ................
004828  .dc.b 00 00 00 00 00 00 00 00 00 01 0C 58 00 01 0C B8 ; ...........X....
004838  .dc.b 00 BC 04 02 10 00 00 01 0C D8 00 01 0D 38 00 BC ; .............8..
004848  .dc.b 04 02 10 00 00 01 4B 88 00 01 4B E8 00 BC 04 02 ; ......K...K.....
004858  .dc.b 10 00 00 00 00 01 4B 88 00 01 4B E8 00 BC 04 02 ; ......K...K.....
004868  .dc.b 10 00 00 00 00 01 4C 08 00 01 4C 68 00 BC 04 02 ; ......L...Lh....
004878  .dc.b 10 00 00 00 00 01 4C 08 00 01 4C 68 00 BC 04 02 ; ......L...Lh....
004888  .dc.b 10 00 00 00 00 01 4C 88 00 01 4C E8 00 BC 04 02 ; ......L...L.....
004898  .dc.b 10 00 00 00 00 01 4C 88 00 01 4C E8 00 BC 04 02 ; ......L...L.....
0048A8  .dc.b 10 00 00 00 00 01 4D 08 00 01 4D 68 00 BC 04 02 ; ......M...Mh....
0048B8  .dc.b 10 00 00 00 00 01 4D 08 00 01 4D 68 00 BC 04 02 ; ......M...Mh....
0048C8  .dc.b 10 00 00 00 00 01 4D 88 00 01 4D E8 00 BC 04 02 ; ......M...M.....
0048D8  .dc.b 10 00 00 00 00 01 4D 88 00 01 4D E8 00 BC 04 02 ; ......M...M.....
0048E8  .dc.b 10 00 00 00 00 01 09 D8 00 01 0A 38 00 BC 04 02 ; ...........8....
0048F8  .dc.b 10 00 00 00 00 01 09 D8 00 01 0A 38 00 BC 04 02 ; ...........8....
004908  .dc.b 10 00 00 00 00 01 0A 58 00 01 0A B8 00 BC 04 02 ; .......X........
004918  .dc.b 10 00 00 00 00 01 0A 58 00 01 0A B8 00 BC 04 02 ; .......X........
004928  .dc.b 10 00 00 00 00 01 0A D8 00 01 0B 38 00 BC 04 02 ; ...........8....
004938  .dc.b 10 00 00 00 00 01 0A D8 00 01 0B 38 00 BC 04 02 ; ...........8....
004948  .dc.b 10 00 00 00 00 01 0B 58 00 01 0B B8 00 BC 04 02 ; .......X........
004958  .dc.b 10 00 00 00 00 01 0B 58 00 01 0B B8 00 BC 04 02 ; .......X........
004968  .dc.b 10 00 00 00 00 01 0B D8 00 01 0C 38 00 BC 04 02 ; ...........8....
004978  .dc.b 10 00 00 00 00 01 0B D8 00 01 0C 38 00 BC 04 02 ; ...........8....
004988  .dc.b 10 00 00 00 00 00 00 00 00 00 00 00 00 00 00 00 ; ................
004998  .dc.b 00 00 00 00 00 01 06 20 00 01 06 4A 00 BC 01 C2 ; ....... ...J....
0049A8  .dc.b 07 00 00 00 00 01 06 58 00 01 06 82 00 BC 01 C2 ; .......X........
0049B8  .dc.b 07 00 00 00 00 01 06 90 00 01 06 BA 00 BC 01 C2 ; ................
0049C8  .dc.b 07 00 00 00 00 01 06 C8 00 01 06 F2 00 BC 01 C2 ; ................
0049D8  .dc.b 07 00 00 00 00 01 07 00 00 01 07 2A 00 BC 01 C2 ; ...........*....
0049E8  .dc.b 07 00 00 00 00 01 07 38 00 01 07 62 00 BC 01 C2 ; .......8...b....
0049F8  .dc.b 07 00 00 00 00 01 07 70 00 01 07 9A 00 BC 01 C2 ; .......p........
004A08  .dc.b 07 00 00 00 00 01 07 A8 00 01 07 D2 00 BC 01 C2 ; ................
004A18  .dc.b 07 00 00 00 00 01 07 E0 00 01 08 0A 00 BC 01 C2 ; ................
004A28  .dc.b 07 00 00 00 00 01 08 18 00 01 08 42 00 BC 01 C2 ; ...........B....
004A38  .dc.b 07 00 00 00 00 01 08 50 00 01 08 7A 00 BC 01 C2 ; .......P...z....
004A48  .dc.b 07 00 00 00 00 01 08 88 00 01 08 B2 00 BC 01 C2 ; ................
004A58  .dc.b 07 00 00 00 00 01 08 C0 00 01 08 EA 00 BC 01 C2 ; ................
004A68  .dc.b 07 00 00 00 00 01 08 F8 00 01 09 22 00 BC 01 C2 ; ..........."....
004A78  .dc.b 07 00 00 00 00 01 09 30 00 01 09 5A 00 BC 01 C2 ; .......0...Z....
004A88  .dc.b 07 00 00 00 00 01 09 68 00 01 09 92 00 BC 01 C2 ; .......h........
004A98  .dc.b 07 00 00 00 00 01 09 A0 00 01 09 CA 00 BC 01 C2 ; ................
004AA8  .dc.b 07 00 00 00 00 01 08 C0 00 01 08 EA 00 BC 01 C2 ; ................
004AB8  .dc.b 07 00 00 00 00 00 00 00 00 00 00 00 00 00 00 00 ; ................
004AC8  .dc.b 00 00 00 00 00 00 00 00 00 00 00 00 00 00 00 00 ; ................
004AD8  .dc.b 00 00 00 00 00 00 00 00 00 00 00 00 00 00 00 00 ; ................
004AE8  .dc.b 00 00 00 00 00 00 00 00 00 00 00 00 00 00 00 00 ; ................
004AF8  .dc.b 00 00 00 00 00 00 00 00 00 00 00 00 00 00 00 00 ; ................
004B08  .dc.b 00 00 00 00 00 00 00 00 00 00 00 00 00 00 00 00 ; ................
004B18  .dc.b 00 00 00 00 00 00 00 00 00 00 00 00 00 00 00 00 ; ................
004B28  .dc.b 00 00 00 00 00 00 00 00 00 00 FF FE 00 00 FF FE ; ................
004B38  .dc.b FF FF FF FE FF FE FF FF FF FE 00 00 FF FE 00 01 ; ................
004B48  .dc.b FF FE 00 02 FF FE 00 02 FF FF 00 02 00 00 00 02 ; ................
004B58  .dc.b 00 01 00 02 00 02 00 01 00 02 00 00 00 02 FF FF ; ................
004B68  .dc.b 00 02 FF FE 00 02 FF FE 00 01 FF FC 00 01 FF FE ; ................
004B78  .dc.b 00 02 00 00 00 03 00 02 00 02 00 04 00 01 FF FC ; ................
004B88  .dc.b 00 01 FF FC 00 00 FF FC FF FF 00 04 00 01 00 04 ; ................
004B98  .dc.b 00 00 00 04 FF FF 00 00 00 00 00 00 00 00 00 00 ; ................
004BA8  .dc.b 00 00 00 00 00 00 00 00 00 00 00 00 00 00 00 00 ; ................
004BB8  .dc.b 00 00 00 00 00 00 00 00 00 00 00 00 00 00 00 00 ; ................
004BC8  .dc.b 00 00 00 00 00 00 00 00 00 00 00 00 00 00 00 00 ; ................
004BD8  .dc.b 00 00 00 00 00 00 00 01 09 68 00 01 09 92 00 BC ; .........h......
004BE8  .dc.b 01 C2 07 00 00 01 09 30 00 01 09 5A 00 BC 01 C2 ; .......0...Z....
004BF8  .dc.b 07 00 00 01 09 A0 00 01 09 CA 00 BC 01 C2 07 00 ; ................
004C08  .dc.b 00 01 08 F8 00 01 09 22 00 BC 01 C2 07 00 00 00 ; ......."........
004C18  .dc.b 4C 1E 00 00 4C 2C 00 01 08 50 00 01 08 7A 00 BC ; L...L,...P...z..
004C28  .dc.b 01 C2 07 00 00 01 08 88 00 01 08 B2 00 BC 01 C2 ; ................
004C38  .dc.b 07 00 00 00 4C 5A 00 00 4C 68 00 00 4C 76 00 00 ; ....LZ..Lh..Lv..
004C48  .dc.b 4C 84 00 00 4C 92 00 00 4C A0 00 00 4C AE 00 00 ; L...L...L...L...
004C58  .dc.b 4C BC 00 01 17 E8 00 01 19 68 00 BA 08 03 20 00 ; L........h.... .
004C68  .dc.b 00 01 19 E8 00 01 1B 68 00 BA 08 03 20 00 00 01 ; .......h.... ...
004C78  .dc.b 1B E8 00 01 1D 68 00 BA 08 03 20 00 00 01 1D E8 ; .....h.... .....
004C88  .dc.b 00 01 1F 68 00 BA 08 03 20 00 00 01 1F E8 00 01 ; ...h.... .......
004C98  .dc.b 21 68 00 BA 08 03 20 00 00 01 21 E8 00 01 23 68 ; !h.... ...!...#h
004CA8  .dc.b 00 BA 08 03 20 00 00 01 23 E8 00 01 25 68 00 BA ; .... ...#...%h..
004CB8  .dc.b 08 03 20 00 00 01 25 E8 00 01 27 68 00 BA 08 03 ; .. ...%...'h....
004CC8  .dc.b 20 00                                           ;  .

; --- bob_frame_table  $004CCA — Array of BOB-descriptor pointers — the animation frames. The per-object-type draw routines do `LEA $4CCA,a5; ADDA.w d3,a5` (d3 selects the object's frame group) then `MOVEA.l $0(a5,d6.w),a0` to pick the current frame (d6, often toggled `EORI.w #$4,d6` for a 2-frame loop) before falling into draw_object_bob. (data) ---
004CCA  .dc.b 00 00 51 56 00 00 51 64 00 00 51 72 00 00 51 80 ; ..QV..Qd..Qr..Q.
004CDA  .dc.b 00 00 51 8E 00 00 51 9C 00 00 51 AA 00 00 51 B8 ; ..Q...Q...Q...Q.
004CEA  .dc.b 00 00 51 C6 00 00 51 D4 00 00 51 E2 00 00 51 F0 ; ..Q...Q...Q...Q.
004CFA  .dc.b 00 00 51 FE 00 00 52 0C 00 00 52 1A 00 00 52 28 ; ..Q...R...R...R(
004D0A  .dc.b 00 00 52 36 00 00 52 44 00 00 52 52 00 00 52 66 ; ..R6..RD..RR..Rf
004D1A  .dc.b 00 00 52 7A 00 00 52 8E 00 00 52 A2 00 00 52 B6 ; ..Rz..R...R...R.
004D2A  .dc.b 00 00 52 CA 00 00 52 DE 00 00 52 F2 00 00 53 06 ; ..R...R...R...S.
004D3A  .dc.b 00 00 53 1A 00 00 53 2E 00 00 53 42 00 00 53 56 ; ..S...S...SB..SV
004D4A  .dc.b 00 00 53 86 00 00 53 94 00 00 53 A2 FF E0 00 00 ; ..S...S...S.....
004D5A  .dc.b FF E3 FF F9 FF E4 FF F3 FF E6 FF EF FF E9 FF EA ; ................
004D6A  .dc.b FF EE FF E5 FF F3 FF E4 FF F9 FF E2 00 00 FF E0 ; ................
004D7A  .dc.b 00 07 FF E2 00 0D FF E4 00 12 FF E5 00 17 FF EA ; ................
004D8A  .dc.b 00 1A FF EF 00 1C FF F3 00 1D FF F9 00 20 00 00 ; ............. ..
004D9A  .dc.b 00 1D 00 07 00 1C 00 0D 00 1A 00 11 00 17 00 16 ; ................
004DAA  .dc.b 00 12 00 1B 00 0D 00 1C 00 07 00 1E 00 00 00 20 ; ............... 
004DBA  .dc.b FF F9 00 1E FF F3 00 1C FF EE 00 1B FF E9 00 16 ; ................
004DCA  .dc.b FF E6 00 11 FF E4 00 0D FF E3 00 07 FF E0 FF FB ; ................
004DDA  .dc.b FF E0 FF F5 FF E2 FF F0 FF E4 FF EB FF E7 FF E7 ; ................
004DEA  .dc.b FF EB FF E5 FF EE FF E3 FF F4 FF E2 FF FA FF E2 ; ................
004DFA  .dc.b FF FA FF E2 FF FC FF E3 FF FD FF E5 FF FB FF E8 ; ................
004E0A  .dc.b FF FC FF EC FF FE FF F0 FF FF FF F5 FF FF FF FA ; ................
004E1A  .dc.b FF FE FF FC FF FD FF FE FF FB FF FD FF FB FF FE ; ................
004E2A  .dc.b FF FA FF FE FF FB FF FE FF FB FF FF FF F9 00 01 ; ................
004E3A  .dc.b FF F4 FF FF FF F1 FF FF FF E9 00 00 FF E6 FF FE ; ................
004E4A  .dc.b FF E3 FF FE FF E2 FF FD FF E1 FF FC 00 1B 00 07 ; ................
004E5A  .dc.b 00 10 00 07 00 05 00 07 00 1A 00 0A 00 10 00 08 ; ................
004E6A  .dc.b 00 07 00 06 00 18 00 0E 00 10 00 0A 00 08 00 07 ; ................
004E7A  .dc.b 00 17 00 12 00 0F 00 0C 00 09 00 07 00 16 00 16 ; ................
004E8A  .dc.b 00 10 00 10 00 08 00 08 00 13 00 17 00 0E 00 10 ; ................
004E9A  .dc.b 00 09 00 08 00 0F 00 17 00 0C 00 10 00 09 00 08 ; ................
004EAA  .dc.b 00 0A 00 19 00 09 00 11 00 07 00 08 00 06 00 1A ; ................
004EBA  .dc.b 00 06 00 0F 00 06 00 06 00 07 00 18 00 08 00 10 ; ................
004ECA  .dc.b 00 0A 00 06 00 08 00 18 00 0B 00 0F 00 0F 00 07 ; ................
004EDA  .dc.b 00 08 00 18 00 0E 00 11 00 12 00 09 00 07 00 16 ; ................
004EEA  .dc.b 00 0F 00 0F 00 15 00 09 00 09 00 11 00 10 00 0C ; ................
004EFA  .dc.b 00 18 00 06 00 07 00 0F 00 10 00 0B 00 18 00 08 ; ................
004F0A  .dc.b 00 07 00 0B 00 10 00 09 00 19 00 07 00 05 00 07 ; ................
004F1A  .dc.b 00 10 00 07 00 1B 00 07 00 07 00 06 00 10 00 08 ; ................
004F2A  .dc.b 00 1A 00 0A 00 08 00 07 00 10 00 0A 00 18 00 0E ; ................
004F3A  .dc.b 00 09 00 07 00 0F 00 0C 00 17 00 12 00 08 00 08 ; ................
004F4A  .dc.b 00 10 00 10 00 16 00 16 00 09 00 08 00 0E 00 10 ; ................
004F5A  .dc.b 00 13 00 17 00 09 00 08 00 17 00 10 00 0F 00 17 ; ................
004F6A  .dc.b 00 07 00 08 00 09 00 11 00 0A 00 19 00 06 00 06 ; ................
004F7A  .dc.b 00 06 00 0F 00 06 00 1A 00 0A 00 06 00 08 00 10 ; ................
004F8A  .dc.b 00 07 00 18 00 0F 00 07 00 0B 00 0F 00 08 00 18 ; ................
004F9A  .dc.b 00 12 00 09 00 0E 00 11 00 08 00 18 00 15 00 09 ; ................
004FAA  .dc.b 00 0F 00 0F 00 07 00 16 00 18 00 06 00 10 00 0C ; ................
004FBA  .dc.b 00 09 00 11 00 18 00 08 00 10 00 0B 00 07 00 0F ; ................
004FCA  .dc.b 00 19 00 07 00 10 00 09 00 07 00 0B 00 00 4E 56 ; ..............NV
004FDA  .dc.b 00 00 4E 62 00 00 4E 6E 00 00 4E 7A 00 00 4E 86 ; ..Nb..Nn..Nz..N.
004FEA  .dc.b 00 00 4E 92 00 00 4E 9E 00 00 4E AA 00 00 4E B6 ; ..N...N...N...N.
004FFA  .dc.b 00 00 4E C2 00 00 4E CE 00 00 4E DA 00 00 4E E6 ; ..N...N...N...N.
00500A  .dc.b 00 00 4E F2 00 00 4E FE 00 00 4F 0A 00 00 4F 16 ; ..N...N...O...O.
00501A  .dc.b 00 00 4F 22 00 00 4F 2E 00 00 4F 3A 00 00 4F 46 ; ..O"..O...O:..OF
00502A  .dc.b 00 00 4F 52 00 00 4F 5E 00 00 4F 6A 00 00 4F 76 ; ..OR..O^..Oj..Ov
00503A  .dc.b 00 00 4F 82 00 00 4F 8E 00 00 4F 9A 00 00 4F A6 ; ..O...O...O...O.
00504A  .dc.b 00 00 4F B2 00 00 4F BE 00 00 4F CA FF F9 FF F7 ; ..O...O...O.....
00505A  .dc.b FF F9 FF F7 FF FB FF F7 FF FA FF F7 FF FA FF F9 ; ................
00506A  .dc.b FF F9 FF FA FF F6 FF FA FF F6 FF FB FF F6 FF F9 ; ................
00507A  .dc.b FF F9 FF FB FF FC FF FB 00 00 FF F9 00 02 FF F9 ; ................
00508A  .dc.b 00 04 FF F8 00 06 FF F8 00 05 FF F7 00 07 FF F7 ; ................
00509A  .dc.b 00 05 FF F9 00 06 FF FC 00 04 00 00 00 02 00 04 ; ................
0050AA  .dc.b 00 00 00 07 FF FC 00 05 FF F9 00 05 FF F6 00 07 ; ................
0050BA  .dc.b FF F6 00 05 FF F6 00 05 FF F9 00 06 FF FA 00 05 ; ................
0050CA  .dc.b FF FA 00 00 FF FB FF FC FF F9 FF F7 FF FB FF FE ; ................
0050DA  .dc.b FF FC FF FC FF FC FF FC FF FD FF FC FF FC FF FB ; ................
0050EA  .dc.b FF FD FF FB FF FB FF FA FF FC FF F9 FF FE FF F9 ; ................
0050FA  .dc.b 00 05 FF F9 00 09 FF FA 00 0F FF FB 00 14 FF FB ; ................
00510A  .dc.b 00 13 FF FC 00 14 FF FC 00 14 FF FC 00 15 FF FE ; ................
00511A  .dc.b 00 14 00 04 00 14 00 08 00 13 00 0C 00 13 00 11 ; ................
00512A  .dc.b 00 0F 00 14 00 08 00 14 00 04 00 15 FF FE 00 16 ; ................
00513A  .dc.b FF FB 00 15 FF FC 00 14 FF FD 00 14 FF FD 00 11 ; ................
00514A  .dc.b FF FD 00 0C FF FC 00 08 FF FC 00 04             ; ............

; --- bob_descriptors  $005156 — The BOB descriptor records (14 bytes each, see layout above) the frame table points at. These early ones (bitmaps resident at ~$12xxx-$13xxx) are small player/shot BOBs; world-enemy descriptors point into the scene block's BOB graphics. Many per-type draw routines live in $5642..$5B80 (each sets a0 from bob_frame_table and BSR/BRA draw_object_bob, some drawing several parts at sub-offsets for large/multi-part enemies). (data) ---
005156  .dc.b 00 01 27 E8 00 01 28 90 00 BA 03 83 0E 00 00 01 ; ..'...(.........
005166  .dc.b 28 C8 00 01 29 70 00 BA 03 83 0E 00 00 01 29 A8 ; (...)p........).
005176  .dc.b 00 01 2A 80 00 BA 04 83 12 00 00 01 2A C8 00 01 ; ..*.........*...
005186  .dc.b 2B A0 00 BA 04 83 12 00 00 01 2B E8 00 01 2C F0 ; +.........+...,.
005196  .dc.b 00 BA 05 83 16 00 00 01 2D 48 00 01 2E 50 00 BA ; ........-H...P..
0051A6  .dc.b 05 83 16 00 00 01 2E A8 00 01 2F D4 00 BA 06 43 ; ........../....C
0051B6  .dc.b 19 00 00 01 30 38 00 01 31 64 00 BA 06 43 19 00 ; ....08..1d...C..
0051C6  .dc.b 00 01 31 C8 00 01 33 30 00 BA 07 83 1E 00 00 01 ; ..1...30........
0051D6  .dc.b 33 A8 00 01 35 10 00 BA 07 83 1E 00 00 01 35 88 ; 3...5.........5.
0051E6  .dc.b 00 01 37 08 00 BA 08 03 20 00 00 01 37 88 00 01 ; ..7..... ...7...
0051F6  .dc.b 39 08 00 BA 08 03 20 00 00 01 39 88 00 01 3B 08 ; 9..... ...9...;.
005206  .dc.b 00 BA 08 03 20 00 00 01 3B 88 00 01 3D 08 00 BA ; .... ...;...=...
005216  .dc.b 08 03 20 00 00 01 3D 88 00 01 3F 08 00 BA 08 03 ; .. ...=...?.....
005226  .dc.b 20 00 00 01 3F 88 00 01 41 08 00 BA 08 03 20 00 ;  ...?...A..... .
005236  .dc.b 00 01 41 88 00 01 43 08 00 BA 08 03 20 00 00 01 ; ..A...C..... ...
005246  .dc.b 43 88 00 01 45 08 00 BA 08 03 20 00 00 01 3D 88 ; C...E..... ...=.
005256  .dc.b 00 01 3F 08 00 BA 08 03 20 01 FF F6 00 01 3F 84 ; ..?..... .....?.
005266  .dc.b 00 01 3F 88 00 01 41 08 00 BA 08 03 20 01 FF F6 ; ..?...A..... ...
005276  .dc.b 00 01 41 84 00 01 39 88 00 01 3B 08 00 BA 08 03 ; ..A...9...;.....
005286  .dc.b 20 01 FF F6 00 01 3B 84 00 01 3B 88 00 01 3D 08 ;  .....;...;...=.
005296  .dc.b 00 BA 08 03 20 01 FF F6 00 01 3D 84 00 01 35 88 ; .... .....=...5.
0052A6  .dc.b 00 01 37 08 00 BA 08 03 20 01 FF F6 00 01 37 84 ; ..7..... .....7.
0052B6  .dc.b 00 01 37 88 00 01 39 08 00 BA 08 03 20 01 FF F6 ; ..7...9..... ...
0052C6  .dc.b 00 01 39 84 00 01 31 C8 00 01 33 30 00 BA 07 83 ; ..9...1...30....
0052D6  .dc.b 1E 01 FF F6 00 01 33 A4 00 01 33 A8 00 01 35 10 ; ......3...3...5.
0052E6  .dc.b 00 BA 07 83 1E 01 FF F6 00 01 35 84 00 01 2E A8 ; ..........5.....
0052F6  .dc.b 00 01 2F D4 00 BA 06 43 19 01 FF F6 00 01 30 34 ; ../....C......04
005306  .dc.b 00 01 30 38 00 01 31 64 00 BA 06 43 19 01 FF F6 ; ..08..1d...C....
005316  .dc.b 00 01 31 C4 00 01 2B E8 00 01 2C F0 00 BA 05 83 ; ..1...+...,.....
005326  .dc.b 16 01 FF F6 00 01 2D 44 00 01 2D 48 00 01 2E 50 ; ......-D..-H...P
005336  .dc.b 00 BA 05 83 16 01 FF F6 00 01 2E A4 00 01 29 A8 ; ..............).
005346  .dc.b 00 01 2A 80 00 BA 04 83 12 01 FF F6 00 01 2A C4 ; ..*...........*.
005356  .dc.b 00 01 2A C8 00 01 2B A0 00 BA 04 83 12 01 FF F6 ; ..*...+.........
005366  .dc.b 00 01 2B E4 00 01 13 D8 00 01 14 38 00 BC 04 02 ; ..+........8....
005376  .dc.b 10 00 00 01 14 58 00 01 14 B8 00 BC 04 02 10 00 ; .....X..........
005386  .dc.b 00 01 45 88 00 01 47 08 00 BA 08 03 20 00 00 01 ; ..E...G..... ...
005396  .dc.b 47 88 00 01 49 08 00 BA 08 03 20 00 00 01 49 88 ; G...I..... ...I.
0053A6  .dc.b 00 01 4B 08 00 BA 08 03 20 00 FF F3 00 06 00 20 ; ..K..... ...... 
0053B6  .dc.b 00 06 FF F2 00 0F 00 21 00 0F FF F3 00 06 FF F4 ; .......!........
0053C6  .dc.b 00 06 FF F5 00 06 FF F6 00 06 FF F7 00 05 FF F8 ; ................
0053D6  .dc.b 00 05 FF F8 00 05 FF F9 00 06 FF F8 00 06 FF F8 ; ................
0053E6  .dc.b 00 06 FF F7 00 05 FF F6 00 05 FF F5 00 05 FF F4 ; ................
0053F6  .dc.b 00 05 00 20 00 06 00 1F 00 06 00 1E 00 06 00 1D ; ... ............
005406  .dc.b 00 05 00 1C 00 05 00 1B 00 05 00 1B 00 05 00 1A ; ................
005416  .dc.b 00 06 00 1B 00 06 00 1B 00 06 00 1C 00 05 00 1D ; ................
005426  .dc.b 00 05 00 1E 00 05 00 1F 00 05 FF F3 00 06 00 20 ; ............... 
005436  .dc.b 00 06 00 10 00 13 00 10 00 13 00 10 00 13 00 10 ; ................
005446  .dc.b 00 13 00 00 00 00 00 00 00 00 00 00 00 00 00 00 ; ................
005456  .dc.b 00 00 00 00 00 00 00 00 00 00 11 FC 00 0F 01 35 ; ...............5
005466  .dc.b 21 FC 00 00 72 D8 02 3E 21 FC 00 00 19 D0 02 42 ; !...r..>!......B
005476  .dc.b 31 FC 00 1E 02 46 11 FC 00 01 02 48 41 F9 00 00 ; 1....F.....HA...
005486  .dc.b 72 D8 70 1E 31 41 00 02 58 48 51 C8 FF F8 4E 75 ; r.p.1A..XHQ...Nu

; ==== sub_005496 (1 caller) ====
005496  53 38 54 51                   SUBQ.b #1,$5451.w
00549A  6A 04                         BPL $0054A0
00549C  42 38 54 51                   CLR.b $5451.w
0054A0  53 38 54 52                   SUBQ.b #1,$5452.w
0054A4  6A 0A                         BPL $0054B0
0054A6  42 38 54 52                   CLR.b $5452.w
0054AA  11 FC 00 01 54 4F             MOVE.b #$1,$544F.w
0054B0  53 38 59 4C                   SUBQ.b #1,$594C.w
0054B4  6A 04                         BPL $0054BA
0054B6  42 38 59 4C                   CLR.b $594C.w
0054BA  60 12                         BRA $0054CE

; ==== init_54BC  $0054BC  (2 callers) — Set the $544F flag and clear the 31-entry table at $9E54 (some per-level state array). ====
0054BC  42 38 54 51                   CLR.b $5451.w
0054C0  42 38 54 52                   CLR.b $5452.w
0054C4  42 38 59 4C                   CLR.b $594C.w
0054C8  11 FC 00 01 54 4F             MOVE.b #$1,$544F.w

; ==== sub_0054CE (2 callers) ====
0054CE  41 F9 00 00 9E 54             LEA $9E54.l,a0
0054D4  70 1E                         MOVEQ #$1E,d0
0054D6  42 50                         CLR.w (a0)
0054D8  5C 48                         ADDQ.w #6,a0
0054DA  51 C8 FF FA                   DBRA d0,$0054D6
0054DE  42 78 54 48                   CLR.w $5448.w
0054E2  41 F8 4A BA                   LEA $4ABA.w,a0
0054E6  70 13                         MOVEQ #$13,d0
0054E8  42 50                         CLR.w (a0)
0054EA  5C 48                         ADDQ.w #6,a0
0054EC  51 C8 FF FA                   DBRA d0,$0054E8
0054F0  41 F8 4B 9E                   LEA $4B9E.w,a0
0054F4  70 0F                         MOVEQ #$F,d0
0054F6  42 98                         CLR.l (a0)+
0054F8  51 C8 FF FC                   DBRA d0,$0054F6
0054FC  42 B9 00 00 9C 78             CLR.l $9C78.l
005502  42 B9 00 00 9A 98             CLR.l $9A98.l
005508  21 FC 00 00 9C 74 01 86       MOVE.l #$9C74,$186.w
005510  21 FC 00 00 9A 94 01 9E       MOVE.l #$9A94,$19E.w
005518  21 FC 00 00 9C 74 01 8A       MOVE.l #$9C74,$18A.w
005520  21 FC 00 00 9A 94 01 A2       MOVE.l #$9A94,$1A2.w
005528  51 F8 54 53                   SF $5453.w
00552C  51 F8 5A B2                   SF $5AB2.w
005530  51 F8 5B 9E                   SF $5B9E.w
005534  51 F8 59 4A                   SF $594A.w
005538  42 38 54 4D                   CLR.b $544D.w
00553C  42 38 54 4E                   CLR.b $544E.w
005540  42 78 01 EA                   CLR.w $1EA.w
005544  51 F8 02 29                   SF $229.w
005548  20 3C 00 00 73 84             MOVE.l #$7384,d0
00554E  41 F8 73 78                   LEA $7378.w,a0
005552  48 40                         SWAP d0
005554  31 40 00 02                   MOVE.w d0,$2(a0)
005558  48 40                         SWAP d0
00555A  31 40 00 06                   MOVE.w d0,$6(a0)
00555E  20 3C 00 00 73 B4             MOVE.l #$73B4,d0
005564  41 F8 73 A8                   LEA $73A8.w,a0
005568  48 40                         SWAP d0
00556A  31 40 00 02                   MOVE.w d0,$2(a0)
00556E  48 40                         SWAP d0
005570  31 40 00 06                   MOVE.w d0,$6(a0)
005574  4E 75                         RTS

; ==== sub_005576 (2 callers) ====
005576  4A 38 02 76                   TST.b $276.w
00557A  67 0C                         BEQ $005588
00557C  42 B8 01 E6                   CLR.l $1E6.w
005580  42 B8 01 EA                   CLR.l $1EA.w
005584  42 38 02 16                   CLR.b $216.w
005588  4A 38 01 E6                   TST.b $1E6.w
00558C  67 06                         BEQ $005594
00558E  42 38 01 E6                   CLR.b $1E6.w
005592  61 3C                         BSR $0055D0
005594  61 00 01 16                   BSR $0056AC
005598  61 00 03 C2                   BSR $00595C
00559C  61 00 05 52                   BSR $005AF0
0055A0  61 00 13 B4                   BSR $006956
0055A4  4A 38 54 4D                   TST.b $544D.w
0055A8  67 06                         BEQ $0055B0
0055AA  53 38 54 4D                   SUBQ.b #1,$544D.w
0055AE  61 3E                         BSR $0055EE
0055B0  61 00 07 12                   BSR $005CC4
0055B4  61 00 0A 32                   BSR $005FE8
0055B8  61 00 08 38                   BSR $005DF2
0055BC  61 00 08 DE                   BSR $005E9C
0055C0  4A 38 54 4E                   TST.b $544E.w
0055C4  67 08                         BEQ $0055CE
0055C6  61 00 00 7E                   BSR $005646
0055CA  52 38 54 4E                   ADDQ.b #1,$544E.w
0055CE  4E 75                         RTS

; ==== sub_0055D0 (1 caller) ====
0055D0  11 FC 00 02 54 4D             MOVE.b #$2,$544D.w
0055D6  10 39 00 00 54 4F             MOVE.b $544F.l,d0
0055DC  B0 3C 00 01                   CMP.b #$1,d0
0055E0  67 00 06 30                   BEQ $005C12
0055E4  B0 3C 00 02                   CMP.b #$2,d0
0055E8  67 00 05 BA                   BEQ $005BA4
0055EC  4E 75                         RTS

; ==== sub_0055EE (1 caller) ====
0055EE  4A 38 38 E8                   TST.b $38E8.w
0055F2  67 02                         BEQ $0055F6
0055F4  4E 75                         RTS
0055F6  4A 38 02 6C                   TST.b $26C.w
0055FA  66 06                         BNE $005602
0055FC  41 F8 48 30                   LEA $4830.w,a0
005600  60 04                         BRA $005606
005602  41 F8 48 3E                   LEA $483E.w,a0
005606  4C B8 00 03 01 04             MOVEM.w $104.w,d0-d1
00560C  34 38 02 5C                   MOVE.w $25C.w,d2
005610  D4 42                         ADD.w d2,d2
005612  D4 42                         ADD.w d2,d2
005614  4B F8 53 B0                   LEA $53B0.w,a5
005618  D0 75 20 00                   ADD.w $0(a5,d2.w),d0
00561C  D2 75 20 02                   ADD.w $2(a5,d2.w),d1
005620  2D 7C FF FE FF FE 00 62       MOVE.l #$FFFEFFFE,$62(a6)
005628  2D 7C FF FF 00 00 00 44       MOVE.l #$FFFF0000,$44(a6)
005630  22 78 02 0E                   MOVEA.l $20E.w,a1
005634  24 78 01 C2                   MOVEA.l $1C2.w,a2
005638  26 6A 00 14                   MOVEA.l $14(a2),a3
00563C  28 78 74 F2                   MOVEA.l $74F2.w,a4
005640  7A 30                         MOVEQ #$30,d5
005642  60 00 09 F6                   BRA $00603A

; ==== sub_005646 (1 caller) ====
005646  10 38 54 4E                   MOVE.b $544E.w,d0
00564A  C0 7C 00 0E                   AND.w #$E,d0
00564E  D0 40                         ADD.w d0,d0
005650  41 F8 4C 3A                   LEA $4C3A.w,a0
005654  20 70 00 00                   MOVEA.l $0(a0,d0.w),a0
005658  70 00                         MOVEQ #$0,d0
00565A  4C B8 00 03 54 5C             MOVEM.w $545C.w,d0-d1
005660  90 78 01 20                   SUB.w $120.w,d0
005664  6B 3E                         BMI $0056A4
005666  B0 7C 01 50                   CMP.w #$150,d0
00566A  6C 38                         BGE $0056A4
00566C  92 78 01 22                   SUB.w $122.w,d1
005670  6B 32                         BMI $0056A4
005672  B2 7C 00 D4                   CMP.w #$D4,d1
005676  6C 2C                         BGE $0056A4
005678  48 B8 00 03 54 5C             MOVEM.w d0-d1,$545C.w
00567E  2D 7C FF FE FF FE 00 62       MOVE.l #$FFFEFFFE,$62(a6)
005686  2D 7C FF FF 00 00 00 44       MOVE.l #$FFFF0000,$44(a6)
00568E  22 78 02 0E                   MOVEA.l $20E.w,a1
005692  24 78 01 C2                   MOVEA.l $1C2.w,a2
005696  26 6A 00 14                   MOVEA.l $14(a2),a3
00569A  28 78 74 F2                   MOVEA.l $74F2.w,a4
00569E  7A 30                         MOVEQ #$30,d5
0056A0  60 00 09 98                   BRA $00603A
0056A4  42 38 54 4E                   CLR.b $544E.w
0056A8  4E 75                         RTS
0056AA  .dc.b 00 00                                           ; ..

; ==== sub_0056AC (1 caller) ====
0056AC  0C 78 00 14 01 EA             CMPI.w #$14,$1EA.w
0056B2  6C 20                         BGE $0056D4
0056B4  4A 38 59 4A                   TST.b $594A.w
0056B8  67 14                         BEQ $0056CE
0056BA  0C 79 00 06 00 00 56 AA       CMPI.w #$6,$56AA.l
0056C2  6D 00 00 3C                   BLT $005700
0056C6  70 20                         MOVEQ #$20,d0
0056C8  4E B9 00 01 A2 DC             JSR $1A2DC.l
0056CE  51 F8 59 4A                   SF $594A.w
0056D2  4E 75                         RTS
0056D4  4A 38 59 4A                   TST.b $594A.w
0056D8  66 26                         BNE $005700
0056DA  42 79 00 00 56 AA             CLR.w $56AA.l
0056E0  4A 78 01 F0                   TST.w $1F0.w
0056E4  66 00 03 D4                   BNE $005ABA
0056E8  50 F8 59 4A                   ST $594A.w
0056EC  10 38 02 6C                   MOVE.b $26C.w,d0
0056F0  C0 7C 00 10                   AND.w #$10,d0
0056F4  11 C0 59 4B                   MOVE.b d0,$594B.w
0056F8  70 02                         MOVEQ #$2,d0
0056FA  4E B9 00 01 A2 DC             JSR $1A2DC.l
005700  52 78 56 AA                   ADDQ.w #1,$56AA.w
005704  16 38 59 4B                   MOVE.b $594B.w,d3
005708  C6 7C 00 1F                   AND.w #$1F,d3
00570C  D6 43                         ADD.w d3,d3
00570E  D6 43                         ADD.w d3,d3
005710  41 F8 4D 56                   LEA $4D56.w,a0
005714  2F 30 30 00                   MOVE.l $0(a0,d3.w),-(a7)
005718  21 F0 30 00 59 44             MOVE.l $0(a0,d3.w),$5944.w
00571E  70 00                         MOVEQ #$0,d0
005720  4C B8 00 03 01 04             MOVEM.w $104.w,d0-d1
005726  34 38 02 5C                   MOVE.w $25C.w,d2
00572A  D4 42                         ADD.w d2,d2
00572C  D4 42                         ADD.w d2,d2
00572E  41 F8 53 B0                   LEA $53B0.w,a0
005732  D0 70 20 00                   ADD.w $0(a0,d2.w),d0
005736  D2 70 20 02                   ADD.w $2(a0,d2.w),d1
00573A  48 A7 C0 00                   MOVEM.w d0-d1,-(a7)
00573E  41 F8 4D D6                   LEA $4DD6.w,a0
005742  D0 70 30 00                   ADD.w $0(a0,d3.w),d0
005746  D2 70 30 02                   ADD.w $2(a0,d3.w),d1
00574A  4A 38 02 6C                   TST.b $26C.w
00574E  66 04                         BNE $005754
005750  D0 7C 00 10                   ADD.w #$10,d0
005754  5E 41                         ADDQ.w #7,d1
005756  48 B8 00 03 59 40             MOVEM.w d0-d1,$5940.w
00575C  42 78 59 48                   CLR.w $5948.w
005760  41 F8 4F D6                   LEA $4FD6.w,a0
005764  20 70 30 00                   MOVEA.l $0(a0,d3.w),a0
005768  21 D8 59 50                   MOVE.l (a0)+,$5950.w
00576C  21 D8 59 54                   MOVE.l (a0)+,$5954.w
005770  21 D8 59 58                   MOVE.l (a0)+,$5958.w
005774  D6 43                         ADD.w d3,d3
005776  4B F8 4C CA                   LEA $4CCA.w,a5
00577A  C6 7C 00 7F                   AND.w #$7F,d3
00577E  DA C3                         ADDA.w d3,a5
005780  2D 7C FF FE FF FE 00 62       MOVE.l #$FFFEFFFE,$62(a6)
005788  2D 7C FF FF 00 00 00 44       MOVE.l #$FFFF0000,$44(a6)
005790  22 78 02 0E                   MOVEA.l $20E.w,a1
005794  24 78 01 C2                   MOVEA.l $1C2.w,a2
005798  26 6A 00 14                   MOVEA.l $14(a2),a3
00579C  28 78 74 F2                   MOVEA.l $74F2.w,a4
0057A0  7A 30                         MOVEQ #$30,d5
0057A2  1E 38 59 4C                   MOVE.b $594C.w,d7
0057A6  CE 7C 00 07                   AND.w #$7,d7
0057AA  54 47                         ADDQ.w #2,d7
0057AC  3C 38 59 3E                   MOVE.w $593E.w,d6
0057B0  20 75 60 00                   MOVEA.l $0(a5,d6.w),a0
0057B4  0A 46 00 04                   EORI.w #$4,d6
0057B8  48 A7 C0 00                   MOVEM.w d0-d1,-(a7)
0057BC  61 00 08 7C                   BSR $00603A
0057C0  52 78 59 48                   ADDQ.w #1,$5948.w
0057C4  70 00                         MOVEQ #$0,d0
0057C6  4C 97 00 03                   MOVEM.w (a7),d0-d1
0057CA  D0 78 59 50                   ADD.w $5950.w,d0
0057CE  D2 78 59 52                   ADD.w $5952.w,d1
0057D2  48 A7 C0 00                   MOVEM.w d0-d1,-(a7)
0057D6  61 00 DD D6                   BSR $0035AE
0057DA  66 34                         BNE $005810
0057DC  58 4F                         ADDQ.w #4,a7
0057DE  4C 97 00 03                   MOVEM.w (a7),d0-d1
0057E2  D0 78 59 54                   ADD.w $5954.w,d0
0057E6  D2 78 59 56                   ADD.w $5956.w,d1
0057EA  48 A7 C0 00                   MOVEM.w d0-d1,-(a7)
0057EE  61 00 DD BE                   BSR $0035AE
0057F2  66 1C                         BNE $005810
0057F4  58 4F                         ADDQ.w #4,a7
0057F6  4C 97 00 03                   MOVEM.w (a7),d0-d1
0057FA  D0 78 59 58                   ADD.w $5958.w,d0
0057FE  D2 78 59 5A                   ADD.w $595A.w,d1
005802  48 A7 C0 00                   MOVEM.w d0-d1,-(a7)
005806  61 00 DD A6                   BSR $0035AE
00580A  66 04                         BNE $005810
00580C  58 4F                         ADDQ.w #4,a7
00580E  60 56                         BRA $005866
005810  4C 9F 00 06                   MOVEM.w (a7)+,d1-d2
005814  B0 3C 00 7F                   CMP.b #$7F,d0
005818  66 14                         BNE $00582E
00581A  61 00 0B 92                   BSR $0063AE
00581E  2D 7C FF FE FF FE 00 62       MOVE.l #$FFFEFFFE,$62(a6)
005826  2D 7C FF FF 00 00 00 44       MOVE.l #$FFFF0000,$44(a6)
00582E  70 00                         MOVEQ #$0,d0
005830  4C 9F 00 03                   MOVEM.w (a7)+,d0-d1
005834  14 38 59 4B                   MOVE.b $594B.w,d2
005838  C4 7C 00 1F                   AND.w #$1F,d2
00583C  41 F8 50 56                   LEA $5056.w,a0
005840  D4 42                         ADD.w d2,d2
005842  D4 42                         ADD.w d2,d2
005844  D0 70 20 00                   ADD.w $0(a0,d2.w),d0
005848  D2 70 20 02                   ADD.w $2(a0,d2.w),d1
00584C  41 F8 4D 4A                   LEA $4D4A.w,a0
005850  14 38 59 4E                   MOVE.b $594E.w,d2
005854  C4 7C 00 0C                   AND.w #$C,d2
005858  20 70 20 00                   MOVEA.l $0(a0,d2.w),a0
00585C  24 78 01 C2                   MOVEA.l $1C2.w,a2
005860  61 00 07 D8                   BSR $00603A
005864  60 5E                         BRA $0058C4
005866  24 78 01 C2                   MOVEA.l $1C2.w,a2
00586A  4C 9F 00 03                   MOVEM.w (a7)+,d0-d1
00586E  D0 6F 00 04                   ADD.w $4(a7),d0
005872  6B 00 00 9E                   BMI $005912
005876  D2 6F 00 06                   ADD.w $6(a7),d1
00587A  6B 00 00 9A                   BMI $005916
00587E  B0 7C 01 50                   CMP.w #$150,d0
005882  6C 40                         BGE $0058C4
005884  B2 7C 00 D4                   CMP.w #$D4,d1
005888  6C 3A                         BGE $0058C4
00588A  51 CF FF 24                   DBRA d7,$0057B0
00588E  90 6F 00 04                   SUB.w $4(a7),d0
005892  92 6F 00 06                   SUB.w $6(a7),d1
005896  41 F8 50 D6                   LEA $50D6.w,a0
00589A  14 38 59 4B                   MOVE.b $594B.w,d2
00589E  C4 7C 00 1F                   AND.w #$1F,d2
0058A2  D4 42                         ADD.w d2,d2
0058A4  D4 42                         ADD.w d2,d2
0058A6  D0 70 20 00                   ADD.w $0(a0,d2.w),d0
0058AA  D2 70 20 02                   ADD.w $2(a0,d2.w),d1
0058AE  08 38 00 02 59 4E             BTST.b #$2,$594E.w
0058B4  67 06                         BEQ $0058BC
0058B6  41 F8 53 78                   LEA $5378.w,a0
0058BA  60 04                         BRA $0058C0
0058BC  41 F8 53 6A                   LEA $536A.w,a0
0058C0  61 00 07 78                   BSR $00603A
0058C4  70 00                         MOVEQ #$0,d0
0058C6  4C 9F 00 03                   MOVEM.w (a7)+,d0-d1
0058CA  58 4F                         ADDQ.w #4,a7
0058CC  4A 38 02 6C                   TST.b $26C.w
0058D0  67 04                         BEQ $0058D6
0058D2  51 40                         SUBQ.w #8,d0
0058D4  60 02                         BRA $0058D8
0058D6  50 40                         ADDQ.w #8,d0
0058D8  4A 78 59 3E                   TST.w $593E.w
0058DC  67 06                         BEQ $0058E4
0058DE  41 F8 53 6A                   LEA $536A.w,a0
0058E2  60 04                         BRA $0058E8
0058E4  41 F8 53 78                   LEA $5378.w,a0
0058E8  61 00 07 50                   BSR $00603A
0058EC  59 38 59 4E                   SUBQ.b #4,$594E.w
0058F0  6A 06                         BPL $0058F8
0058F2  11 FC 00 08 59 4E             MOVE.b #$8,$594E.w
0058F8  4A 38 59 4D                   TST.b $594D.w
0058FC  67 06                         BEQ $005904
0058FE  53 38 59 4D                   SUBQ.b #1,$594D.w
005902  4E 75                         RTS
005904  11 FC 00 02 59 4D             MOVE.b #$2,$594D.w
00590A  0A 78 00 04 59 3E             EORI.w #$4,$593E.w
005910  4E 75                         RTS
005912  D2 6F 00 06                   ADD.w $6(a7),d1
005916  B0 7C FF F0                   CMP.w #$FFF0,d0
00591A  6D A8                         BLT $0058C4
00591C  B2 7C FF F0                   CMP.w #$FFF0,d1
005920  6D A2                         BLT $0058C4
005922  20 75 60 00                   MOVEA.l $0(a5,d6.w),a0
005926  0A 46 00 04                   EORI.w #$4,d6
00592A  48 A7 C0 00                   MOVEM.w d0-d1,-(a7)
00592E  61 00 07 0A                   BSR $00603A
005932  52 78 59 48                   ADDQ.w #1,$5948.w
005936  70 00                         MOVEQ #$0,d0
005938  4C 9F 00 03                   MOVEM.w (a7)+,d0-d1
00593C  60 86                         BRA $0058C4
00593E  .dc.b 00 00 00 00 00 00 00 00 00 00 00 00 00 00 04 00 ; ................
00594E  .dc.b 00 00 00 00 00 00 00 00 00 00 00 00 00 00       ; ..............

; ==== sub_00595C (1 caller) ====
00595C  4A 38 5A B2                   TST.b $5AB2.w
005960  66 6C                         BNE $0059CE
005962  4A 38 59 4A                   TST.b $594A.w
005966  66 64                         BNE $0059CC
005968  10 38 02 16                   MOVE.b $216.w,d0
00596C  67 5E                         BEQ $0059CC
00596E  B0 3C 00 64                   CMP.b #$64,d0
005972  6D 58                         BLT $0059CC
005974  B0 3C 00 67                   CMP.b #$67,d0
005978  6E 52                         BGT $0059CC
00597A  42 38 02 16                   CLR.b $216.w
00597E  70 02                         MOVEQ #$2,d0
005980  61 00 1E D6                   BSR $007858
005984  6B 46                         BMI $0059CC
005986  70 05                         MOVEQ #$5,d0
005988  4E B9 00 01 A2 DC             JSR $1A2DC.l
00598E  50 F8 5A B2                   ST $5AB2.w
005992  51 F8 01 C7                   SF $1C7.w
005996  4C B8 00 03 01 04             MOVEM.w $104.w,d0-d1
00599C  34 38 02 5C                   MOVE.w $25C.w,d2
0059A0  D4 42                         ADD.w d2,d2
0059A2  D4 42                         ADD.w d2,d2
0059A4  4B F8 53 B0                   LEA $53B0.w,a5
0059A8  D0 75 20 00                   ADD.w $0(a5,d2.w),d0
0059AC  D2 75 20 02                   ADD.w $2(a5,d2.w),d1
0059B0  5A 41                         ADDQ.w #5,d1
0059B2  48 B8 00 03 5A B4             MOVEM.w d0-d1,$5AB4.w
0059B8  11 FC 00 04 54 4D             MOVE.b #$4,$544D.w
0059BE  70 08                         MOVEQ #$8,d0
0059C0  4A 38 02 6C                   TST.b $26C.w
0059C4  66 02                         BNE $0059C8
0059C6  44 40                         NEG.w d0
0059C8  31 C0 5A B8                   MOVE.w d0,$5AB8.w
0059CC  4E 75                         RTS
0059CE  4A 38 01 C7                   TST.b $1C7.w
0059D2  66 00 00 CA                   BNE $005A9E
0059D6  4C B8 00 03 5A B4             MOVEM.w $5AB4.w,d0-d1
0059DC  D0 78 5A B8                   ADD.w $5AB8.w,d0
0059E0  90 78 01 20                   SUB.w $120.w,d0
0059E4  6B 50                         BMI $005A36
0059E6  B0 7C 01 50                   CMP.w #$150,d0
0059EA  6C 4A                         BGE $005A36
0059EC  92 78 01 22                   SUB.w $122.w,d1
0059F0  6B 44                         BMI $005A36
0059F2  B2 7C 00 D4                   CMP.w #$D4,d1
0059F6  6C 3E                         BGE $005A36
0059F8  48 B8 00 03 5A B4             MOVEM.w d0-d1,$5AB4.w
0059FE  61 00 DB AE                   BSR $0035AE
005A02  66 38                         BNE $005A3C
005A04  70 00                         MOVEQ #$0,d0
005A06  4C B8 00 03 5A B4             MOVEM.w $5AB4.w,d0-d1
005A0C  2D 7C FF FE FF FE 00 62       MOVE.l #$FFFEFFFE,$62(a6)
005A14  2D 7C FF FF 00 00 00 44       MOVE.l #$FFFF0000,$44(a6)
005A1C  22 78 02 0E                   MOVEA.l $20E.w,a1
005A20  24 78 01 C2                   MOVEA.l $1C2.w,a2
005A24  26 6A 00 14                   MOVEA.l $14(a2),a3
005A28  28 78 74 F2                   MOVEA.l $74F2.w,a4
005A2C  7A 30                         MOVEQ #$30,d5
005A2E  41 F8 4C 08                   LEA $4C08.w,a0
005A32  60 00 06 06                   BRA $00603A
005A36  51 F8 5A B2                   SF $5AB2.w
005A3A  4E 75                         RTS

; ==== sub_005A3C (1 caller) ====
005A3C  50 F8 01 C7                   ST $1C7.w
005A40  4C B8 00 03 5A B4             MOVEM.w $5AB4.w,d0-d1
005A46  51 40                         SUBQ.w #8,d0
005A48  92 7C 00 10                   SUB.w #$10,d1
005A4C  48 B8 00 03 54 5C             MOVEM.w d0-d1,$545C.w
005A52  11 FC 00 F0 54 4E             MOVE.b #$F0,$544E.w
005A58  41 F9 00 00 72 D8             LEA $72D8.l,a0
005A5E  70 1E                         MOVEQ #$1E,d0
005A60  31 7C 0F FF 00 02             MOVE.w #$FFF,$2(a0)
005A66  58 48                         ADDQ.w #4,a0
005A68  51 C8 FF F6                   DBRA d0,$005A60
005A6C  50 F8 5A B3                   ST $5AB3.w
005A70  11 FC 00 0F 01 35             MOVE.b #$F,$135.w
005A76  21 FC 00 00 72 D8 02 3E       MOVE.l #$72D8,$23E.w
005A7E  21 FC 00 00 19 D0 02 42       MOVE.l #$19D0,$242.w
005A86  31 FC 00 1E 02 46             MOVE.w #$1E,$246.w
005A8C  11 FC 00 01 02 48             MOVE.b #$1,$248.w
005A92  70 06                         MOVEQ #$6,d0
005A94  4E B9 00 01 A2 DC             JSR $1A2DC.l
005A9A  60 00 D3 92                   BRA $002E2E
005A9E  4A 38 01 35                   TST.b $135.w
005AA2  67 02                         BEQ $005AA6
005AA4  4E 75                         RTS
005AA6  51 F8 01 C7                   SF $1C7.w
005AAA  51 F8 5A B2                   SF $5AB2.w
005AAE  60 00 D3 BE                   BRA $002E6E
005AB2  .dc.b 00 00 00 00 00 00 00 00                         ; ........
005ABA  4A 38 5B 9E                   TST.b $5B9E.w
005ABE  66 2E                         BNE $005AEE
005AC0  70 03                         MOVEQ #$3,d0
005AC2  61 00 1D 94                   BSR $007858
005AC6  6B 00 00 26                   BMI $005AEE
005ACA  70 04                         MOVEQ #$4,d0
005ACC  4E B9 00 01 A2 DC             JSR $1A2DC.l
005AD2  4C B8 00 03 01 04             MOVEM.w $104.w,d0-d1
005AD8  50 40                         ADDQ.w #8,d0
005ADA  D2 7C 00 1E                   ADD.w #$1E,d1
005ADE  48 B8 00 03 5B A0             MOVEM.w d0-d1,$5BA0.w
005AE4  11 FC 00 48 5B 9F             MOVE.b #$48,$5B9F.w
005AEA  50 F8 5B 9E                   ST $5B9E.w
005AEE  4E 75                         RTS

; ==== sub_005AF0 (1 caller) ====
005AF0  4A 38 5B 9E                   TST.b $5B9E.w
005AF4  67 F8                         BEQ $005AEE
005AF6  4A 38 01 34                   TST.b $134.w
005AFA  66 00 00 8E                   BNE $005B8A
005AFE  53 38 5B 9F                   SUBQ.b #1,$5B9F.w
005B02  66 26                         BNE $005B2A
005B04  4C B8 00 03 5B A0             MOVEM.w $5BA0.w,d0-d1
005B0A  51 40                         SUBQ.w #8,d0
005B0C  92 7C 00 0A                   SUB.w #$A,d1
005B10  48 B8 00 03 54 5C             MOVEM.w d0-d1,$545C.w
005B16  11 FC 00 F0 54 4E             MOVE.b #$F0,$544E.w
005B1C  50 F8 01 34                   ST $134.w
005B20  11 FC 00 14 5B 9F             MOVE.b #$14,$5B9F.w
005B26  60 00 D3 16                   BRA $002E3E
005B2A  4C B8 00 03 5B A0             MOVEM.w $5BA0.w,d0-d1
005B30  90 78 01 20                   SUB.w $120.w,d0
005B34  6B 4E                         BMI $005B84
005B36  B0 7C 01 50                   CMP.w #$150,d0
005B3A  6C 48                         BGE $005B84
005B3C  92 78 01 22                   SUB.w $122.w,d1
005B40  6B 42                         BMI $005B84
005B42  B2 7C 00 D4                   CMP.w #$D4,d1
005B46  6C 3C                         BGE $005B84
005B48  48 B8 00 03 5B A0             MOVEM.w d0-d1,$5BA0.w
005B4E  41 F8 4C 16                   LEA $4C16.w,a0
005B52  14 38 5B 9F                   MOVE.b $5B9F.w,d2
005B56  C4 7C 00 04                   AND.w #$4,d2
005B5A  20 70 20 00                   MOVEA.l $0(a0,d2.w),a0
005B5E  2D 7C FF FE FF FE 00 62       MOVE.l #$FFFEFFFE,$62(a6)
005B66  2D 7C FF FF 00 00 00 44       MOVE.l #$FFFF0000,$44(a6)
005B6E  22 78 02 0E                   MOVEA.l $20E.w,a1
005B72  24 78 01 C2                   MOVEA.l $1C2.w,a2
005B76  26 6A 00 14                   MOVEA.l $14(a2),a3
005B7A  28 78 74 F2                   MOVEA.l $74F2.w,a4
005B7E  7A 30                         MOVEQ #$30,d5
005B80  60 00 04 B8                   BRA $00603A
005B84  51 F8 5B 9E                   SF $5B9E.w
005B88  4E 75                         RTS
005B8A  53 38 5B 9F                   SUBQ.b #1,$5B9F.w
005B8E  66 0C                         BNE $005B9C
005B90  51 F8 5B 9E                   SF $5B9E.w
005B94  51 F8 01 34                   SF $134.w
005B98  60 00 D2 D4                   BRA $002E6E
005B9C  4E 75                         RTS
005B9E  .dc.b 00 00 00 00 00 00                               ; ......
005BA4  4A 38 54 53                   TST.b $5453.w
005BA8  67 02                         BEQ $005BAC
005BAA  4E 75                         RTS
005BAC  70 01                         MOVEQ #$1,d0
005BAE  4E B9 00 01 A2 DC             JSR $1A2DC.l
005BB4  50 F8 54 53                   ST $5453.w
005BB8  4A 38 02 6C                   TST.b $26C.w
005BBC  67 08                         BEQ $005BC6
005BBE  31 FC 00 10 54 56             MOVE.w #$10,$5456.w
005BC4  60 06                         BRA $005BCC
005BC6  31 FC FF F0 54 56             MOVE.w #$FFF0,$5456.w
005BCC  4C B8 00 03 01 04             MOVEM.w $104.w,d0-d1
005BD2  34 38 02 5C                   MOVE.w $25C.w,d2
005BD6  D4 42                         ADD.w d2,d2
005BD8  D4 42                         ADD.w d2,d2
005BDA  41 F8 53 B0                   LEA $53B0.w,a0
005BDE  D0 70 20 00                   ADD.w $0(a0,d2.w),d0
005BE2  D2 70 20 02                   ADD.w $2(a0,d2.w),d1
005BE6  5A 41                         ADDQ.w #5,d1
005BE8  14 38 54 52                   MOVE.b $5452.w,d2
005BEC  C4 7C 00 07                   AND.w #$7,d2
005BF0  52 42                         ADDQ.w #1,d2
005BF2  E7 4A                         LSL.w #3,d2
005BF4  76 20                         MOVEQ #$20,d3
005BF6  4A 78 54 56                   TST.w $5456.w
005BFA  6A 04                         BPL $005C00
005BFC  44 42                         NEG.w d2
005BFE  44 43                         NEG.w d3
005C00  90 42                         SUB.w d2,d0
005C02  90 43                         SUB.w d3,d0
005C04  48 B8 00 03 54 58             MOVEM.w d0-d1,$5458.w
005C0A  11 FC 00 03 54 55             MOVE.b #$3,$5455.w
005C10  4E 75                         RTS
005C12  10 38 54 51                   MOVE.b $5451.w,d0
005C16  C0 7C 00 03                   AND.w #$3,d0
005C1A  4A 38 02 52                   TST.b $252.w
005C1E  67 08                         BEQ $005C28
005C20  B0 7C 00 01                   CMP.w #$1,d0
005C24  6F 02                         BLE $005C28
005C26  70 01                         MOVEQ #$1,d0
005C28  41 F8 5D C0                   LEA $5DC0.w,a0
005C2C  D0 40                         ADD.w d0,d0
005C2E  3F 00                         MOVE.w d0,-(a7)
005C30  30 30 00 00                   MOVE.w $0(a0,d0.w),d0
005C34  4E B9 00 01 A2 DC             JSR $1A2DC.l
005C3A  30 1F                         MOVE.w (a7)+,d0
005C3C  41 F8 5D B0                   LEA $5DB0.w,a0
005C40  D0 40                         ADD.w d0,d0
005C42  36 30 00 02                   MOVE.w $2(a0,d0.w),d3
005C46  30 30 00 00                   MOVE.w $0(a0,d0.w),d0
005C4A  72 0E                         MOVEQ #$E,d1
005C4C  4A 38 02 52                   TST.b $252.w
005C50  67 02                         BEQ $005C54
005C52  72 05                         MOVEQ #$5,d1
005C54  92 43                         SUB.w d3,d1
005C56  B2 78 54 48                   CMP.w $5448.w,d1
005C5A  6C 02                         BGE $005C5E
005C5C  4E 75                         RTS
005C5E  4A 38 02 6C                   TST.b $26C.w
005C62  67 02                         BEQ $005C66
005C64  5A 40                         ADDQ.w #5,d0
005C66  4C B8 00 06 01 04             MOVEM.w $104.w,d1-d2
005C6C  38 38 02 5C                   MOVE.w $25C.w,d4
005C70  D8 44                         ADD.w d4,d4
005C72  D8 44                         ADD.w d4,d4
005C74  4B F8 53 B0                   LEA $53B0.w,a5
005C78  D2 75 40 00                   ADD.w $0(a5,d4.w),d1
005C7C  D4 75 40 02                   ADD.w $2(a5,d4.w),d2
005C80  5A 42                         ADDQ.w #5,d2
005C82  4A 38 02 6C                   TST.b $26C.w
005C86  66 04                         BNE $005C8C
005C88  50 41                         ADDQ.w #8,d1
005C8A  60 02                         BRA $005C8E
005C8C  51 41                         SUBQ.w #8,d1
005C8E  41 F9 00 00 9E 54             LEA $9E54.l,a0
005C94  78 0E                         MOVEQ #$E,d4
005C96  61 00 00 0A                   BSR $005CA2
005C9A  52 40                         ADDQ.w #1,d0
005C9C  51 CB FF F8                   DBRA d3,$005C96
005CA0  4E 75                         RTS

; ==== sub_005CA2 (2 callers) ====
005CA2  4A 50                         TST.w (a0)
005CA4  66 12                         BNE $005CB8
005CA6  48 90 00 07                   MOVEM.w d0-d2,(a0)
005CAA  5C 48                         ADDQ.w #6,a0
005CAC  52 79 00 00 54 48             ADDQ.w #1,$5448.l
005CB2  53 44                         SUBQ.w #1,d4
005CB4  6B 08                         BMI $005CBE
005CB6  4E 75                         RTS
005CB8  5C 48                         ADDQ.w #6,a0
005CBA  51 CC FF E6                   DBRA d4,$005CA2
005CBE  5D 48                         SUBQ.w #6,a0
005CC0  78 00                         MOVEQ #$0,d4
005CC2  4E 75                         RTS

; ==== sub_005CC4 (1 caller) ====
005CC4  4B F9 00 00 9E 54             LEA $9E54.l,a5
005CCA  3E 38 54 48                   MOVE.w $5448.w,d7
005CCE  53 47                         SUBQ.w #1,d7
005CD0  6A 02                         BPL $005CD4
005CD2  4E 75                         RTS
005CD4  49 F8 5D C6                   LEA $5DC6.w,a4
005CD8  34 15                         MOVE.w (a5),d2
005CDA  66 04                         BNE $005CE0
005CDC  5C 4D                         ADDQ.w #6,a5
005CDE  60 F8                         BRA $005CD8
005CE0  6A 30                         BPL $005D12
005CE2  4C AD 00 03 00 02             MOVEM.w $2(a5),d0-d1
005CE8  90 78 01 20                   SUB.w $120.w,d0
005CEC  6B 6E                         BMI $005D5C
005CEE  92 78 01 22                   SUB.w $122.w,d1
005CF2  6B 68                         BMI $005D5C
005CF4  B0 7C 01 50                   CMP.w #$150,d0
005CF8  6E 62                         BGT $005D5C
005CFA  B2 7C 00 D4                   CMP.w #$D4,d1
005CFE  6E 5C                         BGT $005D5C
005D00  48 AD 00 03 00 02             MOVEM.w d0-d1,$2(a5)
005D06  52 55                         ADDQ.w #1,(a5)
005D08  67 52                         BEQ $005D5C
005D0A  0C 55 FF F6                   CMPI.w #$FFF6,(a5)
005D0E  67 4C                         BEQ $005D5C
005D10  60 42                         BRA $005D54
005D12  4C AD 00 03 00 02             MOVEM.w $2(a5),d0-d1
005D18  3F 02                         MOVE.w d2,-(a7)
005D1A  61 00 D8 92                   BSR $0035AE
005D1E  66 00 00 44                   BNE $005D64
005D22  34 1F                         MOVE.w (a7)+,d2
005D24  D4 42                         ADD.w d2,d2
005D26  D4 42                         ADD.w d2,d2
005D28  4C AD 00 03 00 02             MOVEM.w $2(a5),d0-d1
005D2E  D0 74 20 00                   ADD.w $0(a4,d2.w),d0
005D32  90 78 01 20                   SUB.w $120.w,d0
005D36  6B 24                         BMI $005D5C
005D38  D2 74 20 02                   ADD.w $2(a4,d2.w),d1
005D3C  92 78 01 22                   SUB.w $122.w,d1
005D40  6B 1A                         BMI $005D5C
005D42  B0 7C 01 50                   CMP.w #$150,d0
005D46  6E 14                         BGT $005D5C
005D48  B2 7C 00 D4                   CMP.w #$D4,d1
005D4C  6E 0E                         BGT $005D5C
005D4E  48 AD 00 03 00 02             MOVEM.w d0-d1,$2(a5)
005D54  5C 4D                         ADDQ.w #6,a5
005D56  51 CF FF 80                   DBRA d7,$005CD8
005D5A  4E 75                         RTS
005D5C  42 55                         CLR.w (a5)
005D5E  53 78 54 48                   SUBQ.w #1,$5448.w
005D62  60 F0                         BRA $005D54
005D64  54 4F                         ADDQ.w #2,a7
005D66  4C AD 00 06 00 02             MOVEM.w $2(a5),d1-d2
005D6C  B0 3C 00 7F                   CMP.b #$7F,d0
005D70  66 2C                         BNE $005D9E
005D72  61 00 06 3A                   BSR $0063AE
005D76  3A BC FF EC                   MOVE.w #$FFEC,(a5)
005D7A  4C AD 00 03 00 02             MOVEM.w $2(a5),d0-d1
005D80  4C B8 00 0C 01 72             MOVEM.w $172.w,d2-d3
005D86  90 42                         SUB.w d2,d0
005D88  92 43                         SUB.w d3,d1
005D8A  C0 7C FF F0                   AND.w #$FFF0,d0
005D8E  C2 7C FF F0                   AND.w #$FFF0,d1
005D92  D0 42                         ADD.w d2,d0
005D94  D2 43                         ADD.w d3,d1
005D96  48 AD 00 03 00 02             MOVEM.w d0-d1,$2(a5)
005D9C  60 B6                         BRA $005D54
005D9E  3A BC FF F6                   MOVE.w #$FFF6,(a5)
005DA2  59 6D 00 02                   SUBQ.w #4,$2(a5)
005DA6  6B B4                         BMI $005D5C
005DA8  5D 6D 00 04                   SUBQ.w #6,$4(a5)
005DAC  6B AE                         BMI $005D5C
005DAE  60 A4                         BRA $005D54
005DB0  .dc.b 00 03 00 00 00 02 00 02 00 01 00 04 00 01 00 04 ; ................
005DC0  .dc.b 00 00 00 1D 00 1E 00 00 00 00 FF F8 FF FC FF F8 ; ................
005DD0  .dc.b FF FE FF F8 00 00 FF F8 00 02 FF F8 00 04 00 08 ; ................
005DE0  .dc.b FF FC 00 08 FF FE 00 08 00 00 00 08 00 02 00 08 ; ................
005DF0  .dc.b 00 04                                           ; ..

; ==== sub_005DF2 (1 caller) ====
005DF2  4A 38 54 53                   TST.b $5453.w
005DF6  66 02                         BNE $005DFA
005DF8  4E 75                         RTS
005DFA  4C B8 00 03 54 58             MOVEM.w $5458.w,d0-d1
005E00  14 38 54 52                   MOVE.b $5452.w,d2
005E04  C4 7C 00 07                   AND.w #$7,d2
005E08  52 42                         ADDQ.w #1,d2
005E0A  E7 4A                         LSL.w #3,d2
005E0C  D4 7C 00 10                   ADD.w #$10,d2
005E10  4A 78 54 56                   TST.w $5456.w
005E14  6A 02                         BPL $005E18
005E16  44 42                         NEG.w d2
005E18  D0 42                         ADD.w d2,d0
005E1A  90 78 01 20                   SUB.w $120.w,d0
005E1E  6B 1A                         BMI $005E3A
005E20  92 78 01 22                   SUB.w $122.w,d1
005E24  6B 14                         BMI $005E3A
005E26  B0 7C 01 50                   CMP.w #$150,d0
005E2A  6C 0E                         BGE $005E3A
005E2C  B2 7C 00 D4                   CMP.w #$D4,d1
005E30  6C 08                         BGE $005E3A
005E32  48 B8 00 03 54 58             MOVEM.w d0-d1,$5458.w
005E38  4E 75                         RTS
005E3A  51 F8 54 53                   SF $5453.w
005E3E  4E 75                         RTS

; ==== blit_obj_restore  $005E40  (4 callers) — Erase pass: drains the restore queue (list.$10 of the $1C2 structure, entries written by draw_object_bob as dest/modulo/BLTSIZE) with a straight BLTCON0=$9F0 copy (A->D) — blits the saved background back over last frame's BOB rectangles. Clears the queue's count ($4 of the slot) when done. ====
005E40  3D 7C 09 F0 00 40             MOVE.w #$9F0,$40(a6)
005E46  42 6E 00 42                   CLR.w $42(a6)
005E4A  2D 7C FF FF FF FF 00 44       MOVE.l #$FFFFFFFF,$44(a6)
005E52  22 78 01 C2                   MOVEA.l $1C2.w,a1
005E56  24 69 00 10                   MOVEA.l $10(a1),a2
005E5A  20 29 00 0C                   MOVE.l $C(a1),d0
005E5E  32 3C 00 90                   MOVE.w #$90,d1
005E62  23 4A 00 14                   MOVE.l a2,$14(a1)
005E66  4A 6A 00 04                   TST.w $4(a2)
005E6A  67 26                         BEQ $005E92
005E6C  24 1A                         MOVE.l (a2)+,d2
005E6E  2D 42 00 54                   MOVE.l d2,$54(a6)
005E72  D4 80                         ADD.l d0,d2
005E74  2D 42 00 50                   MOVE.l d2,$50(a6)
005E78  4C 9A 00 0C                   MOVEM.w (a2)+,d2-d3
005E7C  94 41                         SUB.w d1,d2
005E7E  3D 42 00 64                   MOVE.w d2,$64(a6)
005E82  3D 42 00 66                   MOVE.w d2,$66(a6)
005E86  D6 43                         ADD.w d3,d3
005E88  D6 43                         ADD.w d3,d3
005E8A  E4 0B                         LSR.b #2,d3
005E8C  3D 43 00 58                   MOVE.w d3,$58(a6)
005E90  60 D4                         BRA $005E66
005E92  24 69 00 10                   MOVEA.l $10(a1),a2
005E96  42 6A 00 04                   CLR.w $4(a2)
005E9A  4E 75                         RTS

; ==== draw_objects  $005E9C  (1 caller) — Per-frame object draw. Walks up to ($5452 & 7) active objects in the $20E table; double-buffers the restore queue between $4BEC/$4BFA by the sign of $5456 (the two screen buffers); calls object_draw_dispatch per object, appending restore entries via a3 = list.$14. ====
005E9C  4A 38 54 53                   TST.b $5453.w
005EA0  66 02                         BNE $005EA4
005EA2  4E 75                         RTS
005EA4  2D 7C FF FE FF FE 00 62       MOVE.l #$FFFEFFFE,$62(a6)
005EAC  2D 7C FF FF 00 00 00 44       MOVE.l #$FFFF0000,$44(a6)
005EB4  22 78 02 0E                   MOVEA.l $20E.w,a1
005EB8  24 78 01 C2                   MOVEA.l $1C2.w,a2
005EBC  26 6A 00 14                   MOVEA.l $14(a2),a3
005EC0  28 78 74 F2                   MOVEA.l $74F2.w,a4
005EC4  7A 30                         MOVEQ #$30,d5
005EC6  1E 38 54 52                   MOVE.b $5452.w,d7
005ECA  CE 7C 00 07                   AND.w #$7,d7
005ECE  3C 38 54 56                   MOVE.w $5456.w,d6
005ED2  6B 0A                         BMI $005EDE
005ED4  41 F8 4B EC                   LEA $4BEC.w,a0
005ED8  4B F8 4B FA                   LEA $4BFA.w,a5
005EDC  60 08                         BRA $005EE6
005EDE  41 F8 4B FA                   LEA $4BFA.w,a0
005EE2  4B F8 4B EC                   LEA $4BEC.w,a5
005EE6  50 F8 54 54                   ST $5454.w
005EEA  4C B8 00 03 54 58             MOVEM.w $5458.w,d0-d1
005EF0  61 00 00 30                   BSR $005F22
005EF4  41 F8 4B DE                   LEA $4BDE.w,a0
005EF8  53 47                         SUBQ.w #1,d7
005EFA  6B 00 00 14                   BMI $005F10
005EFE  D0 46                         ADD.w d6,d0
005F00  6B 1E                         BMI $005F20
005F02  B0 7C 01 50                   CMP.w #$150,d0
005F06  6C 18                         BGE $005F20
005F08  61 00 00 18                   BSR $005F22
005F0C  51 CF FF F0                   DBRA d7,$005EFE
005F10  20 4D                         MOVEA.l a5,a0
005F12  D0 46                         ADD.w d6,d0
005F14  6B 0A                         BMI $005F20
005F16  B0 7C 01 50                   CMP.w #$150,d0
005F1A  6C 04                         BGE $005F20
005F1C  60 00 00 04                   BRA $005F22
005F20  4E 75                         RTS

; ==== object_draw_dispatch  $005F22  (2 callers) — Per-object: read the object's type byte ($1 of its slot); type 0 -> draw_object_bob; type $7F -> a multi-part / linked sub-object draw (via $63AE), decrementing the sub counters $5455. Saves regs to the $5FA8 scratch around the call. ====
005F22  48 A7 C0 00                   MOVEM.w d0-d1,-(a7)
005F26  58 41                         ADDQ.w #4,d1
005F28  61 00 D6 84                   BSR $0035AE
005F2C  66 1C                         BNE $005F4A
005F2E  10 32 10 01                   MOVE.b $1(a2,d1.w),d0
005F32  66 4A                         BNE $005F7E
005F34  4C 97 00 03                   MOVEM.w (a7),d0-d1
005F38  24 78 01 C2                   MOVEA.l $1C2.w,a2
005F3C  61 00 00 FC                   BSR $00603A
005F40  51 F8 54 54                   SF $5454.w
005F44  4C 9F 00 03                   MOVEM.w (a7)+,d0-d1
005F48  4E 75                         RTS
005F4A  B0 3C 00 7F                   CMP.b #$7F,d0
005F4E  66 22                         BNE $005F72
005F50  48 F8 3F FE 5F A8             MOVEM.l d1-d7/a0-a5,$5FA8.w
005F56  4C 97 00 06                   MOVEM.w (a7),d1-d2
005F5A  4A 38 54 55                   TST.b $5455.w
005F5E  67 16                         BEQ $005F76
005F60  53 38 54 55                   SUBQ.b #1,$5455.w
005F64  58 42                         ADDQ.w #4,d2
005F66  61 00 04 46                   BSR $0063AE
005F6A  4C F8 3F FE 5F A8             MOVEM.l $5FA8.w,d1-d7/a0-a5
005F70  60 BC                         BRA $005F2E
005F72  4A 38 54 54                   TST.b $5454.w
005F76  57 F8 54 53                   SEQ $5453.w
005F7A  50 4F                         ADDQ.w #8,a7
005F7C  4E 75                         RTS
005F7E  B0 3C 00 7F                   CMP.b #$7F,d0
005F82  66 EE                         BNE $005F72
005F84  48 F8 3F FE 5F A8             MOVEM.l d1-d7/a0-a5,$5FA8.w
005F8A  4C 97 00 06                   MOVEM.w (a7),d1-d2
005F8E  50 41                         ADDQ.w #8,d1
005F90  4A 38 54 55                   TST.b $5455.w
005F94  67 E0                         BEQ $005F76
005F96  53 38 54 55                   SUBQ.b #1,$5455.w
005F9A  58 42                         ADDQ.w #4,d2
005F9C  61 00 04 10                   BSR $0063AE
005FA0  4C F8 3F FE 5F A8             MOVEM.l $5FA8.w,d1-d7/a0-a5
005FA6  60 8C                         BRA $005F34
005FA8  .dc.b 00 00 00 00 00 00 00 00 00 00 00 00 00 00 00 00 ; ................
005FB8  .dc.b 00 00 00 00 00 00 00 00 00 00 00 00 00 00 00 00 ; ................
005FC8  .dc.b 00 00 00 00 00 00 00 00 00 00 00 00 00 00 00 00 ; ................
005FD8  .dc.b 00 00 00 00 00 00 00 00 00 00 00 00 00 00 00 00 ; ................

; ==== sub_005FE8 (1 caller) ====
005FE8  4B F9 00 00 9E 54             LEA $9E54.l,a5
005FEE  3E 38 54 48                   MOVE.w $5448.w,d7
005FF2  53 47                         SUBQ.w #1,d7
005FF4  6A 02                         BPL $005FF8
005FF6  4E 75                         RTS
005FF8  2D 7C FF FE FF FE 00 62       MOVE.l #$FFFEFFFE,$62(a6)
006000  2D 7C FF FF 00 00 00 44       MOVE.l #$FFFF0000,$44(a6)
006008  22 78 02 0E                   MOVEA.l $20E.w,a1
00600C  24 78 01 C2                   MOVEA.l $1C2.w,a2
006010  26 6A 00 14                   MOVEA.l $14(a2),a3
006014  28 78 74 F2                   MOVEA.l $74F2.w,a4
006018  7A 30                         MOVEQ #$30,d5
00601A  34 15                         MOVE.w (a5),d2
00601C  66 04                         BNE $006022
00601E  5C 4D                         ADDQ.w #6,a5
006020  60 F8                         BRA $00601A
006022  E9 4A                         LSL.w #4,d2
006024  41 F8 49 8C                   LEA $498C.w,a0
006028  D0 C2                         ADDA.w d2,a0
00602A  4C AD 00 03 00 02             MOVEM.w $2(a5),d0-d1
006030  61 08                         BSR $00603A
006032  5C 4D                         ADDQ.w #6,a5
006034  51 CF FF E4                   DBRA d7,$00601A
006038  4E 75                         RTS

; ==== draw_object_bob  $00603A  (8 callers) — The BOB renderer (cookie-cut blit). Transforms the object position to screen space (x-$172+$40, y-$174-$1C0, both masked), rejects off-screen, looks up the destination word via a per-row screen-offset table (a1), and sets BLTCON0 = (x&15)<<12 | $FCA (cookie-cut: A=mask, B=bitmap, C/D=dest, minterm $CA) and BLTCON1 = the shift. It then reads the BOB DESCRIPTOR at a0 and runs the blit, and appends {dest, modulo, BLTSIZE} to the restore queue (a3) for blit_obj_restore. ====
00603A  90 78 01 72                   SUB.w $172.w,d0
00603E  D0 7C 00 40                   ADD.w #$40,d0
006042  48 C0                         EXT.L d0
006044  6B F2                         BMI $006038
006046  92 78 01 74                   SUB.w $174.w,d1
00604A  C2 7C 00 FF                   AND.w #$FF,d1
00604E  92 78 01 C0                   SUB.w $1C0.w,d1
006052  C2 7C 00 FF                   AND.w #$FF,d1
006056  E8 98                         ROR.l #4,d0
006058  34 01                         MOVE.w d1,d2
00605A  D4 42                         ADD.w d2,d2
00605C  D0 71 20 00                   ADD.w $0(a1,d2.w),d0
006060  59 40                         SUBQ.w #4,d0
006062  6B D4                         BMI $006038
006064  38 02                         MOVE.w d2,d4
006066  48 40                         SWAP d0
006068  3D 40 00 42                   MOVE.w d0,$42(a6)
00606C  80 7C 0F CA                   OR.w #$FCA,d0
006070  3D 40 00 40                   MOVE.w d0,$40(a6)
006074  42 40                         CLR.w d0
006076  48 40                         SWAP d0
006078  D0 40                         ADD.w d0,d0
00607A  D0 AA 00 04                   ADD.l $4(a2),d0
00607E  4A 28 00 0D                   TST.b $D(a0)
006082  66 00 01 7E                   BNE $006202
006086  34 28 00 08                   MOVE.w $8(a0),d2
00608A  3D 42 00 60                   MOVE.w d2,$60(a6)
00608E  3D 42 00 66                   MOVE.w d2,$66(a6)
006092  36 28 00 0A                   MOVE.w $A(a0),d3
006096  D2 28 00 0C                   ADD.b $C(a0),d1
00609A  65 70                         BCS $00610C
00609C  26 C0                         MOVE.l d0,(a3)+
00609E  36 C2                         MOVE.w d2,(a3)+
0060A0  36 C3                         MOVE.w d3,(a3)+
0060A2  24 00                         MOVE.l d0,d2
0060A4  2D 50 00 4C                   MOVE.l (a0),$4C(a6)
0060A8  22 28 00 04                   MOVE.l $4(a0),d1
0060AC  48 EE 00 06 00 50             MOVEM.l d1-d2,$50(a6)
0060B2  2D 42 00 48                   MOVE.l d2,$48(a6)
0060B6  3D 43 00 58                   MOVE.w d3,$58(a6)
0060BA  08 2E 00 0E 00 02             BTST.b #$E,$2(a6)
0060C0  66 F8                         BNE $0060BA
0060C2  D4 85                         ADD.l d5,d2
0060C4  48 EE 00 06 00 50             MOVEM.l d1-d2,$50(a6)
0060CA  2D 42 00 48                   MOVE.l d2,$48(a6)
0060CE  3D 43 00 58                   MOVE.w d3,$58(a6)
0060D2  08 2E 00 0E 00 02             BTST.b #$E,$2(a6)
0060D8  66 F8                         BNE $0060D2
0060DA  D4 85                         ADD.l d5,d2
0060DC  48 EE 00 06 00 50             MOVEM.l d1-d2,$50(a6)
0060E2  2D 42 00 48                   MOVE.l d2,$48(a6)
0060E6  3D 43 00 58                   MOVE.w d3,$58(a6)
0060EA  08 2E 00 0E 00 02             BTST.b #$E,$2(a6)
0060F0  66 F8                         BNE $0060EA
0060F2  D4 85                         ADD.l d5,d2
0060F4  48 EE 00 06 00 50             MOVEM.l d1-d2,$50(a6)
0060FA  2D 42 00 48                   MOVE.l d2,$48(a6)
0060FE  3D 43 00 58                   MOVE.w d3,$58(a6)
006102  25 4B 00 14                   MOVE.l a3,$14(a2)
006106  42 6B 00 04                   CLR.w $4(a3)
00610A  4E 75                         RTS
00610C  67 8E                         BEQ $00609C
00610E  37 42 00 04                   MOVE.w d2,$4(a3)
006112  37 42 00 0C                   MOVE.w d2,$C(a3)
006116  48 C4                         EXT.L d4
006118  38 31 40 00                   MOVE.w $0(a1,d4.w),d4
00611C  D8 44                         ADD.w d4,d4
00611E  24 00                         MOVE.l d0,d2
006120  90 84                         SUB.l d4,d0
006122  D2 41                         ADD.w d1,d1
006124  32 34 10 00                   MOVE.w $0(a4,d1.w),d1
006128  96 41                         SUB.w d1,d3
00612A  38 03                         MOVE.w d3,d4
00612C  C8 7C 00 3F                   AND.w #$3F,d4
006130  88 41                         OR.w d1,d4
006132  26 82                         MOVE.l d2,(a3)
006134  37 43 00 06                   MOVE.w d3,$6(a3)
006138  27 40 00 08                   MOVE.l d0,$8(a3)
00613C  37 44 00 0E                   MOVE.w d4,$E(a3)
006140  D6 FC 00 10                   ADDA.w #$10,a3
006144  2D 50 00 4C                   MOVE.l (a0),$4C(a6)
006148  22 28 00 04                   MOVE.l $4(a0),d1
00614C  48 EE 00 06 00 50             MOVEM.l d1-d2,$50(a6)
006152  2D 42 00 48                   MOVE.l d2,$48(a6)
006156  3D 43 00 58                   MOVE.w d3,$58(a6)
00615A  08 2E 00 0E 00 02             BTST.b #$E,$2(a6)
006160  66 F8                         BNE $00615A
006162  2D 40 00 48                   MOVE.l d0,$48(a6)
006166  2D 40 00 54                   MOVE.l d0,$54(a6)
00616A  3D 44 00 58                   MOVE.w d4,$58(a6)
00616E  08 2E 00 0E 00 02             BTST.b #$E,$2(a6)
006174  66 F8                         BNE $00616E
006176  D0 85                         ADD.l d5,d0
006178  D4 85                         ADD.l d5,d2
00617A  48 EE 00 06 00 50             MOVEM.l d1-d2,$50(a6)
006180  2D 42 00 48                   MOVE.l d2,$48(a6)
006184  3D 43 00 58                   MOVE.w d3,$58(a6)
006188  08 2E 00 0E 00 02             BTST.b #$E,$2(a6)
00618E  66 F8                         BNE $006188
006190  2D 40 00 48                   MOVE.l d0,$48(a6)
006194  2D 40 00 54                   MOVE.l d0,$54(a6)
006198  3D 44 00 58                   MOVE.w d4,$58(a6)
00619C  08 2E 00 0E 00 02             BTST.b #$E,$2(a6)
0061A2  66 F8                         BNE $00619C
0061A4  D0 85                         ADD.l d5,d0
0061A6  D4 85                         ADD.l d5,d2
0061A8  48 EE 00 06 00 50             MOVEM.l d1-d2,$50(a6)
0061AE  2D 42 00 48                   MOVE.l d2,$48(a6)
0061B2  3D 43 00 58                   MOVE.w d3,$58(a6)
0061B6  08 2E 00 0E 00 02             BTST.b #$E,$2(a6)
0061BC  66 F8                         BNE $0061B6
0061BE  2D 40 00 48                   MOVE.l d0,$48(a6)
0061C2  2D 40 00 54                   MOVE.l d0,$54(a6)
0061C6  3D 44 00 58                   MOVE.w d4,$58(a6)
0061CA  08 2E 00 0E 00 02             BTST.b #$E,$2(a6)
0061D0  66 F8                         BNE $0061CA
0061D2  D0 85                         ADD.l d5,d0
0061D4  D4 85                         ADD.l d5,d2
0061D6  48 EE 00 06 00 50             MOVEM.l d1-d2,$50(a6)
0061DC  2D 42 00 48                   MOVE.l d2,$48(a6)
0061E0  3D 43 00 58                   MOVE.w d3,$58(a6)
0061E4  08 2E 00 0E 00 02             BTST.b #$E,$2(a6)
0061EA  66 F8                         BNE $0061E4
0061EC  2D 40 00 48                   MOVE.l d0,$48(a6)
0061F0  2D 40 00 54                   MOVE.l d0,$54(a6)
0061F4  3D 44 00 58                   MOVE.w d4,$58(a6)
0061F8  25 4B 00 14                   MOVE.l a3,$14(a2)
0061FC  42 6B 00 04                   CLR.w $4(a3)
006200  4E 75                         RTS

; --- draw_object_bob_alt  $006202 — Alternate BOB path taken when the descriptor's $D flag is set (a wider/clipped or pre-shifted variant). ---
006202  34 28 00 08                   MOVE.w $8(a0),d2
006206  3D 42 00 60                   MOVE.w d2,$60(a6)
00620A  3D 42 00 66                   MOVE.w d2,$66(a6)
00620E  36 28 00 0E                   MOVE.w $E(a0),d3
006212  3D 43 00 62                   MOVE.w d3,$62(a6)
006216  3D 43 00 64                   MOVE.w d3,$64(a6)
00621A  36 28 00 0A                   MOVE.w $A(a0),d3
00621E  D2 28 00 0C                   ADD.b $C(a0),d1
006222  65 7E                         BCS $0062A2
006224  26 C0                         MOVE.l d0,(a3)+
006226  36 C2                         MOVE.w d2,(a3)+
006228  36 C3                         MOVE.w d3,(a3)+
00622A  D0 BC 00 00 00 90             ADD.l #$90,d0
006230  24 00                         MOVE.l d0,d2
006232  22 28 00 10                   MOVE.l $10(a0),d1
006236  2D 41 00 4C                   MOVE.l d1,$4C(a6)
00623A  48 EE 00 06 00 50             MOVEM.l d1-d2,$50(a6)
006240  2D 42 00 48                   MOVE.l d2,$48(a6)
006244  3D 43 00 58                   MOVE.w d3,$58(a6)
006248  08 2E 00 0E 00 02             BTST.b #$E,$2(a6)
00624E  66 F8                         BNE $006248
006250  94 85                         SUB.l d5,d2
006252  48 EE 00 06 00 50             MOVEM.l d1-d2,$50(a6)
006258  2D 42 00 48                   MOVE.l d2,$48(a6)
00625C  3D 43 00 58                   MOVE.w d3,$58(a6)
006260  08 2E 00 0E 00 02             BTST.b #$E,$2(a6)
006266  66 F8                         BNE $006260
006268  94 85                         SUB.l d5,d2
00626A  48 EE 00 06 00 50             MOVEM.l d1-d2,$50(a6)
006270  2D 42 00 48                   MOVE.l d2,$48(a6)
006274  3D 43 00 58                   MOVE.w d3,$58(a6)
006278  08 2E 00 0E 00 02             BTST.b #$E,$2(a6)
00627E  66 F8                         BNE $006278
006280  94 85                         SUB.l d5,d2
006282  48 EE 00 06 00 50             MOVEM.l d1-d2,$50(a6)
006288  2D 42 00 48                   MOVE.l d2,$48(a6)
00628C  3D 43 00 58                   MOVE.w d3,$58(a6)
006290  25 4B 00 14                   MOVE.l a3,$14(a2)
006294  42 6B 00 04                   CLR.w $4(a3)
006298  2D 7C FF FE FF FE 00 62       MOVE.l #$FFFEFFFE,$62(a6)
0062A0  4E 75                         RTS
0062A2  67 80                         BEQ $006224
0062A4  37 42 00 04                   MOVE.w d2,$4(a3)
0062A8  37 42 00 0C                   MOVE.w d2,$C(a3)
0062AC  48 C4                         EXT.L d4
0062AE  38 31 40 00                   MOVE.w $0(a1,d4.w),d4
0062B2  D8 44                         ADD.w d4,d4
0062B4  24 00                         MOVE.l d0,d2
0062B6  90 84                         SUB.l d4,d0
0062B8  D2 41                         ADD.w d1,d1
0062BA  32 34 10 00                   MOVE.w $0(a4,d1.w),d1
0062BE  96 41                         SUB.w d1,d3
0062C0  38 03                         MOVE.w d3,d4
0062C2  C8 7C 00 3F                   AND.w #$3F,d4
0062C6  88 41                         OR.w d1,d4
0062C8  26 82                         MOVE.l d2,(a3)
0062CA  37 43 00 06                   MOVE.w d3,$6(a3)
0062CE  27 40 00 08                   MOVE.l d0,$8(a3)
0062D2  37 44 00 0E                   MOVE.w d4,$E(a3)
0062D6  D6 FC 00 10                   ADDA.w #$10,a3
0062DA  D0 BC 00 00 00 90             ADD.l #$90,d0
0062E0  D4 BC 00 00 00 90             ADD.l #$90,d2
0062E6  22 28 00 10                   MOVE.l $10(a0),d1
0062EA  2D 41 00 4C                   MOVE.l d1,$4C(a6)
0062EE  48 EE 00 06 00 50             MOVEM.l d1-d2,$50(a6)
0062F4  2D 42 00 48                   MOVE.l d2,$48(a6)
0062F8  3D 43 00 58                   MOVE.w d3,$58(a6)
0062FC  08 2E 00 0E 00 02             BTST.b #$E,$2(a6)
006302  66 F8                         BNE $0062FC
006304  2D 40 00 48                   MOVE.l d0,$48(a6)
006308  2D 40 00 54                   MOVE.l d0,$54(a6)
00630C  3D 44 00 58                   MOVE.w d4,$58(a6)
006310  08 2E 00 0E 00 02             BTST.b #$E,$2(a6)
006316  66 F8                         BNE $006310
006318  90 85                         SUB.l d5,d0
00631A  94 85                         SUB.l d5,d2
00631C  48 EE 00 06 00 50             MOVEM.l d1-d2,$50(a6)
006322  2D 42 00 48                   MOVE.l d2,$48(a6)
006326  3D 43 00 58                   MOVE.w d3,$58(a6)
00632A  08 2E 00 0E 00 02             BTST.b #$E,$2(a6)
006330  66 F8                         BNE $00632A
006332  2D 40 00 48                   MOVE.l d0,$48(a6)
006336  2D 40 00 54                   MOVE.l d0,$54(a6)
00633A  3D 44 00 58                   MOVE.w d4,$58(a6)
00633E  08 2E 00 0E 00 02             BTST.b #$E,$2(a6)
006344  66 F8                         BNE $00633E
006346  90 85                         SUB.l d5,d0
006348  94 85                         SUB.l d5,d2
00634A  48 EE 00 06 00 50             MOVEM.l d1-d2,$50(a6)
006350  2D 42 00 48                   MOVE.l d2,$48(a6)
006354  3D 43 00 58                   MOVE.w d3,$58(a6)
006358  08 2E 00 0E 00 02             BTST.b #$E,$2(a6)
00635E  66 F8                         BNE $006358
006360  2D 40 00 48                   MOVE.l d0,$48(a6)
006364  2D 40 00 54                   MOVE.l d0,$54(a6)
006368  3D 44 00 58                   MOVE.w d4,$58(a6)
00636C  08 2E 00 0E 00 02             BTST.b #$E,$2(a6)
006372  66 F8                         BNE $00636C
006374  90 85                         SUB.l d5,d0
006376  94 85                         SUB.l d5,d2
006378  48 EE 00 06 00 50             MOVEM.l d1-d2,$50(a6)
00637E  2D 42 00 48                   MOVE.l d2,$48(a6)
006382  3D 43 00 58                   MOVE.w d3,$58(a6)
006386  08 2E 00 0E 00 02             BTST.b #$E,$2(a6)
00638C  66 F8                         BNE $006386
00638E  2D 40 00 48                   MOVE.l d0,$48(a6)
006392  2D 40 00 54                   MOVE.l d0,$54(a6)
006396  3D 44 00 58                   MOVE.w d4,$58(a6)
00639A  25 4B 00 14                   MOVE.l a3,$14(a2)
00639E  42 6B 00 04                   CLR.w $4(a3)
0063A2  2D 7C FF FE FF FE 00 62       MOVE.l #$FFFEFFFE,$62(a6)
0063AA  4E 75                         RTS
0063AC  4E 75                         RTS

; ==== sub_0063AE (5 callers) ====
0063AE  92 78 01 72                   SUB.w $172.w,d1
0063B2  6B F8                         BMI $0063AC
0063B4  94 78 01 74                   SUB.w $174.w,d2
0063B8  6B F2                         BMI $0063AC
0063BA  C2 BC 00 00 FF F0             AND.l #$FFF0,d1
0063C0  C4 7C 00 F0                   AND.w #$F0,d2
0063C4  48 A7 60 00                   MOVEM.w d1-d2,-(a7)
0063C8  94 78 01 C0                   SUB.w $1C0.w,d2
0063CC  C4 7C 00 F0                   AND.w #$F0,d2
0063D0  D4 42                         ADD.w d2,d2
0063D2  48 A7 60 00                   MOVEM.w d1-d2,-(a7)
0063D6  E8 49                         LSR.w #4,d1
0063D8  20 78 02 0E                   MOVEA.l $20E.w,a0
0063DC  D2 70 20 00                   ADD.w $0(a0,d2.w),d1
0063E0  D2 81                         ADD.l d1,d1
0063E2  D2 B8 01 7A                   ADD.l $17A.w,d1
0063E6  20 78 35 D8                   MOVEA.l $35D8.w,a0
0063EA  24 10                         MOVE.l (a0),d2
0063EC  30 2F 00 04                   MOVE.w $4(a7),d0
0063F0  08 00 00 04                   BTST.l #$4,d0
0063F4  67 02                         BEQ $0063F8
0063F6  54 82                         ADDQ.l #2,d2
0063F8  30 2F 00 06                   MOVE.w $6(a7),d0
0063FC  08 00 00 04                   BTST.l #$4,d0
006400  67 06                         BEQ $006408
006402  D4 BC 00 00 01 00             ADD.l #$100,d2
006408  3D 7C 09 F0 00 40             MOVE.w #$9F0,$40(a6)
00640E  42 6E 00 42                   CLR.w $42(a6)
006412  2D 7C FF FF FF FF 00 44       MOVE.l #$FFFFFFFF,$44(a6)
00641A  3D 7C 00 2E 00 66             MOVE.w #$2E,$66(a6)
006420  3D 7C 00 02 00 64             MOVE.w #$2,$64(a6)
006426  2D 42 00 50                   MOVE.l d2,$50(a6)
00642A  2D 41 00 54                   MOVE.l d1,$54(a6)
00642E  3D 7C 10 01 00 58             MOVE.w #$1001,$58(a6)
006434  D2 BC 00 00 C0 00             ADD.l #$C000,d1
00643A  08 2E 00 0E 00 02             BTST.b #$E,$2(a6)
006440  66 F8                         BNE $00643A
006442  2D 42 00 50                   MOVE.l d2,$50(a6)
006446  2D 41 00 54                   MOVE.l d1,$54(a6)
00644A  3D 7C 10 01 00 58             MOVE.w #$1001,$58(a6)
006450  D2 BC 00 00 C0 00             ADD.l #$C000,d1
006456  08 2E 00 0E 00 02             BTST.b #$E,$2(a6)
00645C  66 F8                         BNE $006456
00645E  2D 42 00 50                   MOVE.l d2,$50(a6)
006462  2D 41 00 54                   MOVE.l d1,$54(a6)
006466  3D 7C 10 01 00 58             MOVE.w #$1001,$58(a6)
00646C  4C 9F 00 03                   MOVEM.w (a7)+,d0-d1
006470  34 01                         MOVE.w d1,d2
006472  D4 42                         ADD.w d2,d2
006474  D2 42                         ADD.w d2,d1
006476  E6 48                         LSR.w #3,d0
006478  D2 40                         ADD.w d0,d1
00647A  20 78 02 12                   MOVEA.l $212.w,a0
00647E  42 30 10 00                   CLR.b $0(a0,d1.w)
006482  42 30 10 01                   CLR.b $1(a0,d1.w)
006486  42 30 10 30                   CLR.b $30(a0,d1.w)
00648A  42 30 10 31                   CLR.b $31(a0,d1.w)
00648E  4C 9F 00 03                   MOVEM.w (a7)+,d0-d1
006492  EA 48                         LSR.w #5,d0
006494  D0 78 01 F6                   ADD.w $1F6.w,d0
006498  D0 40                         ADD.w d0,d0
00649A  EA 49                         LSR.w #5,d1
00649C  D2 78 01 F8                   ADD.w $1F8.w,d1
0064A0  20 78 02 2E                   MOVEA.l $22E.w,a0
0064A4  D2 70 00 00                   ADD.w $0(a0,d0.w),d1
0064A8  20 78 02 2A                   MOVEA.l $22A.w,a0
0064AC  42 30 10 00                   CLR.b $0(a0,d1.w)
0064B0  70 19                         MOVEQ #$19,d0
0064B2  4E F9 00 01 A2 DC             JMP $1A2DC.l

; ==== sub_0064B8 (4 callers) ====
0064B8  4A B8 02 36                   TST.l $236.w
0064BC  66 02                         BNE $0064C0
0064BE  4E 75                         RTS
0064C0  3E 38 54 48                   MOVE.w $5448.w,d7
0064C4  53 47                         SUBQ.w #1,d7
0064C6  6B 00 00 96                   BMI $00655E
0064CA  2A 78 02 36                   MOVEA.l $236.w,a5
0064CE  4A 2D 00 1F                   TST.b $1F(a5)
0064D2  66 00 00 7C                   BNE $006550
0064D6  4A 2D 00 1E                   TST.b $1E(a5)
0064DA  6B 00 00 74                   BMI $006550
0064DE  28 6D 00 08                   MOVEA.l $8(a5),a4
0064E2  34 2D 00 0C                   MOVE.w $C(a5),d2
0064E6  E7 4A                         LSL.w #3,d2
0064E8  D8 C2                         ADDA.w d2,a4
0064EA  4C AD 00 03 00 18             MOVEM.w $18(a5),d0-d1
0064F0  D0 5C                         ADD.w (a4)+,d0
0064F2  D2 5C                         ADD.w (a4)+,d1
0064F4  34 00                         MOVE.w d0,d2
0064F6  36 01                         MOVE.w d1,d3
0064F8  D4 5C                         ADD.w (a4)+,d2
0064FA  D6 54                         ADD.w (a4),d3
0064FC  3C 07                         MOVE.w d7,d6
0064FE  41 F9 00 00 9E 54             LEA $9E54.l,a0
006504  4A 50                         TST.w (a0)
006506  66 04                         BNE $00650C
006508  5C 48                         ADDQ.w #6,a0
00650A  60 F8                         BRA $006504
00650C  6B 3C                         BMI $00654A
00650E  4C A8 00 30 00 02             MOVEM.w $2(a0),d4-d5
006514  B4 44                         CMP.w d4,d2
006516  6D 32                         BLT $00654A
006518  B6 45                         CMP.w d5,d3
00651A  6D 2E                         BLT $00654A
00651C  50 44                         ADDQ.w #8,d4
00651E  5C 45                         ADDQ.w #6,d5
006520  B0 44                         CMP.w d4,d0
006522  6E 26                         BGT $00654A
006524  B2 45                         CMP.w d5,d1
006526  6E 22                         BGT $00654A
006528  52 2D 00 1D                   ADDQ.b #1,$1D(a5)
00652C  42 50                         CLR.w (a0)
00652E  4A 38 01 5C                   TST.b $15C.w
006532  67 0E                         BEQ $006542
006534  30 BC FF F6                   MOVE.w #$FFF6,(a0)
006538  59 68 00 02                   SUBQ.w #4,$2(a0)
00653C  5D 68 00 04                   SUBQ.w #6,$4(a0)
006540  60 08                         BRA $00654A
006542  53 79 00 00 54 48             SUBQ.w #1,$5448.l
006548  67 14                         BEQ $00655E
00654A  5C 48                         ADDQ.w #6,a0
00654C  51 CE FF B6                   DBRA d6,$006504
006550  4A AD 00 00                   TST.l $0(a5)
006554  67 08                         BEQ $00655E
006556  2A 6D 00 00                   MOVEA.l $0(a5),a5
00655A  60 00 FF 72                   BRA $0064CE
00655E  4A 39 00 00 54 53             TST.b $5453.l
006564  67 00 00 7E                   BEQ $0065E4
006568  4C B8 00 03 54 58             MOVEM.w $5458.w,d0-d1
00656E  36 01                         MOVE.w d1,d3
006570  D6 7C 00 06                   ADD.w #$6,d3
006574  18 38 54 52                   MOVE.b $5452.w,d4
006578  C8 7C 00 07                   AND.w #$7,d4
00657C  54 44                         ADDQ.w #2,d4
00657E  E9 4C                         LSL.w #4,d4
006580  4A 78 54 56                   TST.w $5456.w
006584  6A 0A                         BPL $006590
006586  D0 7C 00 10                   ADD.w #$10,d0
00658A  34 00                         MOVE.w d0,d2
00658C  90 44                         SUB.w d4,d0
00658E  60 04                         BRA $006594
006590  34 00                         MOVE.w d0,d2
006592  D4 44                         ADD.w d4,d2
006594  2A 78 02 36                   MOVEA.l $236.w,a5
006598  4A 2D 00 1F                   TST.b $1F(a5)
00659C  66 00 00 3A                   BNE $0065D8
0065A0  4A 2D 00 1E                   TST.b $1E(a5)
0065A4  6B 00 00 32                   BMI $0065D8
0065A8  4C AD 00 30 00 18             MOVEM.w $18(a5),d4-d5
0065AE  28 6D 00 08                   MOVEA.l $8(a5),a4
0065B2  3C 2D 00 0C                   MOVE.w $C(a5),d6
0065B6  E7 4E                         LSL.w #3,d6
0065B8  D8 C6                         ADDA.w d6,a4
0065BA  D8 5C                         ADD.w (a4)+,d4
0065BC  B4 44                         CMP.w d4,d2
0065BE  6D 18                         BLT $0065D8
0065C0  DA 5C                         ADD.w (a4)+,d5
0065C2  B6 45                         CMP.w d5,d3
0065C4  6D 12                         BLT $0065D8
0065C6  D8 5C                         ADD.w (a4)+,d4
0065C8  B0 44                         CMP.w d4,d0
0065CA  6E 0C                         BGT $0065D8
0065CC  DA 5C                         ADD.w (a4)+,d5
0065CE  B2 45                         CMP.w d5,d1
0065D0  6E 06                         BGT $0065D8
0065D2  06 2D 00 06 00 1D             ADDI.b #$6,$1D(a5)
0065D8  4A AD 00 00                   TST.l $0(a5)
0065DC  67 06                         BEQ $0065E4
0065DE  2A 6D 00 00                   MOVEA.l $0(a5),a5
0065E2  60 B4                         BRA $006598
0065E4  4A 38 01 5C                   TST.b $15C.w
0065E8  67 30                         BEQ $00661A
0065EA  4A 38 5A B2                   TST.b $5AB2.w
0065EE  67 2A                         BEQ $00661A
0065F0  4A 38 01 C7                   TST.b $1C7.w
0065F4  66 24                         BNE $00661A
0065F6  4C B8 00 30 5A B4             MOVEM.w $5AB4.w,d4-d5
0065FC  4C B8 00 0F 01 6A             MOVEM.w $16A.w,d0-d3
006602  B4 44                         CMP.w d4,d2
006604  6D 14                         BLT $00661A
006606  B6 45                         CMP.w d5,d3
006608  6D 10                         BLT $00661A
00660A  5C 44                         ADDQ.w #6,d4
00660C  5C 45                         ADDQ.w #6,d5
00660E  B0 44                         CMP.w d4,d0
006610  6E 08                         BGT $00661A
006612  B2 45                         CMP.w d5,d1
006614  6E 04                         BGT $00661A
006616  61 00 F4 24                   BSR $005A3C
00661A  4A 38 5A B2                   TST.b $5AB2.w
00661E  67 00 00 74                   BEQ $006694
006622  4A 38 01 C7                   TST.b $1C7.w
006626  67 08                         BEQ $006630
006628  4A 38 5A B3                   TST.b $5AB3.w
00662C  67 00 00 66                   BEQ $006694
006630  4C B8 00 03 5A B4             MOVEM.w $5AB4.w,d0-d1
006636  4C B8 00 0C 5A B4             MOVEM.w $5AB4.w,d2-d3
00663C  58 42                         ADDQ.w #4,d2
00663E  58 43                         ADDQ.w #4,d3
006640  2A 78 02 36                   MOVEA.l $236.w,a5
006644  4A 2D 00 1F                   TST.b $1F(a5)
006648  66 3E                         BNE $006688
00664A  4A 2D 00 1E                   TST.b $1E(a5)
00664E  6B 00 00 38                   BMI $006688
006652  4A 38 5A B3                   TST.b $5AB3.w
006656  66 2A                         BNE $006682
006658  4C AD 00 30 00 18             MOVEM.w $18(a5),d4-d5
00665E  28 6D 00 08                   MOVEA.l $8(a5),a4
006662  3C 2D 00 0C                   MOVE.w $C(a5),d6
006666  E7 4E                         LSL.w #3,d6
006668  D8 C6                         ADDA.w d6,a4
00666A  D8 5C                         ADD.w (a4)+,d4
00666C  B4 44                         CMP.w d4,d2
00666E  6D 18                         BLT $006688
006670  DA 5C                         ADD.w (a4)+,d5
006672  B6 45                         CMP.w d5,d3
006674  6D 12                         BLT $006688
006676  D8 5C                         ADD.w (a4)+,d4
006678  B0 44                         CMP.w d4,d0
00667A  6E 0C                         BGT $006688
00667C  DA 5C                         ADD.w (a4)+,d5
00667E  B2 45                         CMP.w d5,d1
006680  6E 06                         BGT $006688
006682  06 2D 00 64 00 1D             ADDI.b #$64,$1D(a5)
006688  4A AD 00 00                   TST.l $0(a5)
00668C  67 06                         BEQ $006694
00668E  2A 6D 00 00                   MOVEA.l $0(a5),a5
006692  60 B0                         BRA $006644
006694  51 F8 5A B3                   SF $5AB3.w
006698  4A 38 59 4A                   TST.b $594A.w
00669C  67 00 00 9E                   BEQ $00673C
0066A0  18 38 59 4B                   MOVE.b $594B.w,d4
0066A4  C8 7C 00 0F                   AND.w #$F,d4
0066A8  E7 4C                         LSL.w #3,d4
0066AA  41 F8 67 E6                   LEA $67E6.w,a0
0066AE  D0 C4                         ADDA.w d4,a0
0066B0  53 78 59 48                   SUBQ.w #1,$5948.w
0066B4  2A 78 02 36                   MOVEA.l $236.w,a5
0066B8  4A 2D 00 1F                   TST.b $1F(a5)
0066BC  66 00 00 70                   BNE $00672E
0066C0  4A 2D 00 1E                   TST.b $1E(a5)
0066C4  6B 00 00 68                   BMI $00672E
0066C8  2F 38 59 40                   MOVE.l $5940.w,-(a7)
0066CC  28 6D 00 08                   MOVEA.l $8(a5),a4
0066D0  3C 2D 00 0C                   MOVE.w $C(a5),d6
0066D4  E7 4E                         LSL.w #3,d6
0066D6  D8 C6                         ADDA.w d6,a4
0066D8  4C AD 00 0C 00 18             MOVEM.w $18(a5),d2-d3
0066DE  D4 5C                         ADD.w (a4)+,d2
0066E0  D6 5C                         ADD.w (a4)+,d3
0066E2  38 02                         MOVE.w d2,d4
0066E4  3A 03                         MOVE.w d3,d5
0066E6  D8 5C                         ADD.w (a4)+,d4
0066E8  DA 54                         ADD.w (a4),d5
0066EA  3E 38 59 48                   MOVE.w $5948.w,d7
0066EE  4C 97 00 03                   MOVEM.w (a7),d0-d1
0066F2  D0 68 00 00                   ADD.w $0(a0),d0
0066F6  D2 68 00 02                   ADD.w $2(a0),d1
0066FA  B8 40                         CMP.w d0,d4
0066FC  6D 1E                         BLT $00671C
0066FE  BA 41                         CMP.w d1,d5
006700  6D 1A                         BLT $00671C
006702  D0 68 00 04                   ADD.w $4(a0),d0
006706  D2 68 00 06                   ADD.w $6(a0),d1
00670A  B4 40                         CMP.w d0,d2
00670C  6E 0E                         BGT $00671C
00670E  B6 41                         CMP.w d1,d3
006710  6E 00 00 0A                   BGT $00671C
006714  06 2D 00 01 00 1D             ADDI.b #$1,$1D(a5)
00671A  60 10                         BRA $00672C
00671C  4C B8 00 03 59 44             MOVEM.w $5944.w,d0-d1
006722  D1 57                         ADD.w d0,(a7)
006724  D3 6F 00 02                   ADD.w d1,$2(a7)
006728  51 CF FF C4                   DBRA d7,$0066EE
00672C  58 4F                         ADDQ.w #4,a7
00672E  4A AD 00 00                   TST.l $0(a5)
006732  67 08                         BEQ $00673C
006734  2A 6D 00 00                   MOVEA.l $0(a5),a5
006738  60 00 FF 7E                   BRA $0066B8
00673C  4A 38 02 29                   TST.b $229.w
006740  67 00 00 A2                   BEQ $0067E4
006744  41 F8 02 9A                   LEA $29A.w,a0
006748  43 F8 02 B8                   LEA $2B8.w,a1
00674C  30 38 02 96                   MOVE.w $296.w,d0
006750  34 38 02 98                   MOVE.w $298.w,d2
006754  32 00                         MOVE.w d0,d1
006756  36 02                         MOVE.w d2,d3
006758  D2 7C 00 10                   ADD.w #$10,d1
00675C  D6 7C 00 10                   ADD.w #$10,d3
006760  2A 78 02 36                   MOVEA.l $236.w,a5
006764  4A 2D 00 1F                   TST.b $1F(a5)
006768  66 00 00 6E                   BNE $0067D8
00676C  4A 2D 00 1E                   TST.b $1E(a5)
006770  6B 00 00 66                   BMI $0067D8
006774  4C AD 00 30 00 18             MOVEM.w $18(a5),d4-d5
00677A  28 6D 00 08                   MOVEA.l $8(a5),a4
00677E  3C 2D 00 0C                   MOVE.w $C(a5),d6
006782  E7 4E                         LSL.w #3,d6
006784  D8 C6                         ADDA.w d6,a4
006786  D8 5C                         ADD.w (a4)+,d4
006788  DA 5C                         ADD.w (a4)+,d5
00678A  3C 04                         MOVE.w d4,d6
00678C  DC 5C                         ADD.w (a4)+,d6
00678E  B6 44                         CMP.w d4,d3
006790  6D 00 00 46                   BLT $0067D8
006794  B4 46                         CMP.w d6,d2
006796  6E 1E                         BGT $0067B6
006798  E6 4D                         LSR.w #3,d5
00679A  59 45                         SUBQ.w #4,d5
00679C  3C 14                         MOVE.w (a4),d6
00679E  4A 31 50 00                   TST.b $0(a1,d5.w)
0067A2  66 08                         BNE $0067AC
0067A4  52 45                         ADDQ.w #1,d5
0067A6  51 46                         SUBQ.w #8,d6
0067A8  6A F4                         BPL $00679E
0067AA  60 2C                         BRA $0067D8
0067AC  06 2D 00 05 00 1D             ADDI.b #$5,$1D(a5)
0067B2  60 00 00 24                   BRA $0067D8
0067B6  B0 46                         CMP.w d6,d0
0067B8  6E 1E                         BGT $0067D8
0067BA  B2 44                         CMP.w d4,d1
0067BC  6D 1A                         BLT $0067D8
0067BE  E6 4D                         LSR.w #3,d5
0067C0  59 45                         SUBQ.w #4,d5
0067C2  3C 14                         MOVE.w (a4),d6
0067C4  4A 30 50 00                   TST.b $0(a0,d5.w)
0067C8  66 08                         BNE $0067D2
0067CA  52 45                         ADDQ.w #1,d5
0067CC  51 46                         SUBQ.w #8,d6
0067CE  6A F4                         BPL $0067C4
0067D0  60 06                         BRA $0067D8
0067D2  06 2D 00 05 00 1D             ADDI.b #$5,$1D(a5)
0067D8  4A AD 00 00                   TST.l $0(a5)
0067DC  67 06                         BEQ $0067E4
0067DE  2A 6D 00 00                   MOVEA.l $0(a5),a5
0067E2  60 80                         BRA $006764
0067E4  4E 75                         RTS
0067E6  .dc.b 00 00 00 02 00 20 00 0A 00 02 00 02 00 1D 00 0E ; ..... ..........
0067F6  .dc.b 00 03 00 02 00 1A 00 12 00 03 00 04 00 1A 00 12 ; ................
006806  .dc.b 00 03 00 03 00 17 00 17 00 05 00 03 00 11 00 1A ; ................
006816  .dc.b 00 03 00 02 00 11 00 1C 00 03 00 02 00 0D 00 1E ; ................
006826  .dc.b 00 02 00 00 00 0A 00 20 00 03 00 02 00 0D 00 1D ; ....... ........
006836  .dc.b 00 03 00 02 00 11 00 1C 00 05 00 03 00 11 00 1A ; ................
006846  .dc.b 00 03 00 03 00 17 00 17 00 03 00 04 00 1A 00 12 ; ................
006856  .dc.b 00 02 00 02 00 1A 00 12 00 02 00 02 00 1D 00 0E ; ................
006866  .dc.b 52 42 D4 42 D4 42 41 F8 4A BA 76 0E 4A 50 67 08 ; RB.B.BA.J.v.JPg.
006876  .dc.b 5C 48 51 CB FF F8 4E 75 4A 42 66 20 43 F8 4B 32 ; \HQ...NuJBf C.K2
006886  .dc.b 74 6C 76 0F 4A B1 20 00 67 0E B8 B1 20 00 67 08 ; tlv.J. .g... .g.
006896  .dc.b 58 42 51 CB FF F0 4E 75 23 84 20 00 30 82 48 A8 ; XBQ...Nu#. .0.H.
0068A6  .dc.b 00 03 00 02 4E 75                               ; ....Nu

; ==== sub_0068AC (2 callers) ====
0068AC  4B F8 4A BA                   LEA $4ABA.w,a5
0068B0  7E 0E                         MOVEQ #$E,d7
0068B2  2C 3C 00 00 4B 2E             MOVE.l #$4B2E,d6
0068B8  2D 7C FF FE FF FE 00 62       MOVE.l #$FFFEFFFE,$62(a6)
0068C0  2D 7C FF FF 00 00 00 44       MOVE.l #$FFFF0000,$44(a6)
0068C8  41 F8 4A AC                   LEA $4AAC.w,a0
0068CC  22 78 02 0E                   MOVEA.l $20E.w,a1
0068D0  24 78 01 C2                   MOVEA.l $1C2.w,a2
0068D4  26 6A 00 14                   MOVEA.l $14(a2),a3
0068D8  28 78 74 F2                   MOVEA.l $74F2.w,a4
0068DC  7A 30                         MOVEQ #$30,d5
0068DE  38 15                         MOVE.w (a5),d4
0068E0  67 64                         BEQ $006946
0068E2  CD 8C                         EXG d6,a4
0068E4  4C B4 00 0C 40 00             MOVEM.w $0(a4,d4.w),d2-d3
0068EA  CD 8C                         EXG d6,a4
0068EC  4C AD 00 03 00 02             MOVEM.w $2(a5),d0-d1
0068F2  D0 42                         ADD.w d2,d0
0068F4  D2 43                         ADD.w d3,d1
0068F6  90 78 01 20                   SUB.w $120.w,d0
0068FA  6B 52                         BMI $00694E
0068FC  92 78 01 22                   SUB.w $122.w,d1
006900  6B 4C                         BMI $00694E
006902  B0 7C 01 50                   CMP.w #$150,d0
006906  6E 46                         BGT $00694E
006908  B2 7C 00 D4                   CMP.w #$D4,d1
00690C  6E 40                         BGT $00694E
00690E  48 AD 00 03 00 02             MOVEM.w d0-d1,$2(a5)
006914  24 78 01 C2                   MOVEA.l $1C2.w,a2
006918  61 00 F7 20                   BSR $00603A
00691C  4C AD 00 03 00 02             MOVEM.w $2(a5),d0-d1
006922  61 00 CC 8A                   BSR $0035AE
006926  67 1E                         BEQ $006946
006928  41 F9 00 00 9E 54             LEA $9E54.l,a0
00692E  78 0E                         MOVEQ #$E,d4
006930  70 F6                         MOVEQ #$F6,d0
006932  4C AD 00 06 00 02             MOVEM.w $2(a5),d1-d2
006938  59 41                         SUBQ.w #4,d1
00693A  59 42                         SUBQ.w #4,d2
00693C  61 00 F3 64                   BSR $005CA2
006940  42 55                         CLR.w (a5)
006942  41 F8 4A AC                   LEA $4AAC.w,a0
006946  5C 4D                         ADDQ.w #6,a5
006948  51 CF FF 94                   DBRA d7,$0068DE
00694C  4E 75                         RTS
00694E  42 55                         CLR.w (a5)
006950  51 CF FF 8C                   DBRA d7,$0068DE
006954  4E 75                         RTS

; ==== sub_006956 (1 caller) ====
006956  4A 38 02 29                   TST.b $229.w
00695A  66 00 00 D6                   BNE $006A32
00695E  4A 38 01 E8                   TST.b $1E8.w
006962  67 00 00 C2                   BEQ $006A26
006966  42 38 02 16                   CLR.b $216.w
00696A  51 F8 01 E8                   SF $1E8.w
00696E  70 04                         MOVEQ #$4,d0
006970  61 00 0E E6                   BSR $007858
006974  6A 02                         BPL $006978
006976  4E 75                         RTS
006978  70 03                         MOVEQ #$3,d0
00697A  4E B9 00 01 A2 DC             JSR $1A2DC.l
006980  30 38 01 04                   MOVE.w $104.w,d0
006984  D0 7C 00 10                   ADD.w #$10,d0
006988  31 C0 02 96                   MOVE.w d0,$296.w
00698C  31 C0 02 98                   MOVE.w d0,$298.w
006990  50 F8 02 29                   ST $229.w
006994  51 F8 47 E4                   SF $47E4.w
006998  51 F8 47 E5                   SF $47E5.w
00699C  41 F8 02 9A                   LEA $29A.w,a0
0069A0  43 F8 02 B8                   LEA $2B8.w,a1
0069A4  32 38 01 06                   MOVE.w $106.w,d1
0069A8  D2 7C 00 10                   ADD.w #$10,d1
0069AC  61 00 CC 00                   BSR $0035AE
0069B0  34 38 01 06                   MOVE.w $106.w,d2
0069B4  D4 7C 00 10                   ADD.w #$10,d2
0069B8  E6 4A                         LSR.w #3,d2
0069BA  5B 42                         SUBQ.w #5,d2
0069BC  76 01                         MOVEQ #$1,d3
0069BE  92 7C 00 30                   SUB.w #$30,d1
0069C2  6A 04                         BPL $0069C8
0069C4  D2 7C 06 00                   ADD.w #$600,d1
0069C8  10 32 10 00                   MOVE.b $0(a2,d1.w),d0
0069CC  67 02                         BEQ $0069D0
0069CE  76 00                         MOVEQ #$0,d3
0069D0  11 83 20 00                   MOVE.b d3,$0(a0,d2.w)
0069D4  13 83 20 00                   MOVE.b d3,$0(a1,d2.w)
0069D8  53 42                         SUBQ.w #1,d2
0069DA  6A E2                         BPL $0069BE
0069DC  30 38 02 96                   MOVE.w $296.w,d0
0069E0  32 38 01 06                   MOVE.w $106.w,d1
0069E4  61 00 CB C8                   BSR $0035AE
0069E8  34 38 01 06                   MOVE.w $106.w,d2
0069EC  E6 4A                         LSR.w #3,d2
0069EE  57 42                         SUBQ.w #3,d2
0069F0  76 01                         MOVEQ #$1,d3
0069F2  D2 7C 00 30                   ADD.w #$30,d1
0069F6  B2 7C 06 00                   CMP.w #$600,d1
0069FA  6D 04                         BLT $006A00
0069FC  92 7C 06 00                   SUB.w #$600,d1
006A00  10 32 10 00                   MOVE.b $0(a2,d1.w),d0
006A04  67 02                         BEQ $006A08
006A06  76 00                         MOVEQ #$0,d3
006A08  11 83 20 00                   MOVE.b d3,$0(a0,d2.w)
006A0C  13 83 20 00                   MOVE.b d3,$0(a1,d2.w)
006A10  52 42                         ADDQ.w #1,d2
006A12  B4 7C 00 18                   CMP.w #$18,d2
006A16  6D DA                         BLT $0069F2
006A18  4A 38 02 52                   TST.b $252.w
006A1C  67 06                         BEQ $006A24
006A1E  20 78 02 8A                   MOVEA.l $28A.w,a0
006A22  4E 90                         JSR (a0)
006A24  60 0C                         BRA $006A32
006A26  0C 38 00 40 02 16             CMPI.b #$40,$216.w
006A2C  67 00 FF 38                   BEQ $006966
006A30  4E 75                         RTS
006A32  52 78 47 E6                   ADDQ.w #1,$47E6.w
006A36  51 78 02 96                   SUBQ.w #8,$296.w
006A3A  6A 0A                         BPL $006A46
006A3C  42 79 00 00 02 96             CLR.w $296.l
006A42  50 F8 47 E4                   ST $47E4.w
006A46  50 78 02 98                   ADDQ.w #8,$298.w
006A4A  30 38 02 98                   MOVE.w $298.w,d0
006A4E  B0 7C 01 70                   CMP.w #$170,d0
006A52  6D 0A                         BLT $006A5E
006A54  31 FC 01 70 02 98             MOVE.w #$170,$298.w
006A5A  50 F8 47 E5                   ST $47E5.w
006A5E  4A 38 47 E4                   TST.b $47E4.w
006A62  67 44                         BEQ $006AA8
006A64  4A 38 47 E5                   TST.b $47E5.w
006A68  67 3E                         BEQ $006AA8
006A6A  51 F8 02 29                   SF $229.w
006A6E  4A 38 02 52                   TST.b $252.w
006A72  67 06                         BEQ $006A7A
006A74  20 78 02 92                   MOVEA.l $292.w,a0
006A78  4E D0                         JMP (a0)
006A7A  20 3C 00 00 73 84             MOVE.l #$7384,d0
006A80  41 F8 73 78                   LEA $7378.w,a0
006A84  48 40                         SWAP d0
006A86  31 40 00 02                   MOVE.w d0,$2(a0)
006A8A  48 40                         SWAP d0
006A8C  31 40 00 06                   MOVE.w d0,$6(a0)
006A90  20 3C 00 00 73 B4             MOVE.l #$73B4,d0
006A96  41 F8 73 A8                   LEA $73A8.w,a0
006A9A  48 40                         SWAP d0
006A9C  31 40 00 02                   MOVE.w d0,$2(a0)
006AA0  48 40                         SWAP d0
006AA2  31 40 00 06                   MOVE.w d0,$6(a0)
006AA6  4E 75                         RTS
006AA8  41 F8 02 9A                   LEA $29A.w,a0
006AAC  30 38 02 96                   MOVE.w $296.w,d0
006AB0  32 3C 00 D8                   MOVE.w #$D8,d1
006AB4  61 00 CA F8                   BSR $0035AE
006AB8  76 16                         MOVEQ #$16,d3
006ABA  92 7C 00 30                   SUB.w #$30,d1
006ABE  6A 04                         BPL $006AC4
006AC0  D2 7C 06 00                   ADD.w #$600,d1
006AC4  10 32 10 00                   MOVE.b $0(a2,d1.w),d0
006AC8  67 04                         BEQ $006ACE
006ACA  51 F0 30 00                   SF $0(a0,d3.w)
006ACE  51 CB FF EA                   DBRA d3,$006ABA
006AD2  41 F8 02 B8                   LEA $2B8.w,a0
006AD6  30 38 02 98                   MOVE.w $298.w,d0
006ADA  50 40                         ADDQ.w #8,d0
006ADC  32 3C 00 D8                   MOVE.w #$D8,d1
006AE0  61 00 CA CC                   BSR $0035AE
006AE4  76 16                         MOVEQ #$16,d3
006AE6  92 7C 00 30                   SUB.w #$30,d1
006AEA  6A 04                         BPL $006AF0
006AEC  D2 7C 06 00                   ADD.w #$600,d1
006AF0  10 32 10 00                   MOVE.b $0(a2,d1.w),d0
006AF4  67 04                         BEQ $006AFA
006AF6  51 F0 30 00                   SF $0(a0,d3.w)
006AFA  51 CB FF EA                   DBRA d3,$006AE6
006AFE  4A 38 02 52                   TST.b $252.w
006B02  67 06                         BEQ $006B0A
006B04  20 78 02 8E                   MOVEA.l $28E.w,a0
006B08  4E D0                         JMP (a0)
006B0A  20 78 47 E8                   MOVEA.l $47E8.w,a0
006B0E  B1 FC 00 00 8B D0             CMPA.l #$8BD0,a0
006B14  66 08                         BNE $006B1E
006B16  41 F9 00 00 89 DC             LEA $89DC.l,a0
006B1C  60 06                         BRA $006B24
006B1E  41 F9 00 00 8B D0             LEA $8BD0.l,a0
006B24  21 C8 47 E8                   MOVE.l a0,$47E8.w
006B28  30 3C 22 F1                   MOVE.w #$22F1,d0
006B2C  3C 38 01 BE                   MOVE.w $1BE.w,d6
006B30  6A 04                         BPL $006B36
006B32  3C 3C 00 D3                   MOVE.w #$D3,d6
006B36  BC 7C 00 B4                   CMP.w #$B4,d6
006B3A  6D 04                         BLT $006B40
006B3C  3C 3C 00 D3                   MOVE.w #$D3,d6
006B40  DC 7C 00 2B                   ADD.w #$2B,d6
006B44  E1 4E                         LSL.w #8,d6
006B46  45 F8 02 9A                   LEA $29A.w,a2
006B4A  47 F8 02 B8                   LEA $2B8.w,a3
006B4E  32 38 47 E6                   MOVE.w $47E6.w,d1
006B52  C2 BC 00 00 00 04             AND.l #$4,d1
006B58  E9 49                         LSL.w #4,d1
006B5A  D2 BC 00 01 4E 08             ADD.l #$14E08,d1
006B60  24 01                         MOVE.l d1,d2
006B62  D4 BC 00 00 00 20             ADD.l #$20,d2
006B68  26 01                         MOVE.l d1,d3
006B6A  28 02                         MOVE.l d2,d4
006B6C  D6 BC 00 00 00 80             ADD.l #$80,d3
006B72  D8 BC 00 00 00 80             ADD.l #$80,d4
006B78  2A 3C 00 00 47 F0             MOVE.l #$47F0,d5
006B7E  7E 0A                         MOVEQ #$A,d7
006B80  D0 7C 08 00                   ADD.w #$800,d0
006B84  BC 40                         CMP.w d0,d6
006B86  62 00 00 30                   BHI $006BB8
006B8A  2C 3C 00 00 73 84             MOVE.l #$7384,d6
006B90  48 46                         SWAP d6
006B92  31 46 00 02                   MOVE.w d6,$2(a0)
006B96  48 46                         SWAP d6
006B98  31 46 00 06                   MOVE.w d6,$6(a0)
006B9C  30 BC 00 84                   MOVE.w #$84,(a0)
006BA0  31 7C 00 86 00 04             MOVE.w #$86,$4(a0)
006BA6  21 7C 00 8A 00 00 00 08       MOVE.l #$8A0000,$8(a0)
006BAE  41 E8 00 0C                   LEA $C(a0),a0
006BB2  21 C8 47 EC                   MOVE.l a0,$47EC.w
006BB6  7C FF                         MOVEQ #$FF,d6
006BB8  30 C0                         MOVE.w d0,(a0)+
006BBA  30 FC FF FE                   MOVE.w #$FFFE,(a0)+
006BBE  4A 1A                         TST.b (a2)+
006BC0  66 12                         BNE $006BD4
006BC2  48 45                         SWAP d5
006BC4  30 FC 01 38                   MOVE.w #$138,(a0)+
006BC8  30 C5                         MOVE.w d5,(a0)+
006BCA  48 45                         SWAP d5
006BCC  30 FC 01 3A                   MOVE.w #$13A,(a0)+
006BD0  30 C5                         MOVE.w d5,(a0)+
006BD2  60 10                         BRA $006BE4
006BD4  48 41                         SWAP d1
006BD6  30 FC 01 38                   MOVE.w #$138,(a0)+
006BDA  30 C1                         MOVE.w d1,(a0)+
006BDC  48 41                         SWAP d1
006BDE  30 FC 01 3A                   MOVE.w #$13A,(a0)+
006BE2  30 C1                         MOVE.w d1,(a0)+
006BE4  4A 1B                         TST.b (a3)+
006BE6  66 12                         BNE $006BFA
006BE8  48 45                         SWAP d5
006BEA  30 FC 01 3C                   MOVE.w #$13C,(a0)+
006BEE  30 C5                         MOVE.w d5,(a0)+
006BF0  48 45                         SWAP d5
006BF2  30 FC 01 3E                   MOVE.w #$13E,(a0)+
006BF6  30 C5                         MOVE.w d5,(a0)+
006BF8  60 10                         BRA $006C0A
006BFA  48 43                         SWAP d3
006BFC  30 FC 01 3C                   MOVE.w #$13C,(a0)+
006C00  30 C3                         MOVE.w d3,(a0)+
006C02  48 43                         SWAP d3
006C04  30 FC 01 3E                   MOVE.w #$13E,(a0)+
006C08  30 C3                         MOVE.w d3,(a0)+
006C0A  D0 7C 08 00                   ADD.w #$800,d0
006C0E  BC 40                         CMP.w d0,d6
006C10  62 00 00 30                   BHI $006C42
006C14  2C 3C 00 00 73 84             MOVE.l #$7384,d6
006C1A  48 46                         SWAP d6
006C1C  31 46 00 02                   MOVE.w d6,$2(a0)
006C20  48 46                         SWAP d6
006C22  31 46 00 06                   MOVE.w d6,$6(a0)
006C26  30 BC 00 84                   MOVE.w #$84,(a0)
006C2A  31 7C 00 86 00 04             MOVE.w #$86,$4(a0)
006C30  21 7C 00 8A 00 00 00 08       MOVE.l #$8A0000,$8(a0)
006C38  41 E8 00 0C                   LEA $C(a0),a0
006C3C  21 C8 47 EC                   MOVE.l a0,$47EC.w
006C40  7C FF                         MOVEQ #$FF,d6
006C42  30 C0                         MOVE.w d0,(a0)+
006C44  30 FC FF FE                   MOVE.w #$FFFE,(a0)+
006C48  4A 1A                         TST.b (a2)+
006C4A  66 12                         BNE $006C5E
006C4C  48 45                         SWAP d5
006C4E  30 FC 01 38                   MOVE.w #$138,(a0)+
006C52  30 C5                         MOVE.w d5,(a0)+
006C54  48 45                         SWAP d5
006C56  30 FC 01 3A                   MOVE.w #$13A,(a0)+
006C5A  30 C5                         MOVE.w d5,(a0)+
006C5C  60 10                         BRA $006C6E
006C5E  48 42                         SWAP d2
006C60  30 FC 01 38                   MOVE.w #$138,(a0)+
006C64  30 C2                         MOVE.w d2,(a0)+
006C66  48 42                         SWAP d2
006C68  30 FC 01 3A                   MOVE.w #$13A,(a0)+
006C6C  30 C2                         MOVE.w d2,(a0)+
006C6E  4A 1B                         TST.b (a3)+
006C70  66 12                         BNE $006C84
006C72  48 45                         SWAP d5
006C74  30 FC 01 3C                   MOVE.w #$13C,(a0)+
006C78  30 C5                         MOVE.w d5,(a0)+
006C7A  48 45                         SWAP d5
006C7C  30 FC 01 3E                   MOVE.w #$13E,(a0)+
006C80  30 C5                         MOVE.w d5,(a0)+
006C82  60 10                         BRA $006C94
006C84  48 44                         SWAP d4
006C86  30 FC 01 3C                   MOVE.w #$13C,(a0)+
006C8A  30 C4                         MOVE.w d4,(a0)+
006C8C  48 44                         SWAP d4
006C8E  30 FC 01 3E                   MOVE.w #$13E,(a0)+
006C92  30 C4                         MOVE.w d4,(a0)+
006C94  51 CF FE EA                   DBRA d7,$006B80
006C98  D0 7C 08 00                   ADD.w #$800,d0
006C9C  BC 40                         CMP.w d0,d6
006C9E  62 00 00 2E                   BHI $006CCE
006CA2  2C 3C 00 00 73 84             MOVE.l #$7384,d6
006CA8  48 46                         SWAP d6
006CAA  31 46 00 02                   MOVE.w d6,$2(a0)
006CAE  48 46                         SWAP d6
006CB0  31 46 00 06                   MOVE.w d6,$6(a0)
006CB4  30 BC 00 84                   MOVE.w #$84,(a0)
006CB8  31 7C 00 86 00 04             MOVE.w #$86,$4(a0)
006CBE  21 7C 00 8A 00 00 00 08       MOVE.l #$8A0000,$8(a0)
006CC6  41 E8 00 0C                   LEA $C(a0),a0
006CCA  21 C8 47 EC                   MOVE.l a0,$47EC.w
006CCE  30 C0                         MOVE.w d0,(a0)+
006CD0  30 FC FF FE                   MOVE.w #$FFFE,(a0)+
006CD4  4A 1A                         TST.b (a2)+
006CD6  66 12                         BNE $006CEA
006CD8  48 45                         SWAP d5
006CDA  30 FC 01 38                   MOVE.w #$138,(a0)+
006CDE  30 C5                         MOVE.w d5,(a0)+
006CE0  48 45                         SWAP d5
006CE2  30 FC 01 3A                   MOVE.w #$13A,(a0)+
006CE6  30 C5                         MOVE.w d5,(a0)+
006CE8  60 10                         BRA $006CFA
006CEA  48 41                         SWAP d1
006CEC  30 FC 01 38                   MOVE.w #$138,(a0)+
006CF0  30 C1                         MOVE.w d1,(a0)+
006CF2  48 41                         SWAP d1
006CF4  30 FC 01 3A                   MOVE.w #$13A,(a0)+
006CF8  30 C1                         MOVE.w d1,(a0)+
006CFA  4A 1B                         TST.b (a3)+
006CFC  66 12                         BNE $006D10
006CFE  48 45                         SWAP d5
006D00  30 FC 01 3C                   MOVE.w #$13C,(a0)+
006D04  30 C5                         MOVE.w d5,(a0)+
006D06  48 45                         SWAP d5
006D08  30 FC 01 3E                   MOVE.w #$13E,(a0)+
006D0C  30 C5                         MOVE.w d5,(a0)+
006D0E  60 10                         BRA $006D20
006D10  48 43                         SWAP d3
006D12  30 FC 01 3C                   MOVE.w #$13C,(a0)+
006D16  30 C3                         MOVE.w d3,(a0)+
006D18  48 43                         SWAP d3
006D1A  30 FC 01 3E                   MOVE.w #$13E,(a0)+
006D1E  30 C3                         MOVE.w d3,(a0)+
006D20  2A 3C 00 00 73 B4             MOVE.l #$73B4,d5
006D26  48 45                         SWAP d5
006D28  31 45 00 02                   MOVE.w d5,$2(a0)
006D2C  48 45                         SWAP d5
006D2E  31 45 00 06                   MOVE.w d5,$6(a0)
006D32  30 BC 00 84                   MOVE.w #$84,(a0)
006D36  31 7C 00 86 00 04             MOVE.w #$86,$4(a0)
006D3C  21 7C 00 8A 00 00 00 08       MOVE.l #$8A0000,$8(a0)
006D44  41 E8 00 0C                   LEA $C(a0),a0
006D48  4E 75                         RTS

; ==== sub_006D4A (1 caller) ====
006D4A  21 FC 00 00 6D 64 00 6C       MOVE.l #$6D64,$6C.w
006D52  42 78 70 68                   CLR.w $7068.w
006D56  51 F8 01 E1                   SF $1E1.w
006D5A  42 38 70 6A                   CLR.b $706A.w
006D5E  51 F8 70 67                   SF $7067.w
006D62  4E 75                         RTS
006D64  .dc.b 2F 00 30 39 00 DF F0 1E 3F 00 C0 7C 00 10 67 00 ; /.09....?..|..g.
006D74  .dc.b 00 4C 48 E7 7E FC 23 FC 00 00 72 70 00 DF F0 80 ; .LH.~.#...rp....
006D84  .dc.b 52 78 70 68 4A 38 01 35 67 04 61 00 02 50 4A 38 ; RxphJ8.5g.a..PJ8
006D94  .dc.b 70 67 67 06 4E B9 00 01 A2 A4 4A 38 01 E1 67 18 ; pgg.N.....J8..g.
006DA4  .dc.b 42 38 01 E1 61 00 00 D2 61 00 D6 2A 61 00 0A 90 ; B8..a...a..*a...
006DB4  .dc.b 61 00 08 FE 61 00 00 16 4C DF 3F 7E 30 1F C0 7C ; a...a...L.?~0..|
006DC4  .dc.b 7F FF 33 C0 00 DF F0 9C 20 1F 4E 73 4A 38 02 29 ; ..3..... .NsJ8.)
006DD4  .dc.b 66 02 4E 75 4A 38 02 52 66 F8 30 38 01 BE 6B 30 ; f.NuJ8.Rf.08..k0
006DE4  .dc.b B0 7C 00 B4 6C 2A 20 38 47 E8 41 F8 73 78 48 40 ; .|..l* 8G.A.sxH@
006DF4  .dc.b 31 40 00 02 48 40 31 40 00 06 20 38 47 EC 41 F8 ; 1@..H@1@.. 8G.A.
006E04  .dc.b 73 A8 48 40 31 40 00 02 48 40 31 40 00 06 60 2A ; s.H@1@..H@1@..`*
006E14  .dc.b 20 3C 00 00 73 84 41 F8 73 78 48 40 31 40 00 02 ;  <..s.A.sxH@1@..
006E24  .dc.b 48 40 31 40 00 06 20 38 47 E8 41 F8 73 A8 48 40 ; H@1@.. 8G.A.s.H@
006E34  .dc.b 31 40 00 02 48 40 31 40 00 06 30 38 02 96 D0 7C ; 1@..H@1@..08...|
006E44  .dc.b 00 71 32 3C E0 00 E2 48 64 04 08 C1 00 00 80 7C ; .q2<...Hd......|
006E54  .dc.b 2C 00 48 B8 00 03 74 58 30 38 02 98 D0 7C 00 71 ; ,.H...tX08...|.q
006E64  .dc.b 32 3C E0 00 E2 48 64 04 08 C1 00 00 80 7C 2C 00 ; 2<...Hd......|,.
006E74  .dc.b 48 B8 00 03 74 60 4E 75                         ; H...t`Nu

; ==== sub_006E7C (2 callers) ====
006E7C  4A 39 00 00 02 52             TST.b $252.l
006E82  67 18                         BEQ $006E9C
006E84  61 16                         BSR $006E9C
006E86  41 F8 73 78                   LEA $7378.w,a0
006E8A  43 F8 73 A8                   LEA $73A8.w,a1
006E8E  45 F8 73 84                   LEA $7384.w,a2
006E92  47 F8 73 B4                   LEA $73B4.w,a3
006E96  28 78 02 70                   MOVEA.l $270.w,a4
006E9A  4E D4                         JMP (a4)

; ==== sub_006E9C (3 callers) ====
006E9C  70 02                         MOVEQ #$2,d0
006E9E  32 38 01 72                   MOVE.w $172.w,d1
006EA2  B2 7C 00 10                   CMP.w #$10,d1
006EA6  6D 02                         BLT $006EAA
006EA8  70 00                         MOVEQ #$0,d0
006EAA  C2 7C 00 0F                   AND.w #$F,d1
006EAE  31 C1 73 56                   MOVE.w d1,$7356.w
006EB2  E9 49                         LSL.w #4,d1
006EB4  83 78 73 56                   OR.w d1,$7356.w
006EB8  46 38 70 6A                   NOT.b $706A.w
006EBC  66 0E                         BNE $006ECC
006EBE  41 F8 01 76                   LEA $176.w,a0
006EC2  21 FC 00 00 01 8E 01 C2       MOVE.l #$18E,$1C2.w
006ECA  60 0C                         BRA $006ED8
006ECC  41 F8 01 8E                   LEA $18E.w,a0
006ED0  21 FC 00 00 01 76 01 C2       MOVE.l #$176,$1C2.w
006ED8  22 00                         MOVE.l d0,d1
006EDA  D0 A8 00 04                   ADD.l $4(a0),d0
006EDE  34 38 01 BE                   MOVE.w $1BE.w,d2
006EE2  67 00 00 B0                   BEQ $006F94
006EE6  6B 00 00 A6                   BMI $006F8E
006EEA  B4 7C 00 B4                   CMP.w #$B4,d2
006EEE  6C 00 00 9E                   BGE $006F8E
006EF2  43 F8 73 88                   LEA $7388.w,a1
006EF6  48 40                         SWAP d0
006EF8  33 40 00 02                   MOVE.w d0,$2(a1)
006EFC  48 40                         SWAP d0
006EFE  33 40 00 06                   MOVE.w d0,$6(a1)
006F02  D0 BC 00 00 00 30             ADD.l #$30,d0
006F08  48 40                         SWAP d0
006F0A  33 40 00 0A                   MOVE.w d0,$A(a1)
006F0E  48 40                         SWAP d0
006F10  33 40 00 0E                   MOVE.w d0,$E(a1)
006F14  D0 BC 00 00 00 30             ADD.l #$30,d0
006F1A  48 40                         SWAP d0
006F1C  33 40 00 12                   MOVE.w d0,$12(a1)
006F20  48 40                         SWAP d0
006F22  33 40 00 16                   MOVE.w d0,$16(a1)
006F26  D0 BC 00 00 00 30             ADD.l #$30,d0
006F2C  48 40                         SWAP d0
006F2E  33 40 00 1A                   MOVE.w d0,$1A(a1)
006F32  48 40                         SWAP d0
006F34  33 40 00 1E                   MOVE.w d0,$1E(a1)
006F38  20 28 00 08                   MOVE.l $8(a0),d0
006F3C  D0 81                         ADD.l d1,d0
006F3E  43 F8 73 58                   LEA $7358.w,a1
006F42  48 40                         SWAP d0
006F44  33 40 00 02                   MOVE.w d0,$2(a1)
006F48  48 40                         SWAP d0
006F4A  33 40 00 06                   MOVE.w d0,$6(a1)
006F4E  D0 BC 00 00 00 30             ADD.l #$30,d0
006F54  48 40                         SWAP d0
006F56  33 40 00 0A                   MOVE.w d0,$A(a1)
006F5A  48 40                         SWAP d0
006F5C  33 40 00 0E                   MOVE.w d0,$E(a1)
006F60  D0 BC 00 00 00 30             ADD.l #$30,d0
006F66  48 40                         SWAP d0
006F68  33 40 00 12                   MOVE.w d0,$12(a1)
006F6C  48 40                         SWAP d0
006F6E  33 40 00 16                   MOVE.w d0,$16(a1)
006F72  D0 BC 00 00 00 30             ADD.l #$30,d0
006F78  48 40                         SWAP d0
006F7A  33 40 00 1A                   MOVE.w d0,$1A(a1)
006F7E  48 40                         SWAP d0
006F80  33 40 00 1E                   MOVE.w d0,$1E(a1)
006F84  D4 7C 00 2B                   ADD.w #$2B,d2
006F88  11 C2 73 84                   MOVE.b d2,$7384.w
006F8C  4E 75                         RTS
006F8E  20 28 00 08                   MOVE.l $8(a0),d0
006F92  D0 81                         ADD.l d1,d0
006F94  43 F8 73 88                   LEA $7388.w,a1
006F98  48 40                         SWAP d0
006F9A  33 40 00 02                   MOVE.w d0,$2(a1)
006F9E  48 40                         SWAP d0
006FA0  33 40 00 06                   MOVE.w d0,$6(a1)
006FA4  D0 BC 00 00 00 30             ADD.l #$30,d0
006FAA  48 40                         SWAP d0
006FAC  33 40 00 0A                   MOVE.w d0,$A(a1)
006FB0  48 40                         SWAP d0
006FB2  33 40 00 0E                   MOVE.w d0,$E(a1)
006FB6  D0 BC 00 00 00 30             ADD.l #$30,d0
006FBC  48 40                         SWAP d0
006FBE  33 40 00 12                   MOVE.w d0,$12(a1)
006FC2  48 40                         SWAP d0
006FC4  33 40 00 16                   MOVE.w d0,$16(a1)
006FC8  D0 BC 00 00 00 30             ADD.l #$30,d0
006FCE  48 40                         SWAP d0
006FD0  33 40 00 1A                   MOVE.w d0,$1A(a1)
006FD4  48 40                         SWAP d0
006FD6  33 40 00 1E                   MOVE.w d0,$1E(a1)
006FDA  42 38 73 84                   CLR.b $7384.w
006FDE  4E 75                         RTS
006FE0  .dc.b 4A 38 70 66 67 06 53 38 70 66 4E 75 11 F8 02 48 ; J8pfg.S8pfNu...H
006FF0  .dc.b 70 66 53 38 01 35                               ; pfS8.5

; ==== sub_006FF6 (4 callers) ====
006FF6  3A 38 02 46                   MOVE.w $246.w,d5
006FFA  20 78 02 3E                   MOVEA.l $23E.w,a0
006FFE  22 78 02 42                   MOVEA.l $242.w,a1
007002  70 00                         MOVEQ #$0,d0
007004  32 11                         MOVE.w (a1),d1
007006  34 28 00 02                   MOVE.w $2(a0),d2
00700A  C2 7C 00 0F                   AND.w #$F,d1
00700E  C4 7C 00 0F                   AND.w #$F,d2
007012  B4 41                         CMP.w d1,d2
007014  6F 02                         BLE $007018
007016  53 42                         SUBQ.w #1,d2
007018  6C 02                         BGE $00701C
00701A  52 42                         ADDQ.w #1,d2
00701C  80 42                         OR.w d2,d0
00701E  32 11                         MOVE.w (a1),d1
007020  34 28 00 02                   MOVE.w $2(a0),d2
007024  C2 7C 00 F0                   AND.w #$F0,d1
007028  C4 7C 00 F0                   AND.w #$F0,d2
00702C  B4 41                         CMP.w d1,d2
00702E  6F 04                         BLE $007034
007030  94 7C 00 10                   SUB.w #$10,d2
007034  6C 04                         BGE $00703A
007036  D4 7C 00 10                   ADD.w #$10,d2
00703A  80 42                         OR.w d2,d0
00703C  32 19                         MOVE.w (a1)+,d1
00703E  34 28 00 02                   MOVE.w $2(a0),d2
007042  C2 7C 0F 00                   AND.w #$F00,d1
007046  C4 7C 0F 00                   AND.w #$F00,d2
00704A  B4 41                         CMP.w d1,d2
00704C  6F 04                         BLE $007052
00704E  94 7C 01 00                   SUB.w #$100,d2
007052  6C 04                         BGE $007058
007054  D4 7C 01 00                   ADD.w #$100,d2
007058  80 42                         OR.w d2,d0
00705A  31 40 00 02                   MOVE.w d0,$2(a0)
00705E  58 88                         ADDQ.l #4,a0
007060  51 CD FF A0                   DBRA d5,$007002
007064  4E 75                         RTS
007066  .dc.b 00 00 00 00 00 00                               ; ......

; ==== sub_00706C (1 caller) ====
00706C  21 FC 00 00 70 7E 00 68       MOVE.l #$707E,$68.w
007074  42 38 71 28                   CLR.b $7128.w
007078  42 38 02 16                   CLR.b $216.w
00707C  4E 75                         RTS
00707E  .dc.b 08 39 00 03 00 BF ED 01 67 56 48 E7 E0 80 10 39 ; .9......gVH....9
00708E  .dc.b 00 BF EC 01 46 00 E2 18 6B 14 72 00 61 00 00 4C ; ....F...k.r.a..L
00709E  .dc.b 4A 00 67 22 11 C0 71 28 11 C0 02 16 60 18 08 80 ; J.g"..q(....`...
0070AE  .dc.b 00 07 72 01 61 00 00 34 B0 38 71 28 66 08 42 38 ; ..r.a..4.8q(f.B8
0070BE  .dc.b 02 16 42 38 71 28 08 F9 00 06 00 BF EE 01 70 36 ; ..B8q(........p6
0070CE  .dc.b 51 C8 FF FE 08 B9 00 06 00 BF EE 01 4C DF 01 07 ; Q...........L...
0070DE  .dc.b 33 FC 00 08 00 DF F0 9C 4E 73 41 FA 00 2E 74 02 ; 3.......NsA...t.
0070EE  .dc.b B0 10 67 08 54 88 51 CA FF F8 4E 75 11 41 00 01 ; ..g.T.Q...Nu.A..
0070FE  .dc.b 41 FA 00 18 70 00 10 28 00 01 80 28 00 03 80 28 ; A...p..(...(...(
00710E  .dc.b 00 05 11 C0 71 29 70 00 4E 75 60 00 61 00 62 00 ; ....q)p.Nu`.a.b.
00711E  .dc.b 64 00 65 00 66 00 67 00 63 00 00 00             ; d.e.f.g.c...

; ==== sub_00712A (1 caller) ====
00712A  41 F8 72 D4                   LEA $72D4.w,a0
00712E  70 1F                         MOVEQ #$1F,d0
007130  42 68 00 02                   CLR.w $2(a0)
007134  58 48                         ADDQ.w #4,a0
007136  51 C8 FF F8                   DBRA d0,$007130
00713A  42 78 73 56                   CLR.w $7356.w
00713E  41 F9 00 00 73 C0             LEA $73C0.l,a0
007144  20 3C 00 01 64 88             MOVE.l #$16488,d0
00714A  32 3C 00 03                   MOVE.w #$3,d1
00714E  48 40                         SWAP d0
007150  31 40 00 02                   MOVE.w d0,$2(a0)
007154  48 40                         SWAP d0
007156  31 40 00 06                   MOVE.w d0,$6(a0)
00715A  D0 BC 00 00 05 32             ADD.l #$532,d0
007160  50 48                         ADDQ.w #8,a0
007162  51 C9 FF EA                   DBRA d1,$00714E
007166  61 00 00 0C                   BSR $007174
00716A  41 F8 72 70                   LEA $7270.w,a0
00716E  2D 48 00 80                   MOVE.l a0,$80(a6)
007172  4E 75                         RTS

; ==== sub_007174 (3 callers) ====
007174  41 FA 02 02                   LEA $007378(pc),a0
007178  20 3C 00 00 73 84             MOVE.l #$7384,d0
00717E  48 40                         SWAP d0
007180  31 40 00 02                   MOVE.w d0,$2(a0)
007184  48 40                         SWAP d0
007186  31 40 00 06                   MOVE.w d0,$6(a0)
00718A  41 FA 02 1C                   LEA $0073A8(pc),a0
00718E  20 3C 00 00 73 B4             MOVE.l #$73B4,d0
007194  48 40                         SWAP d0
007196  31 40 00 02                   MOVE.w d0,$2(a0)
00719A  48 40                         SWAP d0
00719C  31 40 00 06                   MOVE.w d0,$6(a0)
0071A0  42 78 02 52                   CLR.w $252.w
0071A4  20 3C 00 00 74 68             MOVE.l #$7468,d0
0071AA  41 F9 00 00 72 94             LEA $7294.l,a0
0071B0  72 07                         MOVEQ #$7,d1
0071B2  48 40                         SWAP d0
0071B4  31 40 00 02                   MOVE.w d0,$2(a0)
0071B8  48 40                         SWAP d0
0071BA  31 40 00 06                   MOVE.w d0,$6(a0)
0071BE  50 48                         ADDQ.w #8,a0
0071C0  51 C9 FF F0                   DBRA d1,$0071B2
0071C4  42 B8 74 58                   CLR.l $7458.w
0071C8  42 B8 74 60                   CLR.l $7460.w
0071CC  20 3C 00 00 74 58             MOVE.l #$7458,d0
0071D2  41 F8 72 C4                   LEA $72C4.w,a0
0071D6  48 40                         SWAP d0
0071D8  30 FC 01 38                   MOVE.w #$138,(a0)+
0071DC  30 C0                         MOVE.w d0,(a0)+
0071DE  48 40                         SWAP d0
0071E0  30 FC 01 3A                   MOVE.w #$13A,(a0)+
0071E4  30 C0                         MOVE.w d0,(a0)+
0071E6  20 3C 00 00 74 60             MOVE.l #$7460,d0
0071EC  48 40                         SWAP d0
0071EE  30 FC 01 3C                   MOVE.w #$13C,(a0)+
0071F2  30 C0                         MOVE.w d0,(a0)+
0071F4  48 40                         SWAP d0
0071F6  30 FC 01 3E                   MOVE.w #$13E,(a0)+
0071FA  30 C0                         MOVE.w d0,(a0)+
0071FC  41 F8 19 8E                   LEA $198E.w,a0
007200  61 00 00 5C                   BSR $00725E
007204  41 F8 73 E8                   LEA $73E8.w,a0
007208  70 0E                         MOVEQ #$E,d0
00720A  42 68 00 02                   CLR.w $2(a0)
00720E  58 48                         ADDQ.w #4,a0
007210  51 C8 FF F8                   DBRA d0,$00720A
007214  42 78 74 52                   CLR.w $7452.w
007218  41 F8 1A 0E                   LEA $1A0E.w,a0
00721C  43 F9 00 00 19 DE             LEA $19DE.l,a1
007222  4C D0 00 FF                   MOVEM.l (a0),d0-d7
007226  48 D1 00 FF                   MOVEM.l d0-d7,(a1)
00722A  4C A8 00 FF 00 20             MOVEM.w $20(a0),d0-d7
007230  48 A9 00 FF 00 20             MOVEM.w d0-d7,$20(a1)
007236  4A 38 19 4B                   TST.b $194B.w
00723A  67 20                         BEQ $00725C
00723C  41 F8 1A 40                   LEA $1A40.w,a0
007240  43 F8 73 E8                   LEA $73E8.w,a1
007244  70 0E                         MOVEQ #$E,d0
007246  33 58 00 02                   MOVE.w (a0)+,$2(a1)
00724A  58 49                         ADDQ.w #4,a1
00724C  51 C8 FF F8                   DBRA d0,$007246
007250  31 FC 01 D2 74 52             MOVE.w #$1D2,$7452.w
007256  41 F8 19 CE                   LEA $19CE.w,a0
00725A  60 02                         BRA $00725E
00725C  4E 75                         RTS

; ==== sub_00725E (3 callers) ====
00725E  43 F8 72 D4                   LEA $72D4.w,a1
007262  70 1F                         MOVEQ #$1F,d0
007264  33 58 00 02                   MOVE.w (a0)+,$2(a1)
007268  58 49                         ADDQ.w #4,a1
00726A  51 C8 FF F8                   DBRA d0,$007264
00726E  4E 75                         RTS
007270  .dc.b 00 8E 2C 91 00 90 03 C1 00 92 00 38 00 94 00 D0 ; ..,........8....
007280  .dc.b 01 04 00 24 01 00 42 00 01 08 00 98 01 0A 00 98 ; ...$..B.........
007290  .dc.b 00 96 80 20 01 20 00 00 01 22 00 00 01 24 00 00 ; ... . ..."...$..
0072A0  .dc.b 01 26 00 00 01 28 00 00 01 2A 00 00 01 2C 00 00 ; .&...(...*...,..
0072B0  .dc.b 01 2E 00 00 01 30 00 00 01 32 00 00 01 34 00 00 ; .....0...2...4..
0072C0  .dc.b 01 36 00 00 01 38 00 00 01 3A 00 00 01 3C 00 00 ; .6...8...:...<..
0072D0  .dc.b 01 3E 00 00 01 80 00 00 01 82 04 20 01 84 07 42 ; .>......... ...B
0072E0  .dc.b 01 86 0A 70 01 88 0C A7 01 8A 00 9E 01 8C 03 6F ; ...p...........o
0072F0  .dc.b 01 8E 05 91 01 90 02 23 01 92 04 45 01 94 07 78 ; .......#...E...x
007300  .dc.b 01 96 0A AB 01 98 0C 00 01 9A 0F 60 01 9C 0F F0 ; ...........`....
007310  .dc.b 01 9E 0F FF 01 A0 00 00 01 A2 0D DF 01 A4 0B BE ; ................
007320  .dc.b 01 A6 08 8B 01 A8 04 47 01 AA 02 25 01 AC 0B BB ; .......G...%....
007330  .dc.b 01 AE 08 88 01 B0 05 55 01 B2 02 22 01 B4 00 5F ; .......U..."..._
007340  .dc.b 01 B6 00 3A 01 B8 0F 33 01 BA 09 00 01 BC 00 00 ; ...:...3........
007350  .dc.b 01 BE 00 00 01 02 00 00 00 E0 00 06 00 E2 00 00 ; ................
007360  .dc.b 00 E4 00 06 00 E6 00 00 00 E8 00 06 00 EA 00 00 ; ................
007370  .dc.b 00 EC 00 06 00 EE 00 00 00 84 00 00 00 86 00 00 ; ................
007380  .dc.b 00 8A 00 00 2C E1 FF FE 00 E0 00 06 00 E2 00 00 ; ....,...........
007390  .dc.b 00 E4 00 06 00 E6 00 00 00 E8 00 06 00 EA 00 00 ; ................
0073A0  .dc.b 00 EC 00 06 00 EE 00 00 00 84 00 00 00 86 00 00 ; ................
0073B0  .dc.b 00 8A 00 00 DF F1 FF FE 00 92 00 40 01 02 00 00 ; ...........@....
0073C0  .dc.b 00 E0 00 00 00 E2 00 00 00 E4 00 00 00 E6 00 00 ; ................
0073D0  .dc.b 00 E8 00 00 00 EA 00 00 00 EC 00 00 00 EE 00 00 ; ................
0073E0  .dc.b 01 08 00 00 01 0A 00 00 01 82 0F FF 01 84 0B BB ; ................
0073F0  .dc.b 01 86 08 88 01 88 05 55 01 8A 02 22 01 8C 0F D0 ; .......U..."....
007400  .dc.b 01 8E 00 0F 01 90 01 D2 01 92 0B 00 01 94 0F 40 ; ...............@
007410  .dc.b 01 96 0B BF 01 98 08 8F 01 9A 06 6B 01 9C 04 49 ; ...........k...I
007420  .dc.b 01 9E 02 26 00 9C 80 10 00 96 00 20 01 44 00 00 ; ...&....... .D..
007430  .dc.b 01 46 00 00 01 4C 00 00 01 4E 00 00 01 54 00 00 ; .F...L...N...T..
007440  .dc.b 01 56 00 00 01 5C 00 00 01 5E 00 00 EE F1 FF FE ; .V...\...^......
007450  .dc.b 01 90 01 D2 FF FF FF FE 00 00 00 00 00 00 00 00 ; ................
007460  .dc.b 00 00 00 00 00 00 00 00 00 00 00 00 00 00 00 00 ; ................
007470  .dc.b 00 00 00 00 00 00 00 00                         ; ........

; ==== sub_007478 (1 caller) ====
007478  2E 38 35 D8                   MOVE.l $35D8.w,d7
00747C  26 47                         MOVEA.l d7,a3
00747E  28 47                         MOVEA.l d7,a4
007480  D9 D3                         ADDA.l (a3),a4
007482  DF 9B                         ADD.l d7,(a3)+
007484  B9 CB                         CMPA.l a3,a4
007486  6E FA                         BGT $007482
007488  4E 75                         RTS

; ==== init_object_table  $00748A  (1 caller) — Zero-fill the object tables pointed to by $20A/$20E, laying out per-object slots on a $C0-byte stride. ====
00748A  24 78 02 0A                   MOVEA.l $20A.w,a2
00748E  26 78 02 0E                   MOVEA.l $20E.w,a3
007492  3E 3C 00 FF                   MOVE.w #$FF,d7
007496  7C 00                         MOVEQ #$0,d6
007498  24 C6                         MOVE.l d6,(a2)+
00749A  E2 8E                         LSR.l #1,d6
00749C  36 C6                         MOVE.w d6,(a3)+
00749E  DC 86                         ADD.l d6,d6
0074A0  DC BC 00 00 00 C0             ADD.l #$C0,d6
0074A6  51 CF FF F0                   DBRA d7,$007498
0074AA  24 78 74 F2                   MOVEA.l $74F2.w,a2
0074AE  3E 3C 00 B3                   MOVE.w #$B3,d7
0074B2  7C 00                         MOVEQ #$0,d6
0074B4  34 C6                         MOVE.w d6,(a2)+
0074B6  DC 7C 00 40                   ADD.w #$40,d6
0074BA  51 CF FF F8                   DBRA d7,$0074B4
0074BE  4E 75                         RTS

; ==== init_map_grid  $0074C0  (1 caller) — Initialise a 32-wide tile/coordinate grid via the buffer pointer at $35F4. ====
0074C0  24 78 35 F4                   MOVEA.l $35F4.w,a2
0074C4  70 1F                         MOVEQ #$1F,d0
0074C6  72 00                         MOVEQ #$0,d1
0074C8  76 27                         MOVEQ #$27,d3
0074CA  78 20                         MOVEQ #$20,d4
0074CC  7A 01                         MOVEQ #$1,d5
0074CE  34 01                         MOVE.w d1,d2
0074D0  42 12                         CLR.b (a2)
0074D2  15 85 40 00                   MOVE.b d5,$0(a2,d4.w)
0074D6  D8 7C 00 20                   ADD.w #$20,d4
0074DA  53 43                         SUBQ.w #1,d3
0074DC  67 0A                         BEQ $0074E8
0074DE  51 CA FF F2                   DBRA d2,$0074D2
0074E2  52 45                         ADDQ.w #1,d5
0074E4  34 01                         MOVE.w d1,d2
0074E6  60 EA                         BRA $0074D2
0074E8  52 4A                         ADDQ.w #1,a2
0074EA  52 41                         ADDQ.w #1,d1
0074EC  51 C8 FF DA                   DBRA d0,$0074C8
0074F0  4E 75                         RTS
0074F2  .dc.b 00 00 9F 08                                     ; ....

; ==== sub_0074F6 (2 callers) ====
0074F6  30 39 00 00 7B 2A             MOVE.w $7B2A.l,d0
0074FC  4A 79 00 00 7B 2C             TST.w $7B2C.l
007502  67 56                         BEQ $00755A
007504  4A 40                         TST.w d0
007506  6B 24                         BMI $00752C
007508  41 F9 00 00 7B 2E             LEA $7B2E.l,a0
00750E  61 2A                         BSR $00753A
007510  41 E8 00 78                   LEA $78(a0),a0
007514  61 24                         BSR $00753A
007516  41 E8 00 78                   LEA $78(a0),a0
00751A  61 1E                         BSR $00753A
00751C  41 E8 00 78                   LEA $78(a0),a0
007520  61 18                         BSR $00753A
007522  04 79 00 02 00 00 7B 2A       SUBI.w #$2,$7B2A.l
00752A  4E 75                         RTS
00752C  42 79 00 00 7B 2A             CLR.w $7B2A.l
007532  42 79 00 00 7B 2C             CLR.w $7B2C.l
007538  4E 75                         RTS

; ==== sub_00753A (4 callers) ====
00753A  22 78 01 7A                   MOVEA.l $17A.w,a1
00753E  D2 F0 00 00                   ADDA.w $0(a0,d0.w),a1
007542  D2 FC 18 04                   ADDA.w #$1804,a1
007546  45 F9 00 01 7A F0             LEA $17AF0.l,a2
00754C  72 3B                         MOVEQ #$3B,d1
00754E  32 9A                         MOVE.w (a2)+,(a1)
007550  D2 FC 00 30                   ADDA.w #$30,a1
007554  51 C9 FF F8                   DBRA d1,$00754E
007558  4E 75                         RTS
00755A  B0 7C 00 78                   CMP.w #$78,d0
00755E  67 24                         BEQ $007584
007560  41 F9 00 00 7B 2E             LEA $7B2E.l,a0
007566  61 20                         BSR $007588
007568  41 E8 00 78                   LEA $78(a0),a0
00756C  61 1A                         BSR $007588
00756E  41 E8 00 78                   LEA $78(a0),a0
007572  61 14                         BSR $007588
007574  41 E8 00 78                   LEA $78(a0),a0
007578  61 0E                         BSR $007588
00757A  06 79 00 02 00 00 7B 2A       ADDI.w #$2,$7B2A.l
007582  4E 75                         RTS
007584  70 FF                         MOVEQ #$FF,d0
007586  4E 75                         RTS

; ==== sub_007588 (4 callers) ====
007588  22 78 01 AA                   MOVEA.l $1AA.w,a1
00758C  D2 F0 00 00                   ADDA.w $0(a0,d0.w),a1
007590  24 78 01 7A                   MOVEA.l $17A.w,a2
007594  D4 F0 00 00                   ADDA.w $0(a0,d0.w),a2
007598  32 3C 18 04                   MOVE.w #$1804,d1
00759C  D2 C1                         ADDA.w d1,a1
00759E  D4 C1                         ADDA.w d1,a2
0075A0  72 3B                         MOVEQ #$3B,d1
0075A2  34 91                         MOVE.w (a1),(a2)
0075A4  43 E9 00 30                   LEA $30(a1),a1
0075A8  45 EA 00 30                   LEA $30(a2),a2
0075AC  51 C9 FF F4                   DBRA d1,$0075A2
0075B0  4E 75                         RTS

; ==== sub_0075B2 (2 callers) ====
0075B2  20 3C 00 01 7A F0             MOVE.l #$17AF0,d0
0075B8  22 38 01 7A                   MOVE.l $17A.w,d1
0075BC  D2 BC 00 00 18 04             ADD.l #$1804,d1
0075C2  38 3C 0F 01                   MOVE.w #$F01,d4
0075C6  3D 7C 09 F0 00 40             MOVE.w #$9F0,$40(a6)
0075CC  42 6E 00 42                   CLR.w $42(a6)
0075D0  42 6E 00 64                   CLR.w $64(a6)
0075D4  3D 7C 00 2E 00 66             MOVE.w #$2E,$66(a6)
0075DA  74 FF                         MOVEQ #$FF,d2
0075DC  2D 42 00 44                   MOVE.l d2,$44(a6)
0075E0  74 13                         MOVEQ #$13,d2
0075E2  76 0B                         MOVEQ #$B,d3
0075E4  2D 41 00 54                   MOVE.l d1,$54(a6)
0075E8  2D 40 00 50                   MOVE.l d0,$50(a6)
0075EC  3D 44 00 58                   MOVE.w d4,$58(a6)
0075F0  08 2E 00 0E 00 02             BTST.b #$E,$2(a6)
0075F6  66 F8                         BNE $0075F0
0075F8  51 CB FF EE                   DBRA d3,$0075E8
0075FC  54 81                         ADDQ.l #2,d1
0075FE  51 CA FF E2                   DBRA d2,$0075E2
007602  4E 75                         RTS

; ==== sub_007604 (1 caller) ====
007604  20 3C 00 01 7A F0             MOVE.l #$17AF0,d0
00760A  22 38 01 92                   MOVE.l $192.w,d1
00760E  D2 BC 00 00 18 04             ADD.l #$1804,d1
007614  38 3C 0F 01                   MOVE.w #$F01,d4
007618  3D 7C 09 F0 00 40             MOVE.w #$9F0,$40(a6)
00761E  42 6E 00 42                   CLR.w $42(a6)
007622  42 6E 00 64                   CLR.w $64(a6)
007626  3D 7C 00 2E 00 66             MOVE.w #$2E,$66(a6)
00762C  74 FF                         MOVEQ #$FF,d2
00762E  2D 42 00 44                   MOVE.l d2,$44(a6)
007632  74 13                         MOVEQ #$13,d2
007634  76 0B                         MOVEQ #$B,d3
007636  2D 41 00 54                   MOVE.l d1,$54(a6)
00763A  2D 40 00 50                   MOVE.l d0,$50(a6)
00763E  3D 44 00 58                   MOVE.w d4,$58(a6)
007642  08 2E 00 0E 00 02             BTST.b #$E,$2(a6)
007648  66 F8                         BNE $007642
00764A  51 CB FF EE                   DBRA d3,$00763A
00764E  54 81                         ADDQ.l #2,d1
007650  51 CA FF E2                   DBRA d2,$007634
007654  4E 75                         RTS

; ==== sub_007656 (3 callers) ====
007656  41 F9 00 01 74 AE             LEA $174AE.l,a0
00765C  74 00                         MOVEQ #$0,d2
00765E  70 04                         MOVEQ #$4,d0
007660  72 06                         MOVEQ #$6,d1
007662  11 82 10 00                   MOVE.b d2,$0(a0,d1.w)
007666  51 C9 FF FA                   DBRA d1,$007662
00766A  D0 FC 00 26                   ADDA.w #$26,a0
00766E  51 C8 FF F0                   DBRA d0,$007660
007672  13 FC 00 01 00 00 7A C8       MOVE.b #$1,$7AC8.l
00767A  42 39 00 00 7A C9             CLR.b $7AC9.l
007680  42 78 77 26                   CLR.w $7726.w
007684  4E 75                         RTS
007686  .dc.b 70 00 10 38 7B 0B B0 38 7A C9 6D 00 00 9A       ; p..8{..8z.m...

; ==== sub_007694 (1 caller) ====
007694  4A 78 77 26                   TST.w $7726.w
007698  67 18                         BEQ $0076B2
00769A  52 78 77 26                   ADDQ.w #1,$7726.w
00769E  0C 78 00 08 77 26             CMPI.w #$8,$7726.w
0076A4  6F 0C                         BLE $0076B2
0076A6  42 78 77 26                   CLR.w $7726.w
0076AA  70 23                         MOVEQ #$23,d0
0076AC  4E F9 00 01 A2 DC             JMP $1A2DC.l
0076B2  4E 75                         RTS
0076B4  .dc.b 4A 39 00 00 7A C8 67 CA 41 F8 7A C8 70 00 10 28 ; J9..z.g.A.z.p..(
0076C4  .dc.b 00 01 B0 3C 00 37 6D 0A 42 10 11 FC 00 37 7B 0B ; ...<.7m.B....7{.
0076D4  .dc.b 4E 75 4A 10 67 02 52 40 76 00 11 40 00 01 32 00 ; NuJ.g.R@v..@..2.
0076E4  .dc.b C0 7C 00 07 4A 03 67 0E 4A 01 67 04 53 28 00 01 ; .|..J.g.J.g.S(..
0076F4  .dc.b 10 30 00 02 60 04 10 30 00 03 14 30 10 0B E9 42 ; .0..`..0...0...B
007704  .dc.b 31 C2 74 06 43 F9 00 01 74 AE E6 49 D2 C1 12 80 ; 1.t.C...t..I....
007714  .dc.b 13 40 00 26 13 40 00 4C 13 40 00 72 13 40 00 98 ; .@.&.@.L.@.r.@..
007724  4E 75                         RTS
007726  .dc.b 00 00                                           ; ..

; ==== sub_007728 (1 caller) ====
007728  72 01                         MOVEQ #$1,d1
00772A  60 22                         BRA $00774E
00772C  .dc.b 4A 39 00 00 7A C8 67 08 31 FC 00 14 77 26 4E 75 ; J9..z.g.1...w&Nu
00773C  .dc.b 52 78 77 26 41 F8 7A C8 70 00 10 28 00 01 76 D3 ; Rxw&A.z.p..(..v.
00774C  .dc.b 60 90                                           ; `.

; ==== sub_00774E (1 caller) ====
00774E  4A 38 02 76                   TST.b $276.w
007752  67 02                         BEQ $007756
007754  4E 75                         RTS
007756  4A 38 7A C8                   TST.b $7AC8.w
00775A  66 C8                         BNE $007724
00775C  70 00                         MOVEQ #$0,d0
00775E  10 38 7B 0B                   MOVE.b $7B0B.w,d0
007762  90 01                         SUB.b d1,d0
007764  6A 02                         BPL $007768
007766  70 00                         MOVEQ #$0,d0
007768  11 C0 7B 0B                   MOVE.b d0,$7B0B.w
00776C  4A 78 77 26                   TST.w $7726.w
007770  66 08                         BNE $00777A
007772  70 22                         MOVEQ #$22,d0
007774  4E F9 00 01 A2 DC             JMP $1A2DC.l
00777A  31 FC 00 01 77 26             MOVE.w #$1,$7726.w
007780  4E 75                         RTS

; ==== sub_007782 (1 caller) ====
007782  70 00                         MOVEQ #$0,d0
007784  10 39 00 00 7A AE             MOVE.b $7AAE.l,d0
00778A  6B 26                         BMI $0077B2
00778C  41 F9 00 01 6A 07             LEA $16A07.l,a0
007792  D0 C0                         ADDA.w d0,a0
007794  04 39 00 01 00 00 7A AE       SUBI.b #$1,$7AAE.l
00779C  70 07                         MOVEQ #$7,d0
00779E  10 BC 00 00                   MOVE.b #$0,(a0)
0077A2  11 7C 00 FF 05 32             MOVE.b #$FF,$532(a0)
0077A8  D0 FC 00 26                   ADDA.w #$26,a0
0077AC  51 C8 FF F0                   DBRA d0,$00779E
0077B0  70 00                         MOVEQ #$0,d0
0077B2  4E 75                         RTS

; ==== sub_0077B4 (1 caller) ====
0077B4  13 FC 00 02 00 00 7A AE       MOVE.b #$2,$7AAE.l
0077BC  41 F9 00 01 79 50             LEA $17950.l,a0
0077C2  43 F9 00 01 6A 07             LEA $16A07.l,a1
0077C8  70 07                         MOVEQ #$7,d0
0077CA  12 B0 00 00                   MOVE.b $0(a0,d0.w),(a1)
0077CE  13 70 00 08 05 32             MOVE.b $8(a0,d0.w),$532(a1)
0077D4  13 70 00 00 00 01             MOVE.b $0(a0,d0.w),$1(a1)
0077DA  13 70 00 08 05 33             MOVE.b $8(a0,d0.w),$533(a1)
0077E0  13 70 00 00 00 02             MOVE.b $0(a0,d0.w),$2(a1)
0077E6  13 70 00 08 05 34             MOVE.b $8(a0,d0.w),$534(a1)
0077EC  D2 FC 00 26                   ADDA.w #$26,a1
0077F0  51 C8 FF D8                   DBRA d0,$0077CA
0077F4  4E 75                         RTS

; ==== sub_0077F6 (3 callers) ====
0077F6  45 F9 00 00 7B 0C             LEA $7B0C.l,a2
0077FC  34 00                         MOVE.w d0,d2
0077FE  D0 40                         ADD.w d0,d0
007800  D0 40                         ADD.w d0,d0
007802  D4 C0                         ADDA.w d0,a2
007804  70 02                         MOVEQ #$2,d0
007806  06 32 00 01 00 00             ADDI.b #$1,$0(a2,d0.w)
00780C  0C 32 00 0A 00 00             CMPI.b #$A,$0(a2,d0.w)
007812  6D 18                         BLT $00782C
007814  04 32 00 0A 00 00             SUBI.b #$A,$0(a2,d0.w)
00781A  53 40                         SUBQ.w #1,d0
00781C  6B 0E                         BMI $00782C
00781E  06 32 00 01 00 00             ADDI.b #$1,$0(a2,d0.w)
007824  0C 32 00 09 00 00             CMPI.b #$9,$0(a2,d0.w)
00782A  6E E8                         BGT $007814
00782C  B4 3C 00 01                   CMP.b #$1,d2
007830  66 0C                         BNE $00783E
007832  0C 12 00 03                   CMPI.b #$3,(a2)
007836  66 06                         BNE $00783E
007838  42 92                         CLR.l (a2)
00783A  61 00 01 08                   BSR $007944
00783E  30 02                         MOVE.w d2,d0
007840  60 42                         BRA $007884
007842  .dc.b 04 39 00 01 00 00 7A C7 67 02 4E 75 13 FC 00 32 ; .9....z.g.Nu...2
007852  .dc.b 00 00 7A C7 70 00                               ; ..z.p.

; ==== sub_007858 (3 callers) ====
007858  45 F9 00 00 7B 0C             LEA $7B0C.l,a2
00785E  34 00                         MOVE.w d0,d2
007860  D0 40                         ADD.w d0,d0
007862  D0 40                         ADD.w d0,d0
007864  D4 C0                         ADDA.w d0,a2
007866  4A 92                         TST.l (a2)
007868  66 04                         BNE $00786E
00786A  70 D3                         MOVEQ #$D3,d0
00786C  4E 75                         RTS
00786E  70 02                         MOVEQ #$2,d0
007870  04 32 00 01 00 00             SUBI.b #$1,$0(a2,d0.w)
007876  6A 0A                         BPL $007882
007878  15 BC 00 09 00 00             MOVE.b #$9,$0(a2,d0.w)
00787E  51 C8 FF F0                   DBRA d0,$007870
007882  30 02                         MOVE.w d2,d0

; ==== sub_007884 (5 callers) ====
007884  32 00                         MOVE.w d0,d1
007886  D0 40                         ADD.w d0,d0
007888  D0 40                         ADD.w d0,d0
00788A  41 F9 00 01 64 88             LEA $16488.l,a0
007890  45 F9 00 00 7B 0C             LEA $7B0C.l,a2
007896  D2 41                         ADD.w d1,d1
007898  D0 F2 10 14                   ADDA.w $14(a2,d1.w),a0
00789C  D4 C0                         ADDA.w d0,a2
00789E  70 02                         MOVEQ #$2,d0
0078A0  12 32 00 00                   MOVE.b $0(a2,d0.w),d1
0078A4  61 00 01 38                   BSR $0079DE
0078A8  51 C8 FF F6                   DBRA d0,$0078A0
0078AC  70 00                         MOVEQ #$0,d0
0078AE  4E 75                         RTS

; ==== sub_0078B0 (1 caller) ====
0078B0  41 F9 00 00 7A B2             LEA $7AB2.l,a0
0078B6  70 06                         MOVEQ #$6,d0
0078B8  42 30 00 00                   CLR.b $0(a0,d0.w)
0078BC  11 BC 00 01 00 07             MOVE.b #$1,$7(a0,d0.w)
0078C2  42 30 00 0E                   CLR.b $E(a0,d0.w)
0078C6  51 C8 FF F0                   DBRA d0,$0078B8
0078CA  60 4E                         BRA $00791A

; ==== sub_0078CC (2 callers) ====
0078CC  45 F8 7A C0                   LEA $7AC0.w,a2
0078D0  15 80 10 00                   MOVE.b d0,$0(a2,d1.w)
0078D4  45 F8 7A B2                   LEA $7AB2.w,a2
0078D8  70 06                         MOVEQ #$6,d0
0078DA  14 32 00 0E                   MOVE.b $E(a2,d0.w),d2
0078DE  67 36                         BEQ $007916
0078E0  42 32 00 0E                   CLR.b $E(a2,d0.w)
0078E4  15 BC 00 01 00 07             MOVE.b #$1,$7(a2,d0.w)
0078EA  D5 32 00 00                   ADD.b d2,$0(a2,d0.w)
0078EE  0C 32 00 0A 00 00             CMPI.b #$A,$0(a2,d0.w)
0078F4  6D 20                         BLT $007916
0078F6  22 00                         MOVE.l d0,d1
0078F8  04 32 00 0A 10 00             SUBI.b #$A,$0(a2,d1.w)
0078FE  53 41                         SUBQ.w #1,d1
007900  6B 14                         BMI $007916
007902  06 32 00 01 10 00             ADDI.b #$1,$0(a2,d1.w)
007908  15 BC 00 01 10 07             MOVE.b #$1,$7(a2,d1.w)
00790E  0C 32 00 09 10 00             CMPI.b #$9,$0(a2,d1.w)
007914  6E E2                         BGT $0078F8
007916  51 C8 FF C2                   DBRA d0,$0078DA
00791A  41 F9 00 01 66 9A             LEA $1669A.l,a0
007920  45 F9 00 00 7A B2             LEA $7AB2.l,a2
007926  74 06                         MOVEQ #$6,d2
007928  4A 32 20 07                   TST.b $7(a2,d2.w)
00792C  67 0E                         BEQ $00793C
00792E  12 32 20 00                   MOVE.b $0(a2,d2.w),d1
007932  61 00 00 FE                   BSR $007A32
007936  42 32 20 07                   CLR.b $7(a2,d2.w)
00793A  60 02                         BRA $00793E
00793C  53 48                         SUBQ.w #1,a0
00793E  51 CA FF E8                   DBRA d2,$007928
007942  4E 75                         RTS

; ==== sub_007944 (1 caller) ====
007944  0C 39 00 09 00 00 7A AF       CMPI.b #$9,$7AAF.l
00794C  67 1A                         BEQ $007968
00794E  06 39 00 01 00 00 7A AF       ADDI.b #$1,$7AAF.l
007956  60 10                         BRA $007968

; ==== sub_007958 (1 caller) ====
007958  4A 39 00 00 7A AF             TST.b $7AAF.l
00795E  67 08                         BEQ $007968
007960  04 39 00 01 00 00 7A AF       SUBI.b #$1,$7AAF.l

; ==== sub_007968 (1 caller) ====
007968  41 F9 00 01 66 7D             LEA $1667D.l,a0
00796E  12 39 00 00 7A AF             MOVE.b $7AAF.l,d1
007974  60 00 00 BC                   BRA $007A32

; ==== sub_007978 (1 caller) ====
007978  45 F9 00 00 7A B0             LEA $7AB0.l,a2
00797E  0C 52 09 09                   CMPI.w #$909,(a2)
007982  67 3A                         BEQ $0079BE
007984  70 01                         MOVEQ #$1,d0
007986  06 32 00 01 00 00             ADDI.b #$1,$0(a2,d0.w)
00798C  0C 32 00 0A 00 00             CMPI.b #$A,$0(a2,d0.w)
007992  6D 2A                         BLT $0079BE
007994  15 BC 00 00 00 00             MOVE.b #$0,$0(a2,d0.w)
00799A  51 C8 FF EA                   DBRA d0,$007986
00799E  60 1E                         BRA $0079BE

; ==== sub_0079A0 (1 caller) ====
0079A0  45 F9 00 00 7A B0             LEA $7AB0.l,a2
0079A6  4A 52                         TST.w (a2)
0079A8  67 14                         BEQ $0079BE
0079AA  70 01                         MOVEQ #$1,d0
0079AC  04 32 00 01 00 00             SUBI.b #$1,$0(a2,d0.w)
0079B2  6A 0A                         BPL $0079BE
0079B4  15 BC 00 09 00 00             MOVE.b #$9,$0(a2,d0.w)
0079BA  51 C8 FF F0                   DBRA d0,$0079AC

; ==== sub_0079BE (1 caller) ====
0079BE  41 F9 00 01 66 7B             LEA $1667B.l,a0
0079C4  45 F9 00 00 7A B0             LEA $7AB0.l,a2
0079CA  74 01                         MOVEQ #$1,d2
0079CC  12 32 20 00                   MOVE.b $0(a2,d2.w),d1
0079D0  61 00 00 60                   BSR $007A32
0079D4  51 CA FF F6                   DBRA d2,$0079CC
0079D8  30 38 7A B0                   MOVE.w $7AB0.w,d0
0079DC  4E 75                         RTS

; ==== sub_0079DE (1 caller) ====
0079DE  47 F9 00 01 79 60             LEA $17960.l,a3
0079E4  C2 7C 00 0F                   AND.w #$F,d1
0079E8  E7 41                         ASL.w #3,d1
0079EA  D6 C1                         ADDA.w d1,a3
0079EC  49 EB 00 50                   LEA $50(a3),a4
0079F0  10 9B                         MOVE.b (a3)+,(a0)
0079F2  11 5C 05 32                   MOVE.b (a4)+,$532(a0)
0079F6  11 5B 00 26                   MOVE.b (a3)+,$26(a0)
0079FA  11 5C 05 58                   MOVE.b (a4)+,$558(a0)
0079FE  11 5B 00 4C                   MOVE.b (a3)+,$4C(a0)
007A02  11 5C 05 7E                   MOVE.b (a4)+,$57E(a0)
007A06  11 5B 00 72                   MOVE.b (a3)+,$72(a0)
007A0A  11 5C 05 A4                   MOVE.b (a4)+,$5A4(a0)
007A0E  11 5B 00 98                   MOVE.b (a3)+,$98(a0)
007A12  11 5C 05 CA                   MOVE.b (a4)+,$5CA(a0)
007A16  11 5B 00 BE                   MOVE.b (a3)+,$BE(a0)
007A1A  11 5C 05 F0                   MOVE.b (a4)+,$5F0(a0)
007A1E  11 5B 00 E4                   MOVE.b (a3)+,$E4(a0)
007A22  11 5C 06 16                   MOVE.b (a4)+,$616(a0)
007A26  11 5B 01 0A                   MOVE.b (a3)+,$10A(a0)
007A2A  11 5C 06 3C                   MOVE.b (a4)+,$63C(a0)
007A2E  53 48                         SUBQ.w #1,a0
007A30  4E 75                         RTS

; ==== sub_007A32 (2 callers) ====
007A32  47 F9 00 01 7A 00             LEA $17A00.l,a3
007A38  C2 7C 00 0F                   AND.w #$F,d1
007A3C  30 01                         MOVE.w d1,d0
007A3E  E7 41                         ASL.w #3,d1
007A40  D0 40                         ADD.w d0,d0
007A42  D0 40                         ADD.w d0,d0
007A44  D2 40                         ADD.w d0,d1
007A46  D6 C1                         ADDA.w d1,a3
007A48  49 EB 00 78                   LEA $78(a3),a4
007A4C  10 9B                         MOVE.b (a3)+,(a0)
007A4E  11 5C 05 32                   MOVE.b (a4)+,$532(a0)
007A52  11 5B 00 26                   MOVE.b (a3)+,$26(a0)
007A56  11 5C 05 58                   MOVE.b (a4)+,$558(a0)
007A5A  11 5B 00 4C                   MOVE.b (a3)+,$4C(a0)
007A5E  11 5C 05 7E                   MOVE.b (a4)+,$57E(a0)
007A62  11 5B 00 72                   MOVE.b (a3)+,$72(a0)
007A66  11 5C 05 A4                   MOVE.b (a4)+,$5A4(a0)
007A6A  11 5B 00 98                   MOVE.b (a3)+,$98(a0)
007A6E  11 5C 05 CA                   MOVE.b (a4)+,$5CA(a0)
007A72  11 5B 00 BE                   MOVE.b (a3)+,$BE(a0)
007A76  11 5C 05 F0                   MOVE.b (a4)+,$5F0(a0)
007A7A  11 5B 00 E4                   MOVE.b (a3)+,$E4(a0)
007A7E  11 5C 06 16                   MOVE.b (a4)+,$616(a0)
007A82  11 5B 01 0A                   MOVE.b (a3)+,$10A(a0)
007A86  11 5C 06 3C                   MOVE.b (a4)+,$63C(a0)
007A8A  11 5B 01 30                   MOVE.b (a3)+,$130(a0)
007A8E  11 5C 06 62                   MOVE.b (a4)+,$662(a0)
007A92  11 5B 01 56                   MOVE.b (a3)+,$156(a0)
007A96  11 5C 06 88                   MOVE.b (a4)+,$688(a0)
007A9A  11 5B 01 7C                   MOVE.b (a3)+,$17C(a0)
007A9E  11 5C 06 AE                   MOVE.b (a4)+,$6AE(a0)
007AA2  11 5B 01 A2                   MOVE.b (a3)+,$1A2(a0)
007AA6  11 5C 06 D4                   MOVE.b (a4)+,$6D4(a0)
007AAA  53 48                         SUBQ.w #1,a0
007AAC  4E 75                         RTS
007AAE  .dc.b 02 03 01 04 00 00 00 00 00 00 00 01 01 01 01 01 ; ................
007ABE  .dc.b 01 01 00 00 00 02 05 00 00 32 00 00 00 80 C0 E0 ; .........2......
007ACE  .dc.b F0 F8 FC FE FF 50 60 70 80 90 A0 B0 C0 D0 E0 F0 ; .....P`p........
007ADE  .dc.b F1 F2 F3 F4 F5 F6 F7 F8 F9 FA FB FC FD FE FF EF ; ................
007AEE  .dc.b DF CF CF BF BF AF AF 9F 9F 8F 8F 7E 7E 6E 6E 5E ; ...........~~nn^
007AFE  .dc.b 5E 4E 4E 3E 3E 2E 2E 1E 1E 0E 0E 0F 0F 00 05 00 ; ^NN>>...........
007B0E  .dc.b 00 00 01 00 00 00 00 00 08 00 00 00 03 00 00 00 ; ................
007B1E  .dc.b 06 00 02 DD 02 E1 02 E5 02 E9 02 ED 00 00 00 00 ; ................
007B2E  .dc.b 38 52 38 50 43 90 4E D0 4E CE 43 8E 38 4E 2D 0E ; 8R8PC.N.N.C.8N-.
007B3E  .dc.b 21 CE 16 8E 16 90 16 92 16 94 16 96 16 98 16 9A ; !...............
007B4E  .dc.b 0B 5A 0B 58 0B 56 0B 54 0B 52 0B 50 0B 4E 0B 4C ; .Z.X.V.T.R.P.N.L
007B5E  .dc.b 0B 4A 00 0A 00 0C 00 0E 00 10 00 12 00 14 00 16 ; .J..............
007B6E  .dc.b 00 18 00 1A 00 1C 00 1E 00 20 0B 60 16 A0 21 E0 ; ......... .`..!.
007B7E  .dc.b 2D 20 38 60 38 62 38 64 38 66 2D 26 21 E6 16 A6 ; - 8`8b8d8f-&!...
007B8E  .dc.b 0B 66 00 26 00 24 00 22 0B 62 16 A2 21 E2 2D 22 ; .f.&.$.".b..!.-"
007B9E  .dc.b 2D 24 21 E4 16 A4 0B 64 43 92 4E D2 4E D4 4E D6 ; -$!....dC.N.N.N.
007BAE  .dc.b 5A 16 5A 14 5A 12 5A 10 5A 0E 5A 0C 4E CC 43 8C ; Z.Z.Z.Z.Z.Z.N.C.
007BBE  .dc.b 38 4C 2D 0C 21 CC 16 8C 16 8A 21 CA 2D 0A 38 4A ; 8L-.!.....!.-.8J
007BCE  .dc.b 43 8A 4E CA 5A 0A 65 4A 70 8A 70 88 65 48 5A 08 ; C.N.Z.eJp.p.eHZ.
007BDE  .dc.b 4E C8 43 88 38 48 2D 08 21 C8 16 88 0B 48 00 08 ; N.C.8H-.!....H..
007BEE  .dc.b 00 06 0B 46 16 86 21 C6 2D 06 38 46 38 44 38 42 ; ...F..!.-.8F8D8B
007BFE  .dc.b 38 40 2D 00 21 C0 16 80 0B 40 00 00 00 02 00 04 ; 8@-.!....@......
007C0E  .dc.b 0B 44 16 84 21 C4 2D 04 2D 02 21 C2 16 82 0B 42 ; .D..!.-.-.!....B
007C1E  .dc.b 43 94 43 96 38 56 2D 16 2D 18 38 58 43 98 4E D8 ; C.C.8V-.-.8XC.N.
007C2E  .dc.b 5A 18 65 58 65 56 65 54 65 52 65 50 65 4E 65 4C ; Z.eXeVeTeRePeNeL
007C3E  .dc.b 70 8C 70 8E 70 90 70 92 70 94 70 96 70 98 70 9A ; p.p.p.p.p.p.p.p.
007C4E  .dc.b 70 9C 7B DC 7B DA 7B D8 7B D6 7B D4 7B D2 7B D0 ; p.{.{.{.{.{.{.{.
007C5E  .dc.b 7B CE 7B CC 7B CA 7B C8 7B C6 70 86 65 46 5A 06 ; {.{.{.{.{.p.eFZ.
007C6E  .dc.b 4E C6 43 86 43 84 43 82 43 80 4E C0 5A 00 65 40 ; N.C.C.C.C.N.Z.e@
007C7E  .dc.b 70 80 7B C0 7B C2 7B C4 70 84 65 44 5A 04 4E C4 ; p.{.{.{.p.eDZ.N.
007C8E  .dc.b 4E C2 5A 02 65 42 70 82 38 54 2D 14 2D 12 2D 10 ; N.Z.eBp.8T-.-.-.
007C9E  .dc.b 21 D0 21 D2 21 D4 21 D6 21 D8 21 DA 2D 1A 38 5A ; !.!.!.!.!.!.-.8Z
007CAE  .dc.b 43 9A 4E DA 5A 1A 65 5A 65 5C 5A 1C 4E DC 43 9C ; C.N.Z.eZe\Z.N.C.
007CBE  .dc.b 38 5C 2D 1C 21 DC 16 9C 0B 5C 0B 5E 16 9E 21 DE ; 8\-.!....\.^..!.
007CCE  .dc.b 2D 1E 38 5E 43 9E 4E DE 5A 1E 65 5E 70 9E 7B DE ; -.8^C.N.Z.e^p.{.
007CDE  .dc.b 7B E0 70 A0 65 60 5A 20 4E E0 43 A0 43 A2 43 A4 ; {.p.e`Z N.C.C.C.
007CEE  .dc.b 43 A6 4E E6 5A 26 65 66 70 A6 7B E6 7B E4 7B E2 ; C.N.Z&efp.{.{.{.
007CFE  .dc.b 70 A2 65 62 5A 22 4E E2 4E E4 5A 24 65 64 70 A4 ; p.ebZ"N.N.Z$edp.
007D0E  .dc.b 4A 2D 00 1E 6A 36 02 2D 00 7F 00 1E 2B 7C 00 00 ; J-..j6.-....+|..
007D1E  .dc.b 7E 7E 00 12 2B 7C 00 00 7E 82 00 08 50 ED 00 1C ; ~~..+|..~...P...
007D2E  .dc.b 72 02 30 38 01 04 B0 6D 00 18 6C 02 44 41 3B 41 ; r.08...m..l.DA;A
007D3E  .dc.b 00 2E 3B 7C 00 62 00 30 51 ED 00 34 4A 2D 00 1D ; ..;|.b.0Q..4J-..
007D4E  .dc.b 67 0C 70 05 72 04 61 00 FB 76 60 00 00 DE 4C AD ; g.p.r.a..v`...L.
007D5E  .dc.b 00 03 00 18 36 2D 00 30 41 FA 01 30 D2 70 30 00 ; ....6-.0A..0.p0.
007D6E  .dc.b D0 6D 00 2E 90 78 01 20 92 78 01 22 B0 7C FF E0 ; .m...x. .x.".|..
007D7E  .dc.b 6F 00 00 B4 B2 7C FF E0 6F 00 00 AC B0 7C 01 90 ; o....|..o....|..
007D8E  .dc.b 6C 00 00 A4 B2 7C 01 14 6C 00 00 9C 48 AD 00 03 ; l....|..l...H...
007D9E  .dc.b 00 18 61 00 C5 EA 67 08 6B 00 00 90 61 00 F9 7C ; ..a...g.k...a..|
007DAE  .dc.b 4C AD 00 03 00 18 4A 6D 00 2E 6B 04 D0 7C 00 18 ; L.....Jm..k..|..
007DBE  .dc.b 50 41 61 00 B7 EC 67 12 4A 2D 00 34 66 00 00 68 ; PAa...g.J-.4f..h
007DCE  .dc.b 44 6D 00 2E 50 ED 00 34 60 04 51 ED 00 34 30 2D ; Dm..P..4`.Q..40-
007DDE  .dc.b 00 2E 48 C0 E2 88 92 40 36 2D 00 30 41 F8 7E 98 ; ..H....@6-.0A.~.
007DEE  .dc.b 4A 70 30 00 6A 18 92 7C 00 30 6A 04 D2 7C 06 00 ; Jp0.j..|.0j..|..
007DFE  .dc.b 10 32 10 00 67 06 3B 7C 00 1C 00 30 60 1A D2 7C ; .2..g.;|...0`..|
007E0E  .dc.b 00 30 B2 7C 06 00 6D 04 92 7C 06 00 10 32 10 00 ; .0.|..m..|...2..
007E1E  .dc.b 67 06 3B 7C 00 4E 00 30 55 6D 00 30 6A 06 3B 7C ; g.;|.N.0Um.0j.;|
007E2E  .dc.b 00 62 00 30 4E 75 60 00 9D 02 2F 0D 61 00 9C 7E ; .b.0Nu`.../.a..~
007E3E  .dc.b 20 57 14 28 00 1E 84 3C 00 80 1B 42 00 1E 2B 7C ;  W.(...<...B..+|
007E4E  .dc.b 00 00 7E FC 00 22 4C A8 00 03 00 18 B4 7C 00 08 ; ..~.."L......|..
007E5E  .dc.b 6E 02 50 40 48 AD 00 03 00 18 61 00 9C 82 2A 5F ; n.P@H.....a...*_
007E6E  .dc.b 70 08 4E B9 00 01 A2 DC 70 00 72 F9 60 00 A4 D0 ; p.N.....p.r.`...
007E7E  .dc.b 00 00 7E 8A 00 03 00 02 00 12 00 0B 00 01 14 D8 ; ..~.............
007E8E  .dc.b 00 01 15 8C 00 BA 03 C3 0F 00 00 00 00 00 00 01 ; ................
007E9E  .dc.b 00 01 00 02 00 02 00 02 00 03 00 03 00 03 00 03 ; ................
007EAE  .dc.b 00 04 00 04 00 04 00 04 00 04 00 03 00 03 00 03 ; ................
007EBE  .dc.b 00 03 00 02 00 02 00 02 00 01 00 01 00 00 00 00 ; ................
007ECE  .dc.b FF FF FF FF FF FE FF FE FF FE FF FD FF FD FF FD ; ................
007EDE  .dc.b FF FD FF FC FF FC FF FC FF FC FF FC FF FD FF FD ; ................
007EEE  .dc.b FF FD FF FD FF FE FF FE FF FE FF FF FF FF       ; ..............
007EFC  4A 2D 00 1E                   TST.b $1E(a5)
007F00  6A 2E                         BPL $007F30
007F02  2B 7C 00 00 80 E8 00 12       MOVE.l #$80E8,$12(a5)
007F0A  2B 7C 00 00 81 10 00 08       MOVE.l #$8110,$8(a5)
007F12  10 2D 00 1E                   MOVE.b $1E(a5),d0
007F16  C0 7C 00 7F                   AND.w #$7F,d0
007F1A  1B 40 00 1E                   MOVE.b d0,$1E(a5)
007F1E  50 ED 00 1C                   ST $1C(a5)
007F22  50 ED 00 1F                   ST $1F(a5)
007F26  3B 40 00 0C                   MOVE.w d0,$C(a5)
007F2A  3B 7C 00 18 00 32             MOVE.w #$18,$32(a5)
007F30  61 00 C4 5A                   BSR $00438C
007F34  66 00 00 AE                   BNE $007FE4
007F38  4C AD 00 03 00 18             MOVEM.w $18(a5),d0-d1
007F3E  90 78 01 20                   SUB.w $120.w,d0
007F42  92 78 01 22                   SUB.w $122.w,d1
007F46  0C 6D 00 08 00 0C             CMPI.w #$8,$C(a5)
007F4C  6D 00 00 3E                   BLT $007F8C
007F50  48 A7 C0 00                   MOVEM.w d0-d1,-(a7)
007F54  D2 7C 00 0F                   ADD.w #$F,d1
007F58  0C 6D 00 08 00 0C             CMPI.w #$8,$C(a5)
007F5E  66 02                         BNE $007F62
007F60  58 41                         ADDQ.w #4,d1
007F62  D0 7C 00 10                   ADD.w #$10,d0
007F66  61 00 B6 46                   BSR $0035AE
007F6A  4C 9F 00 03                   MOVEM.w (a7)+,d0-d1
007F6E  66 18                         BNE $007F88
007F70  38 2D 00 32                   MOVE.w $32(a5),d4
007F74  41 FA 02 76                   LEA $0081EC(pc),a0
007F78  D2 70 40 00                   ADD.w $0(a0,d4.w),d1
007F7C  55 6D 00 32                   SUBQ.w #2,$32(a5)
007F80  6A 00 00 36                   BPL $007FB8
007F84  42 6D 00 32                   CLR.w $32(a5)
007F88  60 00 00 2E                   BRA $007FB8
007F8C  38 2D 00 32                   MOVE.w $32(a5),d4
007F90  C8 7C 00 03                   AND.w #$3,d4
007F94  66 00 00 1E                   BNE $007FB4
007F98  53 41                         SUBQ.w #1,d1
007F9A  34 01                         MOVE.w d1,d2
007F9C  94 78 01 74                   SUB.w $174.w,d2
007FA0  6B 12                         BMI $007FB4
007FA2  48 A7 C0 00                   MOVEM.w d0-d1,-(a7)
007FA6  50 40                         ADDQ.w #8,d0
007FA8  61 00 B6 04                   BSR $0035AE
007FAC  4C 9F 00 03                   MOVEM.w (a7)+,d0-d1
007FB0  67 02                         BEQ $007FB4
007FB2  52 41                         ADDQ.w #1,d1
007FB4  52 6D 00 32                   ADDQ.w #1,$32(a5)
007FB8  B0 7C FF E0                   CMP.w #$FFE0,d0
007FBC  6F 00 00 22                   BLE $007FE0
007FC0  B2 7C FF E0                   CMP.w #$FFE0,d1
007FC4  6F 00 00 1A                   BLE $007FE0
007FC8  B0 7C 01 90                   CMP.w #$190,d0
007FCC  6C 00 00 12                   BGE $007FE0
007FD0  B2 7C 01 14                   CMP.w #$114,d1
007FD4  6C 00 00 0A                   BGE $007FE0
007FD8  48 AD 00 03 00 18             MOVEM.w d0-d1,$18(a5)
007FDE  4E 75                         RTS
007FE0  60 00 9B 9C                   BRA $001B7E
007FE4  70 03                         MOVEQ #$3,d0
007FE6  72 04                         MOVEQ #$4,d1
007FE8  61 00 F8 E2                   BSR $0078CC
007FEC  34 2D 00 0C                   MOVE.w $C(a5),d2
007FF0  B4 7C 00 09                   CMP.w #$9,d2
007FF4  66 12                         BNE $008008
007FF6  70 13                         MOVEQ #$13,d0
007FF8  4E B9 00 01 A2 DC             JSR $1A2DC.l
007FFE  70 01                         MOVEQ #$1,d0
008000  61 00 F7 F4                   BSR $0077F6
008004  60 00 9B 32                   BRA $001B38
008008  B4 7C 00 05                   CMP.w #$5,d2
00800C  66 04                         BNE $008012
00800E  70 02                         MOVEQ #$2,d0
008010  60 12                         BRA $008024
008012  B4 7C 00 06                   CMP.w #$6,d2
008016  66 04                         BNE $00801C
008018  70 03                         MOVEQ #$3,d0
00801A  60 08                         BRA $008024
00801C  B4 7C 00 07                   CMP.w #$7,d2
008020  66 12                         BNE $008034
008022  70 04                         MOVEQ #$4,d0
008024  61 00 F7 D0                   BSR $0077F6
008028  70 11                         MOVEQ #$11,d0
00802A  4E B9 00 01 A2 DC             JSR $1A2DC.l
008030  60 00 9B 06                   BRA $001B38
008034  B4 7C 00 08                   CMP.w #$8,d2
008038  66 10                         BNE $00804A
00803A  61 00 F9 3C                   BSR $007978
00803E  70 12                         MOVEQ #$12,d0
008040  4E B9 00 01 A2 DC             JSR $1A2DC.l
008046  60 00 9A F0                   BRA $001B38
00804A  4A 42                         TST.w d2
00804C  66 20                         BNE $00806E
00804E  11 FC 00 01 54 4F             MOVE.b #$1,$544F.w
008054  10 38 54 51                   MOVE.b $5451.w,d0
008058  B0 3C 00 02                   CMP.b #$2,d0
00805C  6C 04                         BGE $008062
00805E  52 38 54 51                   ADDQ.b #1,$5451.w
008062  70 11                         MOVEQ #$11,d0
008064  4E B9 00 01 A2 DC             JSR $1A2DC.l
00806A  60 00 9A CC                   BRA $001B38
00806E  B4 7C 00 01                   CMP.w #$1,d2
008072  66 20                         BNE $008094
008074  11 FC 00 02 54 4F             MOVE.b #$2,$544F.w
00807A  10 38 54 52                   MOVE.b $5452.w,d0
00807E  B0 3C 00 04                   CMP.b #$4,d0
008082  6C 04                         BGE $008088
008084  52 38 54 52                   ADDQ.b #1,$5452.w
008088  70 11                         MOVEQ #$11,d0
00808A  4E B9 00 01 A2 DC             JSR $1A2DC.l
008090  60 00 9A A6                   BRA $001B38
008094  B4 7C 00 02                   CMP.w #$2,d2
008098  66 1A                         BNE $0080B4
00809A  10 38 59 4C                   MOVE.b $594C.w,d0
00809E  B0 3C 00 04                   CMP.b #$4,d0
0080A2  6C 04                         BGE $0080A8
0080A4  52 38 59 4C                   ADDQ.b #1,$594C.w
0080A8  70 11                         MOVEQ #$11,d0
0080AA  4E B9 00 01 A2 DC             JSR $1A2DC.l
0080B0  60 00 9A 86                   BRA $001B38
0080B4  B4 7C 00 04                   CMP.w #$4,d2
0080B8  66 12                         BNE $0080CC
0080BA  50 F9 00 00 7A C8             ST $7AC8.l
0080C0  70 11                         MOVEQ #$11,d0
0080C2  4E B9 00 01 A2 DC             JSR $1A2DC.l
0080C8  60 00 9A 6E                   BRA $001B38
0080CC  B4 7C 00 03                   CMP.w #$3,d2
0080D0  66 12                         BNE $0080E4
0080D2  31 FC 02 08 02 62             MOVE.w #$208,$262.w
0080D8  70 11                         MOVEQ #$11,d0
0080DA  4E B9 00 01 A2 DC             JSR $1A2DC.l
0080E0  60 00 9A 56                   BRA $001B38
0080E4  60 00 9A 52                   BRA $001B38
0080E8  .dc.b 00 00 81 60 00 00 81 6E 00 00 81 7C 00 00 81 8A ; ...`...n...|....
0080F8  .dc.b 00 00 81 98 00 00 81 A6 00 00 81 B4 00 00 81 C2 ; ................
008108  .dc.b 00 00 81 D0 00 00 81 DE 00 01 00 01 00 0D 00 0D ; ................
008118  .dc.b 00 01 00 01 00 0D 00 0D 00 01 00 01 00 0D 00 0D ; ................
008128  .dc.b 00 01 00 01 00 0D 00 0D 00 01 00 01 00 0D 00 0D ; ................
008138  .dc.b 00 01 00 01 00 0D 00 0D 00 01 00 01 00 0D 00 0D ; ................
008148  .dc.b 00 01 00 01 00 0D 00 0D 00 01 00 02 00 12 00 10 ; ................
008158  .dc.b 00 04 00 02 00 18 00 0B 00 01 0F D8 00 01 10 38 ; ...............8
008168  .dc.b 00 BC 04 02 10 00 00 01 10 58 00 01 10 B8 00 BC ; .........X......
008178  .dc.b 04 02 10 00 00 01 10 D8 00 01 11 38 00 BC 04 02 ; ...........8....
008188  .dc.b 10 00 00 01 11 58 00 01 11 B8 00 BC 04 02 10 00 ; .....X..........
008198  .dc.b 00 01 11 D8 00 01 12 38 00 BC 04 02 10 00 00 01 ; .......8........
0081A8  .dc.b 12 58 00 01 12 B8 00 BC 04 02 10 00 00 01 12 D8 ; .X..............
0081B8  .dc.b 00 01 13 38 00 BC 04 02 10 00 00 01 13 58 00 01 ; ...8.........X..
0081C8  .dc.b 13 B8 00 BC 04 02 10 00 00 01 16 B8 00 01 17 9C ; ................
0081D8  .dc.b 00 BA 04 C3 13 00 00 01 15 C8 00 01 16 7C 00 BA ; .............|..
0081E8  .dc.b 03 C3 0F 00 00 04 00 03 00 03 00 02 00 02 00 02 ; ................
0081F8  .dc.b 00 01 00 01 00 01 00 01 00 00 00 00 00 00 00 00 ; ................
008208  .dc.b 00 00 00 00 00 00 B8 B6 B2 B2 BA DF B1 AB AC BC ; ................
008218  .dc.b DF DF DF DF DF DF DF DF DF DF 00 00 84 3A B8 B6 ; .............:..
008228  .dc.b B2 B2 BA DF AF BE B3 DF DF DF DF DF DF DF DF DF ; ................
008238  .dc.b DF DF 00 00 84 6C A9 BA AD AC B6 B0 B1 DF C0 DF ; .....l..........
008248  .dc.b DF DF DF DF DF DF DF DF DF DF 00 00 84 90 B6 DF ; ................
008258  .dc.b B3 B6 B4 BA DF AD D2 AB A6 AF BA DF DF DF DF DF ; ................
008268  .dc.b DF DF 00 00 84 96 A8 B6 B3 B3 B6 DF BD BE BA BC ; ................
008278  .dc.b B4 BA AD DF DF DF DF DF DF DF 00 00 84 9E BE BC ; ................
008288  .dc.b B7 B6 B2 DF B2 B0 B3 B3 BA AD DF DF DF DF DF DF ; ................
008298  .dc.b DF DF 00 00 84 B8 AC AB BA B9 BE B1 DF AB AC B0 ; ................
0082A8  .dc.b AA AF BE AD B6 BB B6 AC DF DF 00 00 84 D2 B2 BE ; ................
0082B8  .dc.b B1 B9 AD BA BB DF AB AD BA B1 A5 DF DF DF DF DF ; ................
0082C8  .dc.b DF DF 00 00 84 EE BE B1 BB AD BA BE AC DF BA AC ; ................
0082D8  .dc.b BC B7 BA AD DF DF DF DF DF DF 00 00 85 0A B5 AA ; ................
0082E8  .dc.b B3 B6 BE B1 DF BA B8 B8 BA BD AD BA BC B7 AB DF ; ................
0082F8  .dc.b DF DF 00 00 85 26 BC B7 AD B6 AC DF DF B7 AA BA ; .....&..........
008308  .dc.b B3 AC BD BA BC B4 DF DF DF DF 00 00 85 42 AB BA ; .............B..
008318  .dc.b AA AB DF A8 BA B6 BB BA B2 BE B1 B1 DF DF DF DF ; ................
008328  .dc.b DF DF 00 00 85 5E B5 BE B4 BA DF D9 DF BA B3 A8 ; .....^..........
008338  .dc.b B0 B0 BB DF DF DF DF DF DF DF 00 00 84 76 B5 BE ; .............v..
008348  .dc.b B1 B6 AC DF B3 B6 BA AF BE DF DF DF DF DF DF DF ; ................
008358  .dc.b DF DF 00 00 85 7A B7 BE B1 AC DF B5 AA BA AD B8 ; .....z..........
008368  .dc.b BA B1 DF B8 AD BE B3 DF DF DF 00 00 85 96 AB B7 ; ................
008378  .dc.b B0 B2 BE AC DF BA B1 B8 BA B3 DF DF DF DF DF DF ; ................
008388  .dc.b DF DF 00 00 85 B2 AD BA B1 BA DF B7 BA B1 B4 BA ; ................
008398  .dc.b DF DF DF DF DF DF DF DF DF DF 00 00 85 CE B4 B3 ; ................
0083A8  .dc.b BE AA AC DF B0 BC B7 BA B1 BB BE B3 AC B4 B6 DF ; ................
0083B8  .dc.b DF DF 00 00 85 EA AD B0 BD B6 B1 DF A8 AA B1 BB ; ................
0083C8  .dc.b BA AD B3 B6 BC B7 DF DF DF DF 00 00 86 06 B3 AA ; ................
0083D8  .dc.b AB A5 DF B0 AC AB BA AD B4 B0 AD B1 DF DF DF DF ; ................
0083E8  .dc.b DF DF 00 00 86 22 BD B3 AA BA AC B2 B0 BD B6 B3 ; ....."..........
0083F8  .dc.b DF DF DF DF DF DF DF DF DF DF 00 00 84 08 D3 D3 ; ................
008408  .dc.b 31 FC 09 09 0E 0E 20 3C 05 00 00 00 21 C0 14 80 ; 1..... <....!...
008418  .dc.b 21 C0 14 88 21 C0 14 90 43 FA 00 04 60 20 A6 BA ; !...!...C...` ..
008428  .dc.b BE B7 DF AB B7 BE AB AC DF B6 AB DF DE DE DF DF ; ................
008438  .dc.b DF DF 33 FC 00 00 00 DF F1 DC 43 FA 00 14 D0 FC ; ..3.......C.....
008448  .dc.b 00 0F 70 11 12 19 46 01 10 C1 51 C8 FF F8 4E 75 ; ..p...F...Q...Nu
008458  .dc.b D2 DF AF B3 BE A6 DF B6 AB DF B9 BE AC AB DF DE ; ................
008468  .dc.b DF D2 DF DF 33 FC 00 20 00 DF F1 DC 4E 75 43 FA ; ....3.. ....NuC.
008478  .dc.b 00 04 60 CA BD B0 A6 D2 AB B7 BE AB DF A8 BE AC ; ..`.............
008488  .dc.b DF BC B3 B0 AC BA DF DF 43 FA 01 DC 60 B0 41 FA ; ........C...`.A.
008498  .dc.b 01 EA 60 00 01 A2 43 FA 00 04 60 A2 AB B7 BA DF ; ..`...C...`.....
0084A8  .dc.b BB AA B4 BA DF A8 BE AC DF B7 BA AD BA DE DF DF ; ................
0084B8  .dc.b 43 FA 00 04 60 88 AB BE BE DF AB BE DF AB BE DF ; C...`...........
0084C8  .dc.b AB BE BE BE BE BE BE BE DF DF 43 FA 00 06 60 00 ; ..........C...`.
0084D8  .dc.b FF 6E B3 B6 A5 BA B1 A5 DF A5 AA B2 DF B3 B0 BA ; .n..............
0084E8  .dc.b AB BA B1 DE DF DF 43 FA 00 06 60 00 FF 52 AF B3 ; ......C...`..R..
0084F8  .dc.b AA B9 B0 DF D9 DF B9 B0 AB B0 B9 B6 AB AB BA AD ; ................
008508  .dc.b DF DF 43 FA 00 06 60 00 FF 36 D2 DF AB B7 BA DF ; ..C...`..6......
008518  .dc.b B8 AB B6 DF B7 AA B1 AB BA AD DF D2 DF DF 43 FA ; ..............C.
008528  .dc.b 00 06 60 00 FF 1A A8 B6 B3 B3 AC AB DF BB AA DF ; ..`.............
008538  .dc.b B1 BA DF AF B6 A5 A5 BE DF DF 43 FA 00 06 60 00 ; ..........C...`.
008548  .dc.b FE FE AF AA B2 AF DF AA AF DF AB B7 BA DF A9 B0 ; ................
008558  .dc.b B3 AA B2 BA DF DF 43 FA 00 06 60 00 FE E2 B1 BE ; ......C...`.....
008568  .dc.b DF B5 BE DF DF B8 BE B1 A5 DF B1 BA AB AB D1 D1 ; ................
008578  .dc.b DF DF 43 FA 00 06 60 00 FE C6 AB B7 BA DF B8 AD ; ..C...`.........
008588  .dc.b BA BE AB DF B7 AA B1 AB BA AD DF DF DF DF 43 FA ; ..............C.
008598  .dc.b 00 06 60 00 FE AA BA B6 B1 DF AB BA AA AD BA AD ; ..`.............
0085A8  .dc.b DF B9 AD BA AA B1 BB DE DF DF 43 FA 00 06 60 00 ; ..........C...`.
0085B8  .dc.b FE 8E B4 BA BA AF DF D7 BB BA D6 BD AA B8 B8 B6 ; ................
0085C8  .dc.b B1 B8 DF DE DF DF 43 FA 00 06 60 00 FE 72 BB BA ; ......C...`..r..
0085D8  .dc.b AD DF BD BE BA AD D2 AB B6 B8 BA DF DE DF DF DF ; ................
0085E8  .dc.b DF DF 43 FA 00 06 60 00 FE 56 BB B6 BA DF B8 BA ; ..C...`..V......
0085F8  .dc.b B3 BD BA DF B8 BA B9 BE B7 AD DF DE DF DF 43 FA ; ..............C.
008608  .dc.b 00 06 60 00 FE 3A B9 B6 B1 B8 BA AD DF A8 BA B8 ; ..`..:..........
008618  .dc.b DF DE DE DE DE DE DE DE DF DF 43 FA 00 06 60 00 ; ..........C...`.
008628  .dc.b FE 1E AC AF B6 BA B3 AC DF BB AA AD BC B7 DF DE ; ................
008638  .dc.b DE DE DE DE DF DF 43 F8 02 EE 74 09 61 06 51 CA ; ......C...t.a.Q.
008648  .dc.b FF FC 4E 75 70 0B 45 FA 00 FA 56 49 12 DA 51 C8 ; ..Nup.E...VI..Q.
008658  .dc.b FF FC 70 11 12 18 46 01 12 C1 51 C8 FF F8 12 FC ; ..p...F...Q.....
008668  .dc.b 00 FF 54 48 4E 75 D5 DF A9 CE D1 CF CD D2 CD C7 ; ..THNu..........
008678  .dc.b D1 CA D1 C6 CF BE DF D5 DF DF D5 D5 D5 D5 D5 D5 ; ................
008688  .dc.b D5 D5 D5 D5 D5 D5 D5 D5 D5 D5 D5 D5 DF DF D5 DF ; ................
008698  .dc.b DF DF DF DF DF DF DF DF DF DF DF DF DF DF DF D5 ; ................
0086A8  .dc.b DF DF D5 DF A6 BA BE B7 DF D2 DF AD D2 AB A6 AF ; ................
0086B8  .dc.b BA DF DF D5 DF DF D5 DF A8 BE AC DF B1 B6 BC BA ; ................
0086C8  .dc.b DF D1 D1 D1 DF DF DF D5 DF DF D5 DF B6 DF A8 B0 ; ................
0086D8  .dc.b B1 BB BA AD D3 DF A8 B7 B0 DF DF D5 DF DF D5 DF ; ................
0086E8  .dc.b A8 B6 B3 B3 DF BC B0 B1 A9 BA AD AB DF DF DF D5 ; ................
0086F8  .dc.b DF DF D5 DF AD D2 AB A6 AF BA DF B6 B6 DF DF C0 ; ................
008708  .dc.b DF DF DF D5 DF DF D5 DF DF DF DF DF DF DF DF DF ; ................
008718  .dc.b DF DF DF DF DF DF DF D5 DF DF D5 DF DF DF DF DF ; ................
008728  .dc.b DF DF DF DF DF DF DF DF DF DF DF D5 DF DF D5 D5 ; ................
008738  .dc.b D5 D5 D5 D5 D5 D5 D5 D5 D5 D5 D5 D5 D5 D5 D5 D5 ; ................
008748  .dc.b DF DF 30 30 30 30 30 30 30 20 30 2D 30 20 41 F8 ; ..0000000 0-0 A.
008758  .dc.b 02 EE D0 C7 45 FA FA B0 43 E8 00 0F 72 11 26 4A ; ....E...C...r.&J
008768  .dc.b 10 1B 46 00 C0 3C 00 3F B0 19 66 14 51 C9 FF F2 ; ..F..<.?..f.Q...
008778  .dc.b 24 6A 00 14 4E 92 50 F9 00 00 82 0C 70 FF 4E 75 ; $j..N.P.....p.Nu
008788  .dc.b 45 EA 00 18 0C 52 D3 D3 66 CE 10 3A FA 78 4E 75 ; E....R..f..:.xNu
008798  .dc.b 00 00 00 00 00 00 00 00 00 00 00 00 00 00 00 00 ; ................
0087A8  .dc.b 00 00 00 00 00 00 00 00 00 00 00 00 00 00 00 00 ; ................
0087B8  .dc.b 00 00 00 00 00 00 00 00 00 00 00 00 00 00 00 00 ; ................
0087C8  .dc.b 00 00 00 00 00 00 00 00 00 00 00 00 00 00 00 00 ; ................
0087D8  .dc.b 00 00 00 00 00 00 00 00 00 00 00 00 00 00 00 00 ; ................
0087E8  .dc.b 00 00 00 00 00 00 00 00 00 00 00 00 00 00 00 00 ; ................
0087F8  .dc.b 00 00 00 00 00 00 00 00 00 00 00 00 00 00 00 00 ; ................
008808  .dc.b 00 00 00 00 00 00 00 00 00 00 00 00 00 00 00 00 ; ................
008818  .dc.b 00 00 00 00 00 00 00 00 00 00 00 00 00 00 00 00 ; ................
008828  .dc.b 00 00 00 00 00 00 00 00 00 00 00 00 00 00 00 00 ; ................
008838  .dc.b 00 00 00 00 00 00 00 00 00 00 00 00 00 00 00 00 ; ................
008848  .dc.b 00 00 00 00 00 00 00 00 00 00 00 00 00 00 00 00 ; ................
008858  .dc.b 00 00 00 00 00 00 00 00 00 00 00 00 00 00 00 00 ; ................
008868  .dc.b 00 00 00 00 00 00 00 00 00 00 00 00 00 00 00 00 ; ................
008878  .dc.b 00 00 00 00 00 00 00 00 00 00 00 00 00 00 00 00 ; ................
008888  .dc.b 00 00 00 00 00 00 00 00 00 00 00 00 00 00 00 00 ; ................
008898  .dc.b 00 00 00 00 00 00 00 00 00 00 00 00 00 00 00 00 ; ................
0088A8  .dc.b 00 00 00 00 00 00 00 00 00 00 00 00 00 00 00 00 ; ................
0088B8  .dc.b 00 00 00 00 00 00 00 00 00 00 00 00 00 00 00 00 ; ................
0088C8  .dc.b 00 00 00 00 00 00 00 00 00 00 00 00 00 00 00 00 ; ................
0088D8  .dc.b 00 00 00 00 00 00 00 00 00 00 00 00 00 00 00 00 ; ................
0088E8  .dc.b 00 00 00 00 00 00 00 00 00 00 00 00 00 00 00 00 ; ................
0088F8  .dc.b 00 00 00 00 00 00 00 00 00 00 00 00 00 00 00 00 ; ................
008908  .dc.b 00 00 00 00 00 00 00 00 00 00 00 00 00 00 00 00 ; ................
008918  .dc.b 00 00 00 00 00 00 00 00 00 00 00 00 00 00 00 00 ; ................
008928  .dc.b 00 00 00 00 00 00 00 00 00 00 00 00 00 00 00 00 ; ................
008938  .dc.b 00 00 00 00 00 00 00 00 00 00 00 00 00 00 00 00 ; ................
008948  .dc.b 00 00 00 00 00 00 00 00 00 00 00 00 00 00 00 00 ; ................
008958  .dc.b 00 00 00 00 00 00 00 00 00 00 00 00 00 00 00 00 ; ................
008968  .dc.b 00 00 00 00 00 00 00 00 00 00 00 00 00 00 00 00 ; ................
008978  .dc.b 00 00 00 00 00 00 00 00 00 00 00 00 00 00 00 00 ; ................
008988  .dc.b 00 00 00 00 00 00 00 00 00 00 00 00 00 00 00 00 ; ................
008998  .dc.b 00 00 00 00 00 00 00 00 00 00 00 00 00 00 00 00 ; ................
0089A8  .dc.b 00 00 00 00 00 00 00 00 00 00 00 00 00 00 00 00 ; ................
0089B8  .dc.b 00 00 00 00 00 00 00 00 00 00 00 00 00 00 00 00 ; ................
0089C8  .dc.b 00 00 00 00 00 00 00 00 00 00 00 00 00 00 00 00 ; ................
0089D8  .dc.b 00 00 00 00 00 00 00 00 00 00 00 00 00 00 00 00 ; ................
0089E8  .dc.b 00 00 00 00 00 00 00 00 00 00 00 00 00 00 00 00 ; ................
0089F8  .dc.b 00 00 00 00 00 00 00 00 00 00 00 00 00 00 00 00 ; ................
008A08  .dc.b 00 00 00 00 00 00 00 00 00 00 00 00 00 00 00 00 ; ................
008A18  .dc.b 00 00 00 00 00 00 00 00 00 00 00 00 00 00 00 00 ; ................
008A28  .dc.b 00 00 00 00 00 00 00 00 00 00 00 00 00 00 00 00 ; ................
008A38  .dc.b 00 00 00 00 00 00 00 00 00 00 00 00 00 00 00 00 ; ................
008A48  .dc.b 00 00 00 00 00 00 00 00 00 00 00 00 00 00 00 00 ; ................
008A58  .dc.b 00 00 00 00 00 00 00 00 00 00 00 00 00 00 00 00 ; ................
008A68  .dc.b 00 00 00 00 00 00 00 00 00 00 00 00 00 00 00 00 ; ................
008A78  .dc.b 00 00 00 00 00 00 00 00 00 00 00 00 00 00 00 00 ; ................
008A88  .dc.b 00 00 00 00 00 00 00 00 00 00 00 00 00 00 00 00 ; ................
008A98  .dc.b 00 00 00 00 00 00 00 00 00 00 00 00 00 00 00 00 ; ................
008AA8  .dc.b 00 00 00 00 00 00 00 00 00 00 00 00 00 00 00 00 ; ................
008AB8  .dc.b 00 00 00 00 00 00 00 00 00 00 00 00 00 00 00 00 ; ................
008AC8  .dc.b 00 00 00 00 00 00 00 00 00 00 00 00 00 00 00 00 ; ................
008AD8  .dc.b 00 00 00 00 00 00 00 00 00 00 00 00 00 00 00 00 ; ................
008AE8  .dc.b 00 00 00 00 00 00 00 00 00 00 00 00 00 00 00 00 ; ................
008AF8  .dc.b 00 00 00 00 00 00 00 00 00 00 00 00 00 00 00 00 ; ................
008B08  .dc.b 00 00 00 00 00 00 00 00 00 00 00 00 00 00 00 00 ; ................
008B18  .dc.b 00 00 00 00 00 00 00 00 00 00 00 00 00 00 00 00 ; ................
008B28  .dc.b 00 00 00 00 00 00 00 00 00 00 00 00 00 00 00 00 ; ................
008B38  .dc.b 00 00 00 00 00 00 00 00 00 00 00 00 00 00 00 00 ; ................
008B48  .dc.b 00 00 00 00 00 00 00 00 00 00 00 00 00 00 00 00 ; ................
008B58  .dc.b 00 00 00 00 00 00 00 00 00 00 00 00 00 00 00 00 ; ................
008B68  .dc.b 00 00 00 00 00 00 00 00 00 00 00 00 00 00 00 00 ; ................
008B78  .dc.b 00 00 00 00 00 00 00 00 00 00 00 00 00 00 00 00 ; ................
008B88  .dc.b 00 00 00 00 00 00 00 00 00 00 00 00 00 00 00 00 ; ................
008B98  .dc.b 00 00 00 00 00 00 00 00 00 00 00 00 00 00 00 00 ; ................
008BA8  .dc.b 00 00 00 00 00 00 00 00 00 00 00 00 00 00 00 00 ; ................
008BB8  .dc.b 00 00 00 00 00 00 00 00 00 00 00 00 00 00 00 00 ; ................
008BC8  .dc.b 00 00 00 00 00 00 00 00 00 00 00 00 00 00 00 00 ; ................
008BD8  .dc.b 00 00 00 00 00 00 00 00 00 00 00 00 00 00 00 00 ; ................
008BE8  .dc.b 00 00 00 00 00 00 00 00 00 00 00 00 00 00 00 00 ; ................
008BF8  .dc.b 00 00 00 00 00 00 00 00 00 00 00 00 00 00 00 00 ; ................
008C08  .dc.b 00 00 00 00 00 00 00 00 00 00 00 00 00 00 00 00 ; ................
008C18  .dc.b 00 00 00 00 00 00 00 00 00 00 00 00 00 00 00 00 ; ................
008C28  .dc.b 00 00 00 00 00 00 00 00 00 00 00 00 00 00 00 00 ; ................
008C38  .dc.b 00 00 00 00 00 00 00 00 00 00 00 00 00 00 00 00 ; ................
008C48  .dc.b 00 00 00 00 00 00 00 00 00 00 00 00 00 00 00 00 ; ................
008C58  .dc.b 00 00 00 00 00 00 00 00 00 00 00 00 00 00 00 00 ; ................
008C68  .dc.b 00 00 00 00 00 00 00 00 00 00 00 00 00 00 00 00 ; ................
008C78  .dc.b 00 00 00 00 00 00 00 00 00 00 00 00 00 00 00 00 ; ................
008C88  .dc.b 00 00 00 00 00 00 00 00 00 00 00 00 00 00 00 00 ; ................
008C98  .dc.b 00 00 00 00 00 00 00 00 00 00 00 00 00 00 00 00 ; ................
008CA8  .dc.b 00 00 00 00 00 00 00 00 00 00 00 00 00 00 00 00 ; ................
008CB8  .dc.b 00 00 00 00 00 00 00 00 00 00 00 00 00 00 00 00 ; ................
008CC8  .dc.b 00 00 00 00 00 00 00 00 00 00 00 00 00 00 00 00 ; ................
008CD8  .dc.b 00 00 00 00 00 00 00 00 00 00 00 00 00 00 00 00 ; ................
008CE8  .dc.b 00 00 00 00 00 00 00 00 00 00 00 00 00 00 00 00 ; ................
008CF8  .dc.b 00 00 00 00 00 00 00 00 00 00 00 00 00 00 00 00 ; ................
008D08  .dc.b 00 00 00 00 00 00 00 00 00 00 00 00 00 00 00 00 ; ................
008D18  .dc.b 00 00 00 00 00 00 00 00 00 00 00 00 00 00 00 00 ; ................
008D28  .dc.b 00 00 00 00 00 00 00 00 00 00 00 00 00 00 00 00 ; ................
008D38  .dc.b 00 00 00 00 00 00 00 00 00 00 00 00 00 00 00 00 ; ................
008D48  .dc.b 00 00 00 00 00 00 00 00 00 00 00 00 00 00 00 00 ; ................
008D58  .dc.b 00 00 00 00 00 00 00 00 00 00 00 00 00 00 00 00 ; ................
008D68  .dc.b 00 00 00 00 00 00 00 00 00 00 00 00 00 00 00 00 ; ................
008D78  .dc.b 00 00 00 00 00 00 00 00 00 00 00 00 00 00 00 00 ; ................
008D88  .dc.b 00 00 00 00 00 00 00 00 00 00 00 00 00 00 00 00 ; ................
008D98  .dc.b 00 00 00 00 00 00 00 00 00 00 00 00 00 00 00 00 ; ................
008DA8  .dc.b 00 00 00 00 00 00 00 00 00 00 00 00 00 00 00 00 ; ................
008DB8  .dc.b 00 00 00 00 00 00 00 00 00 00 00 00 00 00 00 00 ; ................
008DC8  .dc.b 00 00 00 00 00 00 00 00 00 00 00 00 00 00 00 00 ; ................
008DD8  .dc.b 00 00 00 00 00 00 00 00 00 00 00 00 00 00 00 00 ; ................
008DE8  .dc.b 00 00 00 00 00 00 00 00 00 00 00 00 00 00 00 00 ; ................
008DF8  .dc.b 00 00 00 00 00 00 00 00 00 00 00 00 00 00 00 00 ; ................
008E08  .dc.b 00 00 00 00 00 00 00 00 00 00 00 00 00 00 00 00 ; ................
008E18  .dc.b 00 00 00 00 00 00 00 00 00 00 00 00 00 00 00 00 ; ................
008E28  .dc.b 00 00 00 00 00 00 00 00 00 00 00 00 00 00 00 00 ; ................
008E38  .dc.b 00 00 00 00 00 00 00 00 00 00 00 00 00 00 00 00 ; ................
008E48  .dc.b 00 00 00 00 00 00 00 00 00 00 00 00 00 00 00 00 ; ................
008E58  .dc.b 00 00 00 00 00 00 00 00 00 00 00 00 00 00 00 00 ; ................
008E68  .dc.b 00 00 00 00 00 00 00 00 00 00 00 00 00 00 00 00 ; ................
008E78  .dc.b 00 00 00 00 00 00 00 00 00 00 00 00 00 00 00 00 ; ................
008E88  .dc.b 00 00 00 00 00 00 00 00 00 00 00 00 00 00 00 00 ; ................
008E98  .dc.b 00 00 00 00 00 00 00 00 00 00 00 00 00 00 00 00 ; ................
008EA8  .dc.b 00 00 00 00 00 00 00 00 00 00 00 00 00 00 00 00 ; ................
008EB8  .dc.b 00 00 00 00 00 00 00 00 00 00 00 00 00 00 00 00 ; ................
008EC8  .dc.b 00 00 00 00 00 00 00 00 00 00 00 00 00 00 00 00 ; ................
008ED8  .dc.b 00 00 00 00 00 00 00 00 00 00 00 00 00 00 00 00 ; ................
008EE8  .dc.b 00 00 00 00 00 00 00 00 00 00 00 00 00 00 00 00 ; ................
008EF8  .dc.b 00 00 00 00 00 00 00 00 00 00 00 00 00 00 00 00 ; ................
008F08  .dc.b 00 00 00 00 00 00 00 00 00 00 00 00 00 00 00 00 ; ................
008F18  .dc.b 00 00 00 00 00 00 00 00 00 00 00 00 00 00 00 00 ; ................
008F28  .dc.b 00 00 00 00 00 00 00 00 00 00 00 00 00 00 00 00 ; ................
008F38  .dc.b 00 00 00 00 00 00 00 00 00 00 00 00 00 00 00 00 ; ................
008F48  .dc.b 00 00 00 00 00 00 00 00 00 00 00 00 00 00 00 00 ; ................
008F58  .dc.b 00 00 00 00 00 00 00 00 00 00 00 00 00 00 00 00 ; ................
008F68  .dc.b 00 00 00 00 00 00 00 00 00 00 00 00 00 00 00 00 ; ................
008F78  .dc.b 00 00 00 00 00 00 00 00 00 00 00 00 00 00 00 00 ; ................
008F88  .dc.b 00 00 00 00 00 00 00 00 00 00 00 00 00 00 00 00 ; ................
008F98  .dc.b 00 00 00 00 00 00 00 00 00 00 00 00 00 00 00 00 ; ................
008FA8  .dc.b 00 00 00 00 00 00 00 00 00 00 00 00 00 00 00 00 ; ................
008FB8  .dc.b 00 00 00 00 00 00 00 00 00 00 00 00 00 00 00 00 ; ................
008FC8  .dc.b 00 00 00 00 00 00 00 00 00 00 00 00 00 00 00 00 ; ................
008FD8  .dc.b 00 00 00 00 00 00 00 00 00 00 00 00 00 00 00 00 ; ................
008FE8  .dc.b 00 00 00 00 00 00 00 00 00 00 00 00 00 00 00 00 ; ................
008FF8  .dc.b 00 00 00 00 00 00 00 00 00 00 00 00 00 00 00 00 ; ................
009008  .dc.b 00 00 00 00 00 00 00 00 00 00 00 00 00 00 00 00 ; ................
009018  .dc.b 00 00 00 00 00 00 00 00 00 00 00 00 00 00 00 00 ; ................
009028  .dc.b 00 00 00 00 00 00 00 00 00 00 00 00 00 00 00 00 ; ................
009038  .dc.b 00 00 00 00 00 00 00 00 00 00 00 00 00 00 00 00 ; ................
009048  .dc.b 00 00 00 00 00 00 00 00 00 00 00 00 00 00 00 00 ; ................
009058  .dc.b 00 00 00 00 00 00 00 00 00 00 00 00 00 00 00 00 ; ................
009068  .dc.b 00 00 00 00 00 00 00 00 00 00 00 00 00 00 00 00 ; ................
009078  .dc.b 00 00 00 00 00 00 00 00 00 00 00 00 00 00 00 00 ; ................
009088  .dc.b 00 00 00 00 00 00 00 00 00 00 00 00 00 00 00 00 ; ................
009098  .dc.b 00 00 00 00 00 00 00 00 00 00 00 00 00 00 00 00 ; ................
0090A8  .dc.b 00 00 00 00 00 00 00 00 00 00 00 00 00 00 00 00 ; ................
0090B8  .dc.b 00 00 00 00 00 00 00 00 00 00 00 00 00 00 00 00 ; ................
0090C8  .dc.b 00 00 00 00 00 00 00 00 00 00 00 00 00 00 00 00 ; ................
0090D8  .dc.b 00 00 00 00 00 00 00 00 00 00 00 00 00 00 00 00 ; ................
0090E8  .dc.b 00 00 00 00 00 00 00 00 00 00 00 00 00 00 00 00 ; ................
0090F8  .dc.b 00 00 00 00 00 00 00 00 00 00 00 00 00 00 00 00 ; ................
009108  .dc.b 00 00 00 00 00 00 00 00 00 00 00 00 00 00 00 00 ; ................
009118  .dc.b 00 00 00 00 00 00 00 00 00 00 00 00 00 00 00 00 ; ................
009128  .dc.b 00 00 00 00 00 00 00 00 00 00 00 00 00 00 00 00 ; ................
009138  .dc.b 00 00 00 00 00 00 00 00 00 00 00 00 00 00 00 00 ; ................
009148  .dc.b 00 00 00 00 00 00 00 00 00 00 00 00 00 00 00 00 ; ................
009158  .dc.b 00 00 00 00 00 00 00 00 00 00 00 00 00 00 00 00 ; ................
009168  .dc.b 00 00 00 00 00 00 00 00 00 00 00 00 00 00 00 00 ; ................
009178  .dc.b 00 00 00 00 00 00 00 00 00 00 00 00             ; ............

; --- object_pool  $009184 — The 39-node object pool (work RAM), built by obj_pool_init. (data) ---
009184  .dc.b 00 00 00 00 00 00 00 00 00 00 00 00 00 00 00 00 ; ................
009194  .dc.b 00 00 00 00 00 00 00 00 00 00 00 00 00 00 00 00 ; ................
0091A4  .dc.b 00 00 00 00 00 00 00 00 00 00 00 00 00 00 00 00 ; ................
0091B4  .dc.b 00 00 00 00 00 00 00 00 00 00 00 00 00 00 00 00 ; ................
0091C4  .dc.b 00 00 00 00 00 00 00 00 00 00 00 00 00 00 00 00 ; ................
0091D4  .dc.b 00 00 00 00 00 00 00 00 00 00 00 00 00 00 00 00 ; ................
0091E4  .dc.b 00 00 00 00 00 00 00 00 00 00 00 00 00 00 00 00 ; ................
0091F4  .dc.b 00 00 00 00 00 00 00 00 00 00 00 00 00 00 00 00 ; ................
009204  .dc.b 00 00 00 00 00 00 00 00 00 00 00 00 00 00 00 00 ; ................
009214  .dc.b 00 00 00 00 00 00 00 00 00 00 00 00 00 00 00 00 ; ................
009224  .dc.b 00 00 00 00 00 00 00 00 00 00 00 00 00 00 00 00 ; ................
009234  .dc.b 00 00 00 00 00 00 00 00 00 00 00 00 00 00 00 00 ; ................
009244  .dc.b 00 00 00 00 00 00 00 00 00 00 00 00 00 00 00 00 ; ................
009254  .dc.b 00 00 00 00 00 00 00 00 00 00 00 00 00 00 00 00 ; ................
009264  .dc.b 00 00 00 00 00 00 00 00 00 00 00 00 00 00 00 00 ; ................
009274  .dc.b 00 00 00 00 00 00 00 00 00 00 00 00 00 00 00 00 ; ................
009284  .dc.b 00 00 00 00 00 00 00 00 00 00 00 00 00 00 00 00 ; ................
009294  .dc.b 00 00 00 00 00 00 00 00 00 00 00 00 00 00 00 00 ; ................
0092A4  .dc.b 00 00 00 00 00 00 00 00 00 00 00 00 00 00 00 00 ; ................
0092B4  .dc.b 00 00 00 00 00 00 00 00 00 00 00 00 00 00 00 00 ; ................
0092C4  .dc.b 00 00 00 00 00 00 00 00 00 00 00 00 00 00 00 00 ; ................
0092D4  .dc.b 00 00 00 00 00 00 00 00 00 00 00 00 00 00 00 00 ; ................
0092E4  .dc.b 00 00 00 00 00 00 00 00 00 00 00 00 00 00 00 00 ; ................
0092F4  .dc.b 00 00 00 00 00 00 00 00 00 00 00 00 00 00 00 00 ; ................
009304  .dc.b 00 00 00 00 00 00 00 00 00 00 00 00 00 00 00 00 ; ................
009314  .dc.b 00 00 00 00 00 00 00 00 00 00 00 00 00 00 00 00 ; ................
009324  .dc.b 00 00 00 00 00 00 00 00 00 00 00 00 00 00 00 00 ; ................
009334  .dc.b 00 00 00 00 00 00 00 00 00 00 00 00 00 00 00 00 ; ................
009344  .dc.b 00 00 00 00 00 00 00 00 00 00 00 00 00 00 00 00 ; ................
009354  .dc.b 00 00 00 00 00 00 00 00 00 00 00 00 00 00 00 00 ; ................
009364  .dc.b 00 00 00 00 00 00 00 00 00 00 00 00 00 00 00 00 ; ................
009374  .dc.b 00 00 00 00 00 00 00 00 00 00 00 00 00 00 00 00 ; ................
009384  .dc.b 00 00 00 00 00 00 00 00 00 00 00 00 00 00 00 00 ; ................
009394  .dc.b 00 00 00 00 00 00 00 00 00 00 00 00 00 00 00 00 ; ................
0093A4  .dc.b 00 00 00 00 00 00 00 00 00 00 00 00 00 00 00 00 ; ................
0093B4  .dc.b 00 00 00 00 00 00 00 00 00 00 00 00 00 00 00 00 ; ................
0093C4  .dc.b 00 00 00 00 00 00 00 00 00 00 00 00 00 00 00 00 ; ................
0093D4  .dc.b 00 00 00 00 00 00 00 00 00 00 00 00 00 00 00 00 ; ................
0093E4  .dc.b 00 00 00 00 00 00 00 00 00 00 00 00 00 00 00 00 ; ................
0093F4  .dc.b 00 00 00 00 00 00 00 00 00 00 00 00 00 00 00 00 ; ................
009404  .dc.b 00 00 00 00 00 00 00 00 00 00 00 00 00 00 00 00 ; ................
009414  .dc.b 00 00 00 00 00 00 00 00 00 00 00 00 00 00 00 00 ; ................
009424  .dc.b 00 00 00 00 00 00 00 00 00 00 00 00 00 00 00 00 ; ................
009434  .dc.b 00 00 00 00 00 00 00 00 00 00 00 00 00 00 00 00 ; ................
009444  .dc.b 00 00 00 00 00 00 00 00 00 00 00 00 00 00 00 00 ; ................
009454  .dc.b 00 00 00 00 00 00 00 00 00 00 00 00 00 00 00 00 ; ................
009464  .dc.b 00 00 00 00 00 00 00 00 00 00 00 00 00 00 00 00 ; ................
009474  .dc.b 00 00 00 00 00 00 00 00 00 00 00 00 00 00 00 00 ; ................
009484  .dc.b 00 00 00 00 00 00 00 00 00 00 00 00 00 00 00 00 ; ................
009494  .dc.b 00 00 00 00 00 00 00 00 00 00 00 00 00 00 00 00 ; ................
0094A4  .dc.b 00 00 00 00 00 00 00 00 00 00 00 00 00 00 00 00 ; ................
0094B4  .dc.b 00 00 00 00 00 00 00 00 00 00 00 00 00 00 00 00 ; ................
0094C4  .dc.b 00 00 00 00 00 00 00 00 00 00 00 00 00 00 00 00 ; ................
0094D4  .dc.b 00 00 00 00 00 00 00 00 00 00 00 00 00 00 00 00 ; ................
0094E4  .dc.b 00 00 00 00 00 00 00 00 00 00 00 00 00 00 00 00 ; ................
0094F4  .dc.b 00 00 00 00 00 00 00 00 00 00 00 00 00 00 00 00 ; ................
009504  .dc.b 00 00 00 00 00 00 00 00 00 00 00 00 00 00 00 00 ; ................
009514  .dc.b 00 00 00 00 00 00 00 00 00 00 00 00 00 00 00 00 ; ................
009524  .dc.b 00 00 00 00 00 00 00 00 00 00 00 00 00 00 00 00 ; ................
009534  .dc.b 00 00 00 00 00 00 00 00 00 00 00 00 00 00 00 00 ; ................
009544  .dc.b 00 00 00 00 00 00 00 00 00 00 00 00 00 00 00 00 ; ................
009554  .dc.b 00 00 00 00 00 00 00 00 00 00 00 00 00 00 00 00 ; ................
009564  .dc.b 00 00 00 00 00 00 00 00 00 00 00 00 00 00 00 00 ; ................
009574  .dc.b 00 00 00 00 00 00 00 00 00 00 00 00 00 00 00 00 ; ................
009584  .dc.b 00 00 00 00 00 00 00 00 00 00 00 00 00 00 00 00 ; ................
009594  .dc.b 00 00 00 00 00 00 00 00 00 00 00 00 00 00 00 00 ; ................
0095A4  .dc.b 00 00 00 00 00 00 00 00 00 00 00 00 00 00 00 00 ; ................
0095B4  .dc.b 00 00 00 00 00 00 00 00 00 00 00 00 00 00 00 00 ; ................
0095C4  .dc.b 00 00 00 00 00 00 00 00 00 00 00 00 00 00 00 00 ; ................
0095D4  .dc.b 00 00 00 00 00 00 00 00 00 00 00 00 00 00 00 00 ; ................
0095E4  .dc.b 00 00 00 00 00 00 00 00 00 00 00 00 00 00 00 00 ; ................
0095F4  .dc.b 00 00 00 00 00 00 00 00 00 00 00 00 00 00 00 00 ; ................
009604  .dc.b 00 00 00 00 00 00 00 00 00 00 00 00 00 00 00 00 ; ................
009614  .dc.b 00 00 00 00 00 00 00 00 00 00 00 00 00 00 00 00 ; ................
009624  .dc.b 00 00 00 00 00 00 00 00 00 00 00 00 00 00 00 00 ; ................
009634  .dc.b 00 00 00 00 00 00 00 00 00 00 00 00 00 00 00 00 ; ................
009644  .dc.b 00 00 00 00 00 00 00 00 00 00 00 00 00 00 00 00 ; ................
009654  .dc.b 00 00 00 00 00 00 00 00 00 00 00 00 00 00 00 00 ; ................
009664  .dc.b 00 00 00 00 00 00 00 00 00 00 00 00 00 00 00 00 ; ................
009674  .dc.b 00 00 00 00 00 00 00 00 00 00 00 00 00 00 00 00 ; ................
009684  .dc.b 00 00 00 00 00 00 00 00 00 00 00 00 00 00 00 00 ; ................
009694  .dc.b 00 00 00 00 00 00 00 00 00 00 00 00 00 00 00 00 ; ................
0096A4  .dc.b 00 00 00 00 00 00 00 00 00 00 00 00 00 00 00 00 ; ................
0096B4  .dc.b 00 00 00 00 00 00 00 00 00 00 00 00 00 00 00 00 ; ................
0096C4  .dc.b 00 00 00 00 00 00 00 00 00 00 00 00 00 00 00 00 ; ................
0096D4  .dc.b 00 00 00 00 00 00 00 00 00 00 00 00 00 00 00 00 ; ................
0096E4  .dc.b 00 00 00 00 00 00 00 00 00 00 00 00 00 00 00 00 ; ................
0096F4  .dc.b 00 00 00 00 00 00 00 00 00 00 00 00 00 00 00 00 ; ................
009704  .dc.b 00 00 00 00 00 00 00 00 00 00 00 00 00 00 00 00 ; ................
009714  .dc.b 00 00 00 00 00 00 00 00 00 00 00 00 00 00 00 00 ; ................
009724  .dc.b 00 00 00 00 00 00 00 00 00 00 00 00 00 00 00 00 ; ................
009734  .dc.b 00 00 00 00 00 00 00 00 00 00 00 00 00 00 00 00 ; ................
009744  .dc.b 00 00 00 00 00 00 00 00 00 00 00 00 00 00 00 00 ; ................
009754  .dc.b 00 00 00 00 00 00 00 00 00 00 00 00 00 00 00 00 ; ................
009764  .dc.b 00 00 00 00 00 00 00 00 00 00 00 00 00 00 00 00 ; ................
009774  .dc.b 00 00 00 00 00 00 00 00 00 00 00 00 00 00 00 00 ; ................
009784  .dc.b 00 00 00 00 00 00 00 00 00 00 00 00 00 00 00 00 ; ................
009794  .dc.b 00 00 00 00 00 00 00 00 00 00 00 00 00 00 00 00 ; ................
0097A4  .dc.b 00 00 00 00 00 00 00 00 00 00 00 00 00 00 00 00 ; ................
0097B4  .dc.b 00 00 00 00 00 00 00 00 00 00 00 00 00 00 00 00 ; ................
0097C4  .dc.b 00 00 00 00 00 00 00 00 00 00 00 00 00 00 00 00 ; ................
0097D4  .dc.b 00 00 00 00 00 00 00 00 00 00 00 00 00 00 00 00 ; ................
0097E4  .dc.b 00 00 00 00 00 00 00 00 00 00 00 00 00 00 00 00 ; ................
0097F4  .dc.b 00 00 00 00 00 00 00 00 00 00 00 00 00 00 00 00 ; ................
009804  .dc.b 00 00 00 00 00 00 00 00 00 00 00 00 00 00 00 00 ; ................
009814  .dc.b 00 00 00 00 00 00 00 00 00 00 00 00 00 00 00 00 ; ................
009824  .dc.b 00 00 00 00 00 00 00 00 00 00 00 00 00 00 00 00 ; ................
009834  .dc.b 00 00 00 00 00 00 00 00 00 00 00 00 00 00 00 00 ; ................
009844  .dc.b 00 00 00 00 00 00 00 00 00 00 00 00 00 00 00 00 ; ................
009854  .dc.b 00 00 00 00 00 00 00 00 00 00 00 00 00 00 00 00 ; ................
009864  .dc.b 00 00 00 00 00 00 00 00 00 00 00 00 00 00 00 00 ; ................
009874  .dc.b 00 00 00 00 00 00 00 00 00 00 00 00 00 00 00 00 ; ................
009884  .dc.b 00 00 00 00 00 00 00 00 00 00 00 00 00 00 00 00 ; ................
009894  .dc.b 00 00 00 00 00 00 00 00 00 00 00 00 00 00 00 00 ; ................
0098A4  .dc.b 00 00 00 00 00 00 00 00 00 00 00 00 00 00 00 00 ; ................
0098B4  .dc.b 00 00 00 00 00 00 00 00 00 00 00 00 00 00 00 00 ; ................
0098C4  .dc.b 00 00 00 00 00 00 00 00 00 00 00 00 00 00 00 00 ; ................
0098D4  .dc.b 00 00 00 00 00 00 00 00 00 00 00 00 00 00 00 00 ; ................
0098E4  .dc.b 00 00 00 00 00 00 00 00 00 00 00 00 00 00 00 00 ; ................
0098F4  .dc.b 00 00 00 00 00 00 00 00 00 00 00 00 00 00 00 00 ; ................
009904  .dc.b 00 00 00 00 00 00 00 00 00 00 00 00 00 00 00 00 ; ................
009914  .dc.b 00 00 00 00 00 00 00 00 00 00 00 00 00 00 00 00 ; ................
009924  .dc.b 00 00 00 00 00 00 00 00 00 00 00 00 00 00 00 00 ; ................
009934  .dc.b 00 00 00 00 00 00 00 00 00 00 00 00 00 00 00 00 ; ................
009944  .dc.b 00 00 00 00 00 00 00 00 00 00 00 00 00 00 00 00 ; ................
009954  .dc.b 00 00 00 00 00 00 00 00 00 00 00 00 00 00 00 00 ; ................
009964  .dc.b 00 00 00 00 00 00 00 00 00 00 00 00 00 00 00 00 ; ................
009974  .dc.b 00 00 00 00 00 00 00 00 00 00 00 00 00 00 00 00 ; ................
009984  .dc.b 00 00 00 00 00 00 00 00 00 00 00 00 00 00 00 00 ; ................
009994  .dc.b 00 00 00 00 00 00 00 00 00 00 00 00 00 00 00 00 ; ................
0099A4  .dc.b 00 00 00 00 00 00 00 00 00 00 00 00 00 00 00 00 ; ................
0099B4  .dc.b 00 00 00 00 00 00 00 00 00 00 00 00 00 00 00 00 ; ................
0099C4  .dc.b 00 00 00 00 00 00 00 00 00 00 00 00 00 00 00 00 ; ................
0099D4  .dc.b 00 00 00 00 00 00 00 00 00 00 00 00 00 00 00 00 ; ................
0099E4  .dc.b 00 00 00 00 00 00 00 00 00 00 00 00 00 00 00 00 ; ................
0099F4  .dc.b 00 00 00 00 00 00 00 00 00 00 00 00 00 00 00 00 ; ................
009A04  .dc.b 00 00 00 00 00 00 00 00 00 00 00 00 00 00 00 00 ; ................
009A14  .dc.b 00 00 00 00 00 00 00 00 00 00 00 00 00 00 00 00 ; ................
009A24  .dc.b 00 00 00 00 00 00 00 00 00 00 00 00 00 00 00 00 ; ................
009A34  .dc.b 00 00 00 00 00 00 00 00 00 00 00 00 00 00 00 00 ; ................
009A44  .dc.b 00 00 00 00 00 00 00 00 00 00 00 00 00 00 00 00 ; ................
009A54  .dc.b 00 00 00 00 00 00 00 00 00 00 00 00 00 00 00 00 ; ................
009A64  .dc.b 00 00 00 00 00 00 00 00 00 00 00 00 00 00 00 00 ; ................
009A74  .dc.b 00 00 00 00 00 00 00 00 00 00 00 00 00 00 00 00 ; ................
009A84  .dc.b 00 00 00 00 00 00 00 00 00 00 00 00 00 00 00 00 ; ................
009A94  .dc.b 00 00 00 00 00 00 00 00 00 00 00 00 00 00 00 00 ; ................
009AA4  .dc.b 00 00 00 00 00 00 00 00 00 00 00 00 00 00 00 00 ; ................
009AB4  .dc.b 00 00 00 00 00 00 00 00 00 00 00 00 00 00 00 00 ; ................
009AC4  .dc.b 00 00 00 00 00 00 00 00 00 00 00 00 00 00 00 00 ; ................
009AD4  .dc.b 00 00 00 00 00 00 00 00 00 00 00 00 00 00 00 00 ; ................
009AE4  .dc.b 00 00 00 00 00 00 00 00 00 00 00 00 00 00 00 00 ; ................
009AF4  .dc.b 00 00 00 00 00 00 00 00 00 00 00 00 00 00 00 00 ; ................
009B04  .dc.b 00 00 00 00 00 00 00 00 00 00 00 00 00 00 00 00 ; ................
009B14  .dc.b 00 00 00 00 00 00 00 00 00 00 00 00 00 00 00 00 ; ................
009B24  .dc.b 00 00 00 00 00 00 00 00 00 00 00 00 00 00 00 00 ; ................
009B34  .dc.b 00 00 00 00 00 00 00 00 00 00 00 00 00 00 00 00 ; ................
009B44  .dc.b 00 00 00 00 00 00 00 00 00 00 00 00 00 00 00 00 ; ................
009B54  .dc.b 00 00 00 00 00 00 00 00 00 00 00 00 00 00 00 00 ; ................
009B64  .dc.b 00 00 00 00 00 00 00 00 00 00 00 00 00 00 00 00 ; ................
009B74  .dc.b 00 00 00 00 00 00 00 00 00 00 00 00 00 00 00 00 ; ................
009B84  .dc.b 00 00 00 00 00 00 00 00 00 00 00 00 00 00 00 00 ; ................
009B94  .dc.b 00 00 00 00 00 00 00 00 00 00 00 00 00 00 00 00 ; ................
009BA4  .dc.b 00 00 00 00 00 00 00 00 00 00 00 00 00 00 00 00 ; ................
009BB4  .dc.b 00 00 00 00 00 00 00 00 00 00 00 00 00 00 00 00 ; ................
009BC4  .dc.b 00 00 00 00 00 00 00 00 00 00 00 00 00 00 00 00 ; ................
009BD4  .dc.b 00 00 00 00 00 00 00 00 00 00 00 00 00 00 00 00 ; ................
009BE4  .dc.b 00 00 00 00 00 00 00 00 00 00 00 00 00 00 00 00 ; ................
009BF4  .dc.b 00 00 00 00 00 00 00 00 00 00 00 00 00 00 00 00 ; ................
009C04  .dc.b 00 00 00 00 00 00 00 00 00 00 00 00 00 00 00 00 ; ................
009C14  .dc.b 00 00 00 00 00 00 00 00 00 00 00 00 00 00 00 00 ; ................
009C24  .dc.b 00 00 00 00 00 00 00 00 00 00 00 00 00 00 00 00 ; ................
009C34  .dc.b 00 00 00 00 00 00 00 00 00 00 00 00 00 00 00 00 ; ................
009C44  .dc.b 00 00 00 00 00 00 00 00 00 00 00 00 00 00 00 00 ; ................
009C54  .dc.b 00 00 00 00 00 00 00 00 00 00 00 00 00 00 00 00 ; ................
009C64  .dc.b 00 00 00 00 00 00 00 00 00 00 00 00 00 00 00 00 ; ................
009C74  .dc.b 00 00 00 00 00 00 00 00 00 00 00 00 00 00 00 00 ; ................
009C84  .dc.b 00 00 00 00 00 00 00 00 00 00 00 00 00 00 00 00 ; ................
009C94  .dc.b 00 00 00 00 00 00 00 00 00 00 00 00 00 00 00 00 ; ................
009CA4  .dc.b 00 00 00 00 00 00 00 00 00 00 00 00 00 00 00 00 ; ................
009CB4  .dc.b 00 00 00 00 00 00 00 00 00 00 00 00 00 00 00 00 ; ................
009CC4  .dc.b 00 00 00 00 00 00 00 00 00 00 00 00 00 00 00 00 ; ................
009CD4  .dc.b 00 00 00 00 00 00 00 00 00 00 00 00 00 00 00 00 ; ................
009CE4  .dc.b 00 00 00 00 00 00 00 00 00 00 00 00 00 00 00 00 ; ................
009CF4  .dc.b 00 00 00 00 00 00 00 00 00 00 00 00 00 00 00 00 ; ................
009D04  .dc.b 00 00 00 00 00 00 00 00 00 00 00 00 00 00 00 00 ; ................
009D14  .dc.b 00 00 00 00 00 00 00 00 00 00 00 00 00 00 00 00 ; ................
009D24  .dc.b 00 00 00 00 00 00 00 00 00 00 00 00 00 00 00 00 ; ................
009D34  .dc.b 00 00 00 00 00 00 00 00 00 00 00 00 00 00 00 00 ; ................
009D44  .dc.b 00 00 00 00 00 00 00 00 00 00 00 00 00 00 00 00 ; ................
009D54  .dc.b 00 00 00 00 00 00 00 00 00 00 00 00 00 00 00 00 ; ................
009D64  .dc.b 00 00 00 00 00 00 00 00 00 00 00 00 00 00 00 00 ; ................
009D74  .dc.b 00 00 00 00 00 00 00 00 00 00 00 00 00 00 00 00 ; ................
009D84  .dc.b 00 00 00 00 00 00 00 00 00 00 00 00 00 00 00 00 ; ................
009D94  .dc.b 00 00 00 00 00 00 00 00 00 00 00 00 00 00 00 00 ; ................
009DA4  .dc.b 00 00 00 00 00 00 00 00 00 00 00 00 00 00 00 00 ; ................
009DB4  .dc.b 00 00 00 00 00 00 00 00 00 00 00 00 00 00 00 00 ; ................
009DC4  .dc.b 00 00 00 00 00 00 00 00 00 00 00 00 00 00 00 00 ; ................
009DD4  .dc.b 00 00 00 00 00 00 00 00 00 00 00 00 00 00 00 00 ; ................
009DE4  .dc.b 00 00 00 00 00 00 00 00 00 00 00 00 00 00 00 00 ; ................
009DF4  .dc.b 00 00 00 00 00 00 00 00 00 00 00 00 00 00 00 00 ; ................
009E04  .dc.b 00 00 00 00 00 00 00 00 00 00 00 00 00 00 00 00 ; ................
009E14  .dc.b 00 00 00 00 00 00 00 00 00 00 00 00 00 00 00 00 ; ................
009E24  .dc.b 00 00 00 00 00 00 00 00 00 00 00 00 00 00 00 00 ; ................
009E34  .dc.b 00 00 00 00 00 00 00 00 00 00 00 00 00 00 00 00 ; ................
009E44  .dc.b 00 00 00 00 00 00 00 00 00 00 00 00 00 00 00 00 ; ................
009E54  .dc.b 00 00 00 00 00 00 00 00 00 00 00 00 00 00 00 00 ; ................
009E64  .dc.b 00 00 00 00 00 00 00 00 00 00 00 00 00 00 00 00 ; ................
009E74  .dc.b 00 00 00 00 00 00 00 00 00 00 00 00 00 00 00 00 ; ................
009E84  .dc.b 00 00 00 00 00 00 00 00 00 00 00 00 00 00 00 00 ; ................
009E94  .dc.b 00 00 00 00 00 00 00 00 00 00 00 00 00 00 00 00 ; ................
009EA4  .dc.b 00 00 00 00 00 00 00 00 00 00 00 00 00 00 00 00 ; ................
009EB4  .dc.b 00 00 00 00 00 00 00 00 00 00 00 00 00 00 00 00 ; ................
009EC4  .dc.b 00 00 00 00 00 00 00 00 00 00 00 00 00 00 00 00 ; ................
009ED4  .dc.b 00 00 00 00 00 00 00 00 00 00 00 00 00 00 00 00 ; ................
009EE4  .dc.b 00 00 00 00 00 00 00 00 00 00 00 00 00 00 00 00 ; ................
009EF4  .dc.b 00 00 00 00 00 00 00 00 00 00 00 00 00 00 00 00 ; ................
009F04  .dc.b 00 00 00 00 00 00 00 00 00 00 00 00 00 00 00 00 ; ................
009F14  .dc.b 00 00 00 00 00 00 00 00 00 00 00 00 00 00 00 00 ; ................
009F24  .dc.b 00 00 00 00 00 00 00 00 00 00 00 00 00 00 00 00 ; ................
009F34  .dc.b 00 00 00 00 00 00 00 00 00 00 00 00 00 00 00 00 ; ................
009F44  .dc.b 00 00 00 00 00 00 00 00 00 00 00 00 00 00 00 00 ; ................
009F54  .dc.b 00 00 00 00 00 00 00 00 00 00 00 00 00 00 00 00 ; ................
009F64  .dc.b 00 00 00 00 00 00 00 00 00 00 00 00 00 00 00 00 ; ................
009F74  .dc.b 00 00 00 00 00 00 00 00 00 00 00 00 00 00 00 00 ; ................
009F84  .dc.b 00 00 00 00 00 00 00 00 00 00 00 00 00 00 00 00 ; ................
009F94  .dc.b 00 00 00 00 00 00 00 00 00 00 00 00 00 00 00 00 ; ................
009FA4  .dc.b 00 00 00 00 00 00 00 00 00 00 00 00 00 00 00 00 ; ................
009FB4  .dc.b 00 00 00 00 00 00 00 00 00 00 00 00 00 00 00 00 ; ................
009FC4  .dc.b 00 00 00 00 00 00 00 00 00 00 00 00 00 00 00 00 ; ................
009FD4  .dc.b 00 00 00 00 00 00 00 00 00 00 00 00 00 00 00 00 ; ................
009FE4  .dc.b 00 00 00 00 00 00 00 00 00 00 00 00 00 00 00 00 ; ................
009FF4  .dc.b 00 00 00 00 00 00 00 00 00 00 00 00 00 00 00 00 ; ................
00A004  .dc.b 00 00 00 00 00 00 00 00 00 00 00 00 00 00 00 00 ; ................
00A014  .dc.b 00 00 00 00 00 00 00 00 00 00 00 00 00 00 00 00 ; ................
00A024  .dc.b 00 00 00 00 00 00 00 00 00 00 00 00 00 00 00 00 ; ................
00A034  .dc.b 00 00 00 00 00 00 00 00 00 00 00 00 00 00 00 00 ; ................
00A044  .dc.b 00 00 00 00 00 00 00 00 00 00 00 00 00 00 00 00 ; ................
00A054  .dc.b 00 00 00 00 00 00 00 00 00 00 00 00 00 00 00 00 ; ................
00A064  .dc.b 00 00 00 00 00 00 00 00 00 00 00 00 00 00 00 00 ; ................
00A074  .dc.b 00 00 00 00 00 00 00 00 00 00 00 00 00 00 00 00 ; ................
00A084  .dc.b 00 00 00 00 00 00 00 00 00 00 00 00 00 00 00 00 ; ................
00A094  .dc.b 00 00 00 00 00 00 00 00 00 00 00 00 00 00 00 00 ; ................
00A0A4  .dc.b 00 00 00 00 00 00 00 00 00 00 00 00 00 00 00 00 ; ................
00A0B4  .dc.b 00 00 00 00 00 00 00 00 00 00 00 00 00 00 00 00 ; ................
00A0C4  .dc.b 00 00 00 00 00 00 00 00 00 00 00 00 00 00 00 00 ; ................
00A0D4  .dc.b 00 00 00 00 00 00 00 00 00 00 00 00 00 00 00 00 ; ................
00A0E4  .dc.b 00 00 00 00 00 00 00 00 00 00 00 00 00 00 00 00 ; ................
00A0F4  .dc.b 00 00 00 00 00 00 00 00 00 00 00 00 00 00 00 00 ; ................
00A104  .dc.b 00 00 00 00 00 00 00 00 00 00 00 00 00 00 00 00 ; ................
00A114  .dc.b 00 00 00 00 00 00 00 00 00 00 00 00 00 00 00 00 ; ................
00A124  .dc.b 00 00 00 00 00 00 00 00 00 00 00 00 00 00 00 00 ; ................
00A134  .dc.b 00 00 00 00 00 00 00 00 00 00 00 00 00 00 00 00 ; ................
00A144  .dc.b 00 00 00 00 00 00 00 00 00 00 00 00 00 00 00 00 ; ................
00A154  .dc.b 00 00 00 00 00 00 00 00 00 00 00 00 00 00 00 00 ; ................
00A164  .dc.b 00 00 00 00 00 00 00 00 00 00 00 00 00 00 00 00 ; ................
00A174  .dc.b 00 00 00 00 00 00 00 00 00 00 00 00 00 00 00 00 ; ................
00A184  .dc.b 00 00 00 00 00 00 00 00 00 00 00 00 00 00 00 00 ; ................
00A194  .dc.b 00 00 00 00 00 00 00 00 00 00 00 00 00 00 00 00 ; ................
00A1A4  .dc.b 00 00 00 00 00 00 00 00 00 00 00 00 00 00 00 00 ; ................
00A1B4  .dc.b 00 00 00 00 00 00 00 00 00 00 00 00 00 00 00 00 ; ................
00A1C4  .dc.b 00 00 00 00 00 00 00 00 00 00 00 00 00 00 00 00 ; ................
00A1D4  .dc.b 00 00 00 00 00 00 00 00 00 00 00 00 00 00 00 00 ; ................
00A1E4  .dc.b 00 00 00 00 00 00 00 00 00 00 00 00 00 00 00 00 ; ................
00A1F4  .dc.b 00 00 00 00 00 00 00 00 00 00 00 00 00 00 00 00 ; ................
00A204  .dc.b 00 00 00 00 00 00 00 00 00 00 00 00 00 00 00 00 ; ................
00A214  .dc.b 00 00 00 00 00 00 00 00 00 00 00 00 00 00 00 00 ; ................
00A224  .dc.b 00 00 00 00 00 00 00 00 00 00 00 00 00 00 00 00 ; ................
00A234  .dc.b 00 00 00 00 00 00 00 00 00 00 00 00 00 00 00 00 ; ................
00A244  .dc.b 00 00 00 00 00 00 00 00 00 00 00 00 00 00 00 00 ; ................
00A254  .dc.b 00 00 00 00 00 00 00 00 00 00 00 00 00 00 00 00 ; ................
00A264  .dc.b 00 00 00 00 00 00 00 00 00 00 00 00 00 00 00 00 ; ................
00A274  .dc.b 00 00 00 00 00 00 00 00 00 00 00 00 00 00 00 00 ; ................
00A284  .dc.b 00 00 00 00 00 00 00 00 00 00 00 00 00 00 00 00 ; ................
00A294  .dc.b 00 00 00 00 00 00 00 00 00 00 00 00 00 00 00 00 ; ................
00A2A4  .dc.b 00 00 00 00 00 00 00 00 00 00 00 00 00 00 00 00 ; ................
00A2B4  .dc.b 00 00 00 00 00 00 00 00 00 00 00 00 00 00 00 00 ; ................
00A2C4  .dc.b 00 00 00 00 00 00 00 00 00 00 00 00 00 00 00 00 ; ................
00A2D4  .dc.b 00 00 00 00 00 00 00 00 00 00 00 00 00 00 00 00 ; ................
00A2E4  .dc.b 00 00 00 00 00 00 00 00 00 00 00 00 00 00 00 00 ; ................
00A2F4  .dc.b 00 00 00 00 00 00 00 00 00 00 00 00 00 00 00 00 ; ................
00A304  .dc.b 00 00 00 00 00 00 00 00 00 00 00 00 00 00 00 00 ; ................
00A314  .dc.b 00 00 00 00 00 00 00 00 00 00 00 00 00 00 00 00 ; ................
00A324  .dc.b 00 00 00 00 00 00 00 00 00 00 00 00 00 00 00 00 ; ................
00A334  .dc.b 00 00 00 00 00 00 00 00 00 00 00 00 00 00 00 00 ; ................
00A344  .dc.b 00 00 00 00 00 00 00 00 00 00 00 00 00 00 00 00 ; ................
00A354  .dc.b 00 00 00 00 00 00 00 00 00 00 00 00 00 00 00 00 ; ................
00A364  .dc.b 00 00 00 00 00 00 00 00 00 00 00 00 00 00 00 00 ; ................
00A374  .dc.b 00 00 00 00 00 00 00 00 00 00 00 00 00 00 00 00 ; ................
00A384  .dc.b 00 00 00 00 00 00 00 00 00 00 00 00 00 00 00 00 ; ................
00A394  .dc.b 00 00 00 00 00 00 00 00 00 00 00 00 00 00 00 00 ; ................
00A3A4  .dc.b 00 00 00 00 00 00 00 00 00 00 00 00 00 00 00 00 ; ................
00A3B4  .dc.b 00 00 00 00 00 00 00 00 00 00 00 00 00 00 00 00 ; ................
00A3C4  .dc.b 00 00 00 00 00 00 00 00 00 00 00 00 00 00 00 00 ; ................
00A3D4  .dc.b 00 00 00 00 00 00 00 00 00 00 00 00 00 00 00 00 ; ................
00A3E4  .dc.b 00 00 00 00 00 00 00 00 00 00 00 00 00 00 00 00 ; ................
00A3F4  .dc.b 00 00 00 00 00 00 00 00 00 00 00 00 00 00 00 00 ; ................
00A404  .dc.b 00 00 00 00 00 00 00 00 00 00 00 00 00 00 00 00 ; ................
00A414  .dc.b 00 00 00 00 00 00 00 00 00 00 00 00 00 00 00 00 ; ................
00A424  .dc.b 00 00 00 00 00 00 00 00 00 00 00 00 00 00 00 00 ; ................
00A434  .dc.b 00 00 00 00 00 00 00 00 00 00 00 00 00 00 00 00 ; ................
00A444  .dc.b 00 00 00 00 00 00 00 00 00 00 00 00 00 00 00 00 ; ................
00A454  .dc.b 00 00 00 00 00 00 00 00 00 00 00 00 00 00 00 00 ; ................
00A464  .dc.b 00 00 00 00 00 00 00 00 00 00 00 00 00 00 00 00 ; ................
00A474  .dc.b 00 00 00 00 00 00 00 00 00 00 00 00 00 00 00 00 ; ................
00A484  .dc.b 00 00 00 00 00 00 00 00 00 00 00 00 00 00 00 00 ; ................
00A494  .dc.b 00 00 00 00 00 00 00 00 00 00 00 00 00 00 00 00 ; ................
00A4A4  .dc.b 00 00 00 00 00 00 00 00 00 00 00 00 00 00 00 00 ; ................
00A4B4  .dc.b 00 00 00 00 00 00 00 00 00 00 00 00 00 00 00 00 ; ................
00A4C4  .dc.b 00 00 00 00 00 00 00 00 00 00 00 00 00 00 00 00 ; ................
00A4D4  .dc.b 00 00 00 00 00 00 00 00 00 00 00 00 00 00 00 00 ; ................
00A4E4  .dc.b 00 00 00 00 00 00 00 00 00 00 00 00 00 00 00 00 ; ................
00A4F4  .dc.b 00 00 00 00 00 00 00 00 00 00 00 00 00 00 00 00 ; ................
00A504  .dc.b 00 00 00 00 00 00 00 00 00 00 00 00 00 00 00 00 ; ................
00A514  .dc.b 00 00 00 00 00 00 00 00 00 00 00 00 00 00 00 00 ; ................
00A524  .dc.b 00 00 00 00 00 00 00 00 00 00 00 00 00 00 00 00 ; ................
00A534  .dc.b 00 00 00 00 00 00 00 00 00 00 00 00 00 00 00 00 ; ................
00A544  .dc.b 00 00 00 00 00 00 00 00 00 00 00 00 00 00 00 00 ; ................
00A554  .dc.b 00 00 00 00 00 00 00 00 00 00 00 00 00 00 00 00 ; ................
00A564  .dc.b 00 00 00 00 00 00 00 00 00 00 00 00 00 00 00 00 ; ................
00A574  .dc.b 00 00 00 00 00 00 00 00 00 00 00 00 00 00 00 00 ; ................
00A584  .dc.b 00 00 00 00 00 00 00 00 00 00 00 00 00 00 00 00 ; ................
00A594  .dc.b 00 00 00 00 00 00 00 00 00 00 00 00 00 00 00 00 ; ................
00A5A4  .dc.b 00 00 00 00 00 00 00 00 00 00 00 00 00 00 00 00 ; ................
00A5B4  .dc.b 00 00 00 00 00 00 00 00 00 00 00 00 00 00 00 00 ; ................
00A5C4  .dc.b 00 00 00 00 00 00 00 00 00 00 00 00 00 00 00 00 ; ................
00A5D4  .dc.b 00 00 00 00 00 00 00 00 00 00 00 00 00 00 00 00 ; ................
00A5E4  .dc.b 00 00 00 00 00 00 00 00 00 00 00 00 00 00 00 00 ; ................
00A5F4  .dc.b 00 00 00 00 00 00 00 00 00 00 00 00 00 00 00 00 ; ................
00A604  .dc.b 00 00 00 00 00 00 00 00 00 00 00 00 00 00 00 00 ; ................
00A614  .dc.b 00 00 00 00 00 00 00 00 00 00 00 00 00 00 00 00 ; ................
00A624  .dc.b 00 00 00 00 00 00 00 00 00 00 00 00 00 00 00 00 ; ................
00A634  .dc.b 00 00 00 00 00 00 00 00 00 00 00 00 00 00 00 00 ; ................
00A644  .dc.b 00 00 00 00 00 00 00 00 00 00 00 00 00 00 00 00 ; ................
00A654  .dc.b 00 00 00 00 00 00 00 00 00 00 00 00 00 00 00 00 ; ................
00A664  .dc.b 00 00 00 00 00 00 00 00 00 00 00 00 00 00 00 00 ; ................
00A674  .dc.b 00 00 00 00 00 00 00 00 00 00 00 00 00 00 00 00 ; ................
00A684  .dc.b 00 00 00 00 00 00 00 00 00 00 00 00 00 00 00 00 ; ................
00A694  .dc.b 00 00 00 00 00 00 00 00 00 00 00 00 00 00 00 00 ; ................
00A6A4  .dc.b 00 00 00 00 00 00 00 00 00 00 00 00 00 00 00 00 ; ................
00A6B4  .dc.b 00 00 00 00 00 00 00 00 00 00 00 00 00 00 00 00 ; ................
00A6C4  .dc.b 00 00 00 00 00 00 00 00 00 00 00 00 00 00 00 00 ; ................
00A6D4  .dc.b 00 00 00 00 00 00 00 00 00 00 00 00 00 00 00 00 ; ................
00A6E4  .dc.b 00 00 00 00 00 00 00 00 00 00 00 00 00 00 00 00 ; ................
00A6F4  .dc.b 00 00 00 00 00 00 00 00 00 00 00 00 00 00 00 00 ; ................
00A704  .dc.b 00 00 00 00 00 00 00 00 00 00 00 00 00 00 00 00 ; ................
00A714  .dc.b 00 00 00 00 00 00 00 00 00 00 00 00 00 00 00 00 ; ................
00A724  .dc.b 00 00 00 00 00 00 00 00 00 00 00 00 00 00 00 00 ; ................
00A734  .dc.b 00 00 00 00 00 00 00 00 00 00 00 00 00 00 00 00 ; ................
00A744  .dc.b 00 00 00 00 00 00 00 00 00 00 00 00 00 00 00 00 ; ................
00A754  .dc.b 00 00 00 00 00 00 00 00 00 00 00 00 00 00 00 00 ; ................
00A764  .dc.b 00 00 00 00 00 00 00 00 00 00 00 00 00 00 00 00 ; ................
00A774  .dc.b 00 00 00 00 00 00 00 00 00 00 00 00 00 00 00 00 ; ................
00A784  .dc.b 00 00 00 00 00 00 00 00 00 00 00 00 00 00 00 00 ; ................
00A794  .dc.b 00 00 00 00 00 00 00 00 00 00 00 00 00 00 00 00 ; ................
00A7A4  .dc.b 00 00 00 00 00 00 00 00 00 00 00 00 00 00 00 00 ; ................
00A7B4  .dc.b 00 00 00 00 00 00 00 00 00 00 00 00 00 00 00 00 ; ................
00A7C4  .dc.b 00 00 00 00 00 00 00 00 00 00 00 00 00 00 00 00 ; ................
00A7D4  .dc.b 00 00 00 00 00 00 00 00 00 00 00 00 00 00 00 00 ; ................
00A7E4  .dc.b 00 00 00 00 00 00 00 00 00 00 00 00 00 00 00 00 ; ................
00A7F4  .dc.b 00 00 00 00 00 00 00 00 00 00 00 00 00 00 00 00 ; ................
00A804  .dc.b 00 00 00 00 00 00 00 00 00 00 00 00 00 00 00 00 ; ................
00A814  .dc.b 00 00 00 00 00 00 00 00 00 00 00 00 00 00 00 00 ; ................
00A824  .dc.b 00 00 00 00 00 00 00 00 00 00 00 00 00 00 00 00 ; ................
00A834  .dc.b 00 00 00 00 00 00 00 00 00 00 00 00 00 00 00 00 ; ................
00A844  .dc.b 00 00 00 00 00 00 00 00 00 00 00 00 00 00 00 00 ; ................
00A854  .dc.b 00 00 00 00 00 00 00 00 00 00 00 00 00 00 00 00 ; ................
00A864  .dc.b 00 00 00 00 00 00 00 00 00 00 00 00 00 00 00 00 ; ................
00A874  .dc.b 00 00 00 00 00 00 00 00 00 00 00 00 00 00 00 00 ; ................
00A884  .dc.b 00 00 00 00 00 00 00 00 00 00 00 00 00 00 00 00 ; ................
00A894  .dc.b 00 00 00 00 00 00 00 00 00 00 00 00 00 00 00 00 ; ................
00A8A4  .dc.b 00 00 00 00 00 00 00 00 00 00 00 00 00 00 00 00 ; ................
00A8B4  .dc.b 00 00 00 00 00 00 00 00 00 00 00 00 00 00 00 00 ; ................
00A8C4  .dc.b 00 00 00 00 00 00 00 00 00 00 00 00 00 00 00 00 ; ................
00A8D4  .dc.b 00 00 00 00 00 00 00 00 00 00 00 00 00 00 00 00 ; ................
00A8E4  .dc.b 00 00 00 00 00 00 00 00 00 00 00 00 00 00 00 00 ; ................
00A8F4  .dc.b 00 00 00 00 00 00 00 00 00 00 00 00 00 00 00 00 ; ................
00A904  .dc.b 00 00 00 00 00 00 00 00 00 00 00 00 00 00 00 00 ; ................
00A914  .dc.b 00 00 00 00 00 00 00 00 00 00 00 00 00 00 00 00 ; ................
00A924  .dc.b 00 00 00 00 00 00 00 00 00 00 00 00 00 00 00 00 ; ................
00A934  .dc.b 00 00 00 00 00 00 00 00 00 00 00 00 00 00 00 00 ; ................
00A944  .dc.b 00 00 00 00 00 00 00 00 00 00 00 00 00 00 00 00 ; ................
00A954  .dc.b 00 00 00 00 00 00 00 00 00 00 00 00 00 00 00 00 ; ................
00A964  .dc.b 00 00 00 00 00 00 00 00 00 00 00 00 00 00 00 00 ; ................
00A974  .dc.b 00 00 00 00 00 00 00 00 00 00 00 00 00 00 00 00 ; ................
00A984  .dc.b 00 00 00 00 00 00 00 00 00 00 00 00 00 00 00 00 ; ................
00A994  .dc.b 00 00 00 00 00 00 00 00 00 00 00 00 00 00 00 00 ; ................
00A9A4  .dc.b 00 00 00 00 00 00 00 00 00 00 00 00 00 00 00 00 ; ................
00A9B4  .dc.b 00 00 00 00 00 00 00 00 00 00 00 00 00 00 00 00 ; ................
00A9C4  .dc.b 00 00 00 00 00 00 00 00 00 00 00 00 00 00 00 00 ; ................
00A9D4  .dc.b 00 00 00 00 00 00 00 00 00 00 00 00 00 00 00 00 ; ................
00A9E4  .dc.b 00 00 00 00 00 00 00 00 00 00 00 00 00 00 00 00 ; ................
00A9F4  .dc.b 00 00 00 00 00 00 00 00 00 00 00 00 00 00 00 00 ; ................
00AA04  .dc.b 00 00 00 00 00 00 00 00 00 00 00 00 00 00 00 00 ; ................
00AA14  .dc.b 00 00 00 00 00 00 00 00 00 00 00 00 00 00 00 00 ; ................
00AA24  .dc.b 00 00 00 00 00 00 00 00 00 00 00 00 00 00 00 00 ; ................
00AA34  .dc.b 00 00 00 00 00 00 00 00 00 00 00 00 00 00 00 00 ; ................
00AA44  .dc.b 00 00 00 00 00 00 00 00 00 00 00 00 00 00 00 00 ; ................
00AA54  .dc.b 00 00 00 00 00 00 00 00 00 00 00 00 00 00 00 00 ; ................
00AA64  .dc.b 00 00 00 00 00 00 00 00 00 00 00 00 00 00 00 00 ; ................
00AA74  .dc.b 00 00 00 00 00 00 00 00 00 00 00 00 00 00 00 00 ; ................
00AA84  .dc.b 00 00 00 00 00 00 00 00 00 00 00 00 00 00 00 00 ; ................
00AA94  .dc.b 00 00 00 00 00 00 00 00 00 00 00 00 00 00 00 00 ; ................
00AAA4  .dc.b 00 00 00 00 00 00 00 00 00 00 00 00 00 00 00 00 ; ................
00AAB4  .dc.b 00 00 00 00 00 00 00 00 00 00 00 00 00 00 00 00 ; ................
00AAC4  .dc.b 00 00 00 00 00 00 00 00 00 00 00 00 00 00 00 00 ; ................
00AAD4  .dc.b 00 00 00 00 00 00 00 00 00 00 00 00 00 00 00 00 ; ................
00AAE4  .dc.b 00 00 00 00 00 00 00 00 00 00 00 00 00 00 00 00 ; ................
00AAF4  .dc.b 00 00 00 00 00 00 00 00 00 00 00 00 00 00 00 00 ; ................
00AB04  .dc.b 00 00 00 00 00 00 00 00 00 00 00 00 00 00 00 00 ; ................
00AB14  .dc.b 00 00 00 00 00 00 00 00 00 00 00 00 00 00 00 00 ; ................
00AB24  .dc.b 00 00 00 00 00 00 00 00 00 00 00 00 00 00 00 00 ; ................
00AB34  .dc.b 00 00 00 00 00 00 00 00 00 00 00 00 00 00 00 00 ; ................
00AB44  .dc.b 00 00 00 00 00 00 00 00 00 00 00 00 00 00 00 00 ; ................
00AB54  .dc.b 00 00 00 00 00 00 00 00 00 00 00 00 00 00 00 00 ; ................
00AB64  .dc.b 00 00 00 00 00 00 00 00 00 00 00 00 00 00 00 00 ; ................
00AB74  .dc.b 00 00 00 00 00 00 00 00 00 00 00 00 00 00 00 00 ; ................
00AB84  .dc.b 00 00 00 00 00 00 00 00 00 00 00 00 00 00 00 00 ; ................
00AB94  .dc.b 00 00 00 00 00 00 00 00 00 00 00 00 00 00 00 00 ; ................
00ABA4  .dc.b 00 00 00 00 00 00 00 00 00 00 00 00 00 00 00 00 ; ................
00ABB4  .dc.b 00 00 00 00 00 00 00 00 00 00 00 00 00 00 00 00 ; ................
00ABC4  .dc.b 00 00 00 00 00 00 00 00 00 00 00 00 00 00 00 00 ; ................
00ABD4  .dc.b 00 00 00 00 00 00 00 00 00 00 00 00 00 00 00 00 ; ................
00ABE4  .dc.b 00 00 00 00 00 00 00 00 00 00 00 00 00 00 00 00 ; ................
00ABF4  .dc.b 00 00 00 00 00 00 00 00 00 00 00 00 00 00 00 00 ; ................
00AC04  .dc.b 00 00 00 00 00 00 00 00 00 00 00 00 00 00 00 00 ; ................
00AC14  .dc.b 00 00 00 00 00 00 00 00 00 00 00 00 00 00 00 00 ; ................
00AC24  .dc.b 00 00 00 00 00 00 00 00 00 00 00 00 00 00 00 00 ; ................
00AC34  .dc.b 00 00 00 00 00 00 00 00 00 00 00 00 00 00 00 00 ; ................
00AC44  .dc.b 00 00 00 00 00 00 00 00 00 00 00 00 00 00 00 00 ; ................
00AC54  .dc.b 00 00 00 00 00 00 00 00 00 00 00 00 00 00 00 00 ; ................
00AC64  .dc.b 00 00 00 00 00 00 00 00 00 00 00 00 00 00 00 00 ; ................
00AC74  .dc.b 00 00 00 00 00 00 00 00 00 00 00 00 00 00 00 00 ; ................
00AC84  .dc.b 00 00 00 00 00 00 00 00 00 00 00 00 00 00 00 00 ; ................
00AC94  .dc.b 00 00 00 00 00 00 00 00 00 00 00 00 00 00 00 00 ; ................
00ACA4  .dc.b 00 00 00 00 00 00 00 00 00 00 00 00 00 00 00 00 ; ................
00ACB4  .dc.b 00 00 00 00 00 00 00 00 00 00 00 00 00 00 00 00 ; ................
00ACC4  .dc.b 00 00 00 00 00 00 00 00 00 00 00 00 00 00 00 00 ; ................
00ACD4  .dc.b 00 00 00 00 00 00 00 00 00 00 00 00 00 00 00 00 ; ................
00ACE4  .dc.b 00 00 00 00 00 00 00 00 00 00 00 00 00 00 00 00 ; ................
00ACF4  .dc.b 00 00 00 00 00 00 00 00 00 00 00 00 00 00 00 00 ; ................
00AD04  .dc.b 00 00 00 00 00 00 00 00 00 00 00 00 00 00 00 00 ; ................
00AD14  .dc.b 00 00 00 00 00 00 00 00 00 00 00 00 00 04 00 04 ; ................
00AD24  .dc.b 00 06 00 02 00 06 00 03 00 05 00 07 35 2C 00 0A ; ............5,..
00AD34  .dc.b 55 29 7F B5 6A 13 14 2A 55 56 7F D5 35 26 01 E0 ; U)..j..*UV..5&..
00AD44  .dc.b 00 DC 00 F9 00 2D 00 60 00 00 00 01 00 01 00 00 ; .....-.`........
00AD54  .dc.b 00 03 00 01 00 01 00 01 00 04 00 01 00 03 00 02 ; ................
00AD64  .dc.b 00 0C 00 07 00 1D 00 03 00 16 00 02 00 15 00 00 ; ................
00AD74  .dc.b 00 2A 00 08 00 14 00 0C 00 14 00 0C 00 6C 00 3C ; .*...........l.<
00AD84  .dc.b 00 2C 00 1C 00 16 00 3E 00 4C 00 1C 00 E4 00 04 ; .,.....>.L......
00AD94  .dc.b 01 F2 00 00 00 00 00 00 00 00 00 00 00 00 00 00 ; ................
00ADA4  .dc.b 00 00 00 00 00 00 00 00 00 00 00 00 00 00 00 00 ; ................
00ADB4  .dc.b 00 00 00 00 00 00 00 04 00 04 00 02 00 02 00 05 ; ................
00ADC4  .dc.b 00 00 00 07 00 00 00 07 20 0E 1F B5 7F BD 80 4A ; ........ ......J
00ADD4  .dc.b 7F FB 6A 15 7E 37 80 0A 20 19 1E 00 01 02 00 20 ; ..j.~7.. ...... 
00ADE4  .dc.b 00 1F 00 61 00 02 00 00 00 01 00 00 00 02 00 01 ; ...a............
00ADF4  .dc.b 00 02 00 00 00 06 00 00 00 05 00 01 00 08 00 00 ; ................
00AE04  .dc.b 00 04 00 04 00 09 00 08 00 1B 00 02 00 36 00 00 ; .............6..
00AE14  .dc.b 00 32 00 10 00 32 00 10 00 42 00 00 00 62 00 20 ; .2...2...B...b. 
00AE24  .dc.b 00 40 00 0E 00 22 00 38 00 1A 00 18 00 0E 00 0C ; .@...".8........
00AE34  .dc.b 00 00 00 00 00 00 00 00 00 00 00 00 15 00 1A 00 ; ................
00AE44  .dc.b 5A 80 66 00 E4 40 8C 00 74 00 04 00 DA 00 9A 00 ; Z.f..@..t.......
00AE54  .dc.b A5 48 6D 08 9A D0 04 10 53 A8 33 20 2C 38 EF F0 ; .Hm.....S.3 ,8..
00AE64  .dc.b 4B 98 AF F8 35 30 09 E0 EE A0 E3 60 E8 A0 19 60 ; K...50.....`...`
00AE74  .dc.b F5 A0 F1 60 4A 50 00 C0 9A B0 5C 00 41 E0 DF 00 ; ...`JP....\.A...
00AE84  .dc.b CE C0 CE 00 97 00 88 00 31 80 49 00 2E 80 5A 00 ; ........1.I...Z.
00AE94  .dc.b C2 80 76 00 1D 40 B3 00 B3 40 85 00 68 80 03 80 ; ..v..@...@..h...
00AEA4  .dc.b 84 E0 00 00 01 A0 00 00 01 00 00 80 02 C0 01 C0 ; ................
00AEB4  .dc.b 00 D0 01 C0 01 D0 00 C0 01 C0 00 C0 00 B8 01 F0 ; ................
00AEC4  .dc.b 01 48 00 C0 03 88 00 00 07 C0 00 00 00 00 00 00 ; .H..............
00AED4  .dc.b 00 00 00 00 00 00 00 00 25 00 04 00 19 80 18 00 ; ........%.......
00AEE4  .dc.b 13 C0 60 00 9B C0 00 00 05 C0 F0 00 92 C8 80 00 ; ..`.............
00AEF4  .dc.b FB D0 18 08 4C A0 03 18 14 20 CF F8 50 90 41 F8 ; ....L.... ..P.A.
00AF04  .dc.b 06 10 F4 00 E0 90 1C 80 FA 90 E4 80 F2 90 0C 80 ; ................
00AF14  .dc.b 95 30 69 00 A3 50 83 40 20 20 00 00 31 C0 00 00 ; .0i..P.@  ..1...
00AF24  .dc.b 70 00 8F 00 FA 80 35 00 79 80 A4 00 F1 80 88 00 ; p.....5.y.......
00AF34  .dc.b 34 C0 4C 00 4A C0 32 00 EC 40 00 00 87 20 03 00 ; 4.L.J.2..@... ..
00AF44  .dc.b 02 60 02 00 03 60 01 00 02 20 00 00 00 30 00 00 ; .`...`... ...0..
00AF54  .dc.b 01 30 01 00 01 30 01 00 00 08 00 70 00 38 00 C0 ; .0...0.....p.8..
00AF64  .dc.b 00 78 00 60 00 30 00 30 00 00 00 00 00 00 00 00 ; .x.`.0.0........
00AF74  .dc.b 00 00 00 00 00 A8 00 58 01 5A 00 66 02 27 00 31 ; .......X.Z.f.'.1
00AF84  .dc.b 00 2E 00 20 00 5B 00 59 12 A5 10 B6 0B 59 08 20 ; ... .[.Y.....Y. 
00AF94  .dc.b 15 CA 04 CC 1C 34 0F F7 19 D2 1F F5 0C AC 07 90 ; .....4..........
00AFA4  .dc.b 05 77 06 C7 05 17 06 98 05 AF 06 8F 0A 52 03 00 ; .w...........R..
00AFB4  .dc.b 0D 59 00 3A 07 82 00 FB 03 73 00 73 00 E9 00 11 ; .Y.:.....s.s....
00AFC4  .dc.b 01 8C 00 92 01 74 00 5A 01 43 00 6E 02 B8 00 CD ; .....t.Z.C.n....
00AFD4  .dc.b 02 CD 00 A1 01 16 01 C0 07 21 00 00 05 80 00 00 ; .........!......
00AFE4  .dc.b 00 80 01 00 03 40 03 80 0B 00 03 80 0B 80 03 00 ; .....@..........
00AFF4  .dc.b 03 80 03 00 1D 00 0F 80 12 80 03 00 11 C0 00 00 ; ................
00B004  .dc.b 03 E0 00 00 00 00 00 00 00 00 00 00 00 00 00 00 ; ................
00B014  .dc.b 00 A4 00 20 01 98 00 18 03 C8 00 06 03 D9 00 00 ; ... ............
00B024  .dc.b 03 A0 00 0F 13 49 00 01 0B DF 10 18 05 32 18 C0 ; .....I.......2..
00B034  .dc.b 04 28 1F F3 09 0A 1F 82 08 60 00 2F 09 07 01 38 ; .(.......`./...8
00B044  .dc.b 09 5F 01 27 09 4F 01 30 0C A9 00 96 0A C5 02 C1 ; ._.'.O.0........
00B054  .dc.b 04 04 00 00 03 8C 00 00 00 0E 00 F1 01 5F 00 AC ; ............._..
00B064  .dc.b 01 9E 00 25 01 8F 00 11 03 2C 00 32 03 52 00 4C ; ...%.....,.2.R.L
00B074  .dc.b 02 37 00 00 04 E1 00 C0 06 40 00 40 06 C0 00 80 ; .7.......@.@....
00B084  .dc.b 04 40 00 00 0C 00 00 00 0C 80 00 80 0C 80 00 80 ; .@..............
00B094  .dc.b 10 00 0E 00 1C 00 03 00 1E 00 06 00 0C 00 0C 00 ; ................
00B0A4  .dc.b 00 00 00 00 00 00 00 00 00 00 00 00 00 00 00 00 ; ................
00B0B4  .dc.b 00 00 00 00 00 00 00 00 00 00 00 00 00 00 00 00 ; ................
00B0C4  .dc.b 00 00 00 00 20 00 20 00 60 00 40 00 60 00 C0 00 ; .... . .`.@.`...
00B0D4  .dc.b A0 00 E0 00 34 AC 50 00 94 AA AD FE C8 56 54 28 ; ....4.P......VT(
00B0E4  .dc.b 6A AA AB FE 64 AC 07 80 3B 00 9F 00 B4 00 06 00 ; j...d...;.......
00B0F4  .dc.b 00 00 80 00 80 00 00 00 C0 00 80 00 80 00 80 00 ; ................
00B104  .dc.b 20 00 80 00 C0 00 40 00 30 00 E0 00 B8 00 C0 00 ;  .....@.0.......
00B114  .dc.b 68 00 40 00 A8 00 00 00 54 00 10 00 28 00 30 00 ; h.@.....T...(.0.
00B124  .dc.b 28 00 30 00 36 00 3C 00 34 00 38 00 68 00 7C 00 ; (.0.6.<.4.8.h.|.
00B134  .dc.b 32 00 38 00 27 00 20 00 4F 80 00 00 00 00 00 00 ; 2.8.'. .O.......
00B144  .dc.b 00 00 00 00 00 00 00 00 00 00 00 00 00 00 00 00 ; ................
00B154  .dc.b 00 00 00 00 00 00 00 00 00 00 00 00 00 00 20 00 ; .............. .
00B164  .dc.b 20 00 40 00 40 00 A0 00 00 00 E0 00 00 00 E0 00 ;  .@.@...........
00B174  .dc.b 70 04 AD F8 BD FE 52 01 DF FE A8 56 EC 7E 50 01 ; p.....R....V.~P.
00B184  .dc.b 98 04 00 78 40 80 04 00 F8 00 86 00 40 00 00 00 ; ...x@.......@...
00B194  .dc.b 80 00 00 00 40 00 80 00 40 00 00 00 60 00 00 00 ; ....@...@...`...
00B1A4  .dc.b A0 00 80 00 10 00 00 00 20 00 20 00 90 00 10 00 ; ........ . .....
00B1B4  .dc.b D8 00 40 00 6C 00 00 00 4C 00 08 00 4C 00 08 00 ; ..@.l...L...L...
00B1C4  .dc.b 42 00 00 00 46 00 04 00 02 00 70 00 44 00 1C 00 ; B...F.....p.D...
00B1D4  .dc.b 58 00 18 00 70 00 30 00 00 00 00 00 00 00 00 00 ; X...p.0.........
00B1E4  .dc.b 00 00 00 00 00 00 00 00 00 00 00 00 00 00 00 00 ; ................
00B1F4  .dc.b 00 00 00 00 00 00 00 00 00 00 00 00 00 00 00 00 ; ................
00B204  .dc.b 00 00 00 00 00 00 00 00 00 00 00 00 00 00 00 00 ; ................
00B214  .dc.b 00 00 00 00 00 00 00 00 00 00 00 00 00 00 00 00 ; ................
00B224  .dc.b 00 04 00 04 00 06 00 02 00 06 00 03 00 05 00 07 ; ................
00B234  .dc.b 35 2C 00 0A 55 29 7F B5 6A 13 14 2A 55 56 7F D5 ; 5,..U)..j..*UV..
00B244  .dc.b 35 26 01 E0 00 DC 00 F9 00 2D 00 60 00 18 00 01 ; 5&.......-.`....
00B254  .dc.b 00 2D 00 0E 00 6E 00 06 00 73 00 00 00 54 00 18 ; .-...n...s...T..
00B264  .dc.b 00 29 00 0F 00 14 00 07 00 0C 00 00 00 0E 00 00 ; .)..............
00B274  .dc.b 00 1F 00 00 00 00 00 00 00 00 00 00 00 00 00 00 ; ................
00B284  .dc.b 00 00 00 00 00 00 00 00 00 00 00 00 00 00 00 00 ; ................
00B294  .dc.b 00 00 00 00 00 00 00 00 00 00 00 00 00 00 00 00 ; ................
00B2A4  .dc.b 00 00 00 00 00 00 00 00 00 00 00 00 00 00 00 00 ; ................
00B2B4  .dc.b 00 00 00 00 00 00 00 00 00 00 00 04 00 04 00 02 ; ................
00B2C4  .dc.b 00 02 00 05 00 00 00 07 00 00 00 07 20 0E 1F B5 ; ............ ...
00B2D4  .dc.b 7F BD 80 4A 7F FB 6A 15 7E 37 80 0A 20 19 1E 00 ; ...J..j.~7.. ...
00B2E4  .dc.b 01 02 00 20 00 1F 00 61 00 06 00 18 00 31 00 00 ; ... ...a.....1..
00B2F4  .dc.b 00 51 00 10 00 0D 00 0C 00 66 00 04 00 30 00 01 ; .Q.......f...0..
00B304  .dc.b 00 18 00 02 00 0B 00 03 00 01 00 01 00 00 00 00 ; ................
00B314  .dc.b 00 00 00 00 00 00 00 00 00 00 00 00 00 00 00 00 ; ................
00B324  .dc.b 00 00 00 00 00 00 00 00 00 00 00 00 00 00 00 00 ; ................
00B334  .dc.b 00 00 00 00 00 00 00 00 00 00 00 00 00 00 00 00 ; ................
00B344  .dc.b 15 00 1A 00 5A 80 66 00 E4 40 8C 00 74 00 04 00 ; ....Z.f..@..t...
00B354  .dc.b DA 00 9A 00 A5 48 6D 08 9A D0 04 10 53 A8 33 20 ; .....Hm.....S.3 
00B364  .dc.b 2C 38 EF F0 4B 98 AF F8 35 30 09 E0 EE A0 E3 60 ; ,8..K...50.....`
00B374  .dc.b E8 A0 19 60 F5 A0 F1 60 4A 50 00 C0 9A B0 5C 00 ; ...`...`JP....\.
00B384  .dc.b 41 E0 DF 00 CE C0 CE 00 0F 00 C0 00 55 00 1C 00 ; A...........U...
00B394  .dc.b D5 00 1C 00 56 00 1C 00 52 60 18 20 D5 02 19 F0 ; ....V...R`. ....
00B3A4  .dc.b 78 66 13 F0 34 0F 00 00 09 E7 00 00 00 00 00 00 ; xf..4...........
00B3B4  .dc.b 00 00 00 00 00 00 00 00 00 00 00 00 00 00 00 00 ; ................
00B3C4  .dc.b 00 00 00 00 00 00 00 00 00 00 00 00 00 00 00 00 ; ................
00B3D4  .dc.b 00 00 00 00 00 00 00 00 00 00 00 00 25 00 04 00 ; ............%...
00B3E4  .dc.b 19 80 18 00 13 C0 60 00 9B C0 00 00 05 C0 F0 00 ; ......`.........
00B3F4  .dc.b 92 C8 80 00 FB D0 18 08 4C A0 03 18 14 20 CF F8 ; ........L.... ..
00B404  .dc.b 50 90 41 F8 06 10 F4 00 E0 90 1C 80 FA 90 E4 80 ; P.A.............
00B414  .dc.b F2 90 0C 80 95 30 69 00 A3 50 83 40 20 20 00 00 ; .....0i..P.@  ..
00B424  .dc.b 31 C0 00 00 3C 00 C3 00 E3 00 00 00 E3 00 00 00 ; 1...<...........
00B434  .dc.b 62 00 00 00 66 5E 00 26 E2 0C 00 2C E4 08 04 18 ; b...f^.&...,....
00B444  .dc.b AB F0 88 00 C7 E0 C0 00 00 00 00 00 00 00 00 00 ; ................
00B454  .dc.b 00 00 00 00 00 00 00 00 00 00 00 00 00 00 00 00 ; ................
00B464  .dc.b 00 00 00 00 00 00 00 00 00 00 00 00 00 00 00 00 ; ................
00B474  .dc.b 00 00 00 00 00 00 00 00 00 A8 00 58 01 5A 00 66 ; ...........X.Z.f
00B484  .dc.b 02 27 00 31 00 2E 00 20 00 5B 00 59 12 A5 10 B6 ; .'.1... .[.Y....
00B494  .dc.b 0B 59 08 20 15 CA 04 CC 1C 34 0F F7 19 D2 1F F5 ; .Y. .....4......
00B4A4  .dc.b 0C AC 07 90 05 77 06 C7 05 17 06 98 05 AF 06 8F ; .....w..........
00B4B4  .dc.b 0A 52 03 00 0D 59 00 3A 07 82 00 FB 03 73 00 73 ; .R...Y.:.....s.s
00B4C4  .dc.b 00 F0 00 03 00 AA 00 38 00 AB 00 38 00 6A 00 38 ; .......8...8.j.8
00B4D4  .dc.b 06 4A 04 18 40 AB 0F 98 66 1E 0F C8 F0 2C 00 00 ; .J..@...f....,..
00B4E4  .dc.b E7 90 00 00 00 00 00 00 00 00 00 00 00 00 00 00 ; ................
00B4F4  .dc.b 00 00 00 00 00 00 00 00 00 00 00 00 00 00 00 00 ; ................
00B504  .dc.b 00 00 00 00 00 00 00 00 00 00 00 00 00 00 00 00 ; ................
00B514  .dc.b 00 00 00 00 00 A4 00 20 01 98 00 18 03 C8 00 06 ; ....... ........
00B524  .dc.b 03 D9 00 00 03 A0 00 0F 13 49 00 01 0B DF 10 18 ; .........I......
00B534  .dc.b 05 32 18 C0 04 28 1F F3 09 0A 1F 82 08 60 00 2F ; .2...(.......`./
00B544  .dc.b 09 07 01 38 09 5F 01 27 09 4F 01 30 0C A9 00 96 ; ...8._.'.O.0....
00B554  .dc.b 0A C5 02 C1 04 04 00 00 03 8C 00 00 00 3C 00 C3 ; .............<..
00B564  .dc.b 00 C7 00 00 00 C7 00 00 00 46 00 00 7A 66 64 00 ; .........F..zfd.
00B574  .dc.b 30 47 34 00 10 27 18 20 0F D5 00 11 07 E3 00 03 ; 0G4..'. ........
00B584  .dc.b 00 00 00 00 00 00 00 00 00 00 00 00 00 00 00 00 ; ................
00B594  .dc.b 00 00 00 00 00 00 00 00 00 00 00 00 00 00 00 00 ; ................
00B5A4  .dc.b 00 00 00 00 00 00 00 00 00 00 00 00 00 00 00 00 ; ................
00B5B4  .dc.b 00 00 00 00 00 00 00 00 00 00 00 00 00 00 00 00 ; ................
00B5C4  .dc.b 00 00 00 00 00 00 00 00 20 00 20 00 60 00 40 00 ; ........ . .`.@.
00B5D4  .dc.b 60 00 C0 00 A0 00 E0 00 34 AC 50 00 94 AA AD FE ; `.......4.P.....
00B5E4  .dc.b C8 56 54 28 6A AA AB FE 64 AC 07 80 3B 00 9F 00 ; .VT(j...d...;...
00B5F4  .dc.b B4 00 06 00 18 00 80 00 B4 00 70 00 76 00 60 00 ; ..........p.v.`.
00B604  .dc.b CE 00 00 00 2A 00 18 00 94 00 F0 00 28 00 E0 00 ; ....*.......(...
00B614  .dc.b 30 00 00 00 70 00 00 00 F8 00 00 00 00 00 00 00 ; 0...p...........
00B624  .dc.b 00 00 00 00 00 00 00 00 00 00 00 00 00 00 00 00 ; ................
00B634  .dc.b 00 00 00 00 00 00 00 00 00 00 00 00 00 00 00 00 ; ................
00B644  .dc.b 00 00 00 00 00 00 00 00 00 00 00 00 00 00 00 00 ; ................
00B654  .dc.b 00 00 00 00 00 00 00 00 00 00 00 00 00 00 00 00 ; ................
00B664  .dc.b 00 00 20 00 20 00 40 00 40 00 A0 00 00 00 E0 00 ; .. . .@.@.......
00B674  .dc.b 00 00 E0 00 70 04 AD F8 BD FE 52 01 DF FE A8 56 ; ....p.....R....V
00B684  .dc.b EC 7E 50 01 98 04 00 78 40 80 04 00 F8 00 86 00 ; .~P....x@.......
00B694  .dc.b 60 00 18 00 8C 00 00 00 8A 00 08 00 B0 00 30 00 ; `.............0.
00B6A4  .dc.b 66 00 20 00 0C 00 80 00 18 00 40 00 D0 00 C0 00 ; f. .......@.....
00B6B4  .dc.b 80 00 80 00 00 00 00 00 00 00 00 00 00 00 00 00 ; ................
00B6C4  .dc.b 00 00 00 00 00 00 00 00 00 00 00 00 00 00 00 00 ; ................
00B6D4  .dc.b 00 00 00 00 00 00 00 00 00 00 00 00 00 04 00 04 ; ................
00B6E4  .dc.b 00 06 00 02 00 06 00 03 00 05 00 07 35 2C 00 0A ; ............5,..
00B6F4  .dc.b 55 29 7F B5 6A 13 14 2A 55 56 7F D5 35 26 01 E0 ; U)..j..*UV..5&..
00B704  .dc.b 00 DC 00 F9 00 2D 00 60 00 00 00 01 00 02 00 00 ; .....-.`........
00B714  .dc.b 00 00 00 00 00 04 00 01 00 09 00 02 00 16 00 05 ; ................
00B724  .dc.b 00 19 00 07 00 16 00 02 00 2D 00 00 00 14 00 0C ; .........-......
00B734  .dc.b 00 14 00 0C 00 6C 00 3C 00 2C 00 1C 00 16 00 3E ; .....l.<.,.....>
00B744  .dc.b 00 4C 00 1C 00 E4 00 04 01 F2 00 00 00 00 00 00 ; .L..............
00B754  .dc.b 00 00 00 00 00 00 00 00 00 00 00 00 00 00 00 00 ; ................
00B764  .dc.b 00 00 00 00 00 00 00 00 00 00 00 00 00 00 00 00 ; ................
00B774  .dc.b 00 00 00 00 00 00 00 04 00 04 00 02 00 02 00 05 ; ................
00B784  .dc.b 00 00 00 07 00 00 00 07 20 0E 1F B5 7F BD 80 4A ; ........ ......J
00B794  .dc.b 7F FB 6A 15 7E 37 80 0A 20 19 1E 00 01 02 00 20 ; ..j.~7.. ...... 
00B7A4  .dc.b 00 1F 00 61 00 02 00 00 00 03 00 00 00 03 00 00 ; ...a............
00B7B4  .dc.b 00 06 00 00 00 0D 00 01 00 1A 00 02 00 00 00 00 ; ................
00B7C4  .dc.b 00 09 00 08 00 33 00 02 00 32 00 10 00 32 00 10 ; .....3...2...2..
00B7D4  .dc.b 00 42 00 00 00 62 00 20 00 40 00 0E 00 22 00 38 ; .B...b. .@...".8
00B7E4  .dc.b 00 1A 00 18 00 0E 00 0C 00 00 00 00 00 00 00 00 ; ................
00B7F4  .dc.b 00 00 00 00 00 00 00 00 00 00 00 00 15 00 1A 00 ; ................
00B804  .dc.b 5A 80 66 00 E4 40 8C 00 74 00 04 00 DA 00 9A 00 ; Z.f..@..t.......
00B814  .dc.b A5 48 6D 08 9A D0 04 10 53 A8 33 20 2C 38 EF F0 ; .Hm.....S.3 ,8..
00B824  .dc.b 4B 98 AF F8 35 30 09 E0 EE A0 E3 60 E8 A0 19 60 ; K...50.....`...`
00B834  .dc.b F5 A0 F1 60 4A 50 00 C0 9A B0 5C 00 41 E0 DF 00 ; ...`JP....\.A...
00B844  .dc.b CE C0 CE 00 31 00 30 00 49 00 A0 00 44 00 A4 00 ; ....1.0.I...D...
00B854  .dc.b BA 80 EE 00 06 80 4A 00 6C 80 0A 00 95 80 07 00 ; ......J.l.......
00B864  .dc.b 0B 00 02 00 06 90 00 40 03 E4 00 64 01 34 00 7C ; .......@...d.4.|
00B874  .dc.b 00 94 00 3C 00 29 00 18 00 1B 00 08 00 0F 00 00 ; ...<.)..........
00B884  .dc.b 00 03 00 00 00 01 00 00 00 00 00 00 00 00 00 00 ; ................
00B894  .dc.b 00 00 00 00 00 00 00 00 25 00 04 00 19 80 18 00 ; ........%.......
00B8A4  .dc.b 13 C0 60 00 9B C0 00 00 05 C0 F0 00 92 C8 80 00 ; ..`.............
00B8B4  .dc.b FB D0 18 08 4C A0 03 18 14 20 CF F8 50 90 41 F8 ; ....L.... ..P.A.
00B8C4  .dc.b 06 10 F4 00 E0 90 1C 80 FA 90 E4 80 F2 90 0C 80 ; ................
00B8D4  .dc.b 95 30 69 00 A3 50 83 40 20 20 00 00 31 C0 00 00 ; .0i..P.@  ..1...
00B8E4  .dc.b CF 00 30 00 E7 00 58 00 EB 00 50 00 E1 80 10 00 ; ..0...X...P.....
00B8F4  .dc.b 55 80 A4 00 95 80 64 00 98 00 00 00 0C C0 00 80 ; U.....d.........
00B904  .dc.b 05 30 01 00 00 98 00 84 01 82 00 0C 00 C3 00 0B ; .0..............
00B914  .dc.b 00 26 00 06 00 14 00 04 00 08 00 00 00 00 00 00 ; .&..............
00B924  .dc.b 00 00 00 00 00 00 00 00 00 00 00 00 00 00 00 00 ; ................
00B934  .dc.b 00 00 00 00 00 00 00 00 00 00 00 00 00 00 00 00 ; ................
00B944  .dc.b 00 00 00 00 00 00 00 00 00 00 00 00 00 04 00 04 ; ................
00B954  .dc.b 00 06 00 02 00 06 00 03 00 05 00 07 35 2C 00 0A ; ............5,..
00B964  .dc.b 55 29 7F B5 6A 13 14 2A 55 56 7F D5 35 26 01 E0 ; U)..j..*UV..5&..
00B974  .dc.b 00 DC 00 F9 00 2D 00 60 00 00 00 01 00 02 00 00 ; .....-.`........
00B984  .dc.b 00 01 00 00 00 02 00 00 00 04 00 01 00 03 00 02 ; ................
00B994  .dc.b 00 0E 00 05 00 15 00 03 00 1A 00 00 00 35 00 08 ; .............5..
00B9A4  .dc.b 00 2E 00 3C 00 7A 00 18 00 3C 00 78 00 24 00 7C ; ...<.z...<.x.$.|
00B9B4  .dc.b 00 94 00 30 01 C0 00 00 03 E0 00 00 00 00 00 00 ; ...0............
00B9C4  .dc.b 00 00 00 00 00 00 00 00 00 00 00 00 00 00 00 00 ; ................
00B9D4  .dc.b 00 00 00 00 00 00 00 00 00 00 00 00 00 00 00 00 ; ................
00B9E4  .dc.b 00 00 00 00 00 00 00 04 00 04 00 02 00 02 00 05 ; ................
00B9F4  .dc.b 00 00 00 07 00 00 00 07 20 0E 1F B5 7F BD 80 4A ; ........ ......J
00BA04  .dc.b 7F FB 6A 15 7E 37 80 0A 20 19 1E 00 01 02 00 20 ; ..j.~7.. ...... 
00BA14  .dc.b 00 1F 00 61 00 02 00 00 00 03 00 00 00 01 00 00 ; ...a............
00BA24  .dc.b 00 03 00 00 00 06 00 00 00 05 00 01 00 02 00 02 ; ................
00BA34  .dc.b 00 08 00 08 00 15 00 04 00 33 00 12 00 02 00 00 ; .........3......
00BA44  .dc.b 00 66 00 20 00 04 00 00 00 80 00 1C 00 4C 00 70 ; .f. .........L.p
00BA54  .dc.b 00 38 00 30 00 18 00 18 00 00 00 00 00 00 00 00 ; .8.0............
00BA64  .dc.b 00 00 00 00 00 00 00 00 00 00 00 00 15 00 1A 00 ; ................
00BA74  .dc.b 5A 80 66 00 E4 40 8C 00 74 00 04 00 DA 00 9A 00 ; Z.f..@..t.......
00BA84  .dc.b A5 48 6D 08 9A D0 04 10 53 A8 33 20 2C 38 EF F0 ; .Hm.....S.3 ,8..
00BA94  .dc.b 4B 98 AF F8 35 30 09 E0 EE A0 E3 60 E8 A0 19 60 ; K...50.....`...`
00BAA4  .dc.b F5 A0 F1 60 4A 50 00 C0 9A B0 5C 00 41 E0 DF 00 ; ...`JP....\.A...
00BAB4  .dc.b CE C0 CE 00 31 00 30 00 69 00 A8 00 45 00 8C 00 ; ....1.0.i...E...
00BAC4  .dc.b A4 00 CC 00 1A 00 56 00 FD 80 8B 00 55 40 06 00 ; ......V.....U@..
00BAD4  .dc.b 8A 88 00 48 05 E1 00 78 03 B3 01 78 00 87 00 38 ; ...H...x...x...8
00BAE4  .dc.b 00 17 00 04 00 01 00 00 00 00 00 00 00 00 00 00 ; ................
00BAF4  .dc.b 00 00 00 00 00 00 00 00 00 00 00 00 00 00 00 00 ; ................
00BB04  .dc.b 00 00 00 00 00 00 00 00 25 00 04 00 19 80 18 00 ; ........%.......
00BB14  .dc.b 13 C0 60 00 9B C0 00 00 05 C0 F0 00 92 C8 80 00 ; ..`.............
00BB24  .dc.b FB D0 18 08 4C A0 03 18 14 20 CF F8 50 90 41 F8 ; ....L.... ..P.A.
00BB34  .dc.b 06 10 F4 00 E0 90 1C 80 FA 90 E4 80 F2 90 0C 80 ; ................
00BB44  .dc.b 95 30 69 00 A3 50 83 40 20 20 00 00 31 C0 00 00 ; .0i..P.@  ..1...
00BB54  .dc.b CF 00 30 00 F7 00 40 00 D3 00 60 00 D3 00 20 00 ; ..0...@...`... .
00BB64  .dc.b 69 00 88 00 34 80 44 00 D8 C0 00 80 8D 37 01 0B ; i...4.D......7..
00BB74  .dc.b 02 86 02 9E 00 84 00 8C 00 C0 00 00 00 18 00 00 ; ................
00BB84  .dc.b 00 00 00 00 00 00 00 00 00 00 00 00 00 00 00 00 ; ................
00BB94  .dc.b 00 00 00 00 00 00 00 00 00 00 00 00 00 00 00 00 ; ................
00BBA4  .dc.b 00 00 00 00 00 00 00 00 00 00 00 00 00 00 00 00 ; ................
00BBB4  .dc.b 00 00 00 00 00 00 00 00 00 00 00 00 00 02 00 02 ; ................
00BBC4  .dc.b 00 03 00 01 00 03 00 01 00 02 00 03 1A 90 00 06 ; ................
00BBD4  .dc.b 2A C9 2F CD 00 12 3F 1B 2A A5 2F E7 1A 94 00 F0 ; *./...?.*./.....
00BBE4  .dc.b 00 68 00 7B 00 12 00 31 00 01 00 03 00 00 00 00 ; .h.{...1........
00BBF4  .dc.b 00 00 00 00 00 01 00 00 00 00 00 00 00 01 00 01 ; ................
00BC04  .dc.b 00 02 00 01 00 03 00 00 00 02 00 00 00 05 00 02 ; ................
00BC14  .dc.b 00 02 00 01 00 02 00 01 00 0D 00 07 00 05 00 03 ; ................
00BC24  .dc.b 00 02 00 07 00 09 00 03 00 1C 00 00 00 3E 00 00 ; .............>..
00BC34  .dc.b 00 00 00 00 00 00 00 00 00 00 00 00 00 00 00 00 ; ................
00BC44  .dc.b 00 00 00 00 00 00 00 00 00 00 00 00 00 00 00 00 ; ................
00BC54  .dc.b 00 00 00 00 00 00 00 02 00 02 00 01 00 01 00 02 ; ................
00BC64  .dc.b 00 00 00 03 00 00 00 03 10 06 0F D9 2F CD 50 32 ; ............/.P2
00BC74  .dc.b 3F FB 00 04 2F 17 50 08 10 0B 0F 00 00 84 00 10 ; ?.../.P.........
00BC84  .dc.b 00 0E 00 32 00 04 00 00 00 03 00 00 00 00 00 00 ; ...2............
00BC94  .dc.b 00 01 00 00 00 01 00 00 00 00 00 00 00 02 00 00 ; ................
00BCA4  .dc.b 00 00 00 00 00 01 00 01 00 05 00 01 00 06 00 02 ; ................
00BCB4  .dc.b 00 06 00 02 00 08 00 00 00 0C 00 04 00 08 00 01 ; ................
00BCC4  .dc.b 00 04 00 07 00 03 00 03 00 01 00 01 00 00 00 00 ; ................
00BCD4  .dc.b 00 00 00 00 00 00 00 00 00 00 00 00 15 00 1A 00 ; ................
00BCE4  .dc.b 5A 80 66 00 E4 40 8C 00 74 00 04 00 DA 00 9A 00 ; Z.f..@..t.......
00BCF4  .dc.b A5 50 6D 10 98 A0 04 20 53 D0 33 40 2C 70 EF E0 ; .Pm.... S.3@,p..
00BD04  .dc.b CF 30 AF F0 32 60 0B C0 ED 40 E6 C0 E1 40 12 C0 ; .0..2`...@...@..
00BD14  .dc.b F3 40 F2 C0 94 A0 01 80 35 60 B8 00 83 C0 BE 00 ; .@......5`......
00BD24  .dc.b 9D 80 9C 00 67 00 61 00 5B 00 B8 00 F3 00 B8 00 ; ....g.a.[.......
00BD34  .dc.b 01 00 58 00 AD 14 54 00 EC 79 94 30 AD 0B 94 78 ; ..X...T..y.0...x
00BD44  .dc.b B6 67 1D F8 AD F3 08 F0 9B 49 80 C0 86 40 83 00 ; .g.......I...@..
00BD54  .dc.b 80 00 80 00 80 00 80 00 C0 00 C0 00 80 00 80 00 ; ................
00BD64  .dc.b 80 00 80 00 40 00 00 00 00 00 00 00 00 00 00 00 ; ....@...........
00BD74  .dc.b 00 00 00 00 00 00 00 00 25 00 04 00 19 80 18 00 ; ........%.......
00BD84  .dc.b 13 C0 60 00 9B C0 00 00 05 C0 F0 00 92 D0 80 00 ; ..`.............
00BD94  .dc.b FB A0 18 10 4C C0 83 30 14 40 CF F0 51 20 C3 F0 ; ....L..0.@..Q ..
00BDA4  .dc.b 04 20 F0 00 E1 20 19 00 F5 20 E9 00 F5 20 09 00 ; . ... ... ... ..
00BDB4  .dc.b 2A 60 D2 00 46 A0 06 80 40 40 00 00 63 80 00 00 ; *`..F...@@..c...
00BDC4  .dc.b 9E 00 61 00 E7 00 40 00 E7 00 40 00 47 00 A0 00 ; ..a...@...@.G...
00BDD4  .dc.b 4B 1B A8 03 2A 46 48 26 6B 84 08 34 60 00 00 18 ; K...*FH&k..4`...
00BDE4  .dc.b 73 0C 43 00 55 38 05 00 40 C0 00 00 40 00 00 00 ; s.C.U8..@...@...
00BDF4  .dc.b 40 00 00 00 00 00 C0 00 40 00 00 00 40 00 00 00 ; @.......@...@...
00BE04  .dc.b C0 00 80 00 00 00 00 00 00 00 00 00 00 00 00 00 ; ................
00BE14  .dc.b 00 00 00 00 00 00 00 00 00 00 00 00 00 00 00 00 ; ................
00BE24  .dc.b 00 00 00 00 00 00 00 00 00 01 00 01 00 01 00 00 ; ................
00BE34  .dc.b 00 01 00 01 00 00 00 01 1F DD 00 07 15 4A 15 4E ; .............J.N
00BE44  .dc.b 2A 15 3F 1D 15 A2 15 E3 1E 99 00 F8 00 65 00 77 ; *.?..........e.w
00BE54  .dc.b 00 1B 00 37 00 0A 00 02 00 04 00 00 00 00 00 00 ; ...7............
00BE64  .dc.b 00 00 00 00 00 00 00 00 00 01 00 00 00 01 00 00 ; ................
00BE74  .dc.b 00 00 00 00 00 00 00 00 00 00 00 00 00 00 00 00 ; ................
00BE84  .dc.b 00 00 00 00 00 00 00 00 00 00 00 00 00 01 00 00 ; ................
00BE94  .dc.b 00 00 00 00 00 00 00 00 00 01 00 00 00 03 00 00 ; ................
00BEA4  .dc.b 00 07 00 00 00 00 00 00 00 00 00 00 00 00 00 00 ; ................
00BEB4  .dc.b 00 00 00 00 00 00 00 00 00 00 00 00 00 00 00 00 ; ................
00BEC4  .dc.b 00 00 00 01 00 01 00 00 00 00 00 01 00 00 00 01 ; ................
00BED4  .dc.b 00 00 00 01 15 47 0A 98 15 4E 2A B1 3F FD 00 02 ; .....G...N*.?...
00BEE4  .dc.b 15 1B 2A 04 14 06 0B 01 00 88 00 10 00 08 00 30 ; ..*............0
00BEF4  .dc.b 00 0D 00 00 00 07 00 00 00 00 00 01 00 00 00 01 ; ................
00BF04  .dc.b 00 00 00 01 00 01 00 00 00 01 00 00 00 00 00 00 ; ................
00BF14  .dc.b 00 00 00 00 00 00 00 00 00 00 00 00 00 00 00 00 ; ................
00BF24  .dc.b 00 00 00 00 00 00 00 00 00 01 00 00 00 01 00 00 ; ................
00BF34  .dc.b 00 01 00 00 00 00 00 00 00 00 00 00 00 00 00 00 ; ................
00BF44  .dc.b 00 00 00 00 00 00 00 00 15 00 1A 00 5A 80 66 00 ; ............Z.f.
00BF54  .dc.b 64 40 0C 00 74 00 04 00 DA 00 9A 00 2A 60 FA 20 ; d@..t.......*`. 
00BF64  .dc.b BA C0 24 40 D3 A0 B2 80 28 E0 EF C0 CE 60 AF E0 ; ..$@....(....`..
00BF74  .dc.b 34 C0 07 80 DA 80 CD 80 62 80 85 80 F6 80 F5 80 ; 4.......b.......
00BF84  .dc.b 29 40 03 00 6A C0 70 00 47 80 7C 00 3B 00 38 00 ; )@..j.p.G.|.;.8.
00BF94  .dc.b CF 00 C3 00 9B 00 18 00 AB 00 38 00 7F 00 AC 00 ; ..........8.....
00BFA4  .dc.b F4 00 AC 00 44 20 1C 00 7C A6 54 60 21 2F 4D E0 ; ....D ..|.T`!/M.
00BFB4  .dc.b 2B 5F 48 F0 92 EF 01 E0 BD 98 03 80 58 80 B0 00 ; +_H.........X...
00BFC4  .dc.b A0 00 60 00 E0 00 60 00 68 00 E0 00 58 00 F8 00 ; ..`...`.h...X...
00BFD4  .dc.b 08 00 20 00 88 00 00 00 C8 00 00 00 00 00 00 00 ; .. .............
00BFE4  .dc.b 00 00 00 00 25 00 04 00 19 80 18 00 93 C0 60 00 ; ....%.........`.
00BFF4  .dc.b 9B C0 00 00 05 C0 F0 00 05 E0 00 00 DB C0 18 20 ; ............... 
00C004  .dc.b CD 80 02 60 18 80 CF E0 52 40 C7 E0 08 40 F0 00 ; ...`....R@...@..
00C014  .dc.b C2 40 32 00 EA 40 72 00 FA 40 02 00 54 C0 A4 00 ; .@2..@r..@..T...
00C024  .dc.b 8D 40 0D 00 80 80 00 00 C7 00 00 00 3C 00 C3 00 ; .@..........<...
00C034  .dc.b A7 00 C0 00 87 00 C0 00 D3 00 10 00 D2 00 10 00 ; ................
00C044  .dc.b 62 3C 80 0C AA 98 08 58 B2 10 02 70 B7 00 07 20 ; b<.....X...p... 
00C054  .dc.b 6E 18 4E 00 50 78 40 00 4F 80 40 00 90 00 80 00 ; n.N.Px@.O.@.....
00C064  .dc.b 90 00 80 00 18 00 00 00 00 00 38 00 D8 00 E0 00 ; ..........8.....
00C074  .dc.b 78 00 60 00 38 00 30 00 00 00 00 00 00 00 00 00 ; x.`.8.0.........
00C084  .dc.b 00 00 00 00 00 00 00 00 00 00 00 00 00 00 00 00 ; ................
00C094  .dc.b 00 00 00 00 00 00 00 00 00 00 00 00 00 00 00 00 ; ................
00C0A4  .dc.b 00 00 00 00 00 01 00 01 0F F9 00 03 1A A6 0A A6 ; ................
00C0B4  .dc.b 15 8D 1F 8D 1A F2 0A F3 0F A2 00 30 00 5C 00 04 ; ...........0.\..
00C0C4  .dc.b 00 0C 00 04 00 09 00 00 00 05 00 01 00 00 00 00 ; ................
00C0D4  .dc.b 00 00 00 00 00 00 00 00 00 01 00 00 00 02 00 00 ; ................
00C0E4  .dc.b 00 02 00 00 00 03 00 00 00 02 00 00 00 02 00 00 ; ................
00C0F4  .dc.b 00 01 00 00 00 00 00 00 00 00 00 00 00 00 00 00 ; ................
00C104  .dc.b 00 00 00 00 00 00 00 00 00 00 00 00 00 00 00 00 ; ................
00C114  .dc.b 00 00 00 00 00 00 00 00 00 00 00 00 00 00 00 00 ; ................
00C124  .dc.b 00 00 00 00 00 00 00 00 00 00 00 00 00 00 00 00 ; ................
00C134  .dc.b 00 00 00 00 00 00 00 00 00 00 00 00 00 00 00 00 ; ................
00C144  .dc.b 00 00 00 01 0A A3 05 5C 0A A6 15 59 1F FD 00 02 ; .......\...Y....
00C154  .dc.b 0A 83 15 0C 0A 4C 05 83 00 7B 00 00 00 0B 00 00 ; .....L...{......
00C164  .dc.b 00 0F 00 00 00 06 00 01 00 00 00 00 00 00 00 00 ; ................
00C174  .dc.b 00 00 00 00 00 01 00 00 00 03 00 00 00 03 00 00 ; ................
00C184  .dc.b 00 00 00 00 00 01 00 01 00 01 00 00 00 01 00 00 ; ................
00C194  .dc.b 00 00 00 00 00 00 00 00 00 00 00 00 00 00 00 00 ; ................
00C1A4  .dc.b 00 00 00 00 00 00 00 00 00 00 00 00 00 00 00 00 ; ................
00C1B4  .dc.b 00 00 00 00 00 00 00 00 15 00 1A 00 5A 80 66 00 ; ............Z.f.
00C1C4  .dc.b 68 C0 18 00 68 40 08 00 D4 40 94 00 2C 40 FC 40 ; h...h@...@..,@.@
00C1D4  .dc.b D4 80 6C 80 53 40 33 00 B1 C0 FF 80 DC C0 BF C0 ; ..l.S@3.........
00C1E4  .dc.b 29 C0 0F 00 D5 40 CB 40 65 40 8B 40 ED 40 EB 40 ; )....@.@e@.@.@.@
00C1F4  .dc.b 52 C0 06 00 C5 80 F0 00 CF 80 F8 00 77 80 70 00 ; R...........w.p.
00C204  .dc.b 9F 00 87 00 55 00 1C 00 A5 00 3C 00 EA 00 58 00 ; ....U.....<...X.
00C214  .dc.b 52 00 30 00 A4 00 60 00 6B 00 C3 00 32 80 0F 80 ; R.0...`.k...2...
00C224  .dc.b DE A0 3F 00 7E 60 FE 00 E0 E0 00 00 D7 E0 70 00 ; ..?.~`........p.
00C234  .dc.b 6A 20 18 00 1D 00 0C 00 26 80 0E 80 12 40 07 80 ; j ......&....@..
00C244  .dc.b 0A A0 00 80 07 20 00 00 0F 80 00 00 00 00 00 00 ; ..... ..........
00C254  .dc.b 00 00 00 00 25 00 04 00 19 80 18 00 87 C0 60 00 ; ....%.........`.
00C264  .dc.b 97 C0 00 00 0B C0 E0 00 03 C0 00 00 93 80 10 40 ; ...............@
00C274  .dc.b 4D 00 82 C0 11 00 DF C0 44 80 CF C0 10 C0 E0 00 ; M.......D.......
00C284  .dc.b C4 80 34 40 E4 80 74 40 F4 80 04 40 A9 C0 48 00 ; ..4@..t@...@..H.
00C294  .dc.b 0A 80 0A 00 01 80 00 00 8F 80 00 00 78 00 87 00 ; ............x...
00C2A4  .dc.b 63 00 00 00 C3 00 00 00 A6 00 20 00 CE 00 40 00 ; c......... ...@.
00C2B4  .dc.b 9C 00 80 00 1C E0 03 20 F0 60 F3 60 40 40 41 40 ; ....... .`.`@@A@
00C2C4  .dc.b 01 80 00 80 FF 00 00 00 8F 80 00 00 66 00 20 00 ; ............f. .
00C2D4  .dc.b 33 00 10 00 31 00 00 80 18 40 01 80 0D 60 01 00 ; 3...1....@...`..
00C2E4  .dc.b 00 E0 00 C0 00 60 00 60 00 00 00 00 00 00 00 00 ; .....`.`........
00C2F4  .dc.b 00 00 00 00 00 00 00 00 00 00 00 00 00 00 00 00 ; ................
00C304  .dc.b 00 00 00 00 00 00 00 00 00 00 00 00 00 00 00 00 ; ................
00C314  .dc.b 00 00 00 00 00 00 00 00 0F F9 00 03 15 56 00 06 ; .............V..
00C324  .dc.b 1A 8D 1A 8D 15 72 00 33 0F C4 00 20 00 19 00 09 ; .....r.3... ....
00C334  .dc.b 00 11 00 01 00 12 00 00 00 0F 00 03 00 00 00 00 ; ................
00C344  .dc.b 00 00 00 00 00 00 00 00 00 01 00 00 00 03 00 01 ; ................
00C354  .dc.b 00 04 00 01 00 07 00 00 00 04 00 00 00 04 00 01 ; ................
00C364  .dc.b 00 02 00 00 00 01 00 00 00 00 00 00 00 00 00 00 ; ................
00C374  .dc.b 00 00 00 00 00 00 00 00 00 00 00 00 00 00 00 00 ; ................
00C384  .dc.b 00 00 00 00 00 00 00 00 00 00 00 00 00 00 00 00 ; ................
00C394  .dc.b 00 00 00 00 00 00 00 00 00 00 00 00 00 00 00 00 ; ................
00C3A4  .dc.b 00 00 00 00 00 00 00 00 00 00 00 00 00 00 00 00 ; ................
00C3B4  .dc.b 00 00 00 00 05 53 0A AC 00 06 1F F9 1A BD 05 42 ; .....S.........B
00C3C4  .dc.b 00 03 1F CC 0D 59 02 86 00 36 00 00 00 1E 00 00 ; .....Y...6......
00C3D4  .dc.b 00 1F 00 00 00 0C 00 03 00 00 00 00 00 00 00 00 ; ................
00C3E4  .dc.b 00 00 00 00 00 01 00 00 00 02 00 00 00 06 00 00 ; ................
00C3F4  .dc.b 00 00 00 00 00 03 00 03 00 02 00 00 00 03 00 00 ; ................
00C404  .dc.b 00 01 00 00 00 00 00 00 00 00 00 00 00 00 00 00 ; ................
00C414  .dc.b 00 00 00 00 00 00 00 00 00 00 00 00 00 00 00 00 ; ................
00C424  .dc.b 00 00 00 00 00 00 00 00 15 00 1A 00 5A 80 66 00 ; ............Z.f.
00C434  .dc.b 48 C0 18 00 78 40 18 00 CC 40 8C 00 34 C0 F4 80 ; H...x@...@..4...
00C444  .dc.b 6D 40 5D 00 52 C0 32 00 23 80 7F 00 F9 C0 BF 80 ; m@].R.2.#.......
00C454  .dc.b 33 C0 1E C0 CA E0 D6 E0 4A A0 96 E0 DA A0 D6 60 ; 3.......J......`
00C464  .dc.b A4 E0 0C 60 CB A0 E0 20 9F 60 F0 00 EE 40 E0 00 ; ...`... .`...@..
00C474  .dc.b 3F 80 0F 80 4D 00 1C 00 89 00 38 00 6A 00 58 00 ; ?...M.....8.j.X.
00C484  .dc.b D2 00 B0 00 B4 00 70 00 48 00 C0 00 9C 00 80 00 ; ......p.H.......
00C494  .dc.b 7C 00 00 00 CC 00 20 00 EC 00 7E 00 3A 80 7E 00 ; |..... ...~.:.~.
00C4A4  .dc.b A8 00 3C 00 29 C0 08 00 1F 60 00 40 0E D0 00 C0 ; ..<.)....`.@....
00C4B4  .dc.b 0C D8 00 80 01 E0 00 00 01 F0 00 00 00 00 00 00 ; ................
00C4C4  .dc.b 00 00 00 00 25 00 04 00 19 80 18 00 A7 C0 40 00 ; ....%.........@.
00C4D4  .dc.b 87 C0 00 00 13 C0 E0 00 0B C0 00 00 A3 40 20 80 ; .............@ .
00C4E4  .dc.b 4E 40 81 80 22 00 7F 80 49 40 DF 80 01 00 E0 C0 ; N@.."...I@......
00C4F4  .dc.b C9 40 28 E0 E9 00 48 E0 E9 80 08 60 53 C0 90 60 ; .@(...H....`S..`
00C504  .dc.b 15 C0 14 20 03 E0 00 00 1F C0 00 00 F0 00 0F 80 ; ... ............
00C514  .dc.b 63 00 00 00 C7 00 00 00 A6 00 20 00 4E 00 40 00 ; c......... .N.@.
00C524  .dc.b 8C 00 80 00 38 00 00 00 7C 00 00 00 B0 00 80 00 ; ....8...|.......
00C534  .dc.b DC 00 C0 00 80 00 86 00 81 80 04 00 C3 80 07 80 ; ................
00C544  .dc.b 36 40 06 00 10 A0 00 40 01 30 00 40 01 28 00 20 ; 6@.....@.0.@.(. 
00C554  .dc.b 01 18 00 18 00 0C 00 0C 00 00 00 00 00 00 00 00 ; ................
00C564  .dc.b 00 00 00 00 00 00 00 00 00 00 00 00 00 00 00 00 ; ................
00C574  .dc.b 00 00 00 00 00 00 00 00 00 00 00 00 00 00 00 00 ; ................
00C584  .dc.b 00 00 00 00 00 00 00 00 07 FA 00 02 0A A1 00 01 ; ................
00C594  .dc.b 00 02 00 02 0A 8D 00 0D 07 C9 00 00 00 35 00 11 ; .............5..
00C5A4  .dc.b 00 23 00 03 00 25 00 01 00 1E 00 06 00 00 00 00 ; .#...%..........
00C5B4  .dc.b 00 01 00 00 00 05 00 01 00 0B 00 00 00 18 00 03 ; ................
00C5C4  .dc.b 00 11 00 00 00 14 00 0A 00 05 00 03 00 0D 00 07 ; ................
00C5D4  .dc.b 00 07 00 01 00 02 00 03 00 02 00 01 00 00 00 00 ; ................
00C5E4  .dc.b 00 01 00 00 00 00 00 00 00 00 00 00 00 00 00 00 ; ................
00C5F4  .dc.b 00 00 00 00 00 00 00 00 00 00 00 00 00 00 00 00 ; ................
00C604  .dc.b 00 00 00 00 00 00 00 00 00 00 00 00 00 00 00 00 ; ................
00C614  .dc.b 00 00 00 00 00 00 00 00 00 00 00 00 00 00 00 00 ; ................
00C624  .dc.b 00 00 00 00 06 A2 01 5D 00 01 0F FE 00 32 0F CD ; .......].....2..
00C634  .dc.b 00 1D 0F E2 02 B2 05 4D 00 2E 00 00 00 3C 00 00 ; .......M.....<..
00C644  .dc.b 00 3E 00 00 00 19 00 06 00 00 00 00 00 01 00 00 ; .>..............
00C654  .dc.b 00 06 00 00 00 0F 00 03 00 04 00 04 00 0E 00 0E ; ................
00C664  .dc.b 00 15 00 04 00 0C 00 04 00 08 00 00 00 06 00 02 ; ................
00C674  .dc.b 00 00 00 00 00 02 00 00 00 01 00 00 00 01 00 00 ; ................
00C684  .dc.b 00 00 00 00 00 00 00 00 00 00 00 00 00 00 00 00 ; ................
00C694  .dc.b 00 00 00 00 00 00 00 00 15 00 1A 00 5A 80 66 00 ; ............Z.f.
00C6A4  .dc.b 68 C0 38 00 70 40 30 00 F0 40 B0 00 A9 40 F9 00 ; h.8.p@0..@...@..
00C6B4  .dc.b CA C0 AA 00 55 80 34 00 47 80 7E 00 F3 C0 FF 00 ; ....U.4.G.~.....
00C6C4  .dc.b A7 60 BD C0 55 20 6C E0 95 20 AC E0 35 A0 AC E0 ; .`..U l.. ..5...
00C6D4  .dc.b 49 A0 18 E0 D7 60 C0 60 BE 60 E0 40 9C C0 80 00 ; I....`.`.`.@....
00C6E4  .dc.b 7F 80 1F 80 D1 00 1C 00 67 00 5E 00 D9 00 38 00 ; ........g.^...8.
00C6F4  .dc.b 63 00 E0 00 8E 80 80 00 39 00 03 00 95 C0 07 80 ; c.......9.......
00C704  .dc.b 0A 80 03 00 C5 60 C0 00 62 A8 C0 60 51 76 C0 B4 ; .....`..b..`Qv..
00C714  .dc.b 80 F8 80 3C F0 78 80 1C E0 2D 00 1C C0 1B 00 08 ; ...<.x...-......
00C724  .dc.b 80 0F 00 00 00 03 00 00 00 01 00 00 00 00 00 00 ; ................
00C734  .dc.b 00 00 00 00 25 00 04 00 19 80 18 00 87 C0 40 00 ; ....%.........@.
00C744  .dc.b 8F C0 00 00 0F C0 C0 00 07 C0 00 00 56 C0 41 00 ; ............V.A.
00C754  .dc.b 4C 80 83 00 44 80 7F 00 12 C0 BF 00 C3 20 01 C0 ; L...D........ ..
00C764  .dc.b 13 00 90 E0 D3 00 10 E0 D3 80 10 E0 A7 00 20 E0 ; .............. .
00C774  .dc.b 2B C0 28 60 07 A0 00 40 7F C0 00 00 E0 00 1F 80 ; +.(`...@........
00C784  .dc.b E3 00 00 00 A1 00 20 00 C7 00 C0 00 1F 00 00 00 ; ...... .........
00C794  .dc.b 7F 80 00 00 FC 80 00 00 98 00 00 00 8C 40 00 40 ; .............@.@
00C7A4  .dc.b 06 A0 40 80 21 18 C1 00 30 4A A0 44 70 C3 70 45 ; ..@.!...0J.Dp.pE
00C7B4  .dc.b 00 63 00 27 00 22 00 02 00 14 00 04 00 08 00 00 ; .c.'."..........
00C7C4  .dc.b 00 00 00 00 00 00 00 00 00 00 00 00 00 00 00 00 ; ................
00C7D4  .dc.b 00 00 00 00 00 00 00 00 00 00 00 00 00 00 00 00 ; ................
00C7E4  .dc.b 00 00 00 00 00 00 00 00 00 00 00 00 00 00 00 00 ; ................
00C7F4  .dc.b 00 00 00 00 00 00 00 00 00 00 00 00 07 FA 00 02 ; ................
00C804  .dc.b 0A A1 00 01 00 02 00 02 0A 8D 00 0D 07 C9 00 00 ; ................
00C814  .dc.b 00 35 00 11 00 23 00 03 00 25 00 01 00 1E 00 06 ; .5...#...%......
00C824  .dc.b 00 01 00 00 00 02 00 00 00 04 00 01 00 0A 00 01 ; ................
00C834  .dc.b 00 1D 00 03 00 17 00 03 00 2C 00 00 00 15 00 0C ; .........,......
00C844  .dc.b 00 14 00 0C 00 6C 00 3C 00 2C 00 1C 00 16 00 3E ; .....l.<.,.....>
00C854  .dc.b 00 4C 00 1C 00 E4 00 04 01 F2 00 00 00 00 00 00 ; .L..............
00C864  .dc.b 00 00 00 00 00 00 00 00 00 00 00 00 00 00 00 00 ; ................
00C874  .dc.b 00 00 00 00 00 00 00 00 00 00 00 00 00 00 00 00 ; ................
00C884  .dc.b 00 00 00 00 00 00 00 00 00 00 00 00 00 00 00 00 ; ................
00C894  .dc.b 00 00 00 00 00 00 00 00 06 A2 01 5D 00 01 0F FE ; ...........]....
00C8A4  .dc.b 00 32 0F CD 00 1D 0F E2 02 B2 05 4D 00 2E 00 00 ; .2.........M....
00C8B4  .dc.b 00 3C 00 00 00 3E 00 00 00 19 00 06 00 01 00 00 ; .<...>..........
00C8C4  .dc.b 00 03 00 00 00 06 00 00 00 0E 00 02 00 04 00 04 ; ................
00C8D4  .dc.b 00 08 00 08 00 33 00 03 00 33 00 10 00 32 00 10 ; .....3...3...2..
00C8E4  .dc.b 00 42 00 00 00 62 00 20 00 40 00 0E 00 22 00 38 ; .B...b. .@...".8
00C8F4  .dc.b 00 1A 00 18 00 0E 00 0C 00 00 00 00 00 00 00 00 ; ................
00C904  .dc.b 00 00 00 00 00 00 00 00 00 00 00 00 15 00 1A 00 ; ................
00C914  .dc.b 5A 80 66 00 68 C0 38 00 70 40 30 00 F0 40 B0 00 ; Z.f.h.8.p@0..@..
00C924  .dc.b A9 40 F9 00 CA C0 AA 00 55 80 34 00 47 80 7E 00 ; .@......U.4.G.~.
00C934  .dc.b F3 C0 FF 00 A7 60 BD C0 55 20 6C E0 95 20 AC E0 ; .....`..U l.. ..
00C944  .dc.b 35 A0 AC E0 49 A0 18 E0 D7 60 C0 60 BE 60 E0 40 ; 5...I....`.`.`.@
00C954  .dc.b 9C C0 80 00 7F 80 1F 80 25 00 3C 00 29 00 D8 00 ; ........%.<.)...
00C964  .dc.b 93 00 70 00 65 00 E0 00 9D 00 84 00 2B 00 0E 00 ; ..p.e.......+...
00C974  .dc.b 96 00 04 00 0D 20 00 80 07 C8 00 C8 02 68 00 F8 ; ..... .......h..
00C984  .dc.b 01 28 00 78 00 52 00 30 00 36 00 10 00 1E 00 00 ; .(.x.R.0.6......
00C994  .dc.b 00 06 00 00 00 02 00 00 00 00 00 00 00 00 00 00 ; ................
00C9A4  .dc.b 00 00 00 00 00 00 00 00 25 00 04 00 19 80 18 00 ; ........%.......
00C9B4  .dc.b 87 C0 40 00 8F C0 00 00 0F C0 C0 00 07 C0 00 00 ; ..@.............
00C9C4  .dc.b 56 C0 41 00 4C 80 83 00 44 80 7F 00 12 C0 BF 00 ; V.A.L...D.......
00C9D4  .dc.b C3 20 01 C0 13 00 90 E0 D3 00 10 E0 D3 80 10 E0 ; . ..............
00C9E4  .dc.b A7 00 20 E0 2B C0 28 60 07 A0 00 40 7F C0 00 00 ; .. .+.(`...@....
00C9F4  .dc.b E0 00 1F 80 C3 00 00 00 27 00 20 00 8F 00 80 00 ; ........'. .....
00CA04  .dc.b 1F 00 00 00 7B 00 00 00 F0 00 00 00 19 80 01 00 ; ....{...........
00CA14  .dc.b 0A 60 02 00 01 30 01 08 03 04 00 18 01 86 00 16 ; .`...0..........
00CA24  .dc.b 00 4C 00 0C 00 28 00 08 00 10 00 00 00 00 00 00 ; .L...(..........
00CA34  .dc.b 00 00 00 00 00 00 00 00 00 00 00 00 00 00 00 00 ; ................
00CA44  .dc.b 00 00 00 00 00 00 00 00 00 00 00 00 00 00 00 00 ; ................
00CA54  .dc.b 00 00 00 00 00 00 00 00 00 00 00 00 00 00 00 00 ; ................
00CA64  .dc.b 00 00 00 00 00 00 00 00 00 00 00 00 07 FA 00 02 ; ................
00CA74  .dc.b 0A A1 00 01 00 02 00 02 0A 8D 00 0D 07 C9 00 00 ; ................
00CA84  .dc.b 00 35 00 11 00 23 00 03 00 25 00 01 00 1E 00 06 ; .5...#...%......
00CA94  .dc.b 00 00 00 00 00 01 00 00 00 02 00 00 00 05 00 00 ; ................
00CAA4  .dc.b 00 0A 00 01 00 15 00 03 00 1A 00 00 00 35 00 08 ; .............5..
00CAB4  .dc.b 00 2E 00 3C 00 7A 00 18 00 3C 00 78 00 24 00 7C ; ...<.z...<.x.$.|
00CAC4  .dc.b 00 94 00 30 01 C0 00 00 03 E0 00 00 00 00 00 00 ; ...0............
00CAD4  .dc.b 00 00 00 00 00 00 00 00 00 00 00 00 00 00 00 00 ; ................
00CAE4  .dc.b 00 00 00 00 00 00 00 00 00 00 00 00 00 00 00 00 ; ................
00CAF4  .dc.b 00 00 00 00 00 00 00 00 00 00 00 00 00 00 00 00 ; ................
00CB04  .dc.b 00 00 00 00 00 00 00 00 06 A2 01 5D 00 01 0F FE ; ...........]....
00CB14  .dc.b 00 32 0F CD 00 1D 0F E2 02 B2 05 4D 00 2E 00 00 ; .2.........M....
00CB24  .dc.b 00 3C 00 00 00 3E 00 00 00 19 00 06 00 00 00 00 ; .<...>..........
00CB34  .dc.b 00 01 00 00 00 03 00 00 00 07 00 01 00 06 00 02 ; ................
00CB44  .dc.b 00 08 00 08 00 15 00 04 00 33 00 12 00 02 00 00 ; .........3......
00CB54  .dc.b 00 66 00 20 00 04 00 00 00 80 00 1C 00 4C 00 70 ; .f. .........L.p
00CB64  .dc.b 00 38 00 30 00 18 00 18 00 00 00 00 00 00 00 00 ; .8.0............
00CB74  .dc.b 00 00 00 00 00 00 00 00 00 00 00 00 15 00 1A 00 ; ................
00CB84  .dc.b 5A 80 66 00 68 C0 38 00 70 40 30 00 F0 40 B0 00 ; Z.f.h.8.p@0..@..
00CB94  .dc.b A9 40 F9 00 CA C0 AA 00 55 80 34 00 47 80 7E 00 ; .@......U.4.G.~.
00CBA4  .dc.b F3 C0 FF 00 A7 60 BD C0 55 20 6C E0 95 20 AC E0 ; .....`..U l.. ..
00CBB4  .dc.b 35 A0 AC E0 49 A0 18 E0 D7 60 C0 60 BE 60 E0 40 ; 5...I....`.`.`.@
00CBC4  .dc.b 9C C0 80 00 7F 80 1F 80 A5 00 3C 00 29 00 58 00 ; ..........<.).X.
00CBD4  .dc.b 52 00 B0 00 26 80 E2 00 DD 80 C7 00 35 40 06 00 ; R...&.......5@..
00CBE4  .dc.b 8A 88 00 48 05 E1 00 78 03 B3 01 78 00 87 00 38 ; ...H...x...x...8
00CBF4  .dc.b 00 17 00 04 00 01 00 00 00 00 00 00 00 00 00 00 ; ................
00CC04  .dc.b 00 00 00 00 00 00 00 00 00 00 00 00 00 00 00 00 ; ................
00CC14  .dc.b 00 00 00 00 00 00 00 00 25 00 04 00 19 80 18 00 ; ........%.......
00CC24  .dc.b 87 C0 40 00 8F C0 00 00 0F C0 C0 00 07 C0 00 00 ; ..@.............
00CC34  .dc.b 56 C0 41 00 4C 80 83 00 44 80 7F 00 12 C0 BF 00 ; V.A.L...D.......
00CC44  .dc.b C3 20 01 C0 13 00 90 E0 D3 00 10 E0 D3 80 10 E0 ; . ..............
00CC54  .dc.b A7 00 20 E0 2B C0 28 60 07 A0 00 40 7F C0 00 00 ; .. .+.(`...@....
00CC64  .dc.b E0 00 1F 80 C3 00 00 00 A7 00 20 00 4F 00 40 00 ; .......... .O.@.
00CC74  .dc.b 1D 80 00 00 38 80 00 00 F8 C0 00 80 8D 37 01 0B ; ....8........7..
00CC84  .dc.b 02 86 02 9E 00 84 00 8C 00 C0 00 00 00 18 00 00 ; ................
00CC94  .dc.b 00 00 00 00 00 00 00 00 00 00 00 00 00 00 00 00 ; ................
00CCA4  .dc.b 00 00 00 00 00 00 00 00 00 00 00 00 00 00 00 00 ; ................
00CCB4  .dc.b 00 00 00 00 00 00 00 00 00 00 00 00 00 00 00 00 ; ................
00CCC4  .dc.b 00 00 00 00 00 00 00 00 00 00 00 00 00 00 00 00 ; ................
00CCD4  .dc.b 00 00 00 00 00 00 00 00 00 00 00 00 0F F9 00 03 ; ................
00CCE4  .dc.b 15 56 00 06 1A 8D 1A 8D 15 72 00 33 0F C4 00 20 ; .V.......r.3... 
00CCF4  .dc.b 00 19 00 09 00 11 00 01 00 12 00 00 00 0F 00 03 ; ................
00CD04  .dc.b 00 00 00 00 00 00 00 00 00 01 00 00 00 01 00 00 ; ................
00CD14  .dc.b 00 02 00 00 00 03 00 00 00 02 00 00 00 05 00 02 ; ................
00CD24  .dc.b 00 02 00 01 00 02 00 01 00 0D 00 07 00 05 00 03 ; ................
00CD34  .dc.b 00 02 00 07 00 09 00 03 00 1C 00 00 00 3E 00 00 ; .............>..
00CD44  .dc.b 00 00 00 00 00 00 00 00 00 00 00 00 00 00 00 00 ; ................
00CD54  .dc.b 00 00 00 00 00 00 00 00 00 00 00 00 00 00 00 00 ; ................
00CD64  .dc.b 00 00 00 00 00 00 00 00 00 00 00 00 00 00 00 00 ; ................
00CD74  .dc.b 00 00 00 00 00 00 00 00 05 53 0A AC 00 06 1F F9 ; .........S......
00CD84  .dc.b 1A BD 05 42 00 03 1F CC 0D 59 02 86 00 36 00 00 ; ...B.....Y...6..
00CD94  .dc.b 00 1E 00 00 00 1F 00 00 00 0C 00 03 00 00 00 00 ; ................
00CDA4  .dc.b 00 00 00 00 00 01 00 00 00 01 00 00 00 03 00 00 ; ................
00CDB4  .dc.b 00 00 00 00 00 01 00 01 00 05 00 01 00 06 00 02 ; ................
00CDC4  .dc.b 00 06 00 02 00 08 00 00 00 0C 00 04 00 08 00 01 ; ................
00CDD4  .dc.b 00 04 00 07 00 03 00 03 00 01 00 01 00 00 00 00 ; ................
00CDE4  .dc.b 00 00 00 00 00 00 00 00 00 00 00 00 15 00 1A 00 ; ................
00CDF4  .dc.b 5A 80 66 00 48 C0 18 00 78 40 18 00 CC 40 8C 00 ; Z.f.H...x@...@..
00CE04  .dc.b 34 C0 F4 80 6D 40 5D 00 52 C0 32 00 23 80 7F 00 ; 4...m@].R.2.#...
00CE14  .dc.b F9 C0 BF 80 33 C0 1E C0 CA E0 D6 E0 4A A0 96 E0 ; ....3.......J...
00CE24  .dc.b DA A0 D6 60 A4 E0 0C 60 CB A0 E0 20 9F 60 F0 00 ; ...`...`... .`..
00CE34  .dc.b EE 40 E0 00 3F 80 0F 80 D5 00 1C 00 B5 00 2C 00 ; .@..?.........,.
00CE44  .dc.b 6A 00 58 00 D4 14 B0 00 AC 79 60 30 DD 0B C4 78 ; j.X......y`0...x
00CE54  .dc.b BE 67 0D F8 A5 F3 00 F0 BB 49 80 C0 A6 40 83 00 ; .g.......I...@..
00CE64  .dc.b 80 00 80 00 80 00 80 00 C0 00 C0 00 80 00 80 00 ; ................
00CE74  .dc.b 80 00 80 00 40 00 00 00 00 00 00 00 00 00 00 00 ; ....@...........
00CE84  .dc.b 00 00 00 00 00 00 00 00 25 00 04 00 19 80 18 00 ; ........%.......
00CE94  .dc.b A7 C0 40 00 87 C0 00 00 13 C0 E0 00 0B C0 00 00 ; ..@.............
00CEA4  .dc.b A3 40 20 80 4E 40 81 80 22 00 7F 80 49 40 DF 80 ; .@ .N@.."...I@..
00CEB4  .dc.b 01 00 E0 C0 C9 40 28 E0 E9 00 48 E0 E9 80 08 60 ; .....@(...H....`
00CEC4  .dc.b 53 C0 90 60 15 C0 14 20 03 E0 00 00 1F C0 00 00 ; S..`... ........
00CED4  .dc.b F0 00 0F 80 E3 00 00 00 D3 00 10 00 A6 00 20 00 ; .............. .
00CEE4  .dc.b 4C 1B 40 03 9C 46 80 26 3B 84 00 34 70 00 00 18 ; L.@..F.&;..4p...
00CEF4  .dc.b 7B 0C 43 00 75 38 05 00 60 C0 00 00 40 00 00 00 ; {.C.u8..`...@...
00CF04  .dc.b 40 00 00 00 00 00 C0 00 40 00 00 00 40 00 00 00 ; @.......@...@...
00CF14  .dc.b C0 00 80 00 00 00 00 00 00 00 00 00 00 00 00 00 ; ................
00CF24  .dc.b 00 00 00 00 00 00 00 00 00 00 00 00 00 00 00 00 ; ................
00CF34  .dc.b 00 00 00 00 00 00 00 00 00 00 00 00 00 00 00 00 ; ................
00CF44  .dc.b 00 00 00 00 00 01 00 01 0F F9 00 03 1A A6 0A A6 ; ................
00CF54  .dc.b 15 8D 1F 8D 1A F2 0A F3 0F A2 00 30 00 5C 00 04 ; ...........0.\..
00CF64  .dc.b 00 0C 00 04 00 09 00 00 00 05 00 01 00 00 00 00 ; ................
00CF74  .dc.b 00 00 00 00 00 00 00 00 00 00 00 00 00 00 00 00 ; ................
00CF84  .dc.b 00 00 00 00 00 01 00 00 00 01 00 00 00 01 00 00 ; ................
00CF94  .dc.b 00 00 00 01 00 01 00 00 00 03 00 00 00 03 00 00 ; ................
00CFA4  .dc.b 00 00 00 01 00 00 00 01 00 02 00 00 00 07 00 00 ; ................
00CFB4  .dc.b 00 0F 00 00 00 00 00 00 00 00 00 00 00 00 00 00 ; ................
00CFC4  .dc.b 00 00 00 00 00 00 00 00 00 00 00 00 00 00 00 00 ; ................
00CFD4  .dc.b 00 00 00 00 00 00 00 00 00 00 00 00 00 00 00 00 ; ................
00CFE4  .dc.b 00 00 00 01 0A A3 05 5C 0A A6 15 59 1F FD 00 02 ; .......\...Y....
00CFF4  .dc.b 0A 83 15 0C 0A 4C 05 83 00 7B 00 00 00 0B 00 00 ; .....L...{......
00D004  .dc.b 00 0F 00 00 00 06 00 01 00 00 00 00 00 00 00 00 ; ................
00D014  .dc.b 00 00 00 00 00 00 00 00 00 00 00 00 00 00 00 00 ; ................
00D024  .dc.b 00 01 00 00 00 00 00 00 00 00 00 00 00 00 00 00 ; ................
00D034  .dc.b 00 01 00 01 00 03 00 01 00 03 00 01 00 02 00 00 ; ................
00D044  .dc.b 00 02 00 00 00 01 00 01 00 00 00 00 00 00 00 00 ; ................
00D054  .dc.b 00 00 00 00 00 00 00 00 15 00 1A 00 5A 80 66 00 ; ............Z.f.
00D064  .dc.b 68 C0 18 00 68 40 08 00 D4 40 94 00 2C 40 FC 40 ; h...h@...@..,@.@
00D074  .dc.b D4 80 6C 80 53 40 33 00 B1 C0 FF 80 DC C0 BF C0 ; ..l.S@3.........
00D084  .dc.b 29 C0 0F 00 D5 40 CB 40 65 40 8B 40 ED 40 EB 40 ; )....@.@e@.@.@.@
00D094  .dc.b 52 C0 06 00 C5 80 F0 00 CF 80 F8 00 77 80 70 00 ; R...........w.p.
00D0A4  .dc.b 9F 00 87 00 A9 00 38 00 09 00 38 00 EA 00 58 00 ; ......8...8...X.
00D0B4  .dc.b 92 00 70 00 54 20 30 00 2C A6 E0 60 AD 2F 61 E0 ; ..p.T 0.,..`./a.
00D0C4  .dc.b 2F 5F 02 F0 DE EF 03 E0 DD 98 43 80 58 80 C0 00 ; /_........C.X...
00D0D4  .dc.b 50 00 C0 00 D0 00 C0 00 D0 00 C0 00 B0 00 F0 00 ; P...............
00D0E4  .dc.b 10 00 40 00 10 00 00 00 90 00 00 00 00 00 00 00 ; ..@.............
00D0F4  .dc.b 00 00 00 00 25 00 04 00 19 80 18 00 87 C0 60 00 ; ....%.........`.
00D104  .dc.b 97 C0 00 00 0B C0 E0 00 03 C0 00 00 93 80 10 40 ; ...............@
00D114  .dc.b 4D 00 82 C0 11 00 DF C0 44 80 CF C0 10 C0 E0 00 ; M.......D.......
00D124  .dc.b C4 80 34 40 E4 80 74 40 F4 80 04 40 A9 C0 48 00 ; ..4@..t@...@..H.
00D134  .dc.b 0A 80 0A 00 01 80 00 00 8F 80 00 00 78 00 87 00 ; ............x...
00D144  .dc.b C7 00 00 00 47 00 00 00 A6 00 20 00 8E 00 00 00 ; ....G..... .....
00D154  .dc.b CC 3C 40 0C 1C 98 00 58 9E 10 80 70 D9 00 C1 20 ; .<@....X...p... 
00D164  .dc.b 28 18 20 00 B8 78 80 00 3F 80 00 00 30 00 00 00 ; (. ..x..?...0...
00D174  .dc.b 30 00 00 00 30 00 00 00 00 00 70 00 B0 00 C0 00 ; 0...0.....p.....
00D184  .dc.b F0 00 C0 00 70 00 60 00 00 00 00 00 00 00 00 00 ; ....p.`.........
00D194  .dc.b 00 00 00 00 00 00 00 00 00 00 00 00 00 00 00 00 ; ................
00D1A4  .dc.b 00 00 00 00 00 00 00 00 00 01 00 01 00 01 00 00 ; ................
00D1B4  .dc.b 00 01 00 01 00 00 00 01 1F DD 00 07 15 4A 15 4E ; .............J.N
00D1C4  .dc.b 2A 15 3F 1D 15 A2 15 E3 1E 99 00 F8 00 65 00 77 ; *.?..........e.w
00D1D4  .dc.b 00 1B 00 37 00 0A 00 02 00 04 00 00 00 00 00 00 ; ...7............
00D1E4  .dc.b 00 00 00 00 00 00 00 00 00 01 00 00 00 01 00 00 ; ................
00D1F4  .dc.b 00 02 00 00 00 03 00 01 00 03 00 00 00 03 00 00 ; ................
00D204  .dc.b 00 01 00 00 00 00 00 00 00 00 00 00 00 00 00 00 ; ................
00D214  .dc.b 00 00 00 00 00 00 00 00 00 00 00 00 00 00 00 00 ; ................
00D224  .dc.b 00 00 00 00 00 00 00 00 00 00 00 00 00 00 00 00 ; ................
00D234  .dc.b 00 00 00 00 00 00 00 00 00 00 00 00 00 00 00 00 ; ................
00D244  .dc.b 00 00 00 01 00 01 00 00 00 00 00 01 00 00 00 01 ; ................
00D254  .dc.b 00 00 00 01 15 47 0A 98 15 4E 2A B1 3F FD 00 02 ; .....G...N*.?...
00D264  .dc.b 15 1B 2A 04 14 06 0B 01 00 88 00 10 00 08 00 30 ; ..*............0
00D274  .dc.b 00 0D 00 00 00 07 00 00 00 00 00 00 00 00 00 00 ; ................
00D284  .dc.b 00 00 00 00 00 01 00 00 00 01 00 00 00 03 00 00 ; ................
00D294  .dc.b 00 02 00 00 00 00 00 00 00 00 00 00 00 01 00 00 ; ................
00D2A4  .dc.b 00 00 00 00 00 00 00 00 00 00 00 00 00 00 00 00 ; ................
00D2B4  .dc.b 00 00 00 00 00 00 00 00 00 00 00 00 00 00 00 00 ; ................
00D2C4  .dc.b 00 00 00 00 00 00 00 00 15 00 1A 00 5A 80 66 00 ; ............Z.f.
00D2D4  .dc.b 64 40 0C 00 74 00 04 00 DA 00 9A 00 2A 60 FA 20 ; d@..t.......*`. 
00D2E4  .dc.b BA C0 24 40 D3 A0 B2 80 28 E0 EF C0 CE 60 AF E0 ; ..$@....(....`..
00D2F4  .dc.b 34 C0 07 80 DA 80 CD 80 62 80 85 80 F6 80 F5 80 ; 4.......b.......
00D304  .dc.b 29 40 03 00 6A C0 70 00 47 80 7C 00 3B 00 38 00 ; )@..j.p.G.|.;.8.
00D314  .dc.b CF 00 C3 00 56 80 1E 00 04 80 5C 00 D5 00 4C 00 ; ....V.....\...L.
00D324  .dc.b 1D 00 0C 00 AA 00 B8 00 AB 00 99 00 18 80 39 80 ; ..............9.
00D334  .dc.b 96 A0 33 00 CC 60 00 00 F4 E0 00 00 1B E0 38 00 ; ..3..`........8.
00D344  .dc.b 6A 20 18 00 1D 00 0C 00 26 80 0E 80 12 40 07 80 ; j ......&....@..
00D354  .dc.b 0A A0 00 80 07 20 00 00 0F 80 00 00 00 00 00 00 ; ..... ..........
00D364  .dc.b 00 00 00 00 25 00 04 00 19 80 18 00 93 C0 60 00 ; ....%.........`.
00D374  .dc.b 9B C0 00 00 05 C0 F0 00 05 E0 00 00 DB C0 18 20 ; ............... 
00D384  .dc.b CD 80 02 60 18 80 CF E0 52 40 C7 E0 08 40 F0 00 ; ...`....R@...@..
00D394  .dc.b C2 40 32 00 EA 40 72 00 FA 40 02 00 54 C0 A4 00 ; .@2..@r..@..T...
00D3A4  .dc.b 8D 40 0D 00 80 80 00 00 C7 00 00 00 3C 00 C3 00 ; .@..........<...
00D3B4  .dc.b 61 80 40 00 63 80 00 00 F3 00 10 00 F3 00 10 00 ; a.@.c...........
00D3C4  .dc.b 06 00 40 00 66 E0 21 20 C6 60 01 60 4C 40 01 40 ; ..@.f.! .`.`L@.@
00D3D4  .dc.b 37 80 30 80 0F 00 00 00 47 80 00 00 66 00 20 00 ; 7.0.....G...f. .
00D3E4  .dc.b 33 00 10 00 31 00 00 80 18 40 01 80 0D 60 01 00 ; 3...1....@...`..
00D3F4  .dc.b 00 E0 00 C0 00 60 00 60 00 00 00 00 00 00 00 00 ; .....`.`........
00D404  .dc.b 00 00 00 00 00 00 00 00 00 00 00 00 00 00 00 00 ; ................
00D414  .dc.b 00 00 00 00 00 00 00 00 00 02 00 02 00 03 00 01 ; ................
00D424  .dc.b 00 03 00 01 00 02 00 03 1A 90 00 06 2A C9 2F CD ; ............*./.
00D434  .dc.b 00 12 3F 1B 2A A5 2F E7 1A 94 00 F0 00 68 00 7B ; ..?.*./......h.{
00D444  .dc.b 00 12 00 31 00 01 00 03 00 00 00 00 00 00 00 00 ; ...1............
00D454  .dc.b 00 00 00 00 00 01 00 00 00 02 00 00 00 05 00 01 ; ................
00D464  .dc.b 00 0B 00 03 00 0D 00 00 00 0E 00 00 00 09 00 01 ; ................
00D474  .dc.b 00 02 00 00 00 00 00 00 00 00 00 00 00 00 00 00 ; ................
00D484  .dc.b 00 00 00 00 00 00 00 00 00 00 00 00 00 00 00 00 ; ................
00D494  .dc.b 00 00 00 00 00 00 00 00 00 00 00 00 00 00 00 00 ; ................
00D4A4  .dc.b 00 00 00 00 00 00 00 00 00 00 00 00 00 00 00 00 ; ................
00D4B4  .dc.b 00 00 00 02 00 02 00 01 00 01 00 02 00 00 00 03 ; ................
00D4C4  .dc.b 00 00 00 03 10 06 0F D9 2F CD 50 32 3F FB 00 04 ; ......../.P2?...
00D4D4  .dc.b 2F 17 50 08 10 0B 0F 00 00 84 00 10 00 0E 00 32 ; /.P............2
00D4E4  .dc.b 00 04 00 00 00 03 00 00 00 00 00 00 00 00 00 00 ; ................
00D4F4  .dc.b 00 01 00 00 00 03 00 00 00 06 00 00 00 0C 00 00 ; ................
00D504  .dc.b 00 02 00 02 00 01 00 00 00 0E 00 00 00 03 00 00 ; ................
00D514  .dc.b 00 00 00 00 00 00 00 00 00 00 00 00 00 00 00 00 ; ................
00D524  .dc.b 00 00 00 00 00 00 00 00 00 00 00 00 00 00 00 00 ; ................
00D534  .dc.b 00 00 00 00 00 00 00 00 15 00 1A 00 5A 80 66 00 ; ............Z.f.
00D544  .dc.b E4 40 8C 00 74 00 04 00 DA 00 9A 00 A5 50 6D 10 ; .@..t........Pm.
00D554  .dc.b 98 A0 04 20 53 D0 33 40 2C 70 EF E0 CF 30 AF F0 ; ... S.3@,p...0..
00D564  .dc.b 32 60 0B C0 ED 40 E6 C0 E1 40 12 C0 F3 40 F2 C0 ; 2`...@...@...@..
00D574  .dc.b 94 A0 01 80 35 60 B8 00 83 C0 BE 00 9D 80 9C 00 ; ....5`..........
00D584  .dc.b 67 00 61 00 63 80 2E 00 E5 00 3C 00 15 00 4C 00 ; g.a.c.....<...L.
00D594  .dc.b 7B 00 68 00 8A 00 38 00 AA 00 18 00 F4 00 50 00 ; {.h...8.......P.
00D5A4  .dc.b D4 00 70 00 EC 00 40 00 72 00 08 00 F5 00 1C 00 ; ..p...@.r.......
00D5B4  .dc.b 26 80 0E 00 3B 40 0F 40 3D 60 07 C0 06 50 03 C0 ; &...;@.@=`...P..
00D5C4  .dc.b 03 58 01 80 01 E0 00 00 01 F0 00 00 00 00 00 00 ; .X..............
00D5D4  .dc.b 00 00 00 00 25 00 04 00 19 80 18 00 13 C0 60 00 ; ....%.........`.
00D5E4  .dc.b 9B C0 00 00 05 C0 F0 00 92 D0 80 00 FB A0 18 10 ; ................
00D5F4  .dc.b 4C C0 83 30 14 40 CF F0 51 20 C3 F0 04 20 F0 00 ; L..0.@..Q ... ..
00D604  .dc.b E1 20 19 00 F5 20 E9 00 F5 20 09 00 2A 60 D2 00 ; . ... ... ..*`..
00D614  .dc.b 46 A0 06 80 40 40 00 00 63 80 00 00 9E 00 61 00 ; F...@@..c.....a.
00D624  .dc.b 61 80 50 00 E3 00 40 00 D3 00 30 00 D7 00 10 00 ; a.P...@...0.....
00D634  .dc.b C6 00 00 00 E6 00 20 00 AC 00 20 00 88 00 08 00 ; ...... ... .....
00D644  .dc.b 94 00 10 00 86 00 00 00 83 00 00 00 31 80 00 00 ; ............1...
00D654  .dc.b 10 80 00 40 08 20 00 C0 04 30 00 80 02 28 00 20 ; ...@. ...0...(. 
00D664  .dc.b 01 18 00 18 00 0C 00 0C 00 00 00 00 00 00 00 00 ; ................
00D674  .dc.b 00 00 00 00 00 00 00 00 00 00 00 00 00 00 00 00 ; ................
00D684  .dc.b 00 00 00 00 00 00 00 00 00 04 00 04 00 06 00 02 ; ................
00D694  .dc.b 00 06 00 03 00 05 00 07 35 2C 00 0A 55 29 7F B5 ; ........5,..U)..
00D6A4  .dc.b 6A 13 14 2A 55 56 7F D5 35 26 01 E0 00 DC 00 F9 ; j..*UV..5&......
00D6B4  .dc.b 00 2D 00 60 00 00 00 01 00 02 00 00 00 01 00 00 ; .-.`............
00D6C4  .dc.b 00 02 00 00 00 05 00 01 00 0A 00 01 00 19 00 03 ; ................
00D6D4  .dc.b 00 11 00 00 00 14 00 0A 00 05 00 03 00 0D 00 07 ; ................
00D6E4  .dc.b 00 07 00 01 00 02 00 03 00 02 00 01 00 00 00 00 ; ................
00D6F4  .dc.b 00 01 00 00 00 00 00 00 00 00 00 00 00 00 00 00 ; ................
00D704  .dc.b 00 00 00 00 00 00 00 00 00 00 00 00 00 00 00 00 ; ................
00D714  .dc.b 00 00 00 00 00 00 00 00 00 00 00 00 00 00 00 00 ; ................
00D724  .dc.b 00 00 00 04 00 04 00 02 00 02 00 05 00 00 00 07 ; ................
00D734  .dc.b 00 00 00 07 20 0E 1F B5 7F BD 80 4A 7F FB 6A 15 ; .... ......J..j.
00D744  .dc.b 7E 37 80 0A 20 19 1E 00 01 02 00 20 00 1F 00 61 ; ~7.. ...... ...a
00D754  .dc.b 00 02 00 00 00 03 00 00 00 00 00 01 00 03 00 00 ; ................
00D764  .dc.b 00 06 00 00 00 0E 00 02 00 04 00 04 00 0E 00 0E ; ................
00D774  .dc.b 00 15 00 04 00 0C 00 04 00 08 00 00 00 06 00 02 ; ................
00D784  .dc.b 00 00 00 00 00 02 00 00 00 01 00 00 00 01 00 00 ; ................
00D794  .dc.b 00 00 00 00 00 00 00 00 00 00 00 00 00 00 00 00 ; ................
00D7A4  .dc.b 00 00 00 00 00 00 00 00 15 00 1A 00 5A 80 66 00 ; ............Z.f.
00D7B4  .dc.b E4 40 8C 00 74 00 04 00 DA 00 9A 00 A5 48 6D 08 ; .@..t........Hm.
00D7C4  .dc.b 9A D0 04 10 53 A8 33 20 2C 38 EF F0 4B 98 AF F8 ; ....S.3 ,8..K...
00D7D4  .dc.b 35 30 09 E0 EE A0 E3 60 E8 A0 19 60 F5 A0 F1 60 ; 50.....`...`...`
00D7E4  .dc.b 4A 50 00 C0 9A B0 5C 00 41 E0 DF 00 CE C0 CE 00 ; JP....\.A.......
00D7F4  .dc.b 31 00 30 00 6A 00 A8 00 4E 00 9C 00 A5 00 DC 00 ; 1.0.j...N.......
00D804  .dc.b 55 00 5C 00 A2 80 8E 00 7A 00 0E 00 95 C0 07 80 ; U.\.....z.......
00D814  .dc.b 0A A0 03 00 C5 50 C0 00 62 A8 C0 60 51 76 C0 B4 ; .....P..b..`Qv..
00D824  .dc.b 80 F8 80 3C F0 78 80 1C E0 2D 00 1C C0 1B 00 08 ; ...<.x...-......
00D834  .dc.b 80 0F 00 00 00 03 00 00 00 01 00 00 00 00 00 00 ; ................
00D844  .dc.b 00 00 00 00 25 00 04 00 19 80 18 00 13 C0 60 00 ; ....%.........`.
00D854  .dc.b 9B C0 00 00 05 C0 F0 00 92 C8 80 00 FB D0 18 08 ; ................
00D864  .dc.b 4C A0 03 18 14 20 CF F8 50 90 41 F8 06 10 F4 00 ; L.... ..P.A.....
00D874  .dc.b E0 90 1C 80 FA 90 E4 80 F2 90 0C 80 95 30 69 00 ; .............0i.
00D884  .dc.b A3 50 83 40 20 20 00 00 31 C0 00 00 CF 00 30 00 ; .P.@  ..1.....0.
00D894  .dc.b E6 00 50 00 C2 00 60 00 C3 00 20 00 63 00 80 00 ; ..P...`... .c...
00D8A4  .dc.b 71 80 00 00 F1 80 00 00 98 00 00 00 8C 60 00 40 ; q............`.@
00D8B4  .dc.b 06 B0 40 80 21 18 C1 00 30 4A A0 44 70 C3 70 45 ; ..@.!...0J.Dp.pE
00D8C4  .dc.b 00 63 00 27 00 22 00 02 00 14 00 04 00 08 00 00 ; .c.'."..........
00D8D4  .dc.b 00 00 00 00 00 00 00 00 00 00 00 00 00 00 00 00 ; ................
00D8E4  .dc.b 00 00 00 00 00 A8 00 58 01 5A 00 66 02 27 00 31 ; .......X.Z.f.'.1
00D8F4  .dc.b 00 2E 00 20 00 5B 00 59 12 A5 10 B6 0B 59 08 20 ; ... .[.Y.....Y. 
00D904  .dc.b 15 CA 04 CC 1C 34 0F F7 19 D2 1F F5 0C AC 07 90 ; .....4..........
00D914  .dc.b 05 77 06 C7 05 17 06 98 05 AF 06 8F 0A 52 03 00 ; .w...........R..
00D924  .dc.b 0D 59 00 3A 07 82 00 FB 03 73 00 73 00 8C 00 0C ; .Y.:.....s.s....
00D934  .dc.b 00 92 00 05 00 22 00 25 01 5D 00 77 01 60 00 52 ; .....".%.].w.`.R
00D944  .dc.b 01 36 00 50 01 A9 00 E0 00 D0 00 40 09 60 02 00 ; .6.P.......@.`..
00D954  .dc.b 27 C0 26 00 2C 80 3E 00 29 00 3C 00 94 00 18 00 ; '.&.,.>.).<.....
00D964  .dc.b D8 00 10 00 F0 00 00 00 C0 00 00 00 80 00 00 00 ; ................
00D974  .dc.b 00 00 00 00 00 00 00 00 00 00 00 00 00 00 00 00 ; ................
00D984  .dc.b 00 A4 00 20 01 98 00 18 03 C8 00 06 03 D9 00 00 ; ... ............
00D994  .dc.b 03 A0 00 0F 13 49 00 01 0B DF 10 18 05 32 18 C0 ; .....I.......2..
00D9A4  .dc.b 04 28 1F F3 09 0A 1F 82 08 60 00 2F 09 07 01 38 ; .(.......`./...8
00D9B4  .dc.b 09 5F 01 27 09 4F 01 30 0C A9 00 96 0A C5 02 C1 ; ._.'.O.0........
00D9C4  .dc.b 04 04 00 00 03 8C 00 00 00 F3 00 0C 00 E7 00 1A ; ................
00D9D4  .dc.b 00 D7 00 0A 01 87 00 08 01 AA 00 25 01 A9 00 26 ; ...........%...&
00D9E4  .dc.b 00 19 00 00 03 30 01 00 0C A0 00 80 19 00 21 00 ; .....0........!.
00D9F4  .dc.b 41 80 30 00 C3 00 D0 00 64 00 60 00 28 00 20 00 ; A.0.....d.`.(. .
00DA04  .dc.b 10 00 00 00 00 00 00 00 00 00 00 00 00 00 00 00 ; ................
00DA14  .dc.b 00 00 00 00 00 00 00 00 00 00 00 00 00 00 00 00 ; ................
00DA24  .dc.b 00 00 00 00 00 00 00 00 00 00 00 00 00 00 00 00 ; ................
00DA34  .dc.b 00 00 00 00 20 00 20 00 60 00 40 00 60 00 C0 00 ; .... . .`.@.`...
00DA44  .dc.b A0 00 E0 00 34 AC 50 00 94 AA AD FE C8 56 54 28 ; ....4.P......VT(
00DA54  .dc.b 6A AA AB FE 64 AC 07 80 3B 00 9F 00 B4 00 06 00 ; j...d...;.......
00DA64  .dc.b 00 00 80 00 40 00 00 00 00 00 00 00 20 00 80 00 ; ....@....... ...
00DA74  .dc.b 90 00 40 00 68 00 A0 00 98 00 E0 00 68 00 40 00 ; ..@.h.......h.@.
00DA84  .dc.b B4 00 00 00 28 00 30 00 28 00 30 00 36 00 3C 00 ; ....(.0.(.0.6.<.
00DA94  .dc.b 34 00 38 00 68 00 7C 00 32 00 38 00 27 00 20 00 ; 4.8.h.|.2.8.'. .
00DAA4  .dc.b 4F 80 00 00 00 00 00 00 00 00 00 00 00 00 00 00 ; O...............
00DAB4  .dc.b 00 00 00 00 00 00 00 00 00 00 00 00 00 00 00 00 ; ................
00DAC4  .dc.b 00 00 00 00 00 00 00 00 00 00 00 00 00 00 20 00 ; .............. .
00DAD4  .dc.b 20 00 40 00 40 00 A0 00 00 00 E0 00 00 00 E0 00 ;  .@.@...........
00DAE4  .dc.b 70 04 AD F8 BD FE 52 01 DF FE A8 56 EC 7E 50 01 ; p.....R....V.~P.
00DAF4  .dc.b 98 04 00 78 40 80 04 00 F8 00 86 00 40 00 00 00 ; ...x@.......@...
00DB04  .dc.b C0 00 00 00 C0 00 00 00 60 00 00 00 B0 00 80 00 ; ........`.......
00DB14  .dc.b 58 00 40 00 00 00 00 00 90 00 10 00 CC 00 40 00 ; X.@...........@.
00DB24  .dc.b 4C 00 08 00 4C 00 08 00 42 00 00 00 46 00 04 00 ; L...L...B...F...
00DB34  .dc.b 02 00 70 00 44 00 1C 00 58 00 18 00 70 00 30 00 ; ..p.D...X...p.0.
00DB44  .dc.b 00 00 00 00 00 00 00 00 00 00 00 00 00 00 00 00 ; ................
00DB54  .dc.b 00 00 00 00 00 A8 00 58 01 5A 00 66 02 27 00 31 ; .......X.Z.f.'.1
00DB64  .dc.b 00 2E 00 20 00 5B 00 59 12 A5 10 B6 0B 59 08 20 ; ... .[.Y.....Y. 
00DB74  .dc.b 15 CA 04 CC 1C 34 0F F7 19 D2 1F F5 0C AC 07 90 ; .....4..........
00DB84  .dc.b 05 77 06 C7 05 17 06 98 05 AF 06 8F 0A 52 03 00 ; .w...........R..
00DB94  .dc.b 0D 59 00 3A 07 82 00 FB 03 73 00 73 00 8C 00 0C ; .Y.:.....s.s....
00DBA4  .dc.b 00 96 00 15 00 A2 00 31 00 25 00 33 00 58 00 6A ; .......1.%.3.X.j
00DBB4  .dc.b 01 BF 00 D1 02 AA 00 60 11 51 12 00 87 A0 1E 00 ; .......`.Q......
00DBC4  .dc.b CD C0 1E 80 E1 00 1C 00 E8 00 20 00 80 00 00 00 ; .......... .....
00DBD4  .dc.b 00 00 00 00 00 00 00 00 00 00 00 00 00 00 00 00 ; ................
00DBE4  .dc.b 00 00 00 00 00 00 00 00 00 00 00 00 00 00 00 00 ; ................
00DBF4  .dc.b 00 A4 00 20 01 98 00 18 03 C8 00 06 03 D9 00 00 ; ... ............
00DC04  .dc.b 03 A0 00 0F 13 49 00 01 0B DF 10 18 05 32 18 C0 ; .....I.......2..
00DC14  .dc.b 04 28 1F F3 09 0A 1F 82 08 60 00 2F 09 07 01 38 ; .(.......`./...8
00DC24  .dc.b 09 5F 01 27 09 4F 01 30 0C A9 00 96 0A C5 02 C1 ; ._.'.O.0........
00DC34  .dc.b 04 04 00 00 03 8C 00 00 00 F3 00 0C 00 EF 00 02 ; ................
00DC44  .dc.b 00 CB 00 06 00 CB 00 04 00 96 00 11 01 2C 00 22 ; .............,."
00DC54  .dc.b 03 1B 01 00 EC B1 D0 80 61 40 79 40 21 00 31 00 ; ........a@y@!.1.
00DC64  .dc.b 03 00 00 00 18 00 00 00 00 00 00 00 00 00 00 00 ; ................
00DC74  .dc.b 00 00 00 00 00 00 00 00 00 00 00 00 00 00 00 00 ; ................
00DC84  .dc.b 00 00 00 00 00 00 00 00 00 00 00 00 00 00 00 00 ; ................
00DC94  .dc.b 00 00 00 00 00 00 00 00 00 00 00 00 00 00 00 00 ; ................
00DCA4  .dc.b 00 00 00 00 20 00 20 00 60 00 40 00 60 00 C0 00 ; .... . .`.@.`...
00DCB4  .dc.b A0 00 E0 00 34 AC 50 00 94 AA AD FE C8 56 54 28 ; ....4.P......VT(
00DCC4  .dc.b 6A AA AB FE 64 AC 07 80 3B 00 9F 00 B4 00 06 00 ; j...d...;.......
00DCD4  .dc.b 00 00 80 00 40 00 00 00 80 00 00 00 40 00 00 00 ; ....@.......@...
00DCE4  .dc.b 20 00 80 00 C0 00 40 00 70 00 A0 00 A8 00 C0 00 ;  .....@.p.......
00DCF4  .dc.b 58 00 00 00 AC 00 10 00 74 00 3C 00 5E 00 18 00 ; X.......t.<.^...
00DD04  .dc.b 3C 00 1E 00 24 00 3E 00 29 00 0C 00 03 80 00 00 ; <...$.>.).......
00DD14  .dc.b 07 C0 00 00 00 00 00 00 00 00 00 00 00 00 00 00 ; ................
00DD24  .dc.b 00 00 00 00 00 00 00 00 00 00 00 00 00 00 00 00 ; ................
00DD34  .dc.b 00 00 00 00 00 00 00 00 00 00 00 00 00 00 20 00 ; .............. .
00DD44  .dc.b 20 00 40 00 40 00 A0 00 00 00 E0 00 00 00 E0 00 ;  .@.@...........
00DD54  .dc.b 70 04 AD F8 BD FE 52 01 DF FE A8 56 EC 7E 50 01 ; p.....R....V.~P.
00DD64  .dc.b 98 04 00 78 40 80 04 00 F8 00 86 00 40 00 00 00 ; ...x@.......@...
00DD74  .dc.b C0 00 00 00 80 00 00 00 C0 00 00 00 60 00 00 00 ; ............`...
00DD84  .dc.b A0 00 80 00 40 00 40 00 10 00 10 00 A8 00 20 00 ; ....@.@....... .
00DD94  .dc.b CC 00 48 00 40 00 00 00 66 00 04 00 20 00 00 00 ; ..H.@...f... ...
00DDA4  .dc.b 01 00 38 00 32 00 0E 00 1C 00 0C 00 18 00 18 00 ; ..8.2...........
00DDB4  .dc.b 00 00 00 00 00 00 00 00 00 00 00 00 00 00 00 00 ; ................
00DDC4  .dc.b 00 00 00 00 00 A8 00 58 01 5A 00 66 02 27 00 31 ; .......X.Z.f.'.1
00DDD4  .dc.b 00 2E 00 20 00 5B 00 59 0A A5 08 B6 05 19 04 20 ; ... .[.Y....... 
00DDE4  .dc.b 0B CA 02 CC 0E 34 07 F7 0C F3 0F F5 06 4C 03 D0 ; .....4.......L..
00DDF4  .dc.b 02 B7 03 67 02 87 03 48 02 CF 03 4F 05 29 01 80 ; ...g...H...O.)..
00DE04  .dc.b 06 AC 00 1D 03 C1 00 7D 01 B9 00 39 00 E6 00 86 ; .......}...9....
00DE14  .dc.b 00 DA 00 1D 00 CF 00 1D 00 80 00 1A 28 B5 00 2A ; ............(..*
00DE24  .dc.b 9E 37 0C 29 D0 B5 1E 29 E6 6D 1F B8 CF B5 0F 10 ; .7.)...).m......
00DE34  .dc.b 92 D9 03 01 02 61 00 C1 00 01 00 01 00 01 00 01 ; .....a..........
00DE44  .dc.b 00 03 00 03 00 01 00 01 00 01 00 01 00 02 00 00 ; ................
00DE54  .dc.b 00 00 00 00 00 00 00 00 00 00 00 00 00 00 00 00 ; ................
00DE64  .dc.b 00 A4 00 20 01 98 00 18 03 C8 00 06 03 D9 00 00 ; ... ............
00DE74  .dc.b 03 A0 00 0F 0B 49 00 01 05 DF 08 18 03 32 0C C1 ; .....I.......2..
00DE84  .dc.b 02 28 0F F3 04 8A 0F C3 04 20 00 0F 04 87 00 98 ; .(....... ......
00DE94  .dc.b 04 AF 00 97 04 AF 00 90 06 54 00 4B 05 62 01 60 ; .........T.K.b.`
00DEA4  .dc.b 02 02 00 00 01 C6 00 00 00 79 00 86 00 E7 00 02 ; .........y......
00DEB4  .dc.b 00 E7 00 02 00 E2 00 05 D8 D2 C0 15 62 54 64 12 ; ............bTd.
00DEC4  .dc.b 21 D6 2C 10 00 06 18 00 30 CE 00 C2 1C AA 00 A0 ; !.,.....0.......
00DED4  .dc.b 03 02 00 00 00 02 00 00 00 02 00 00 00 00 00 03 ; ................
00DEE4  .dc.b 00 02 00 00 00 02 00 00 00 03 00 01 00 00 00 00 ; ................
00DEF4  .dc.b 00 00 00 00 00 00 00 00 00 00 00 00 00 00 00 00 ; ................
00DF04  .dc.b 00 00 00 00 00 00 00 00 00 00 00 00 00 00 00 00 ; ................
00DF14  .dc.b 00 00 00 00 40 00 40 00 C0 00 80 00 C0 00 80 00 ; ....@.@.........
00DF24  .dc.b 40 00 C0 00 09 58 60 00 93 54 B3 F4 48 00 D8 FC ; @....X`..T..H...
00DF34  .dc.b A5 54 E7 F4 29 58 0F 00 16 00 DE 00 48 00 8C 00 ; .T..)X......H...
00DF44  .dc.b 80 00 C0 00 00 00 00 00 00 00 00 00 80 00 00 00 ; ................
00DF54  .dc.b 00 00 00 00 80 00 80 00 40 00 80 00 C0 00 00 00 ; ........@.......
00DF64  .dc.b 40 00 00 00 A0 00 40 00 40 00 80 00 40 00 80 00 ; @.....@.@...@...
00DF74  .dc.b B0 00 E0 00 A0 00 C0 00 40 00 E0 00 90 00 C0 00 ; ........@.......
00DF84  .dc.b 38 00 00 00 7C 00 00 00 00 00 00 00 00 00 00 00 ; 8...|...........
00DF94  .dc.b 00 00 00 00 00 00 00 00 00 00 00 00 00 00 00 00 ; ................
00DFA4  .dc.b 00 00 00 00 00 00 00 00 00 00 00 00 00 00 40 00 ; ..............@.
00DFB4  .dc.b 40 00 80 00 80 00 40 00 00 00 C0 00 00 00 C0 00 ; @.....@.........
00DFC4  .dc.b 60 08 9B F0 B3 F4 4C 0A DF FC 20 00 E8 F4 10 0A ; `.....L... .....
00DFD4  .dc.b D0 08 00 F0 21 00 08 00 70 00 4C 00 20 00 00 00 ; ....!...p.L. ...
00DFE4  .dc.b C0 00 00 00 00 00 00 00 80 00 00 00 80 00 00 00 ; ................
00DFF4  .dc.b 00 00 00 00 40 00 00 00 00 00 00 00 80 00 80 00 ; ....@...........
00E004  .dc.b A0 00 80 00 60 00 40 00 60 00 40 00 10 00 00 00 ; ....`.@.`.@.....
00E014  .dc.b 30 00 20 00 10 00 80 00 20 00 E0 00 C0 00 C0 00 ; 0. ..... .......
00E024  .dc.b 80 00 80 00 00 00 00 00 00 00 00 00 00 00 00 00 ; ................
00E034  .dc.b 00 A8 00 58 01 5A 00 66 02 26 00 30 00 2E 00 20 ; ...X.Z.f.&.0... 
00E044  .dc.b 00 5B 00 59 06 54 04 5F 03 5D 02 24 05 CB 01 4D ; .[.Y.T._.].$...M
00E054  .dc.b 07 14 03 F7 06 73 07 F5 03 2C 01 E0 01 5B 01 B3 ; .....s...,...[..
00E064  .dc.b 01 46 01 A1 01 6F 01 AF 02 94 00 C0 03 56 00 0E ; .F...o.......V..
00E074  .dc.b 01 E2 00 3E 00 DC 00 1C 00 F3 00 C3 00 D9 00 18 ; ...>............
00E084  .dc.b 00 D5 00 1C 00 FE 00 35 00 2F 00 35 04 22 00 38 ; .......5./.5.".8
00E094  .dc.b 65 3E 06 2A F4 84 07 B2 FA D4 0F 12 F7 49 07 80 ; e>.*.........I..
00E0A4  .dc.b 19 BD 01 C0 01 1A 00 0D 00 05 00 06 00 07 00 06 ; ................
00E0B4  .dc.b 00 16 00 07 00 1A 00 1F 00 10 00 04 00 11 00 00 ; ................
00E0C4  .dc.b 00 13 00 00 00 00 00 00 00 00 00 00 00 A4 00 20 ; ............... 
00E0D4  .dc.b 01 98 00 18 03 C9 00 06 03 D9 00 00 03 A0 00 0F ; ................
00E0E4  .dc.b 07 A0 00 00 03 DB 04 18 01 B3 06 40 01 18 07 F3 ; ...........@....
00E0F4  .dc.b 02 4A 07 E3 02 10 00 0F 02 43 00 4C 02 57 00 4E ; .J.......C.L.W.N
00E104  .dc.b 02 5F 00 40 03 2A 00 25 02 B1 00 B0 01 01 00 00 ; ._.@.*.%........
00E114  .dc.b 00 E3 00 00 00 3C 00 C3 00 E5 00 03 00 E1 00 03 ; .....<..........
00E124  .dc.b 00 CB 00 08 00 4B 00 08 3C 46 30 01 19 55 1A 10 ; .....K..<F0..U..
00E134  .dc.b 08 4D 0E 40 00 ED 04 E0 18 76 00 72 1E 0A 00 02 ; .M.@.....v.r....
00E144  .dc.b 01 F2 00 02 00 09 00 01 00 09 00 01 00 18 00 00 ; ................
00E154  .dc.b 00 00 00 1C 00 1B 00 07 00 1E 00 06 00 1C 00 0C ; ................
00E164  .dc.b 00 00 00 00 00 00 00 00 00 00 00 00 00 00 00 00 ; ................
00E174  .dc.b 00 00 00 00 00 00 00 00 00 00 00 00 00 00 00 00 ; ................
00E184  .dc.b 80 00 80 00 80 00 00 00 80 00 80 00 00 00 80 00 ; ................
00E194  .dc.b BB F8 E0 00 52 A8 72 A8 A8 54 B8 FC 45 A8 C7 A8 ; ....R.r..T..E...
00E1A4  .dc.b 99 78 1F 00 A6 00 EE 00 D8 00 EC 00 50 00 40 00 ; .x..........P.@.
00E1B4  .dc.b 20 00 00 00 00 00 00 00 00 00 00 00 00 00 00 00 ;  ...............
00E1C4  .dc.b 80 00 00 00 80 00 00 00 00 00 00 00 00 00 00 00 ; ................
00E1D4  .dc.b 00 00 00 00 00 00 00 00 00 00 00 00 00 00 00 00 ; ................
00E1E4  .dc.b 00 00 00 00 80 00 00 00 00 00 00 00 00 00 00 00 ; ................
00E1F4  .dc.b 80 00 00 00 C0 00 00 00 E0 00 00 00 00 00 00 00 ; ................
00E204  .dc.b 00 00 00 00 00 00 00 00 00 00 00 00 00 00 00 00 ; ................
00E214  .dc.b 00 00 00 00 00 00 00 00 00 00 80 00 80 00 00 00 ; ................
00E224  .dc.b 00 00 80 00 00 00 80 00 00 00 80 00 E2 A8 19 50 ; ...............P
00E234  .dc.b 72 A8 8D 54 BF FC 40 00 D8 A8 20 54 60 28 80 D0 ; r..T..@... T`(..
00E244  .dc.b 11 00 08 00 10 00 0C 00 B0 00 00 00 E0 00 00 00 ; ................
00E254  .dc.b 00 00 80 00 00 00 80 00 00 00 80 00 80 00 00 00 ; ................
00E264  .dc.b 80 00 00 00 00 00 00 00 00 00 00 00 00 00 00 00 ; ................
00E274  .dc.b 00 00 00 00 00 00 00 00 00 00 00 00 00 00 00 00 ; ................
00E284  .dc.b 80 00 00 00 80 00 00 00 80 00 00 00 00 00 00 00 ; ................
00E294  .dc.b 00 00 00 00 00 00 00 00 00 00 00 00 00 00 00 00 ; ................
00E2A4  .dc.b 00 A8 00 58 01 5A 00 66 03 16 00 18 02 16 00 10 ; ...X.Z.f........
00E2B4  .dc.b 02 2B 00 29 02 34 02 3F 01 2B 01 36 02 CA 00 CC ; .+.).4.?.+.6....
00E2C4  .dc.b 03 8D 01 FF 03 3B 03 FD 03 94 00 F0 02 AB 02 D3 ; .....;..........
00E2D4  .dc.b 02 A6 02 D1 02 B7 02 D7 03 4A 00 60 01 A3 00 0F ; .........J.`....
00E2E4  .dc.b 01 F3 00 1F 01 EE 00 0E 00 F9 00 E1 00 AA 00 38 ; ...............8
00E2F4  .dc.b 00 A5 00 3C 00 57 00 1A 00 4A 00 0C 00 25 00 06 ; ...<.W...J...%..
00E304  .dc.b 00 D6 00 C3 01 4C 01 F0 05 7B 00 FC 06 7E 00 7F ; .....L...{...~..
00E314  .dc.b 07 07 00 00 07 EB 00 0E 04 56 00 18 00 B8 00 30 ; .........V.....0
00E324  .dc.b 01 64 01 70 02 48 01 E0 05 50 01 00 04 E0 00 00 ; .d.p.H...P......
00E334  .dc.b 01 F0 00 00 00 00 00 00 00 00 00 00 00 A4 00 20 ; ............... 
00E344  .dc.b 01 98 00 18 03 E1 00 06 03 E9 00 00 03 D0 00 07 ; ................
00E354  .dc.b 03 C0 00 00 01 C9 02 08 00 B2 03 41 00 88 03 FB ; ...........A....
00E364  .dc.b 01 22 03 F3 03 08 00 07 01 23 02 2C 01 27 02 2E ; .".......#.,.'..
00E374  .dc.b 01 2F 02 20 03 95 00 12 01 50 00 50 01 80 00 00 ; ./. .....P.P....
00E384  .dc.b 01 F1 00 00 00 1E 00 E1 00 C6 00 00 00 C3 00 00 ; ................
00E394  .dc.b 00 65 00 04 00 73 00 02 00 39 00 01 07 38 04 C0 ; .e...s...9...8..
00E3A4  .dc.b 06 0F 06 CF 02 02 02 82 01 80 01 00 00 FF 00 00 ; ................
00E3B4  .dc.b 01 F1 00 00 00 66 00 04 00 CC 00 08 00 8C 01 00 ; .....f..........
00E3C4  .dc.b 02 18 01 80 06 B0 00 80 07 00 03 00 06 00 06 00 ; ................
00E3D4  .dc.b 00 00 00 00 00 00 00 00 00 00 00 00 00 00 00 00 ; ................
00E3E4  .dc.b 00 00 00 00 00 00 00 00 00 00 00 00 00 00 00 00 ; ................
00E3F4  .dc.b 00 00 00 00 00 00 00 00 00 00 00 00 80 00 80 00 ; ................
00E404  .dc.b 9F F0 C0 00 65 58 65 50 B1 A8 B1 F8 4F 58 CF 50 ; ....eXeP....OX.P
00E414  .dc.b 45 F0 0C 00 3A 00 20 00 30 00 20 00 90 00 00 00 ; E...:. .0. .....
00E424  .dc.b A0 00 80 00 00 00 00 00 00 00 00 00 00 00 00 00 ; ................
00E434  .dc.b 80 00 00 00 40 00 00 00 40 00 00 00 C0 00 00 00 ; ....@...@.......
00E444  .dc.b 40 00 00 00 40 00 00 00 80 00 00 00 00 00 00 00 ; @...@...........
00E454  .dc.b 00 00 00 00 00 00 00 00 00 00 00 00 00 00 00 00 ; ................
00E464  .dc.b 00 00 00 00 00 00 00 00 00 00 00 00 00 00 00 00 ; ................
00E474  .dc.b 00 00 00 00 00 00 00 00 00 00 00 00 00 00 00 00 ; ................
00E484  .dc.b 00 00 00 00 00 00 00 00 00 00 00 00 00 00 00 00 ; ................
00E494  .dc.b 00 00 00 00 00 00 00 00 00 00 80 00 C5 50 3A A0 ; .............P:.
00E4A4  .dc.b 65 50 9A A8 BF F8 40 00 C1 50 30 A8 32 50 C1 A0 ; eP....@..P0.2P..
00E4B4  .dc.b DE 00 00 00 D0 00 00 00 F0 00 00 00 60 00 80 00 ; ............`...
00E4C4  .dc.b 00 00 00 00 00 00 00 00 00 00 00 00 80 00 00 00 ; ................
00E4D4  .dc.b C0 00 00 00 C0 00 00 00 00 00 00 00 80 00 80 00 ; ................
00E4E4  .dc.b 80 00 00 00 80 00 00 00 00 00 00 00 00 00 00 00 ; ................
00E4F4  .dc.b 00 00 00 00 00 00 00 00 00 00 00 00 00 00 00 00 ; ................
00E504  .dc.b 00 00 00 00 00 00 00 00 00 00 00 00 00 00 00 00 ; ................
00E514  .dc.b 00 A8 00 58 01 5A 00 66 03 12 00 18 02 1E 00 18 ; ...X.Z.f........
00E524  .dc.b 02 33 00 31 03 2C 01 2F 02 B6 00 BA 03 4A 00 4C ; .3.1.,./.....J.L
00E534  .dc.b 01 C4 00 FE 03 9F 01 FD 03 CC 03 78 07 53 07 6B ; ...........x.S.k
00E544  .dc.b 05 52 07 69 05 5B 06 6B 07 25 06 30 05 D3 04 07 ; .R.i.[.k.%.0....
00E554  .dc.b 06 F9 00 0F 02 77 00 07 01 FC 01 F0 00 B2 00 38 ; .....w.........8
00E564  .dc.b 00 91 00 1C 00 56 00 1A 00 4B 00 0D 00 2D 00 0E ; .....V...K...-..
00E574  .dc.b 00 12 00 03 00 39 00 01 00 3E 00 00 00 33 00 04 ; .....9...>...3..
00E584  .dc.b 00 37 00 7E 01 5C 00 7E 00 15 00 3C 03 94 00 10 ; .7.~.\.~...<....
00E594  .dc.b 06 F8 02 00 0B 70 03 00 1B 30 01 00 07 80 00 00 ; .....p...0......
00E5A4  .dc.b 0F 80 00 00 00 00 00 00 00 00 00 00 00 A4 00 20 ; ............... 
00E5B4  .dc.b 01 98 00 18 03 E5 00 02 03 E1 00 00 03 C8 00 07 ; ................
00E5C4  .dc.b 03 D0 00 00 02 C5 01 04 02 72 01 81 00 44 01 FE ; .........r...D..
00E5D4  .dc.b 02 92 01 FB 00 80 03 07 02 93 07 14 00 97 07 12 ; ................
00E5E4  .dc.b 01 97 06 10 03 CA 06 09 03 A8 04 28 07 C0 00 00 ; ...........(....
00E5F4  .dc.b 03 F8 00 00 00 0F 01 F0 00 C6 00 00 00 E3 00 00 ; ................
00E604  .dc.b 00 65 00 04 00 72 00 02 00 31 00 01 00 1C 00 00 ; .e...r...1......
00E614  .dc.b 00 3E 00 00 00 0D 00 01 00 3B 00 03 00 01 00 61 ; .>.......;.....a
00E624  .dc.b 01 81 00 20 01 C3 01 E0 02 6C 00 60 05 08 02 00 ; ... .....l.`....
00E634  .dc.b 0C 80 02 00 14 80 04 00 18 80 18 00 30 00 30 00 ; ............0.0.
00E644  .dc.b 00 00 00 00 00 00 00 00 00 00 00 00 00 00 00 00 ; ................
00E654  .dc.b 00 00 00 00 00 00 00 00 00 00 00 00 00 00 00 00 ; ................
00E664  .dc.b 00 00 00 00 00 00 00 00 00 00 00 00 00 00 00 00 ; ................
00E674  .dc.b 9F F0 C0 00 6A A8 60 00 B1 58 B1 58 4E A8 CC 00 ; ....j.`..X.XN...
00E684  .dc.b 23 F0 04 00 98 00 90 00 88 00 80 00 48 00 00 00 ; #...........H...
00E694  .dc.b F0 00 C0 00 00 00 00 00 00 00 00 00 00 00 00 00 ; ................
00E6A4  .dc.b 80 00 00 00 C0 00 80 00 20 00 80 00 E0 00 00 00 ; ........ .......
00E6B4  .dc.b 20 00 00 00 20 00 80 00 40 00 00 00 80 00 00 00 ;  ... ...@.......
00E6C4  .dc.b 00 00 00 00 00 00 00 00 00 00 00 00 00 00 00 00 ; ................
00E6D4  .dc.b 00 00 00 00 00 00 00 00 00 00 00 00 00 00 00 00 ; ................
00E6E4  .dc.b 00 00 00 00 00 00 00 00 00 00 00 00 00 00 00 00 ; ................
00E6F4  .dc.b 00 00 00 00 00 00 00 00 00 00 00 00 00 00 00 00 ; ................
00E704  .dc.b 00 00 00 00 00 00 00 00 00 00 00 00 CA A0 35 50 ; ..............5P
00E714  .dc.b 60 00 9F F8 BD 58 42 A0 C0 00 33 F8 9A B0 61 40 ; `....XB...3...a@
00E724  .dc.b 6C 00 00 00 78 00 00 00 F8 00 00 00 30 00 C0 00 ; l...x.......0...
00E734  .dc.b 00 00 00 00 00 00 00 00 00 00 00 00 80 00 00 00 ; ................
00E744  .dc.b 40 00 00 00 60 00 00 00 00 00 00 00 C0 00 C0 00 ; @...`...........
00E754  .dc.b 40 00 00 00 C0 00 00 00 80 00 00 00 00 00 00 00 ; @...............
00E764  .dc.b 00 00 00 00 00 00 00 00 00 00 00 00 00 00 00 00 ; ................
00E774  .dc.b 00 00 00 00 00 00 00 00 00 00 00 00 00 00 00 00 ; ................
00E784  .dc.b 00 A8 00 58 01 5A 00 66 03 16 00 1C 02 0E 00 0C ; ...X.Z.f........
00E794  .dc.b 02 0F 00 0D 02 95 00 9F 03 53 00 55 01 AA 00 2C ; .........S.U...,
00E7A4  .dc.b 01 E2 00 7E 03 CF 00 FF 06 E5 03 BD 04 AA 07 36 ; ...~...........6
00E7B4  .dc.b 04 A9 07 35 05 AC 07 35 05 92 07 18 06 EB 06 03 ; ...5...5........
00E7C4  .dc.b 06 7D 02 07 03 39 00 01 01 FE 01 F8 00 8B 00 38 ; .}...9.........8
00E7D4  .dc.b 00 E6 00 7A 00 9B 00 1C 00 C6 00 07 01 71 00 01 ; ...z.........q..
00E7E4  .dc.b 00 9C 00 C0 03 A9 01 E0 01 50 00 C0 06 A3 00 03 ; .........P......
00E7F4  .dc.b 15 46 06 03 6E 8A 2D 03 1F 01 3C 01 1E 0F 38 01 ; .F..n.-...<...8.
00E804  .dc.b B4 07 38 00 D8 03 10 00 F0 01 00 00 C0 00 00 00 ; ..8.............
00E814  .dc.b 80 00 00 00 00 00 00 00 00 00 00 00 00 A4 00 20 ; ............... 
00E824  .dc.b 01 98 00 18 03 E1 00 02 03 F1 00 00 03 F0 00 03 ; ................
00E834  .dc.b 03 E0 00 00 03 6A 00 82 01 32 00 C1 01 22 00 FE ; .....j...2..."..
00E844  .dc.b 03 48 00 FD 04 C3 03 80 00 C8 07 09 00 CB 07 08 ; .H..............
00E854  .dc.b 01 CB 07 08 00 E5 07 04 03 D4 06 14 05 E0 02 00 ; ................
00E864  .dc.b 03 FE 00 00 00 07 01 F8 00 C7 00 00 00 85 00 04 ; ................
00E874  .dc.b 00 E3 00 03 00 F8 00 00 01 FE 00 00 01 3F 00 00 ; .............?..
00E884  .dc.b 00 19 00 00 02 31 02 00 05 60 01 02 18 84 00 83 ; .....1...`......
00E894  .dc.b 52 0C 22 05 C3 0E A2 0E C6 00 E4 00 44 00 40 00 ; R.".........D.@.
00E8A4  .dc.b 28 00 20 00 10 00 00 00 00 00 00 00 00 00 00 00 ; (. .............
00E8B4  .dc.b 00 00 00 00 00 00 00 00 00 00 00 00 00 00 00 00 ; ................
00E8C4  .dc.b 00 00 00 00 00 00 00 00 00 00 00 00 00 00 00 00 ; ................
00E8D4  .dc.b 00 00 00 00 00 00 00 00 00 00 00 00 00 00 00 00 ; ................
00E8E4  .dc.b 5F E0 40 00 85 50 80 00 40 00 40 00 B1 50 B0 00 ; _.@..P..@.@..P..
00E8F4  .dc.b 93 E0 00 00 AC 00 88 00 C4 00 C0 00 A4 00 80 00 ; ................
00E904  .dc.b 78 00 60 00 00 00 00 00 80 00 00 00 A0 00 80 00 ; x.`.............
00E914  .dc.b D0 00 00 00 18 00 C0 00 88 00 00 00 28 00 50 00 ; ............(.P.
00E924  .dc.b A0 00 C0 00 B0 00 E0 00 E0 00 80 00 40 00 C0 00 ; ............@...
00E934  .dc.b 40 00 80 00 00 00 00 00 80 00 00 00 00 00 00 00 ; @...............
00E944  .dc.b 00 00 00 00 00 00 00 00 00 00 00 00 00 00 00 00 ; ................
00E954  .dc.b 00 00 00 00 00 00 00 00 00 00 00 00 00 00 00 00 ; ................
00E964  .dc.b 00 00 00 00 00 00 00 00 00 00 00 00 00 00 00 00 ; ................
00E974  .dc.b 00 00 00 00 00 00 00 00 00 00 00 00 45 60 BA 80 ; ............E`..
00E984  .dc.b 80 00 7F F0 4C 00 B3 F0 B8 00 47 F0 4D 40 B2 A0 ; ....L.....G.M@..
00E994  .dc.b 74 00 00 00 3C 00 00 00 7C 00 00 00 98 00 60 00 ; t...<...|.....`.
00E9A4  .dc.b 00 00 00 00 80 00 00 00 60 00 00 00 F0 00 C0 00 ; ........`.......
00E9B4  .dc.b 20 00 20 00 70 00 70 00 A8 00 20 00 30 00 20 00 ;  . .p.p... .0. .
00E9C4  .dc.b 10 00 00 00 60 00 40 00 00 00 00 00 40 00 00 00 ; ....`.@.....@...
00E9D4  .dc.b 80 00 00 00 80 00 00 00 00 00 00 00 00 00 00 00 ; ................
00E9E4  .dc.b 00 00 00 00 00 00 00 00 00 00 00 00 00 00 00 00 ; ................
00E9F4  .dc.b 00 00 00 00 00 A8 00 58 01 5A 00 66 03 16 00 1C ; .......X.Z.f....
00EA04  .dc.b 02 0E 00 0C 02 0F 00 0D 02 95 00 9F 03 53 00 55 ; .............S.U
00EA14  .dc.b 01 AA 00 2C 01 E2 00 7E 03 CF 00 FF 06 E5 03 BD ; ...,...~........
00EA24  .dc.b 04 AA 07 36 04 A9 07 35 05 AC 07 35 05 92 07 18 ; ...6...5...5....
00EA34  .dc.b 06 EB 06 03 06 7D 02 07 03 39 00 01 01 FE 01 F8 ; .....}...9......
00EA44  .dc.b 00 A4 00 3C 00 94 00 1B 00 C9 00 0E 00 A6 00 07 ; ...<............
00EA54  .dc.b 00 B9 00 21 00 D4 00 70 00 69 00 20 04 B0 01 00 ; ...!...p.i. ....
00EA64  .dc.b 13 E0 13 00 16 40 1F 00 14 80 1E 00 4A 00 0C 00 ; .....@......J...
00EA74  .dc.b 6C 00 08 00 78 00 00 00 60 00 00 00 40 00 00 00 ; l...x...`...@...
00EA84  .dc.b 00 00 00 00 00 00 00 00 00 00 00 00 00 00 00 00 ; ................
00EA94  .dc.b 00 A4 00 20 01 98 00 18 03 E1 00 02 03 F1 00 00 ; ... ............
00EAA4  .dc.b 03 F0 00 03 03 E0 00 00 03 6A 00 82 01 32 00 C1 ; .........j...2..
00EAB4  .dc.b 01 22 00 FE 03 48 00 FD 04 C3 03 80 00 C8 07 09 ; ."...H..........
00EAC4  .dc.b 00 CB 07 08 01 CB 07 08 00 E5 07 04 03 D4 06 14 ; ................
00EAD4  .dc.b 05 E0 02 00 03 FE 00 00 00 07 01 F8 00 C3 00 00 ; ................
00EAE4  .dc.b 00 E4 00 04 00 F1 00 01 00 F8 00 00 00 DE 00 00 ; ................
00EAF4  .dc.b 00 0F 00 00 01 98 00 80 06 50 00 40 0C 80 10 80 ; .........P.@....
00EB04  .dc.b 20 C0 18 00 61 80 68 00 32 00 30 00 14 00 10 00 ;  ...a.h.2.0.....
00EB14  .dc.b 08 00 00 00 00 00 00 00 00 00 00 00 00 00 00 00 ; ................
00EB24  .dc.b 00 00 00 00 00 00 00 00 00 00 00 00 00 00 00 00 ; ................
00EB34  .dc.b 00 00 00 00 00 00 00 00 00 00 00 00 00 00 00 00 ; ................
00EB44  .dc.b 00 00 00 00 00 00 00 00 00 00 00 00 00 00 00 00 ; ................
00EB54  .dc.b 00 00 00 00 5F E0 40 00 85 50 80 00 40 00 40 00 ; ...._.@..P..@.@.
00EB64  .dc.b B1 50 B0 00 93 E0 00 00 AC 00 88 00 C4 00 C0 00 ; .P..............
00EB74  .dc.b A4 00 80 00 78 00 60 00 80 00 00 00 40 00 00 00 ; ....x.`.....@...
00EB84  .dc.b 20 00 80 00 50 00 80 00 B8 00 C0 00 E8 00 C0 00 ;  ...P...........
00EB94  .dc.b 34 00 00 00 A8 00 30 00 28 00 30 00 36 00 3C 00 ; 4.....0.(.0.6.<.
00EBA4  .dc.b 34 00 38 00 68 00 7C 00 32 00 38 00 27 00 20 00 ; 4.8.h.|.2.8.'. .
00EBB4  .dc.b 4F 80 00 00 00 00 00 00 00 00 00 00 00 00 00 00 ; O...............
00EBC4  .dc.b 00 00 00 00 00 00 00 00 00 00 00 00 00 00 00 00 ; ................
00EBD4  .dc.b 00 00 00 00 00 00 00 00 00 00 00 00 00 00 00 00 ; ................
00EBE4  .dc.b 00 00 00 00 00 00 00 00 00 00 00 00 00 00 00 00 ; ................
00EBF4  .dc.b 45 60 BA 80 80 00 7F F0 4C 00 B3 F0 B8 00 47 F0 ; E`......L.....G.
00EC04  .dc.b 4D 40 B2 A0 74 00 00 00 3C 00 00 00 7C 00 00 00 ; M@..t...<...|...
00EC14  .dc.b 98 00 60 00 80 00 00 00 C0 00 00 00 60 00 00 00 ; ..`.........`...
00EC24  .dc.b 70 00 40 00 20 00 20 00 10 00 10 00 CC 00 C0 00 ; p.@. . .........
00EC34  .dc.b CC 00 08 00 4C 00 08 00 42 00 00 00 46 00 04 00 ; ....L...B...F...
00EC44  .dc.b 02 00 70 00 44 00 1C 00 58 00 18 00 70 00 30 00 ; ..p.D...X...p.0.
00EC54  .dc.b 00 00 00 00 00 00 00 00 00 00 00 00 00 00 00 00 ; ................
00EC64  .dc.b 00 00 00 00 00 A8 00 58 01 5A 00 66 03 16 00 1C ; .......X.Z.f....
00EC74  .dc.b 02 0E 00 0C 02 0F 00 0D 02 95 00 9F 03 53 00 55 ; .............S.U
00EC84  .dc.b 01 AA 00 2C 01 E2 00 7E 03 CF 00 FF 06 E5 03 BD ; ...,...~........
00EC94  .dc.b 04 AA 07 36 04 A9 07 35 05 AC 07 35 05 92 07 18 ; ...6...5...5....
00ECA4  .dc.b 06 EB 06 03 06 7D 02 07 03 39 00 01 01 FE 01 F8 ; .....}...9......
00ECB4  .dc.b 00 A5 00 3C 00 94 00 1A 00 4A 00 0D 01 64 00 47 ; ...<.....J...d.G
00ECC4  .dc.b 01 BB 00 E3 02 AC 00 60 11 51 12 00 87 A0 1E 00 ; .......`.Q......
00ECD4  .dc.b CD C0 1E 80 E1 00 1C 00 E8 00 20 00 80 00 00 00 ; .......... .....
00ECE4  .dc.b 00 00 00 00 00 00 00 00 00 00 00 00 00 00 00 00 ; ................
00ECF4  .dc.b 00 00 00 00 00 00 00 00 00 00 00 00 00 00 00 00 ; ................
00ED04  .dc.b 00 A4 00 20 01 98 00 18 03 E1 00 02 03 F1 00 00 ; ... ............
00ED14  .dc.b 03 F0 00 03 03 E0 00 00 03 6A 00 82 01 32 00 C1 ; .........j...2..
00ED24  .dc.b 01 22 00 FE 03 48 00 FD 04 C3 03 80 00 C8 07 09 ; ."...H..........
00ED34  .dc.b 00 CB 07 08 01 CB 07 08 00 E5 07 04 03 D4 06 14 ; ................
00ED44  .dc.b 05 E0 02 00 03 FE 00 00 00 07 01 F8 00 C3 00 00 ; ................
00ED54  .dc.b 00 E5 00 04 00 F2 00 02 01 B8 00 00 01 1C 00 00 ; ................
00ED64  .dc.b 03 1F 01 00 EC B1 D0 80 61 40 79 40 21 00 31 00 ; ........a@y@!.1.
00ED74  .dc.b 03 00 00 00 18 00 00 00 00 00 00 00 00 00 00 00 ; ................
00ED84  .dc.b 00 00 00 00 00 00 00 00 00 00 00 00 00 00 00 00 ; ................
00ED94  .dc.b 00 00 00 00 00 00 00 00 00 00 00 00 00 00 00 00 ; ................
00EDA4  .dc.b 00 00 00 00 00 00 00 00 00 00 00 00 00 00 00 00 ; ................
00EDB4  .dc.b 00 00 00 00 00 00 00 00 00 00 00 00 00 00 00 00 ; ................
00EDC4  .dc.b 00 00 00 00 5F E0 40 00 85 50 80 00 40 00 40 00 ; ...._.@..P..@.@.
00EDD4  .dc.b B1 50 B0 00 93 E0 00 00 AC 00 88 00 C4 00 C0 00 ; .P..............
00EDE4  .dc.b A4 00 80 00 78 00 60 00 00 00 00 00 80 00 00 00 ; ....x.`.........
00EDF4  .dc.b 40 00 00 00 A0 00 00 00 50 00 80 00 A8 00 C0 00 ; @.......P.......
00EE04  .dc.b 58 00 00 00 AC 00 10 00 74 00 3C 00 5E 00 18 00 ; X.......t.<.^...
00EE14  .dc.b 3C 00 1E 00 24 00 3E 00 29 00 0C 00 03 80 00 00 ; <...$.>.).......
00EE24  .dc.b 07 C0 00 00 00 00 00 00 00 00 00 00 00 00 00 00 ; ................
00EE34  .dc.b 00 00 00 00 00 00 00 00 00 00 00 00 00 00 00 00 ; ................
00EE44  .dc.b 00 00 00 00 00 00 00 00 00 00 00 00 00 00 00 00 ; ................
00EE54  .dc.b 00 00 00 00 00 00 00 00 00 00 00 00 00 00 00 00 ; ................
00EE64  .dc.b 45 60 BA 80 80 00 7F F0 4C 00 B3 F0 B8 00 47 F0 ; E`......L.....G.
00EE74  .dc.b 4D 40 B2 A0 74 00 00 00 3C 00 00 00 7C 00 00 00 ; M@..t...<...|...
00EE84  .dc.b 98 00 60 00 00 00 00 00 80 00 00 00 C0 00 00 00 ; ..`.............
00EE94  .dc.b E0 00 80 00 60 00 40 00 10 00 10 00 A8 00 20 00 ; ....`.@....... .
00EEA4  .dc.b CC 00 48 00 40 00 00 00 66 00 04 00 20 00 00 00 ; ..H.@...f... ...
00EEB4  .dc.b 01 00 38 00 32 00 0E 00 1C 00 0C 00 18 00 18 00 ; ..8.2...........
00EEC4  .dc.b 00 00 00 00 00 00 00 00 00 00 00 00 00 00 00 00 ; ................
00EED4  .dc.b 00 00 00 00 00 A8 00 58 01 5A 00 66 03 12 00 18 ; .......X.Z.f....
00EEE4  .dc.b 02 1E 00 18 02 33 00 31 03 2C 01 2F 02 B6 00 BA ; .....3.1.,./....
00EEF4  .dc.b 03 4A 00 4C 01 C4 00 FE 03 9F 01 FD 03 CC 03 78 ; .J.L...........x
00EF04  .dc.b 07 53 07 6B 05 52 07 69 05 5B 06 6B 07 25 06 30 ; .S.k.R.i.[.k.%.0
00EF14  .dc.b 05 D3 04 07 06 F9 00 0F 02 77 00 07 01 FC 01 F0 ; .........w......
00EF24  .dc.b 00 AB 00 38 00 AD 00 34 00 56 00 1A 28 2B 00 0D ; ...8...4.V..(+..
00EF34  .dc.b 9E 35 0C 06 D0 BB 1E 23 E6 7D 1F B0 CF A5 0F 00 ; .5.....#.}......
00EF44  .dc.b 92 DD 03 01 02 65 00 C1 00 01 00 01 00 01 00 01 ; .....e..........
00EF54  .dc.b 00 03 00 03 00 01 00 01 00 01 00 01 00 02 00 00 ; ................
00EF64  .dc.b 00 00 00 00 00 00 00 00 00 00 00 00 00 00 00 00 ; ................
00EF74  .dc.b 00 A4 00 20 01 98 00 18 03 E5 00 02 03 E1 00 00 ; ... ............
00EF84  .dc.b 03 C8 00 07 03 D0 00 00 02 C5 01 04 02 72 01 81 ; .............r..
00EF94  .dc.b 00 44 01 FE 02 92 01 FB 00 80 03 07 02 93 07 14 ; .D..............
00EFA4  .dc.b 00 97 07 12 01 97 06 10 03 CA 06 09 03 A8 04 28 ; ...............(
00EFB4  .dc.b 07 C0 00 00 03 F8 00 00 00 0F 01 F0 00 C7 00 00 ; ................
00EFC4  .dc.b 00 CB 00 08 00 65 00 04 D8 32 C0 02 62 39 64 01 ; .....e...2..b9d.
00EFD4  .dc.b 21 DC 2C 00 00 0E 18 00 30 DE 00 C2 1C AE 00 A0 ; !.,.....0.......
00EFE4  .dc.b 03 06 00 00 00 02 00 00 00 02 00 00 00 00 00 03 ; ................
00EFF4  .dc.b 00 02 00 00 00 02 00 00 00 03 00 01 00 00 00 00 ; ................
00F004  .dc.b 00 00 00 00 00 00 00 00 00 00 00 00 00 00 00 00 ; ................
00F014  .dc.b 00 00 00 00 00 00 00 00 00 00 00 00 00 00 00 00 ; ................
00F024  .dc.b 00 00 00 00 00 00 00 00 00 00 00 00 00 00 00 00 ; ................
00F034  .dc.b 00 00 00 00 9F F0 C0 00 6A A8 60 00 B1 58 B1 58 ; ........j.`..X.X
00F044  .dc.b 4E A8 CC 00 23 F0 04 00 98 00 90 00 88 00 80 00 ; N...#...........
00F054  .dc.b 48 00 00 00 F0 00 C0 00 00 00 00 00 00 00 00 00 ; H...............
00F064  .dc.b 80 00 00 00 80 00 00 00 40 00 00 00 C0 00 00 00 ; ........@.......
00F074  .dc.b 40 00 00 00 A0 00 40 00 40 00 80 00 40 00 80 00 ; @.....@.@...@...
00F084  .dc.b B0 00 E0 00 A0 00 C0 00 40 00 E0 00 90 00 C0 00 ; ........@.......
00F094  .dc.b 38 00 00 00 7C 00 00 00 00 00 00 00 00 00 00 00 ; 8...|...........
00F0A4  .dc.b 00 00 00 00 00 00 00 00 00 00 00 00 00 00 00 00 ; ................
00F0B4  .dc.b 00 00 00 00 00 00 00 00 00 00 00 00 00 00 00 00 ; ................
00F0C4  .dc.b 00 00 00 00 00 00 00 00 00 00 00 00 00 00 00 00 ; ................
00F0D4  .dc.b CA A0 35 50 60 00 9F F8 BD 58 42 A0 C0 00 33 F8 ; ..5P`....XB...3.
00F0E4  .dc.b 9A B0 61 40 6C 00 00 00 78 00 00 00 F8 00 00 00 ; ..a@l...x.......
00F0F4  .dc.b 30 00 C0 00 00 00 00 00 00 00 00 00 80 00 00 00 ; 0...............
00F104  .dc.b 80 00 00 00 C0 00 00 00 00 00 00 00 80 00 80 00 ; ................
00F114  .dc.b A0 00 80 00 60 00 40 00 60 00 40 00 10 00 00 00 ; ....`.@.`.@.....
00F124  .dc.b 30 00 20 00 10 00 80 00 20 00 E0 00 C0 00 C0 00 ; 0. ..... .......
00F134  .dc.b 80 00 80 00 00 00 00 00 00 00 00 00 00 00 00 00 ; ................
00F144  .dc.b 00 A8 00 58 01 5A 00 66 03 16 00 18 02 16 00 10 ; ...X.Z.f........
00F154  .dc.b 02 2B 00 29 02 34 02 3F 01 2B 01 36 02 CA 00 CC ; .+.).4.?.+.6....
00F164  .dc.b 03 8D 01 FF 03 3B 03 FD 03 94 00 F0 02 AB 02 D3 ; .....;..........
00F174  .dc.b 02 A6 02 D1 02 B7 02 D7 03 4A 00 60 01 A3 00 0F ; .........J.`....
00F184  .dc.b 01 F3 00 1F 01 EE 00 0E 00 F9 00 E1 00 95 00 1C ; ................
00F194  .dc.b 00 90 00 1C 00 57 00 1A 00 49 00 0E 04 2A 00 0C ; .....W...I...*..
00F1A4  .dc.b 65 34 06 07 F4 B5 07 86 FA F4 0F 40 F7 7B 07 C0 ; e4.........@.{..
00F1B4  .dc.b 19 BB 01 C2 01 1A 00 03 00 0A 00 03 00 0B 00 03 ; ................
00F1C4  .dc.b 00 0B 00 03 00 0D 00 0F 00 08 00 02 00 08 00 00 ; ................
00F1D4  .dc.b 00 09 00 00 00 00 00 00 00 00 00 00 00 A4 00 20 ; ............... 
00F1E4  .dc.b 01 98 00 18 03 E1 00 06 03 E9 00 00 03 D0 00 07 ; ................
00F1F4  .dc.b 03 C0 00 00 01 C9 02 08 00 B2 03 41 00 88 03 FB ; ...........A....
00F204  .dc.b 01 22 03 F3 03 08 00 07 01 23 02 2C 01 27 02 2E ; .".......#.,.'..
00F214  .dc.b 01 2F 02 20 03 95 00 12 01 50 00 50 01 80 00 00 ; ./. .....P.P....
00F224  .dc.b 01 F1 00 00 00 1E 00 E1 00 E3 00 00 00 E2 00 00 ; ................
00F234  .dc.b 00 65 00 04 00 71 00 00 3C 33 30 02 19 38 1A 00 ; .e...q..<30..8..
00F244  .dc.b 08 79 0E 01 00 9B 04 83 18 14 00 04 1E 1D 00 01 ; .y..............
00F254  .dc.b 01 FC 00 00 00 0C 00 00 00 0C 00 00 00 0C 00 00 ; ................
00F264  .dc.b 00 00 00 0E 00 0D 00 03 00 0F 00 03 00 0E 00 06 ; ................
00F274  .dc.b 00 00 00 00 00 00 00 00 00 00 00 00 00 00 00 00 ; ................
00F284  .dc.b 00 00 00 00 00 00 00 00 00 00 00 00 00 00 00 00 ; ................
00F294  .dc.b 00 00 00 00 00 00 00 00 00 00 00 00 80 00 80 00 ; ................
00F2A4  .dc.b 9F F0 C0 00 65 58 65 50 B1 A8 B1 F8 4F 58 CF 50 ; ....eXeP....OX.P
00F2B4  .dc.b 45 F0 0C 00 3A 00 20 00 30 00 20 00 90 00 00 00 ; E...:. .0. .....
00F2C4  .dc.b A0 00 80 00 00 00 00 00 00 00 00 00 00 00 00 00 ; ................
00F2D4  .dc.b 00 00 00 00 00 00 00 00 00 00 00 00 80 00 00 00 ; ................
00F2E4  .dc.b 80 00 00 00 80 00 00 00 00 00 80 00 80 00 00 00 ; ................
00F2F4  .dc.b C0 00 00 00 C0 00 00 00 00 00 80 00 00 00 80 00 ; ................
00F304  .dc.b 40 00 00 00 E0 00 00 00 F0 00 00 00 00 00 00 00 ; @...............
00F314  .dc.b 00 00 00 00 00 00 00 00 00 00 00 00 00 00 00 00 ; ................
00F324  .dc.b 00 00 00 00 00 00 00 00 00 00 00 00 00 00 00 00 ; ................
00F334  .dc.b 00 00 00 00 00 00 00 00 00 00 80 00 C5 50 3A A0 ; .............P:.
00F344  .dc.b 65 50 9A A8 BF F8 40 00 C1 50 30 A8 32 50 C1 A0 ; eP....@..P0.2P..
00F354  .dc.b DE 00 00 00 D0 00 00 00 F0 00 00 00 60 00 80 00 ; ............`...
00F364  .dc.b 00 00 00 00 00 00 00 00 00 00 00 00 00 00 00 00 ; ................
00F374  .dc.b 00 00 00 00 00 00 00 00 80 00 00 00 00 00 00 00 ; ................
00F384  .dc.b 00 00 00 00 00 00 00 00 80 00 80 00 C0 00 80 00 ; ................
00F394  .dc.b C0 00 80 00 40 00 00 00 40 00 00 00 80 00 80 00 ; ....@...@.......
00F3A4  .dc.b 00 00 00 00 00 00 00 00 00 00 00 00 00 00 00 00 ; ................
00F3B4  .dc.b 00 A8 00 58 01 5A 00 66 02 26 00 30 00 2E 00 20 ; ...X.Z.f.&.0... 
00F3C4  .dc.b 00 5B 00 59 06 54 04 5F 03 5D 02 24 05 CB 01 4D ; .[.Y.T._.].$...M
00F3D4  .dc.b 07 14 03 F7 06 73 07 F5 03 2C 01 E0 01 5B 01 B3 ; .....s...,...[..
00F3E4  .dc.b 01 46 01 A1 01 6F 01 AF 02 94 00 C0 03 56 00 0E ; .F...o.......V..
00F3F4  .dc.b 01 E2 00 3E 00 DC 00 1C 00 F3 00 C3 01 6A 00 78 ; ...>.........j.x
00F404  .dc.b 01 20 00 3A 00 AB 00 32 00 B8 00 30 00 55 00 1D ; . .:...2...0.U..
00F414  .dc.b 00 D5 00 99 01 18 01 9C 05 69 00 CC 06 33 00 00 ; .........i...3..
00F424  .dc.b 07 2F 00 00 07 D8 00 1C 04 56 00 18 00 B8 00 30 ; ./.......V.....0
00F434  .dc.b 01 64 01 70 02 48 01 E0 05 50 01 00 04 E0 00 00 ; .d.p.H...P......
00F444  .dc.b 01 F0 00 00 00 00 00 00 00 00 00 00 00 A4 00 20 ; ............... 
00F454  .dc.b 01 98 00 18 03 C9 00 06 03 D9 00 00 03 A0 00 0F ; ................
00F464  .dc.b 07 A0 00 00 03 DB 04 18 01 B3 06 40 01 18 07 F3 ; ...........@....
00F474  .dc.b 02 4A 07 E3 02 10 00 0F 02 43 00 4C 02 57 00 4E ; .J.......C.L.W.N
00F484  .dc.b 02 5F 00 40 03 2A 00 25 02 B1 00 B0 01 01 00 00 ; ._.@.*.%........
00F494  .dc.b 00 E3 00 00 00 3C 00 C3 01 86 00 02 01 C6 00 00 ; .....<..........
00F4A4  .dc.b 00 CF 00 08 00 CF 00 08 00 60 00 02 07 66 04 84 ; .........`...f..
00F4B4  .dc.b 06 63 06 80 02 32 02 80 01 EC 01 0C 00 F0 00 00 ; .c...2..........
00F4C4  .dc.b 01 E2 00 00 00 66 00 04 00 CC 00 08 00 8C 01 00 ; .....f..........
00F4D4  .dc.b 02 18 01 80 06 B0 00 80 07 00 03 00 06 00 06 00 ; ................
00F4E4  .dc.b 00 00 00 00 00 00 00 00 00 00 00 00 00 00 00 00 ; ................
00F4F4  .dc.b 00 00 00 00 00 00 00 00 00 00 00 00 00 00 00 00 ; ................
00F504  .dc.b 80 00 80 00 80 00 00 00 80 00 80 00 00 00 80 00 ; ................
00F514  .dc.b BB F8 E0 00 52 A8 72 A8 A8 54 B8 FC 45 A8 C7 A8 ; ....R.r..T..E...
00F524  .dc.b 99 78 1F 00 A6 00 EE 00 D8 00 EC 00 50 00 40 00 ; .x..........P.@.
00F534  .dc.b 20 00 00 00 00 00 00 00 00 00 00 00 00 00 00 00 ;  ...............
00F544  .dc.b 80 00 00 00 80 00 00 00 40 00 00 00 C0 00 80 00 ; ........@.......
00F554  .dc.b C0 00 00 00 C0 00 00 00 80 00 00 00 00 00 00 00 ; ................
00F564  .dc.b 00 00 00 00 00 00 00 00 00 00 00 00 00 00 00 00 ; ................
00F574  .dc.b 00 00 00 00 00 00 00 00 00 00 00 00 00 00 00 00 ; ................
00F584  .dc.b 00 00 00 00 00 00 00 00 00 00 00 00 00 00 00 00 ; ................
00F594  .dc.b 00 00 00 00 00 00 00 00 00 00 80 00 80 00 00 00 ; ................
00F5A4  .dc.b 00 00 80 00 00 00 80 00 00 00 80 00 E2 A8 19 50 ; ...............P
00F5B4  .dc.b 72 A8 8D 54 BF FC 40 00 D8 A8 20 54 60 28 80 D0 ; r..T..@... T`(..
00F5C4  .dc.b 11 00 08 00 10 00 0C 00 B0 00 00 00 E0 00 00 00 ; ................
00F5D4  .dc.b 00 00 00 00 00 00 00 00 00 00 00 00 80 00 00 00 ; ................
00F5E4  .dc.b 80 00 00 00 C0 00 00 00 40 00 00 00 00 00 00 00 ; ........@.......
00F5F4  .dc.b 00 00 00 00 80 00 00 00 00 00 00 00 00 00 00 00 ; ................
00F604  .dc.b 00 00 00 00 00 00 00 00 00 00 00 00 00 00 00 00 ; ................
00F614  .dc.b 00 00 00 00 00 00 00 00 00 00 00 00 00 00 00 00 ; ................
00F624  .dc.b 00 A8 00 58 01 5A 00 66 02 27 00 31 00 2E 00 20 ; ...X.Z.f.'.1... 
00F634  .dc.b 00 5B 00 59 0A A5 08 B6 05 19 04 20 0B CA 02 CC ; .[.Y....... ....
00F644  .dc.b 0E 34 07 F7 0C F3 0F F5 06 4C 03 D0 02 B7 03 67 ; .4.......L.....g
00F654  .dc.b 02 87 03 48 02 CF 03 4F 05 29 01 80 06 AC 00 1D ; ...H...O.)......
00F664  .dc.b 03 C1 00 7D 01 B9 00 39 00 E6 00 86 01 C6 00 74 ; ...}...9.......t
00F674  .dc.b 00 A7 00 3C 00 A8 00 32 00 DE 00 16 00 51 00 1C ; ...<...2.....Q..
00F684  .dc.b 00 55 00 18 00 2F 00 0A 00 2B 00 0E 00 37 00 02 ; .U.../...+...7..
00F694  .dc.b 00 4E 00 10 00 AF 00 38 01 64 00 70 02 DC 02 F0 ; .N.....8.d.p....
00F6A4  .dc.b 06 BC 03 E0 0A 60 03 C0 1A C0 01 80 07 80 00 00 ; .....`..........
00F6B4  .dc.b 0F 80 00 00 00 00 00 00 00 00 00 00 00 A4 00 20 ; ............... 
00F6C4  .dc.b 01 98 00 18 03 C8 00 06 03 D9 00 00 03 A0 00 0F ; ................
00F6D4  .dc.b 0B 49 00 01 05 DF 08 18 03 32 0C C1 02 28 0F F3 ; .I.......2...(..
00F6E4  .dc.b 04 8A 0F C3 04 20 00 0F 04 87 00 98 04 AF 00 97 ; ..... ..........
00F6F4  .dc.b 04 AF 00 90 06 54 00 4B 05 62 01 60 02 02 00 00 ; .....T.K.b.`....
00F704  .dc.b 01 C6 00 00 00 79 00 86 01 86 00 0A 00 C7 00 02 ; .....y..........
00F714  .dc.b 00 CB 00 0C 00 EB 00 08 00 63 00 00 00 67 00 04 ; .........c...g..
00F724  .dc.b 00 35 00 04 00 11 00 10 00 29 00 08 00 61 00 00 ; .5.......)...a..
00F734  .dc.b 00 C1 00 00 01 8C 00 00 01 08 02 00 04 10 03 00 ; ................
00F744  .dc.b 0C 20 01 00 14 40 04 00 18 80 18 00 30 00 30 00 ; . ...@......0.0.
00F754  .dc.b 00 00 00 00 00 00 00 00 00 00 00 00 00 00 00 00 ; ................
00F764  .dc.b 00 00 00 00 00 00 00 00 00 00 00 00 00 00 00 00 ; ................
00F774  .dc.b 40 00 40 00 C0 00 80 00 C0 00 80 00 40 00 C0 00 ; @.@.........@...
00F784  .dc.b 09 58 60 00 93 54 B3 F4 48 00 D8 FC A5 54 E7 F4 ; .X`..T..H....T..
00F794  .dc.b 29 58 0F 00 16 00 DE 00 48 00 8C 00 80 00 C0 00 ; )X......H.......
00F7A4  .dc.b 00 00 00 00 00 00 00 00 00 00 00 00 80 00 00 00 ; ................
00F7B4  .dc.b 40 00 00 00 A0 00 80 00 D0 00 C0 00 B0 00 00 00 ; @...............
00F7C4  .dc.b 70 00 00 00 90 00 80 00 40 00 00 00 00 00 00 00 ; p.......@.......
00F7D4  .dc.b 00 00 00 00 00 00 00 00 00 00 00 00 00 00 00 00 ; ................
00F7E4  .dc.b 00 00 00 00 00 00 00 00 00 00 00 00 00 00 00 00 ; ................
00F7F4  .dc.b 00 00 00 00 00 00 00 00 00 00 00 00 00 00 00 00 ; ................
00F804  .dc.b 00 00 00 00 00 00 00 00 00 00 40 00 40 00 80 00 ; ..........@.@...
00F814  .dc.b 80 00 40 00 00 00 C0 00 00 00 C0 00 60 08 9B F0 ; ..@.........`...
00F824  .dc.b B3 F4 4C 0A DF FC 20 00 E8 F4 10 0A D0 08 00 F0 ; ..L... .........
00F834  .dc.b 21 00 08 00 70 00 4C 00 20 00 00 00 C0 00 00 00 ; !...p.L. .......
00F844  .dc.b 00 00 00 00 00 00 00 00 80 00 00 00 C0 00 00 00 ; ................
00F854  .dc.b 60 00 00 00 30 00 00 00 40 00 40 00 80 00 00 00 ; `...0...@.@.....
00F864  .dc.b 70 00 00 00 C0 00 00 00 00 00 00 00 00 00 00 00 ; p...............
00F874  .dc.b 00 00 00 00 00 00 00 00 00 00 00 00 00 00 00 00 ; ................
00F884  .dc.b 00 00 00 00 00 00 00 00 00 00 00 00 00 00 00 00 ; ................
00F894  .dc.b 00 A8 00 58 01 5A 00 66 02 27 00 31 00 2E 00 20 ; ...X.Z.f.'.1... 
00F8A4  .dc.b 00 5B 00 59 12 A5 10 B6 0B 59 08 20 15 CA 04 CC ; .[.Y.....Y. ....
00F8B4  .dc.b 1C 34 0F F7 19 D2 1F F5 0C AC 07 90 05 77 06 C7 ; .4...........w..
00F8C4  .dc.b 05 17 06 98 05 AF 06 8F 0A 52 03 00 0D 59 00 3A ; .........R...Y.:
00F8D4  .dc.b 07 82 00 FB 03 73 00 73 00 8C 00 0C 00 56 00 15 ; .....s.s.....V..
00F8E4  .dc.b 00 72 00 39 00 A5 00 3B 00 AA 00 3A 01 45 00 71 ; .r.9...;...:.E.q
00F8F4  .dc.b 00 5E 00 70 03 A9 01 E0 05 50 00 C0 0A A3 00 03 ; .^.p.....P......
00F904  .dc.b 15 46 06 03 6E 8A 2D 03 1F 01 3C 01 1E 0F 38 01 ; .F..n.-...<...8.
00F914  .dc.b B4 07 38 00 D8 03 10 00 F0 01 00 00 C0 00 00 00 ; ..8.............
00F924  .dc.b 80 00 00 00 00 00 00 00 00 00 00 00 00 A4 00 20 ; ............... 
00F934  .dc.b 01 98 00 18 03 C8 00 06 03 D9 00 00 03 A0 00 0F ; ................
00F944  .dc.b 13 49 00 01 0B DF 10 18 05 32 18 C0 04 28 1F F3 ; .I.......2...(..
00F954  .dc.b 09 0A 1F 82 08 60 00 2F 09 07 01 38 09 5F 01 27 ; .....`./...8._.'
00F964  .dc.b 09 4F 01 30 0C A9 00 96 0A C5 02 C1 04 04 00 00 ; .O.0............
00F974  .dc.b 03 8C 00 00 00 F3 00 0C 00 67 00 0A 00 43 00 06 ; .........g...C..
00F984  .dc.b 00 C3 00 04 00 C6 00 01 01 8E 00 00 01 8F 00 00 ; ................
00F994  .dc.b 00 19 00 00 06 31 02 00 0D 60 01 02 18 84 00 83 ; .....1...`......
00F9A4  .dc.b 52 0C 22 05 C3 0E A2 0E C6 00 E4 00 44 00 40 00 ; R.".........D.@.
00F9B4  .dc.b 28 00 20 00 10 00 00 00 00 00 00 00 00 00 00 00 ; (. .............
00F9C4  .dc.b 00 00 00 00 00 00 00 00 00 00 00 00 00 00 00 00 ; ................
00F9D4  .dc.b 00 00 00 00 00 00 00 00 00 00 00 00 00 00 00 00 ; ................
00F9E4  .dc.b 20 00 20 00 60 00 40 00 60 00 C0 00 A0 00 E0 00 ;  . .`.@.`.......
00F9F4  .dc.b 34 AC 50 00 94 AA AD FE C8 56 54 28 6A AA AB FE ; 4.P......VT(j...
00FA04  .dc.b 64 AC 07 80 3B 00 9F 00 B4 00 06 00 00 00 80 00 ; d...;...........
00FA14  .dc.b 40 00 00 00 80 00 00 00 40 00 00 00 A0 00 80 00 ; @.......@.......
00FA24  .dc.b 50 00 80 00 98 00 C0 00 88 00 00 00 28 00 50 00 ; P...........(.P.
00FA34  .dc.b A0 00 C0 00 B0 00 E0 00 E0 00 80 00 40 00 C0 00 ; ............@...
00FA44  .dc.b 40 00 80 00 00 00 00 00 80 00 00 00 00 00 00 00 ; @...............
00FA54  .dc.b 00 00 00 00 00 00 00 00 00 00 00 00 00 00 00 00 ; ................
00FA64  .dc.b 00 00 00 00 00 00 00 00 00 00 00 00 00 00 00 00 ; ................
00FA74  .dc.b 00 00 00 00 00 00 00 00 00 00 20 00 20 00 40 00 ; .......... . .@.
00FA84  .dc.b 40 00 A0 00 00 00 E0 00 00 00 E0 00 70 04 AD F8 ; @...........p...
00FA94  .dc.b BD FE 52 01 DF FE A8 56 EC 7E 50 01 98 04 00 78 ; ..R....V.~P....x
00FAA4  .dc.b 40 80 04 00 F8 00 86 00 40 00 00 00 C0 00 00 00 ; @.......@.......
00FAB4  .dc.b 00 00 80 00 C0 00 00 00 60 00 00 00 70 00 40 00 ; ........`...p.@.
00FAC4  .dc.b 20 00 20 00 70 00 70 00 A8 00 20 00 30 00 20 00 ;  . .p.p... .0. .
00FAD4  .dc.b 10 00 00 00 60 00 40 00 00 00 00 00 40 00 00 00 ; ....`.@.....@...
00FAE4  .dc.b 80 00 00 00 80 00 00 00 00 00 00 00 00 00 00 00 ; ................
00FAF4  .dc.b 00 00 00 00 00 00 00 00 00 00 00 00 00 00 00 00 ; ................
00FB04  .dc.b 00 00 00 00 00 00 00 00 00 00 00 00 00 00 00 00 ; ................
00FB14  .dc.b 00 00 00 00 00 00 00 00 00 04 00 04 00 06 00 02 ; ................
00FB24  .dc.b 00 06 00 03 00 05 00 07 35 2C 00 0A 55 29 7F B5 ; ........5,..U)..
00FB34  .dc.b 6A 13 14 2A 55 56 7F D5 35 26 01 E0 00 DC 00 F9 ; j..*UV..5&......
00FB44  .dc.b 00 2D 00 60 00 18 00 01 00 03 00 00 00 01 00 00 ; .-.`............
00FB54  .dc.b 00 06 00 00 00 1B 00 03 00 24 00 07 00 31 00 07 ; .........$...1..
00FB64  .dc.b 00 3B 00 00 00 2A 00 0D 00 13 00 03 00 09 00 01 ; .;...*..........
00FB74  .dc.b 00 06 00 00 00 01 00 00 00 00 00 00 00 00 00 00 ; ................
00FB84  .dc.b 00 00 00 00 00 00 00 00 00 00 00 00 00 00 00 00 ; ................
00FB94  .dc.b 00 00 00 00 00 00 00 00 00 00 00 00 00 00 00 00 ; ................
00FBA4  .dc.b 00 00 00 00 00 00 00 00 00 00 00 00 00 00 00 00 ; ................
00FBB4  .dc.b 00 00 00 00 00 00 00 00 00 00 00 00 00 00 00 00 ; ................
00FBC4  .dc.b 00 00 00 04 00 04 00 02 00 02 00 05 00 00 00 07 ; ................
00FBD4  .dc.b 00 00 00 07 20 0E 1F B5 7F BD 80 4A 7F FB 6A 15 ; .... ......J..j.
00FBE4  .dc.b 7E 37 80 0A 20 19 1E 00 01 02 00 20 00 1F 00 61 ; ~7.. ...... ...a
00FBF4  .dc.b 00 06 00 18 00 03 00 00 00 01 00 00 00 07 00 00 ; ................
00FC04  .dc.b 00 1C 00 00 00 38 00 00 00 28 00 08 00 05 00 04 ; .....8...(......
00FC14  .dc.b 00 12 00 02 00 1C 00 00 00 0E 00 00 00 07 00 00 ; ................
00FC24  .dc.b 00 01 00 00 00 00 00 00 00 00 00 00 00 00 00 00 ; ................
00FC34  .dc.b 00 00 00 00 00 00 00 00 00 00 00 00 00 00 00 00 ; ................
00FC44  .dc.b 00 00 00 00 00 00 00 00 00 00 00 00 00 00 00 00 ; ................
00FC54  .dc.b 00 00 00 00 00 00 00 00 15 00 1A 00 5A 80 66 00 ; ............Z.f.
00FC64  .dc.b E4 40 8C 00 74 00 04 00 DA 00 9A 00 A5 48 6D 08 ; .@..t........Hm.
00FC74  .dc.b 9A D0 04 10 53 A8 33 20 2C 38 EF F0 4B 98 AF F8 ; ....S.3 ,8..K...
00FC84  .dc.b 35 30 09 E0 EE A0 E3 60 E8 A0 19 60 F5 A0 F1 60 ; 50.....`...`...`
00FC94  .dc.b 4A 50 00 C0 9A B0 5C 00 41 E0 DF 00 CE C0 CE 00 ; JP....\.A.......
00FCA4  .dc.b 0F 00 C0 00 93 00 18 00 6D 00 74 00 29 00 D8 00 ; ........m.t.)...
00FCB4  .dc.b 32 00 F0 00 9C 00 80 00 AD 00 0C 00 6A 00 0E 00 ; 2...........j...
00FCC4  .dc.b 59 80 E4 00 B2 00 E1 00 2E C0 63 00 05 20 03 80 ; Y.........c.. ..
00FCD4  .dc.b B1 A0 01 E0 7B 90 01 E0 32 88 00 E0 21 88 00 E0 ; ....{...2...!...
00FCE4  .dc.b 01 48 00 40 00 E0 00 40 00 F8 00 00 00 78 00 00 ; .H.@...@.....x..
00FCF4  .dc.b 00 70 00 00 00 70 00 00 00 20 00 00 00 00 00 00 ; .p...p... ......
00FD04  .dc.b 00 00 00 00 25 00 04 00 19 80 18 00 13 C0 60 00 ; ....%.........`.
00FD14  .dc.b 9B C0 00 00 05 C0 F0 00 92 C8 80 00 FB D0 18 08 ; ................
00FD24  .dc.b 4C A0 03 18 14 20 CF F8 50 90 41 F8 06 10 F4 00 ; L.... ..P.A.....
00FD34  .dc.b E0 90 1C 80 FA 90 E4 80 F2 90 0C 80 95 30 69 00 ; .............0i.
00FD44  .dc.b A3 50 83 40 20 20 00 00 31 C0 00 00 3C 00 C3 00 ; .P.@  ..1...<...
00FD54  .dc.b E7 00 00 00 8B 00 08 00 27 00 20 00 0E 00 00 00 ; ........'. .....
00FD64  .dc.b 7E 00 00 00 B3 00 00 00 F1 00 00 00 02 80 62 00 ; ~.............b.
00FD74  .dc.b 0C 80 4C 00 90 C0 50 80 F8 60 38 00 CE 00 0C 20 ; ..L...P..`8.... 
00FD84  .dc.b 42 10 00 60 03 18 00 40 01 18 00 40 01 B0 00 30 ; B..`...@...@...0
00FD94  .dc.b 00 98 00 18 00 80 00 00 00 00 00 08 00 00 00 00 ; ................
00FDA4  .dc.b 00 00 00 10 00 00 00 00 00 00 00 00 00 00 00 00 ; ................
00FDB4  .dc.b 00 A8 00 58 01 5A 00 66 02 27 00 31 00 2E 00 20 ; ...X.Z.f.'.1... 
00FDC4  .dc.b 00 5B 00 59 12 A5 10 B6 0B 59 08 20 15 CA 04 CC ; .[.Y.....Y. ....
00FDD4  .dc.b 1C 34 0F F7 19 D2 1F F5 0C AC 07 90 05 77 06 C7 ; .4...........w..
00FDE4  .dc.b 05 17 06 98 05 AF 06 8F 0A 52 03 00 0D 59 00 3A ; .........R...Y.:
00FDF4  .dc.b 07 82 00 FB 03 73 00 73 00 F0 00 03 00 C9 00 18 ; .....s.s........
00FE04  .dc.b 00 B6 00 2E 00 94 00 1B 00 4C 00 0F 00 39 00 01 ; .........L...9..
00FE14  .dc.b 00 B5 00 30 00 56 00 70 01 9A 00 27 00 4D 00 87 ; ...0.V.p...'.M..
00FE24  .dc.b 03 74 00 C6 04 A0 01 C0 05 8D 07 80 09 DE 07 80 ; .t..............
00FE34  .dc.b 11 4C 07 00 11 84 07 00 12 80 02 00 07 00 02 00 ; .L..............
00FE44  .dc.b 1F 00 00 00 1E 00 00 00 0E 00 00 00 0E 00 00 00 ; ................
00FE54  .dc.b 04 00 00 00 00 00 00 00 00 00 00 00 00 A4 00 20 ; ............... 
00FE64  .dc.b 01 98 00 18 03 C8 00 06 03 D9 00 00 03 A0 00 0F ; ................
00FE74  .dc.b 13 49 00 01 0B DF 10 18 05 32 18 C0 04 28 1F F3 ; .I.......2...(..
00FE84  .dc.b 09 0A 1F 82 08 60 00 2F 09 07 01 38 09 5F 01 27 ; .....`./...8._.'
00FE94  .dc.b 09 4F 01 30 0C A9 00 96 0A C5 02 C1 04 04 00 00 ; .O.0............
00FEA4  .dc.b 03 8C 00 00 00 3C 00 C3 00 E7 00 00 00 D1 00 10 ; .....<..........
00FEB4  .dc.b 00 E4 00 04 00 70 00 00 00 7E 00 00 00 CD 00 00 ; .....p...~......
00FEC4  .dc.b 00 8F 00 00 01 40 00 46 01 30 00 32 03 09 01 0A ; .....@.F.0.2....
00FED4  .dc.b 06 1F 00 1C 00 73 04 30 08 42 06 00 18 C0 02 00 ; .....s.0.B......
00FEE4  .dc.b 18 80 02 00 0D 80 0C 00 19 00 18 00 01 00 00 00 ; ................
00FEF4  .dc.b 00 00 10 00 00 00 00 00 00 00 08 00 00 00 00 00 ; ................
00FF04  .dc.b 00 00 00 00 00 00 00 00 00 00 00 00 00 00 00 00 ; ................
00FF14  .dc.b 00 00 00 00 00 00 00 00 00 00 00 00 00 00 00 00 ; ................
00FF24  .dc.b 20 00 20 00 60 00 40 00 60 00 C0 00 A0 00 E0 00 ;  . .`.@.`.......
00FF34  .dc.b 34 AC 50 00 94 AA AD FE C8 56 54 28 6A AA AB FE ; 4.P......VT(j...
00FF44  .dc.b 64 AC 07 80 3B 00 9F 00 B4 00 06 00 18 00 80 00 ; d...;...........
00FF54  .dc.b C0 00 00 00 80 00 00 00 60 00 00 00 D8 00 C0 00 ; ........`.......
00FF64  .dc.b 24 00 E0 00 8C 00 E0 00 DC 00 00 00 54 00 B0 00 ; $...........T...
00FF74  .dc.b C8 00 C0 00 90 00 80 00 60 00 00 00 80 00 00 00 ; ........`.......
00FF84  .dc.b 00 00 00 00 00 00 00 00 00 00 00 00 00 00 00 00 ; ................
00FF94  .dc.b 00 00 00 00 00 00 00 00 00 00 00 00 00 00 00 00 ; ................
00FFA4  .dc.b 00 00 00 00 00 00 00 00 00 00 00 00 00 00 00 00 ; ................
00FFB4  .dc.b 00 00 00 00 00 00 00 00 00 00 00 00 00 00 00 00 ; ................
00FFC4  .dc.b 00 00 00 00 00 00 00 00 00 00 20 00 20 00 40 00 ; .......... . .@.
00FFD4  .dc.b 40 00 A0 00 00 00 E0 00 00 00 E0 00 70 04 AD F8 ; @...........p...
00FFE4  .dc.b BD FE 52 01 DF FE A8 56 EC 7E 50 01 98 04 00 78 ; ..R....V.~P....x
00FFF4  .dc.b 40 80 04 00 F8 00 86 00 60 00 18 00 C0 00 00 00 ; @.......`.......
010004  .dc.b 80 00 00 00 E0 00 00 00 38 00 00 00 1C 00 00 00 ; ........8.......
010014  .dc.b 14 00 10 00 A0 00 20 00 48 00 40 00 38 00 00 00 ; ...... .H.@.8...
010024  .dc.b 70 00 00 00 E0 00 00 00 80 00 00 00 00 00 00 00 ; p...............
010034  .dc.b 00 00 00 00 00 00 00 00 00 00 00 00 00 00 00 00 ; ................
010044  .dc.b 00 00 00 00 00 00 00 00 00 00 00 00 00 00 00 00 ; ................
010054  .dc.b 00 00 00 00 00 00 00 00 00 00 00 00 00 00 00 00 ; ................
010064  .dc.b 00 00 00 00 00 02 00 06 00 05 00 07 00 02 00 01 ; ................
010074  .dc.b 00 01 00 02 02 D3 03 32 00 53 00 6A 00 2F 00 32 ; .......2.S.j./.2
010084  .dc.b 00 18 00 14 00 59 00 68 01 7B 01 80 02 B9 03 78 ; .....Y.h.{.....x
010094  .dc.b 01 08 03 04 00 0F 00 12 00 37 00 2C 00 09 00 3A ; .........7.,...:
0100A4  .dc.b 00 33 00 12 00 20 00 01 00 01 00 21 00 20 00 20 ; .3... .....!. . 
0100B4  .dc.b 00 00 00 00 00 00 00 00 00 00 00 00 00 00 00 00 ; ................
0100C4  .dc.b 00 08 00 00 00 00 00 00 00 02 00 02 01 F1 00 01 ; ................
0100D4  .dc.b 00 C9 00 C1 00 95 00 11 00 0D 00 0D 00 2B 00 0B ; .............+..
0100E4  .dc.b 00 96 00 16 00 7C 00 7C 00 86 00 86 00 1B 00 0B ; .....|.|........
0100F4  .dc.b 02 2D 00 0D 00 53 00 13 00 45 00 01 00 61 00 21 ; .-...S...E...a.!
010104  .dc.b 00 72 00 20 00 40 00 00 00 00 00 00 00 00 00 00 ; .r. .@..........
010114  .dc.b 00 00 00 00 00 00 00 00 00 00 00 00 08 00 08 00 ; ................
010124  .dc.b 00 00 08 00 08 00 00 00 98 00 90 00 20 00 B8 00 ; ............ ...
010134  .dc.b D8 00 68 00 E0 00 90 00 21 00 41 80 3A 80 3D 80 ; ..h.....!.A.:.=.
010144  .dc.b BD 00 03 00 34 00 2C 00 30 00 50 00 E8 00 98 00 ; ....4.,.0.P.....
010154  .dc.b 94 00 AC 00 96 80 99 80 00 00 80 00 80 00 00 00 ; ................
010164  .dc.b 40 00 C0 00 80 00 C0 00 00 00 00 00 00 00 00 00 ; @...............
010174  .dc.b 00 00 00 00 00 00 00 00 00 00 00 00 04 00 00 00 ; ................
010184  .dc.b 9C 00 08 00 0C 00 08 00 44 00 00 00 94 00 90 00 ; ........D.......
010194  .dc.b 68 80 60 00 B0 00 A0 00 C2 00 C2 00 7C 00 7C 00 ; h.`.........|.|.
0101A4  .dc.b D2 00 D0 00 A8 00 A0 00 60 00 60 00 52 00 10 00 ; ........`.`.R...
0101B4  .dc.b 26 00 06 00 1F 00 00 00 80 00 80 00 00 00 00 00 ; &...............
0101C4  .dc.b 20 00 00 00 00 00 00 00 00 00 00 00 00 00 00 00 ;  ...............
0101D4  .dc.b 00 00 00 00 00 08 00 18 00 18 00 14 00 0C 00 0A ; ................
0101E4  .dc.b 00 07 00 05 00 06 00 05 01 57 01 B4 02 3F 03 C5 ; .........W...?..
0101F4  .dc.b 00 28 00 34 00 1B 00 10 00 5B 00 68 00 7B 00 80 ; .(.4.....[.h.{..
010204  .dc.b 00 F8 01 7C 03 8F 02 81 01 1B 03 16 00 0C 00 15 ; ...|............
010214  .dc.b 00 11 00 09 00 00 00 18 00 10 00 18 00 08 00 08 ; ................
010224  .dc.b 00 00 00 00 00 00 00 00 00 00 00 00 00 00 00 00 ; ................
010234  .dc.b 00 20 00 00 00 0A 00 08 00 04 00 04 00 02 00 02 ; . ..............
010244  .dc.b 00 F2 00 02 02 4B 00 43 04 3A 00 3A 04 4B 00 0B ; .....K.C.:.:.K..
010254  .dc.b 00 2C 00 0C 00 14 00 14 01 7C 00 7C 00 83 00 83 ; .,.......|.|....
010264  .dc.b 01 1E 01 0E 00 29 00 09 02 2A 00 08 00 34 00 10 ; .....)...*...4..
010274  .dc.b 00 20 00 00 00 00 00 00 00 10 00 00 00 0C 00 00 ; . ..............
010284  .dc.b 00 00 00 00 00 00 00 00 00 00 00 00 20 00 20 00 ; ............ . .
010294  .dc.b 10 00 30 00 00 00 30 00 10 00 20 00 60 00 50 00 ; ..0...0... .`.P.
0102A4  .dc.b B1 00 D1 80 E3 80 02 80 3E 00 7D 00 BC 00 02 00 ; ........>.}.....
0102B4  .dc.b B4 00 2C 00 B0 00 10 00 28 00 58 00 F8 80 47 80 ; ..,.....(.X...G.
0102C4  .dc.b D5 00 5B 00 C0 00 40 00 C0 00 40 00 60 00 A0 00 ; ..[...@...@.`...
0102D4  .dc.b 30 00 50 00 20 00 30 00 00 00 00 00 00 00 00 00 ; 0.P. .0.........
0102E4  .dc.b 00 00 00 00 60 00 00 00 10 00 00 00 00 00 00 00 ; ....`...........
0102F4  .dc.b 08 00 00 00 58 00 10 00 A8 80 20 00 28 00 20 00 ; ....X..... .(. .
010304  .dc.b F1 00 E1 00 82 00 82 00 7D 00 7C 00 50 00 50 00 ; ........}.|.P.P.
010314  .dc.b 68 00 60 00 A4 40 A0 00 B8 40 B8 00 A4 80 84 00 ; h.`..@...@......
010324  .dc.b 9E 00 80 00 80 00 80 00 40 00 40 00 A0 00 20 00 ; ........@.@... .
010334  .dc.b 08 00 00 00 00 00 00 00 00 00 00 00 00 00 00 00 ; ................
010344  .dc.b 00 00 00 00 00 00 00 00 00 50 00 70 00 0C 00 14 ; .........P.p....
010354  .dc.b 00 06 00 0A 00 0C 00 0A 00 07 00 01 00 8D 00 FB ; ................
010364  .dc.b 02 FB 03 04 02 2F 02 30 00 1E 00 18 00 57 00 68 ; ...../.0.....W.h
010374  .dc.b 00 FB 00 84 00 AF 00 69 01 05 01 8B 00 06 01 0A ; .......i........
010384  .dc.b 01 04 01 08 00 0C 00 08 00 00 00 04 00 06 00 06 ; ................
010394  .dc.b 00 00 00 00 00 00 00 00 00 00 00 00 00 00 00 00 ; ................
0103A4  .dc.b 00 60 00 00 00 88 00 00 00 28 00 08 00 14 00 04 ; .`.......(......
0103B4  .dc.b 00 05 00 04 00 FE 00 06 03 04 00 04 00 F8 00 F8 ; ................
0103C4  .dc.b 05 C8 00 08 00 21 00 01 00 10 00 10 00 78 00 78 ; .....!.......x.x
0103D4  .dc.b 01 96 00 86 00 54 00 04 02 95 00 04 02 16 00 04 ; .....T..........
0103E4  .dc.b 01 16 00 04 00 0A 00 00 00 08 00 00 00 02 00 00 ; ................
0103F4  .dc.b 00 00 00 00 00 00 00 00 00 00 00 00 C0 00 C0 00 ; ................
010404  .dc.b 00 00 40 00 60 00 20 00 41 00 21 00 C0 00 A1 00 ; ..@.`. .A.!.....
010414  .dc.b 41 00 A3 00 EA 00 2C 00 BE 00 42 00 D4 00 2C 00 ; A.....,...B...,.
010424  .dc.b F0 00 30 00 E8 80 18 80 BE 80 41 80 62 00 BE 00 ; ..0.......A.b...
010434  .dc.b C0 00 00 00 60 00 A0 00 C0 00 A0 00 60 00 50 00 ; ....`.......`.P.
010444  .dc.b 14 00 1C 00 00 00 00 00 00 00 00 00 00 00 00 00 ; ................
010454  .dc.b 00 00 00 00 80 00 00 00 20 00 00 00 A0 00 00 00 ; ........ .......
010464  .dc.b D1 00 40 00 D0 80 40 00 52 80 40 00 54 00 40 00 ; ..@...@.R.@.T.@.
010474  .dc.b D3 00 C2 00 3C 00 3C 00 10 00 10 00 08 00 00 00 ; ....<.<.........
010484  .dc.b 27 40 20 00 3E 00 3E 00 41 80 40 00 FE 00 C0 00 ; '@ .>.>.A.@.....
010494  .dc.b 40 00 40 00 50 00 40 00 28 00 20 00 22 00 00 00 ; @.@.P.@.(. ."...
0104A4  .dc.b 0C 00 00 00 00 00 00 00 00 00 00 00 00 00 00 00 ; ................
0104B4  .dc.b 00 00 00 00 00 03 00 03 00 02 00 03 01 41 01 C1 ; .............A..
0104C4  .dc.b 00 A8 00 D8 00 29 00 35 00 07 00 09 00 1F 00 19 ; .....).5........
0104D4  .dc.b 00 BB 00 C4 01 E6 01 18 02 BC 03 B8 03 1E 03 00 ; ................
0104E4  .dc.b 00 1B 00 24 00 6D 00 5B 00 0D 00 6B 00 67 00 21 ; ...$.m.[...k.g.!
0104F4  .dc.b 00 82 00 C4 00 47 00 C5 00 82 00 83 00 01 00 01 ; .....G..........
010504  .dc.b 00 00 00 00 00 00 00 00 00 00 00 00 00 06 00 00 ; ................
010514  .dc.b 00 04 00 00 00 00 00 00 00 22 00 00 03 25 00 20 ; ........."...%. 
010524  .dc.b 00 0A 00 08 00 16 00 06 00 26 00 06 01 38 00 38 ; .........&...8.8
010534  .dc.b 02 E1 00 E1 00 43 00 03 04 B9 00 19 06 58 00 18 ; .....C.......X..
010544  .dc.b 00 24 00 24 00 14 00 04 00 CE 00 46 00 03 00 02 ; .$.$.......F....
010554  .dc.b 00 02 00 02 00 44 00 00 00 42 00 00 00 00 00 00 ; .....D...B......
010564  .dc.b 00 00 00 00 00 00 00 00 00 00 00 00 00 00 00 00 ; ................
010574  .dc.b 82 00 82 00 C4 00 46 00 82 00 46 00 CC 00 08 00 ; ......F...F.....
010584  .dc.b 60 00 AC 00 6C 00 B4 00 B0 00 48 00 F1 80 01 80 ; `...l.....H.....
010594  .dc.b 7A 80 3B 80 CF 00 31 00 BA 00 46 00 F0 00 30 00 ; z.;...1...F...0.
0105A4  .dc.b C0 00 20 00 28 00 58 00 2A 00 36 00 05 00 07 00 ; .. .(.X.*.6.....
0105B4  .dc.b 80 00 80 00 80 00 80 00 00 00 00 00 00 00 00 00 ; ................
0105C4  .dc.b 00 00 00 00 00 00 00 00 84 00 00 00 44 00 00 00 ; ............D...
0105D4  .dc.b 80 00 80 00 80 00 80 00 E6 00 C4 00 50 00 40 00 ; ............P.@.
0105E4  .dc.b 48 00 48 00 34 C0 30 00 3A 40 30 00 84 00 80 00 ; H.H.4.0.:@0.....
0105F4  .dc.b 0E 80 0E 00 39 00 38 00 C8 00 C0 00 D0 00 C0 00 ; ....9.8.........
010604  .dc.b A0 00 20 00 49 80 08 00 88 00 00 00 00 00 00 00 ; .. .I...........
010614  .dc.b 40 00 00 00 C0 00 00 00 00 00 00 00 30 00 54 00 ; @...........0.T.
010624  .dc.b 9C 00 46 00 18 00 03 00 00 60 00 00 38 00 7E 00 ; ..F......`..8.~.
010634  .dc.b 3F 00 07 80 00 C0 00 00 78 00 FE 00 FF 00 FF 80 ; ?.......x.......
010644  .dc.b 3F C0 07 E0 00 F0 78 00 FE 00 FF 00 FF 80 3F C0 ; ?.....x.......?.
010654  .dc.b 07 E0 00 F0 00 00 44 00 38 00 26 00 07 20 00 00 ; ......D.8.&.. ..
010664  .dc.b 00 00 00 00 38 00 7E 00 1F 80 00 C0 00 00 00 00 ; ....8.~.........
010674  .dc.b 78 00 FE 00 FF 00 7F C0 3F F0 00 00 00 00 78 00 ; x.......?.....x.
010684  .dc.b FE 00 FF 00 7F C0 3F F0 00 00 00 00 38 00 03 00 ; ......?.....8...
010694  .dc.b FF 20 03 00 38 00 00 00 00 00 00 00 7C 00 7F C0 ; . ..8.......|...
0106A4  .dc.b 7C 00 00 00 00 00 00 00 7C 00 FF 80 FF F0 FF 80 ; |.......|.......
0106B4  .dc.b 7C 00 00 00 00 00 7C 00 FF 80 FF F0 FF 80 7C 00 ; |.....|.......|.
0106C4  .dc.b 00 00 00 00 07 20 26 00 38 00 44 00 00 00 00 00 ; ..... &.8.D.....
0106D4  .dc.b 00 00 00 C0 1F 80 7E 00 38 00 00 00 00 00 00 00 ; ......~.8.......
0106E4  .dc.b 3F F0 7F C0 FF 00 FE 00 78 00 00 00 00 00 3F F0 ; ?.......x.....?.
0106F4  .dc.b 7F C0 FF 00 FE 00 78 00 00 00 00 00 00 60 03 00 ; ......x......`..
010704  .dc.b 18 00 46 00 9C 00 54 00 30 00 00 00 00 C0 07 80 ; ..F...T.0.......
010714  .dc.b 3F 00 7E 00 38 00 00 00 00 F0 07 E0 3F C0 FF 80 ; ?.~.8.......?...
010724  .dc.b FF 00 FE 00 78 00 00 F0 07 E0 3F C0 FF 80 FF 00 ; ....x.....?.....
010734  .dc.b FE 00 78 00 00 C0 02 A0 03 90 06 20 01 80 0C 00 ; ..x........ ....
010744  .dc.b 60 00 00 00 01 C0 07 E0 0F C0 1E 00 30 00 00 00 ; `...........0...
010754  .dc.b 01 E0 07 F0 0F F0 1F F0 3F C0 7E 00 F0 00 01 E0 ; ........?.~.....
010764  .dc.b 07 F0 0F F0 1F F0 3F C0 7E 00 F0 00 00 00 02 20 ; ......?.~...... 
010774  .dc.b 01 C0 06 40 4E 00 00 00 00 00 00 00 01 C0 07 E0 ; ...@N...........
010784  .dc.b 1F 80 30 00 00 00 00 00 01 E0 07 F0 0F F0 3F E0 ; ..0...........?.
010794  .dc.b FF C0 00 00 00 00 01 E0 07 F0 0F F0 3F E0 FF C0 ; ............?...
0107A4  .dc.b 00 00 00 00 01 C0 0C 00 4F F0 0C 00 01 C0 00 00 ; ........O.......
0107B4  .dc.b 00 00 00 00 03 E0 3F E0 03 E0 00 00 00 00 00 00 ; ......?.........
0107C4  .dc.b 03 E0 1F F0 FF F0 1F F0 03 E0 00 00 00 00 03 E0 ; ................
0107D4  .dc.b 1F F0 FF F0 1F F0 03 E0 00 00 00 00 4E 00 06 40 ; ............N..@
0107E4  .dc.b 01 C0 02 20 00 00 00 00 00 00 30 00 1F 80 07 E0 ; ... ......0.....
0107F4  .dc.b 01 C0 00 00 00 00 00 00 FF C0 3F E0 0F F0 07 F0 ; ..........?.....
010804  .dc.b 01 E0 00 00 00 00 FF C0 3F E0 0F F0 07 F0 01 E0 ; ........?.......
010814  .dc.b 00 00 00 00 60 00 0C 00 01 80 06 20 03 90 02 A0 ; ....`...... ....
010824  .dc.b 00 C0 00 00 30 00 1E 00 0F C0 07 E0 01 C0 00 00 ; ....0...........
010834  .dc.b F0 00 7E 00 3F C0 1F F0 0F F0 07 F0 01 E0 F0 00 ; ..~.?...........
010844  .dc.b 7E 00 3F C0 1F F0 0F F0 07 F0 01 E0 08 10 08 10 ; ~.?.............
010854  .dc.b 07 E0 0E 10 1E 18 3F 1C 03 C0 08 10 08 10 0B D0 ; ......?.........
010864  .dc.b 0E 40 1E 40 3F C0 3C 00 08 10 00 00 03 C0 03 80 ; .@.@?.<.........
010874  .dc.b 0B 80 1A 00 00 00 08 10 08 10 0F F0 0F F0 1F F8 ; ................
010884  .dc.b 3F FC 3F FC 08 10 08 10 07 E0 0E 10 1E 18 3F 1C ; ?.?...........?.
010894  .dc.b 03 C0 08 10 08 10 0B D0 0F C0 1F C0 3F C0 3C 00 ; ............?.<.
0108A4  .dc.b 08 10 00 00 03 C0 03 80 0B 80 1A 00 00 00 08 10 ; ................
0108B4  .dc.b 08 10 0F F0 0F F0 1F F8 3F FC 3F FC 30 00 58 00 ; ........?.?.0.X.
0108C4  .dc.b 94 00 EC 00 50 00 00 00 00 00 00 00 60 00 60 00 ; ....P.......`.`.
0108D4  .dc.b 00 00 08 00 30 00 00 00 78 00 FC 00 FC 00 FC 00 ; ....0...x.......
0108E4  .dc.b FC 00 78 00 00 00 78 00 FC 00 FC 00 FC 00 FC 00 ; ..x...x.........
0108F4  .dc.b 78 00 00 00 48 00 E4 00 68 00 10 00 AC 00 78 00 ; x...H...h.....x.
010904  .dc.b 00 00 30 00 78 00 F4 00 EC 00 58 00 30 00 00 00 ; ..0.x.....X.0...
010914  .dc.b 00 00 40 00 00 00 00 00 00 00 00 00 00 00 78 00 ; ..@...........x.
010924  .dc.b FC 00 FC 00 FC 00 FC 00 78 00 00 00 7F FF 80 00 ; ........x.......
010934  .dc.b 7F FF 80 00 7F FF 00 00 00 00 00 00 7F FF FF FF ; ................
010944  .dc.b 7F FF 00 00 00 00 00 00 7F FF FF FF FF FF FF FF ; ................
010954  .dc.b 7F FF 00 00 00 00 7F FF FF FF FF FF FF FF 7F FF ; ................
010964  .dc.b 00 00 00 00 FF FF 00 00 FF FF 00 00 FF FF 00 00 ; ................
010974  .dc.b 00 00 00 00 FF FF FF FF FF FF 00 00 00 00 00 00 ; ................
010984  .dc.b FF FF FF FF FF FF FF FF FF FF 00 00 00 00 FF FF ; ................
010994  .dc.b FF FF FF FF FF FF FF FF 00 00 00 00 FF FE 00 01 ; ................
0109A4  .dc.b FF FE 00 01 FF FE 00 00 00 00 00 00 FF FE FF FF ; ................
0109B4  .dc.b FF FE 00 00 00 00 00 00 FF FE FF FF FF FF FF FF ; ................
0109C4  .dc.b FF FE 00 00 00 00 FF FE FF FF FF FF FF FF FF FE ; ................
0109D4  .dc.b 00 00 00 00 00 00 00 00 00 00 05 00 0A 80 15 40 ; ...............@
0109E4  .dc.b 2F A0 2F 80 13 40 0C 80 01 00 00 00 00 00 00 00 ; /./..@..........
0109F4  .dc.b 00 00 00 00 00 00 00 00 00 00 00 00 05 00 0F 80 ; ................
010A04  .dc.b 1F C0 1F C0 0F 80 03 00 00 00 00 00 00 00 00 00 ; ................
010A14  .dc.b 00 00 00 00 00 00 00 00 00 00 0F 80 1F C0 3F E0 ; ..............?.
010A24  .dc.b 3F E0 3F E0 3F C0 1F C0 0F 80 00 00 00 00 00 00 ; ?.?.?...........
010A34  .dc.b 00 00 00 00 00 00 00 00 00 00 0F 80 1F C0 3F E0 ; ..............?.
010A44  .dc.b 3F E0 3F E0 3F C0 1F C0 0F 80 00 00 00 00 00 00 ; ?.?.?...........
010A54  .dc.b 00 00 00 00 00 00 00 00 00 80 20 00 26 80 05 00 ; .......... .&...
010A64  .dc.b 3E 90 2B 80 15 00 0C 00 11 40 00 00 00 00 00 00 ; >.+......@......
010A74  .dc.b 00 00 00 00 00 00 00 00 00 00 01 00 19 00 1E C0 ; ................
010A84  .dc.b 0F E0 1F 40 0B 80 03 80 00 00 00 00 00 00 00 00 ; ...@............
010A94  .dc.b 00 00 00 00 00 00 00 80 61 80 3B 80 3F C0 7F F0 ; ........a.;.?...
010AA4  .dc.b 7F F8 3F E0 3F 80 1F C0 1D C0 10 60 00 00 00 00 ; ..?.?......`....
010AB4  .dc.b 00 00 00 00 00 00 00 80 61 80 3B 80 3F C0 7F F0 ; ........a.;.?...
010AC4  .dc.b 7F F8 3F E0 3F 80 1F C0 1D C0 10 60 00 00 00 00 ; ..?.?......`....
010AD4  .dc.b 00 00 00 00 00 00 00 00 00 80 00 80 20 00 28 60 ; ............ .(`
010AE4  .dc.b 21 90 02 40 1D 00 04 80 09 40 10 40 00 00 00 00 ; !..@.....@.@....
010AF4  .dc.b 00 00 00 00 00 00 00 00 00 00 21 00 19 00 10 80 ; ..........!.....
010B04  .dc.b 06 60 07 00 00 00 08 00 10 80 00 00 00 00 00 00 ; .`..............
010B14  .dc.b 00 00 00 00 00 40 C0 C0 61 80 7B 80 3F C0 7D F0 ; .....@..a.{.?.}.
010B24  .dc.b 3F FC 0F E0 1F 00 3D C0 1D C0 38 E0 20 40 00 00 ; ?.....=...8. @..
010B34  .dc.b 00 00 00 00 00 40 C0 C0 61 80 7B 80 3F C0 7D F0 ; .....@..a.{.?.}.
010B44  .dc.b 3F FC 0F E0 1F 00 3D C0 1D C0 38 E0 20 40 00 00 ; ?.....=...8. @..
010B54  .dc.b 00 00 00 00 00 00 00 00 00 80 60 80 08 00 20 10 ; ..........`... .
010B64  .dc.b 02 28 01 00 00 00 00 00 08 C0 00 40 20 00 00 00 ; .(.........@ ...
010B74  .dc.b 00 00 00 00 00 00 00 00 00 00 00 00 10 00 00 00 ; ................
010B84  .dc.b 00 10 00 00 01 00 00 00 10 00 00 00 00 00 00 00 ; ................
010B94  .dc.b 00 00 00 00 00 20 00 80 60 C0 F9 C0 58 80 34 38 ; ..... ..`...X.48
010BA4  .dc.b 02 7C 49 20 03 00 18 40 1C C0 28 E0 30 60 20 00 ; .|I ...@..(.0` .
010BB4  .dc.b 00 00 00 00 00 20 00 80 60 C0 F9 C0 58 80 34 38 ; ..... ..`...X.48
010BC4  .dc.b 02 7C 49 20 03 00 18 40 1C C0 28 E0 30 60 20 00 ; .|I ...@..(.0` .
010BD4  .dc.b 00 00 00 00 00 00 00 00 40 40 00 00 00 00 00 00 ; ........@@......
010BE4  .dc.b 00 28 00 00 00 00 00 00 00 00 30 00 00 00 00 00 ; .(........0.....
010BF4  .dc.b 00 00 00 00 00 00 00 00 00 00 00 00 00 00 00 00 ; ................
010C04  .dc.b 00 00 00 00 00 00 00 00 00 00 00 00 00 00 00 00 ; ................
010C14  .dc.b 00 00 00 00 00 00 40 40 E0 C0 40 40 00 00 10 28 ; ......@@..@@...(
010C24  .dc.b 00 2C 40 00 01 00 00 80 10 00 38 00 60 10 40 30 ; .,@.......8.`.@0
010C34  .dc.b 00 00 00 00 00 00 40 40 E0 C0 40 40 00 00 10 28 ; ......@@..@@...(
010C44  .dc.b 00 2C 40 00 01 00 00 80 10 00 38 00 60 10 40 30 ; .,@.......8.`.@0
010C54  .dc.b 00 00 00 00 00 00 00 00 00 18 00 04 00 74 00 CA ; .............t..
010C64  .dc.b 02 34 67 FC 02 34 00 CA 00 74 00 04 00 18 00 00 ; .4g..4...t......
010C74  .dc.b 00 00 00 00 00 00 00 00 00 00 00 08 00 08 00 34 ; ...............4
010C84  .dc.b 01 FE 1F FE 01 FE 00 34 00 08 00 08 00 00 00 00 ; .......4........
010C94  .dc.b 00 00 00 00 00 20 00 10 00 18 00 AC 00 7C 01 FE ; ..... .......|..
010CA4  .dc.b 0F FE FF FE 0F FE 01 FE 00 7C 00 AC 00 18 00 10 ; .........|......
010CB4  .dc.b 00 20 00 00 00 20 00 10 00 18 00 AC 00 7C 01 FE ; . ... .......|..
010CC4  .dc.b 0F FE FF FE 0F FE 01 FE 00 7C 00 AC 00 18 00 10 ; .........|......
010CD4  .dc.b 00 20 00 00 00 00 00 00 30 00 40 00 5C 00 A6 00 ; . ......0.@.\...
010CE4  .dc.b 58 80 7F CC 58 80 A6 00 5C 00 40 00 30 00 00 00 ; X...X...\.@.0...
010CF4  .dc.b 00 00 00 00 00 00 00 00 00 00 20 00 20 00 58 00 ; .......... . .X.
010D04  .dc.b FF 00 FF F0 FF 00 58 00 20 00 20 00 00 00 00 00 ; ......X. . .....
010D14  .dc.b 00 00 00 00 08 00 10 00 30 00 6A 00 7C 00 FF 00 ; ........0.j.|...
010D24  .dc.b FF E0 FF FE FF E0 FF 00 7C 00 6A 00 30 00 10 00 ; ........|.j.0...
010D34  .dc.b 08 00 00 00 08 00 10 00 30 00 6A 00 7C 00 FF 00 ; ........0.j.|...
010D44  .dc.b FF E0 FF FE FF E0 FF 00 7C 00 6A 00 30 00 10 00 ; ........|.j.0...
010D54  .dc.b 08 00 00 00 46 00 68 B0 46 00 68 C0 76 2C 68 D0 ; ....F.h.F.h.v,h.
010D64  .dc.b 43 00 69 80 7A 2C 69 A0 4D 00 61 80 7A 2C 70 C0 ; C.i.z,i.M.a.z,p.
010D74  .dc.b 6B 00 74 80 F8 00 FF 40 F8 00 F7 00 FD D0 FF 00 ; k.t....@........
010D84  .dc.b FC 00 F6 00 FF D0 FE 00 F0 00 FE 00 FF D0 FF 00 ; ................
010D94  .dc.b F4 00 FF 00 FF 80 FF FC FF A0 FF F0 FF FF FF FC ; ................
010DA4  .dc.b FF A0 FF E8 FF FF FF F8 FF C0 FF E8 FF FF FF F8 ; ................
010DB4  .dc.b FF C0 FF E8 FF 80 FF FC FF A0 FF F0 FF FF FF FC ; ................
010DC4  .dc.b FF A0 FF E8 FF FF FF F8 FF C0 FF E8 FF FF FF F8 ; ................
010DD4  .dc.b FF C0 FF E8 6B 40 70 E0 4A 2C 61 80 4B 00 69 A0 ; ....k@p.J,a.K.i.
010DE4  .dc.b 5A 2C 65 80 43 00 68 D0 76 28 60 C0 42 00 68 B8 ; Z,e.C.h.v(`.B.h.
010DF4  .dc.b 56 00 68 D0 F4 00 FF 00 FF D0 FE 00 F4 00 FE 00 ; V.h.............
010E04  .dc.b FF D0 FA 00 FC 00 FF 00 FD D0 FF 00 FC 00 FF 40 ; ...............@
010E14  .dc.b E8 00 FF 00 FF F0 FF FC FF FF FF E8 FF D0 FF F8 ; ................
010E24  .dc.b FF FE FF E8 FF B0 FF FC FF FC FF F0 FF A0 FF FE ; ................
010E34  .dc.b FF C0 FF F8 FF F0 FF FC FF FF FF E8 FF D0 FF F8 ; ................
010E44  .dc.b FF FE FF E8 FF B0 FF FC FF FC FF F0 FF A0 FF FE ; ................
010E54  .dc.b FF C0 FF F8 00 62 0D 16 00 62 03 16 34 6E 0B 16 ; .....b...b..4n..
010E64  .dc.b 00 C2 01 96 34 5E 05 96 00 B2 01 86 34 5E 03 0E ; ....4^......4^..
010E74  .dc.b 00 D6 01 2E 00 1F 02 FF 00 1F 00 EF 0B BF 00 FF ; ................
010E84  .dc.b 00 3F 00 6F 0B FF 00 7F 00 0F 00 7F 0B FF 00 FF ; .?.o............
010E94  .dc.b 00 2F 00 FF 01 FF 3F FF 05 FF 0F FF FF FF 3F FF ; ./....?.......?.
010EA4  .dc.b 05 FF 17 FF FF FF 1F FF 03 FF 17 FF FF FF 1F FF ; ................
010EB4  .dc.b 03 FF 17 FF 01 FF 3F FF 05 FF 0F FF FF FF 3F FF ; ......?.......?.
010EC4  .dc.b 05 FF 17 FF FF FF 1F FF 03 FF 17 FF FF FF 1F FF ; ................
010ED4  .dc.b 03 FF 17 FF 02 D6 07 0E 34 52 01 86 00 D2 05 96 ; ........4R......
010EE4  .dc.b 34 5A 01 A6 00 C2 0B 16 14 6E 03 06 00 42 1D 16 ; 4Z.......n...B..
010EF4  .dc.b 00 6A 0B 16 00 2F 00 FF 0B FF 00 7F 00 2F 00 7F ; .j.../......./..
010F04  .dc.b 0B FF 00 5F 00 3F 00 FF 0B BF 00 FF 00 3F 02 FF ; ..._.?.......?..
010F14  .dc.b 00 17 00 FF 0F FF 3F FF FF FF 17 FF 0B FF 1F FF ; ......?.........
010F24  .dc.b 7F FF 17 FF 0D FF 3F FF 3F FF 0F FF 05 FF 7F FF ; ......?.?.......
010F34  .dc.b 03 FF 1F FF 0F FF 3F FF FF FF 17 FF 0B FF 1F FF ; ......?.........
010F44  .dc.b 7F FF 17 FF 0D FF 3F FF 3F FF 0F FF 05 FF 7F FF ; ......?.?.......
010F54  .dc.b 03 FF 1F FF FF FE FF FC FD 2E F4 BE D2 FA CB EA ; ................
010F64  .dc.b EF A2 FE 8A FA 2E E8 BE E2 F6 CB D6 EF 56 FD 5E ; .............V.^
010F74  .dc.b BF FE 00 00 FF FF FF FE FE 1C F8 7C E1 FC C7 F0 ; ...........|....
010F84  .dc.b DF C0 FF 04 FC 1C F0 7C C1 F8 C7 E0 DF 8C FE 3C ; .......|.......<
010F94  .dc.b C0 00 80 00 FF FE 80 00 98 04 A0 1C 80 70 81 C0 ; .............p..
010FA4  .dc.b 87 00 9C 00 B0 04 80 18 80 60 81 80 86 00 98 0C ; .........`......
010FB4  .dc.b 80 00 00 00 FF FF FF FF FF FF FF FF FF FF FF FF ; ................
010FC4  .dc.b FF FF FF FF FF FF FF FF FF FF FF FF FF FF FF FF ; ................
010FD4  .dc.b FF FF FF FF 03 C0 0F B8 3C 04 77 A2 EA 02 D0 88 ; ........<.w.....
010FE4  .dc.b C2 50 81 08 82 50 90 8A 42 02 45 A4 10 08 0C 30 ; .P...P..B.E....0
010FF4  .dc.b 00 00 00 00 07 E0 1F F0 3F F8 78 1C 71 8C E3 06 ; ........?.x.q...
011004  .dc.b E4 26 E0 F6 E4 26 E3 0C F1 8C 78 38 2F F0 13 C0 ; .&...&....x8/...
011014  .dc.b 00 00 00 00 00 00 0F 00 10 00 21 C0 07 F0 0F F0 ; ..........!.....
011024  .dc.b 1F F8 1F F8 1F F8 0F F0 0F F0 03 C0 00 00 00 00 ; ................
011034  .dc.b 00 00 00 00 07 E0 1F F8 3F FC 7F FE FF FF FF FF ; ........?.......
011044  .dc.b FF FF FF FF FF FF FF FF FF FF 7F FE 3F FC 1F F8 ; ............?...
011054  .dc.b 07 E0 00 00 03 C0 0F B8 3C 04 74 22 E0 02 D0 08 ; ........<.t"....
011064  .dc.b C4 20 97 E8 84 20 90 0A 40 02 44 24 10 08 0C 30 ; . ... ..@.D$...0
011074  .dc.b 00 00 00 00 07 E0 1F F0 3F F8 78 1C 70 0C E0 06 ; ........?.x.p...
011084  .dc.b E3 C6 EF F6 E3 C6 E0 04 F0 0C 78 18 2F F0 13 C0 ; ..........x./...
011094  .dc.b 00 00 00 00 00 00 0F 00 10 00 20 00 00 00 00 00 ; .......... .....
0110A4  .dc.b 0F F0 1F F8 0F F0 00 00 00 00 00 00 00 00 00 00 ; ................
0110B4  .dc.b 00 00 00 00 07 E0 1F F8 3F FC 7F FE FF FF FF FF ; ........?.......
0110C4  .dc.b FF FF FF FF FF FF FF FF FF FF 7F FE 3F FC 1F F8 ; ............?...
0110D4  .dc.b 07 E0 00 00 03 C0 0F B8 3C 04 74 22 E0 42 D1 88 ; ........<.t".B..
0110E4  .dc.b C1 00 87 E0 80 80 91 8A 42 02 44 24 10 08 0C 30 ; ........B.D$...0
0110F4  .dc.b 00 00 00 00 07 E0 1F F0 3F F8 78 1C 70 4C E0 86 ; ........?.x.pL..
011104  .dc.b E3 06 E7 E6 E0 C6 E1 04 F2 0C 78 18 2F F0 13 C0 ; ..........x./...
011114  .dc.b 00 00 00 00 00 00 0F 00 10 00 20 00 00 C0 01 80 ; .......... .....
011124  .dc.b 03 00 07 E0 00 C0 01 80 03 00 00 00 00 00 00 00 ; ................
011134  .dc.b 00 00 00 00 07 E0 1F F8 3F FC 7F FE FF FF FF FF ; ........?.......
011144  .dc.b FF FF FF FF FF FF FF FF FF FF 7F FE 3F FC 1F F8 ; ............?...
011154  .dc.b 07 E0 00 00 03 80 0F 70 3C 08 74 44 E0 04 D3 90 ; .......p<.tD....
011164  .dc.b C5 40 87 C0 85 40 93 94 40 04 44 48 10 10 0C 60 ; .@...@..@.DH...`
011174  .dc.b 00 00 00 00 07 C0 1F E0 3F F0 78 38 71 18 E1 0C ; ........?.x8q...
011184  .dc.b E3 8C EF EC E3 8C E1 08 F1 18 78 30 2F E0 13 80 ; ..........x0/...
011194  .dc.b 00 00 00 00 00 00 0E 00 10 00 21 00 01 00 03 80 ; ..........!.....
0111A4  .dc.b 07 C0 1F F0 07 C0 03 80 01 00 01 00 00 00 00 00 ; ................
0111B4  .dc.b 00 00 00 00 07 C0 1F F0 3F F8 7F FC FF FE FF FE ; ........?.......
0111C4  .dc.b FF FE FF FE FF FE FF FE FF FE 7F FC 3F F8 1F F0 ; ............?...
0111D4  .dc.b 07 C0 00 00 03 C0 0F B8 3C 04 74 22 E0 02 D0 08 ; ........<.t"....
0111E4  .dc.b C0 00 80 00 80 00 90 0A 40 02 44 24 10 08 0C 30 ; ........@.D$...0
0111F4  .dc.b 00 00 00 00 07 E0 1F F0 3F F8 7F FC 7C 3C FC 9E ; ........?...|<..
011204  .dc.b FC 9E FC 3E FC FE FC FC FC FC 7F F8 2F F0 13 C0 ; ...>......../...
011214  .dc.b 00 00 00 00 00 00 0F 00 10 00 23 C0 0F F0 0F F0 ; ..........#.....
011224  .dc.b 1F F8 1F F8 1F F8 0F F0 0F F0 03 C0 00 00 00 00 ; ................
011234  .dc.b 00 00 00 00 07 E0 1F F8 3F FC 7F FE FF FF FF FF ; ........?.......
011244  .dc.b FF FF FF FF FF FF FF FF FF FF 7F FE 3F FC 1F F8 ; ............?...
011254  .dc.b 07 E0 00 00 03 C0 0F B8 3C 04 77 E2 EC 32 D9 98 ; ........<.w..2..
011264  .dc.b D9 F8 99 18 99 98 99 9A 4C 32 47 E4 10 08 0C 30 ; ........L2G....0
011274  .dc.b 00 00 00 00 07 E0 1F F0 3F F8 7F FC 7C 3C F9 9E ; ........?...|<..
011284  .dc.b F9 FE F9 1E F9 9E F9 9C FC 3C 7F F8 2F F0 13 C0 ; .........<../...
011294  .dc.b 00 00 00 00 00 00 0F 00 10 00 23 C0 0F F0 0F F0 ; ..........#.....
0112A4  .dc.b 1F F8 1F F8 1F F8 0F F0 0F F0 03 C0 00 00 00 00 ; ................
0112B4  .dc.b 00 00 00 00 07 E0 1F F8 3F FC 7F FE FF FF FF FF ; ........?.......
0112C4  .dc.b FF FF FF FF FF FF FF FF FF FF 7F FE 3F FC 1F F8 ; ............?...
0112D4  .dc.b 07 E0 00 00 03 C0 0F B8 3C 04 77 E2 EB D2 D9 98 ; ........<.w.....
0112E4  .dc.b D8 18 99 98 99 98 99 9A 49 92 47 E4 10 08 0C 30 ; ........I.G....0
0112F4  .dc.b 00 00 00 00 07 E0 1F F0 3F F8 7F FC 7B DC F9 9E ; ........?...{...
011304  .dc.b F8 1E F9 9E F9 9E F9 9C F9 9C 7F F8 2F F0 13 C0 ; ............/...
011314  .dc.b 00 00 00 00 00 00 0F 00 10 00 23 C0 0F F0 0F F0 ; ..........#.....
011324  .dc.b 1F F8 1F F8 1F F8 0F F0 0F F0 03 C0 00 00 00 00 ; ................
011334  .dc.b 00 00 00 00 07 E0 1F F8 3F FC 7F FE FF FF FF FF ; ........?.......
011344  .dc.b FF FF FF FF FF FF FF FF FF FF 7F FE 3F FC 1F F8 ; ............?...
011354  .dc.b 07 E0 00 00 03 C0 0F B8 3C 04 77 E2 EC F2 DC F8 ; ........<.w.....
011364  .dc.b DC F8 9C F8 9C F8 9C FA 4C 32 47 E4 10 08 0C 30 ; ........L2G....0
011374  .dc.b 00 00 00 00 07 E0 1F F0 3F F8 7F FC 7C FC FC FE ; ........?...|...
011384  .dc.b FC FE FC FE FC FE FC FC FC 3C 7F F8 2F F0 13 C0 ; .........<../...
011394  .dc.b 00 00 00 00 00 00 0F 00 10 00 23 C0 0F F0 0F F0 ; ..........#.....
0113A4  .dc.b 1F F8 1F F8 1F F8 0F F0 0F F0 03 C0 00 00 00 00 ; ................
0113B4  .dc.b 00 00 00 00 07 E0 1F F8 3F FC 7F FE FF FF FF FF ; ........?.......
0113C4  .dc.b FF FF FF FF FF FF FF FF FF FF 7F FE 3F FC 1F F8 ; ............?...
0113D4  .dc.b 07 E0 00 00 00 00 00 00 08 24 15 A8 06 00 28 C0 ; .........$....(.
0113E4  .dc.b 17 20 03 A8 17 98 0B A8 0C 48 22 00 04 A0 00 10 ; . .......H".....
0113F4  .dc.b 00 00 00 00 00 00 00 00 00 00 00 00 09 50 07 60 ; .............P.`
011404  .dc.b 0F D0 07 F0 0F E0 07 D0 17 E0 0C B0 00 08 00 00 ; ................
011414  .dc.b 00 00 00 00 00 00 44 42 3D 24 1F B8 1F F2 7F F4 ; ......DB=$......
011424  .dc.b 3F FC 8F FA 1F FC 2F FE 1F F8 7F FA 3E B8 24 54 ; ?...../.....>.$T
011434  .dc.b 41 20 10 00 00 00 44 42 3D 24 1F B8 1F F2 7F F4 ; A ....DB=$......
011444  .dc.b 3F FC 8F FA 1F FC 2F FE 1F F8 7F FA 3E B8 24 54 ; ?...../.....>.$T
011454  .dc.b 41 20 10 00 00 00 00 00 00 00 00 00 08 80 07 20 ; A ............. 
011464  .dc.b 09 40 08 20 03 60 08 90 05 20 0B 00 00 00 00 00 ; .@. .`... ......
011474  .dc.b 00 00 00 00 00 00 00 00 00 00 00 00 00 00 00 00 ; ................
011484  .dc.b 06 80 07 C0 0F 80 07 40 02 80 00 00 00 00 00 00 ; .......@........
011494  .dc.b 00 00 00 00 00 00 01 00 04 20 01 80 5B D0 0F E4 ; ......... ..[...
0114A4  .dc.b 1F F0 4F FC 1F F0 3F F8 0F F0 1F A0 4B 12 01 00 ; ..O...?.....K...
0114B4  .dc.b 04 40 00 00 00 00 01 00 04 20 01 80 5B D0 0F E4 ; .@....... ..[...
0114C4  .dc.b 1F F0 4F FC 1F F0 3F F8 0F F0 1F A0 4B 12 01 00 ; ..O...?.....K...
0114D4  .dc.b 04 40 00 00 00 7A 00 00 00 9C 00 00 06 81 10 00 ; .@...z..........
0114E4  .dc.b 01 78 C0 00 0A 80 50 00 25 08 24 00 9D 4C 39 00 ; .x....P.%.$..L9.
0114F4  .dc.b BD 72 3D 00 5C 26 3A 00 14 09 28 00 06 12 60 00 ; .r=.\&:...(...`.
011504  .dc.b 03 00 C0 00 08 81 00 00 00 7E 00 00 00 00 00 00 ; .........~......
011514  .dc.b 00 3C 00 00 00 E3 00 00 0F 00 E0 00 02 7E 00 00 ; .<...........~..
011524  .dc.b 04 C3 20 00 1D B1 B8 00 7D 30 BE 00 7D 00 BE 00 ; .. .....}0..}...
011534  .dc.b 3D 00 BC 00 0D 85 B0 00 00 CB 00 00 00 7E 00 00 ; =............~..
011544  .dc.b 07 00 00 00 00 80 00 00 00 40 00 00 00 00 00 00 ; .........@......
011554  .dc.b 00 00 00 00 00 00 00 00 00 00 00 00 00 3C 00 00 ; .............<..
011564  .dc.b 00 7E 00 00 04 FF 20 00 0C FF 30 00 04 FF 20 00 ; .~.... ...0... .
011574  .dc.b 00 7E 00 00 00 3C 00 00 00 00 00 00 00 00 00 00 ; .~...<..........
011584  .dc.b 00 00 00 00 00 00 00 00 00 7E 00 00 00 FF 00 00 ; .........~......
011594  .dc.b 0F FF F0 00 03 FF C0 00 0F FF F0 00 3F FF FC 00 ; ............?...
0115A4  .dc.b FF FF FF 00 FF FF FF 00 FF FF FF 00 3F FF FC 00 ; ............?...
0115B4  .dc.b 0F FF F0 00 03 FF C0 00 0F FF F0 00 00 FF 00 00 ; ................
0115C4  .dc.b 00 7E 00 00 00 01 00 00 00 03 A0 00 00 0F 98 00 ; .~..............
0115D4  .dc.b 00 3F CE 00 00 FF C3 80 03 FF E1 E0 0F FF E0 78 ; .?.............x
0115E4  .dc.b 7F F8 1E 00 0E 07 E0 48 03 87 E1 20 00 C3 C2 80 ; .......H... ....
0115F4  .dc.b 00 33 CA 00 00 09 98 00 00 01 A0 00 00 00 00 00 ; .3..............
011604  .dc.b 00 01 80 00 00 07 C0 00 00 1F E0 00 00 7F F0 00 ; ................
011614  .dc.b 01 FF FC 00 07 FF FE 00 1F FF FF 80 7F FF E0 00 ; ................
011624  .dc.b 1F F8 00 30 07 F8 00 C0 01 FC 01 00 00 7C 04 00 ; ...0.........|..
011634  .dc.b 00 1E 00 00 00 06 00 00 00 01 00 00 00 00 00 00 ; ................
011644  .dc.b 00 02 00 00 00 06 00 00 00 0C 00 00 00 3C 00 00 ; .............<..
011654  .dc.b 00 78 00 00 01 F8 00 00 3E 00 00 00 00 00 00 00 ; .x......>.......
011664  .dc.b 00 00 00 00 00 00 00 00 00 00 00 00 00 00 00 00 ; ................
011674  .dc.b 00 00 00 00 00 00 00 00 00 01 80 00 00 07 E0 00 ; ................
011684  .dc.b 00 1F F8 00 00 7F FE 00 01 FF FF 80 07 FF FF E0 ; ................
011694  .dc.b 1F FF FF F8 7F FF FF FE 1F FF FF F8 07 FF FF E0 ; ................
0116A4  .dc.b 01 FF FF 80 00 7F FE 00 00 1F F8 00 00 07 E0 00 ; ................
0116B4  .dc.b 00 01 80 00 00 F0 00 00 01 98 00 00 03 0C 00 00 ; ................
0116C4  .dc.b 06 06 00 00 0C 03 00 00 18 01 80 00 30 00 C0 00 ; ............0...
0116D4  .dc.b 60 00 60 00 C0 00 20 00 C0 00 20 00 C0 00 20 00 ; `.`... ... ... .
0116E4  .dc.b C0 00 20 00 C0 00 20 00 C0 00 20 00 C0 00 20 00 ; .. ... ... ... .
0116F4  .dc.b C0 00 20 00 C0 00 60 00 30 01 80 00 00 00 00 00 ; .. ...`.0.......
011704  .dc.b 00 E0 00 00 01 E0 00 00 03 F0 00 00 07 F8 00 00 ; ................
011714  .dc.b 0F FC 00 00 1F FE 00 00 3F FF 00 00 7F FF 80 00 ; ........?.......
011724  .dc.b FF FF C0 00 FF FF C0 00 FF FF C0 00 FF FF C0 00 ; ................
011734  .dc.b FF FF C0 00 FF FF C0 00 FF FF C0 00 FF FF C0 00 ; ................
011744  .dc.b FF FF 80 00 0F FE 00 00 00 00 00 00 00 80 00 00 ; ................
011754  .dc.b 01 00 00 00 02 00 00 00 04 60 00 00 08 E0 00 00 ; .........`......
011764  .dc.b 10 60 00 00 20 60 00 00 40 60 00 00 80 F0 00 00 ; .`.. `..@`......
011774  .dc.b 80 00 00 00 99 9F 00 00 99 99 80 00 99 99 80 00 ; ................
011784  .dc.b 99 9F 00 00 99 98 00 00 99 98 00 00 0F 18 00 00 ; ................
011794  .dc.b 00 00 00 00 00 00 00 00 00 F0 00 00 01 F8 00 00 ; ................
0117A4  .dc.b 03 FC 00 00 07 FE 00 00 0F FF 00 00 1F FF 80 00 ; ................
0117B4  .dc.b 3F FF C0 00 7F FF E0 00 FF FF F0 00 FF FF F0 00 ; ?...............
0117C4  .dc.b FF FF F0 00 FF FF F0 00 FF FF F0 00 FF FF F0 00 ; ................
0117D4  .dc.b FF FF F0 00 FF FF F0 00 FF FF F0 00 3F FF C0 00 ; ............?...
0117E4  .dc.b 0F FF 00 00 00 00 00 00 00 00 00 00 00 00 00 00 ; ................
0117F4  .dc.b 00 00 00 00 00 00 00 00 00 00 00 00 00 00 00 00 ; ................
011804  .dc.b 00 00 00 00 00 00 00 00 00 00 00 00 00 01 00 00 ; ................
011814  .dc.b 00 03 C0 00 00 0C 30 00 00 31 90 00 00 6B D8 00 ; ......0..1...k..
011824  .dc.b 00 37 CC 00 00 37 E8 00 00 6B CC 00 00 38 18 00 ; .7...7...k...8..
011834  .dc.b 00 07 30 00 00 02 C0 00 00 00 00 00 00 00 00 00 ; ..0.............
011844  .dc.b 00 00 00 00 00 00 00 00 00 00 00 00 00 00 00 00 ; ................
011854  .dc.b 00 00 00 00 00 00 00 00 00 00 00 00 00 00 00 00 ; ................
011864  .dc.b 00 00 00 00 00 00 00 00 00 00 00 00 00 00 00 00 ; ................
011874  .dc.b 00 00 00 00 00 00 00 00 00 00 00 00 00 00 00 00 ; ................
011884  .dc.b 00 00 00 00 00 00 00 00 00 00 00 00 00 00 00 00 ; ................
011894  .dc.b 00 00 00 00 00 03 C0 00 00 0F E0 00 00 17 E0 00 ; ................
0118A4  .dc.b 00 0F F0 00 00 0F F0 00 00 17 F0 00 00 07 E0 00 ; ................
0118B4  .dc.b 00 00 C0 00 00 00 00 00 00 00 00 00 00 00 00 00 ; ................
0118C4  .dc.b 00 00 00 00 00 00 00 00 00 00 00 00 00 00 00 00 ; ................
0118D4  .dc.b 00 00 00 00 00 00 00 00 00 00 00 00 00 00 00 00 ; ................
0118E4  .dc.b 00 00 00 00 00 00 00 00 00 00 00 00 00 00 00 00 ; ................
0118F4  .dc.b 00 00 00 00 00 00 00 00 00 00 00 00 00 00 00 00 ; ................
011904  .dc.b 00 00 00 00 00 00 00 00 00 03 80 00 00 0F E0 00 ; ................
011914  .dc.b 00 1F F8 00 00 7F FC 00 00 FF FC 00 00 FF FE 00 ; ................
011924  .dc.b 00 FF FE 00 00 7F FE 00 00 7F FE 00 00 FF FC 00 ; ................
011934  .dc.b 00 3F FC 00 00 0F F0 00 00 03 E0 00 00 00 00 00 ; .?..............
011944  .dc.b 00 00 00 00 00 00 00 00 00 00 00 00 00 00 00 00 ; ................
011954  .dc.b 00 00 00 00 00 00 00 00 00 00 00 00 00 00 00 00 ; ................
011964  .dc.b 00 00 00 00 00 00 00 00 00 00 00 00 00 00 00 00 ; ................
011974  .dc.b 00 00 00 00 00 00 00 00 00 00 00 00 00 00 00 00 ; ................
011984  .dc.b 00 00 00 00 00 00 00 00 00 03 80 00 00 0F E0 00 ; ................
011994  .dc.b 00 1F F8 00 00 7F FC 00 00 FF FC 00 00 FF FE 00 ; ................
0119A4  .dc.b 00 FF FE 00 00 7F FE 00 00 7F FE 00 00 FF FC 00 ; ................
0119B4  .dc.b 00 3F FC 00 00 0F F0 00 00 03 E0 00 00 00 00 00 ; .?..............
0119C4  .dc.b 00 00 00 00 00 00 00 00 00 00 00 00 00 00 00 00 ; ................
0119D4  .dc.b 00 00 00 00 00 00 00 00 00 00 00 00 00 00 00 00 ; ................
0119E4  .dc.b 00 00 00 00 00 00 00 00 00 00 00 00 00 00 00 00 ; ................
0119F4  .dc.b 00 00 00 00 00 00 00 00 00 00 00 00 00 00 00 00 ; ................
011A04  .dc.b 00 00 00 00 00 00 1A 00 00 30 33 00 00 DC E4 80 ; .........03.....
011A14  .dc.b 01 2B 53 00 00 AC 83 80 00 20 58 00 00 35 FC 80 ; .+S...... X..5..
011A24  .dc.b 00 57 9C C0 03 CF 81 C0 07 54 3B 00 01 0E 80 00 ; .W.......T;.....
011A34  .dc.b 00 F4 EC 00 00 02 E3 00 00 03 04 00 00 01 38 00 ; ..............8.
011A44  .dc.b 00 00 D0 00 00 00 00 00 00 00 00 00 00 00 00 00 ; ................
011A54  .dc.b 00 00 00 00 00 00 00 00 00 00 00 00 00 00 00 00 ; ................
011A64  .dc.b 00 00 00 00 00 00 00 00 00 00 00 00 00 00 00 00 ; ................
011A74  .dc.b 00 00 00 00 00 00 00 00 00 00 00 00 00 00 00 00 ; ................
011A84  .dc.b 00 00 00 00 00 00 00 00 00 00 0C 00 00 20 1F 00 ; ............. ..
011A94  .dc.b 00 F4 AC 00 00 7B 7C 00 00 1F FF 00 00 0F FF 00 ; .....{|.........
011AA4  .dc.b 00 2F FF 00 00 3F FE 00 00 FF E4 00 00 F1 FC 00 ; ./...?..........
011AB4  .dc.b 00 03 F0 00 00 01 FC 00 00 00 F8 00 00 00 C0 00 ; ................
011AC4  .dc.b 00 00 00 00 00 00 00 00 00 00 00 00 00 00 00 00 ; ................
011AD4  .dc.b 00 00 00 00 00 00 00 00 00 00 00 00 00 00 00 00 ; ................
011AE4  .dc.b 00 00 00 00 00 00 00 00 00 00 00 00 00 00 00 00 ; ................
011AF4  .dc.b 00 00 00 00 00 00 00 00 00 00 00 00 00 00 00 00 ; ................
011B04  .dc.b 00 00 1E 00 00 73 7F 80 01 FC FF C0 03 FF FF C0 ; .....s..........
011B14  .dc.b 03 FF FF 80 01 FF FF 80 00 FF FF C0 01 7F FF E0 ; ................
011B24  .dc.b 07 FF FF E0 0F FF FF E0 0F FF FF C0 07 FF FE 00 ; ................
011B34  .dc.b 03 FF FF 80 00 F7 FF 80 00 0B FF 00 00 3F FE 00 ; .............?..
011B44  .dc.b 00 1B FC 00 00 01 E0 00 00 00 00 00 00 00 00 00 ; ................
011B54  .dc.b 00 00 00 00 00 00 00 00 00 00 00 00 00 00 00 00 ; ................
011B64  .dc.b 00 00 00 00 00 00 00 00 00 00 00 00 00 00 00 00 ; ................
011B74  .dc.b 00 00 00 00 00 00 00 00 00 00 00 00 00 00 00 00 ; ................
011B84  .dc.b 00 00 1E 00 00 73 7F 80 01 FC FF C0 03 FF FF C0 ; .....s..........
011B94  .dc.b 03 FF FF 80 01 FF FF 80 00 FF FF C0 01 7F FF E0 ; ................
011BA4  .dc.b 07 FF FF E0 0F FF FF E0 0F FF FF C0 07 FF FE 00 ; ................
011BB4  .dc.b 03 FF FF 80 00 F7 FF 80 00 0B FF 00 00 3F FE 00 ; .............?..
011BC4  .dc.b 00 1B FC 00 00 01 E0 00 00 00 00 00 00 00 00 00 ; ................
011BD4  .dc.b 00 00 00 00 00 00 00 00 00 00 00 00 00 00 00 00 ; ................
011BE4  .dc.b 00 00 00 00 00 00 00 00 00 00 00 00 00 00 00 00 ; ................
011BF4  .dc.b 00 00 00 00 00 00 00 00 00 00 00 00 00 00 00 00 ; ................
011C04  .dc.b 00 01 B6 00 00 06 61 80 01 A2 0C 80 06 50 CD 80 ; ......a......P..
011C14  .dc.b 01 29 83 00 04 96 26 00 01 40 8A 00 00 0F 25 00 ; .)....&..@....%.
011C24  .dc.b 00 6F 22 80 00 C2 4B 60 06 22 A7 40 04 94 09 80 ; .o"...K`.".@....
011C34  .dc.b 01 99 57 00 05 26 18 00 04 62 42 00 01 84 D9 80 ; ..W..&...bB.....
011C44  .dc.b 00 02 27 80 00 01 E2 00 00 00 00 00 00 00 00 00 ; ..'.............
011C54  .dc.b 00 00 00 00 00 00 00 00 00 00 00 00 00 00 00 00 ; ................
011C64  .dc.b 00 00 00 00 00 00 00 00 00 00 00 00 00 00 00 00 ; ................
011C74  .dc.b 00 00 00 00 00 00 00 00 00 00 00 00 00 00 00 00 ; ................
011C84  .dc.b 00 00 08 00 00 01 9E 00 00 41 FF 00 01 E0 3E 00 ; .........A....>.
011C94  .dc.b 07 D0 7C 00 03 E9 F8 00 00 BF F4 00 00 7F D8 00 ; ..|.............
011CA4  .dc.b 00 1F DD 00 00 3F BF 80 01 FD 5F 80 03 EF F6 00 ; .....?...._.....
011CB4  .dc.b 01 E6 E8 00 03 C1 E0 00 03 81 FC 00 00 03 E6 00 ; ................
011CC4  .dc.b 00 01 C0 00 00 00 00 00 00 00 00 00 00 00 00 00 ; ................
011CD4  .dc.b 00 00 00 00 00 00 00 00 00 00 00 00 00 00 00 00 ; ................
011CE4  .dc.b 00 00 00 00 00 00 00 00 00 00 00 00 00 00 00 00 ; ................
011CF4  .dc.b 00 00 00 00 00 00 00 00 00 00 00 00 00 11 DE 00 ; ................
011D04  .dc.b 00 07 FF 80 01 E7 FF C0 07 FF FF E0 0F F9 FF C0 ; ................
011D14  .dc.b 0F FF FF 80 0F FF FF C0 07 FF FF A0 01 FF FF C0 ; ................
011D24  .dc.b 00 7F FF E0 07 FF FF E0 0F FF FF E0 0F FF FF E0 ; ................
011D34  .dc.b 07 FF FF C0 0F FF FF 00 0F F7 FF C0 07 E7 FF E0 ; ................
011D44  .dc.b 01 87 FF C0 00 17 FF 80 00 58 F6 00 00 00 00 00 ; .........X......
011D54  .dc.b 00 00 00 00 00 00 00 00 00 00 00 00 00 00 00 00 ; ................
011D64  .dc.b 00 00 00 00 00 00 00 00 00 00 00 00 00 00 00 00 ; ................
011D74  .dc.b 00 00 00 00 00 00 00 00 00 00 00 00 00 11 DE 00 ; ................
011D84  .dc.b 00 07 FF 80 01 E7 FF C0 07 FF FF E0 0F F9 FF C0 ; ................
011D94  .dc.b 0F FF FF 80 0F FF FF C0 07 FF FF A0 01 FF FF C0 ; ................
011DA4  .dc.b 00 7F FF E0 07 FF FF E0 0F FF FF E0 0F FF FF E0 ; ................
011DB4  .dc.b 07 FF FF C0 0F FF FF 00 0F F7 FF C0 07 E7 FF E0 ; ................
011DC4  .dc.b 01 87 FF C0 00 17 FF 80 00 58 F6 00 00 00 00 00 ; .........X......
011DD4  .dc.b 00 00 00 00 00 00 00 00 00 00 00 00 00 00 00 00 ; ................
011DE4  .dc.b 00 00 00 00 00 00 00 00 00 00 00 00 00 00 00 00 ; ................
011DF4  .dc.b 00 00 00 00 00 00 00 00 00 01 00 00 00 06 C0 00 ; ................
011E04  .dc.b 00 0B 21 00 03 01 42 40 08 C2 41 60 01 41 82 40 ; ..!...B@..A`.A.@
011E14  .dc.b 03 2C 99 00 00 75 6C 00 00 CE 60 00 01 21 B0 00 ; .,...ul...`..!..
011E24  .dc.b 01 B3 38 40 00 1C F4 20 00 37 4B 40 01 C2 82 40 ; ..8@... .7K@...@
011E34  .dc.b 02 A2 B0 00 09 A3 C4 00 0A C1 82 00 03 03 4A 40 ; ..............J@
011E44  .dc.b 00 04 02 A0 00 02 A0 C0 00 01 C0 00 00 00 00 00 ; ................
011E54  .dc.b 00 00 00 00 00 00 00 00 00 00 00 00 00 00 00 00 ; ................
011E64  .dc.b 00 00 00 00 00 00 00 00 00 00 00 00 00 00 00 00 ; ................
011E74  .dc.b 00 00 00 00 00 00 00 00 00 00 00 00 00 01 00 00 ; ................
011E84  .dc.b 00 07 C0 00 00 03 81 80 07 01 83 80 03 80 4F 80 ; ..............O.
011E94  .dc.b 00 C3 06 00 00 00 90 00 00 31 80 00 00 FF 40 00 ; .........1....@.
011EA4  .dc.b 00 4F C4 80 00 03 0F C0 00 00 87 80 00 31 C1 80 ; .O...........1..
011EB4  .dc.b 01 C1 C0 00 07 C0 08 00 05 00 0C 00 00 00 85 80 ; ................
011EC4  .dc.b 00 03 C1 C0 00 01 C0 00 00 00 00 00 00 00 00 00 ; ................
011ED4  .dc.b 00 00 00 00 00 00 00 00 00 00 00 00 00 00 00 00 ; ................
011EE4  .dc.b 00 00 00 00 00 00 00 00 00 00 00 00 00 00 00 00 ; ................
011EF4  .dc.b 00 00 00 00 00 20 00 00 00 03 C0 00 00 0F F3 00 ; ..... ..........
011F04  .dc.b 07 0F F7 C0 0F CF F7 F0 0F E3 EF F0 0F F7 DF E0 ; ................
011F14  .dc.b 07 FF FF C0 00 FF FF 80 01 FF F2 00 03 FF FC C0 ; ................
011F24  .dc.b 03 FF FF F0 00 FF FF F0 01 3F FF F0 07 F7 CF E0 ; .........?......
011F34  .dc.b 0F FB F3 D0 0F F3 FE 00 0F E7 DF C0 0F C7 EF F0 ; ................
011F44  .dc.b 07 0F F3 F0 00 0F F3 F0 00 17 E1 E0 00 41 C0 00 ; .............A..
011F54  .dc.b 00 60 00 00 00 00 00 00 00 00 00 00 00 00 00 00 ; .`..............
011F64  .dc.b 00 00 00 00 00 00 00 00 00 00 00 00 00 00 00 00 ; ................
011F74  .dc.b 00 00 00 00 00 20 00 00 00 03 C0 00 00 0F F3 00 ; ..... ..........
011F84  .dc.b 07 0F F7 C0 0F CF F7 F0 0F E3 EF F0 0F F7 DF E0 ; ................
011F94  .dc.b 07 FF FF C0 00 FF FF 80 01 FF F2 00 03 FF FC C0 ; ................
011FA4  .dc.b 03 FF FF F0 00 FF FF F0 01 3F FF F0 07 F7 CF E0 ; .........?......
011FB4  .dc.b 0F FB F3 D0 0F F3 FE 00 0F E7 DF C0 0F C7 EF F0 ; ................
011FC4  .dc.b 07 0F F3 F0 00 0F F3 F0 00 17 E1 E0 00 41 C0 00 ; .............A..
011FD4  .dc.b 00 60 00 00 00 00 00 00 00 00 00 00 00 00 00 00 ; .`..............
011FE4  .dc.b 00 00 00 00 00 00 00 00 00 00 00 00 00 00 00 00 ; ................
011FF4  .dc.b 00 00 00 00 00 07 00 00 00 01 60 00 06 05 C0 00 ; ..........`.....
012004  .dc.b 00 03 01 80 15 86 01 00 08 80 00 F8 06 00 02 60 ; ...............`
012014  .dc.b 00 E0 11 80 00 00 E8 00 00 03 28 00 01 30 90 00 ; ..........(..0..
012024  .dc.b 00 D2 30 00 00 20 80 B0 00 0C B1 88 00 00 40 28 ; ..0.. ........@(
012034  .dc.b 00 0D 60 B0 03 80 A8 00 19 60 B0 00 03 00 41 80 ; ..`......`....A.
012044  .dc.b 06 00 02 00 00 00 00 90 00 04 80 60 00 02 E0 00 ; ...........`....
012054  .dc.b 00 00 80 00 00 00 00 00 00 00 00 00 00 00 00 00 ; ................
012064  .dc.b 00 00 00 00 00 00 00 00 00 00 00 00 00 00 00 00 ; ................
012074  .dc.b 00 00 00 00 00 01 80 00 00 07 80 00 00 02 00 00 ; ................
012084  .dc.b 06 00 00 60 0E 01 90 E0 07 00 01 80 01 80 01 80 ; ...`............
012094  .dc.b 00 00 00 00 00 00 00 00 00 F0 C0 00 00 C3 E0 00 ; ................
0120A4  .dc.b 00 21 C0 00 00 00 00 00 00 00 40 70 00 0C 00 F0 ; .!........@p....
0120B4  .dc.b 00 00 80 40 00 43 C0 00 06 00 40 00 0C 00 02 00 ; ...@.C....@.....
0120C4  .dc.b 00 00 01 80 00 00 80 60 00 03 C0 00 00 01 00 00 ; .......`........
0120D4  .dc.b 00 00 00 00 00 00 00 00 00 00 00 00 00 00 00 00 ; ................
0120E4  .dc.b 00 00 00 00 00 00 00 00 00 00 00 00 00 00 00 00 ; ................
0120F4  .dc.b 00 87 80 00 00 0F E0 00 06 1F F0 00 0F 0F F1 E0 ; ................
012104  .dc.b 1F 8F D3 F0 1F 87 D3 F8 1F C2 83 F8 1F E0 47 F0 ; ..............G.
012114  .dc.b 03 E9 FB E0 00 A7 FB 80 01 FF FE 00 03 F7 FC 00 ; ................
012124  .dc.b 03 FF FB A0 01 F5 E5 F8 00 2F FB FC 00 0C F5 FC ; ........./......
012134  .dc.b 03 DF FB FC 0F EF F8 F0 1F E3 FA 00 1F C0 F3 80 ; ................
012144  .dc.b 1F 81 0B E0 06 07 C1 F0 00 0F F1 F8 00 8F F0 70 ; ...............p
012154  .dc.b 00 43 E0 00 00 00 00 00 00 00 00 00 00 00 00 00 ; .C..............
012164  .dc.b 00 00 00 00 00 00 00 00 00 00 00 00 00 00 00 00 ; ................
012174  .dc.b 00 87 80 00 00 0F E0 00 06 1F F0 00 0F 0F F1 E0 ; ................
012184  .dc.b 1F 8F D3 F0 1F 87 D3 F8 1F C2 83 F8 1F E0 47 F0 ; ..............G.
012194  .dc.b 03 E9 FB E0 00 A7 FB 80 01 FF FE 00 03 F7 FC 00 ; ................
0121A4  .dc.b 03 FF FB A0 01 F5 E5 F8 00 2F FB FC 00 0C F5 FC ; ........./......
0121B4  .dc.b 03 DF FB FC 0F EF F8 F0 1F E3 FA 00 1F C0 F3 80 ; ................
0121C4  .dc.b 1F 81 0B E0 06 07 C1 F0 00 0F F1 F8 00 8F F0 70 ; ...............p
0121D4  .dc.b 00 43 E0 00 00 00 00 00 00 00 00 00 00 00 00 00 ; .C..............
0121E4  .dc.b 00 00 00 00 00 00 00 00 00 00 00 00 00 00 00 00 ; ................
0121F4  .dc.b 00 02 00 00 00 01 40 00 04 04 C0 00 08 01 00 00 ; ......@.........
012204  .dc.b 07 03 80 90 09 00 00 30 0C 00 01 30 01 C0 80 C0 ; .......0...0....
012214  .dc.b 00 00 C0 00 00 03 20 00 00 00 50 00 00 82 A0 00 ; ...... ...P.....
012224  .dc.b 03 40 00 00 02 80 00 40 00 00 A0 C0 00 00 40 10 ; .@.....@......@.
012234  .dc.b 00 05 30 58 00 00 E0 00 07 80 80 00 0A C0 00 00 ; ..0X............
012244  .dc.b 0F 00 00 C0 04 00 00 00 00 00 00 48 00 00 80 00 ; ...........H....
012254  .dc.b 00 01 40 00 00 00 00 00 00 00 00 00 00 00 00 00 ; ..@.............
012264  .dc.b 00 00 00 00 00 00 00 00 00 00 00 00 00 00 00 00 ; ................
012274  .dc.b 00 00 00 00 00 02 80 00 00 03 00 00 04 02 00 00 ; ................
012284  .dc.b 08 00 00 60 06 00 00 C0 03 00 00 C0 00 00 00 00 ; ...`............
012294  .dc.b 00 00 00 00 00 00 C0 00 00 01 A0 00 01 00 40 00 ; ..............@.
0122A4  .dc.b 00 80 00 00 00 00 00 00 00 00 00 20 00 00 00 68 ; ........... ...h
0122B4  .dc.b 00 00 C0 20 00 01 00 00 00 00 00 00 04 00 00 00 ; ... ............
0122C4  .dc.b 00 00 00 00 00 00 00 40 00 00 00 30 00 03 00 00 ; .......@...0....
0122D4  .dc.b 00 00 80 00 00 00 00 00 00 00 00 00 00 00 00 00 ; ................
0122E4  .dc.b 00 00 00 00 00 00 00 00 00 00 00 00 00 00 00 00 ; ................
0122F4  .dc.b 00 87 80 00 00 07 E0 00 0E 0F E0 00 1F 0F C0 F0 ; ................
012304  .dc.b 1F 07 C9 F8 1F 00 19 F8 0F 88 13 F8 07 D9 E1 F0 ; ................
012314  .dc.b 00 53 F1 C0 00 07 F8 00 01 83 F9 00 07 C3 F1 00 ; .S..............
012324  .dc.b 07 E8 C4 00 07 CC 00 F0 00 A3 F1 F8 00 04 F0 FC ; ................
012334  .dc.b 00 07 F9 FC 03 27 F8 60 0F B3 F2 00 1F D8 C6 00 ; .....'.`........
012344  .dc.b 1F 86 00 C0 0F 00 08 F0 00 03 80 F8 00 87 E0 78 ; ...............x
012354  .dc.b 00 43 E0 00 00 01 E0 00 00 00 00 00 00 00 00 00 ; .C..............
012364  .dc.b 00 00 00 00 00 00 00 00 00 00 00 00 00 00 00 00 ; ................
012374  .dc.b 00 87 80 00 00 07 E0 00 0E 0F E0 00 1F 0F C0 F0 ; ................
012384  .dc.b 1F 07 C9 F8 1F 00 19 F8 0F 88 13 F8 07 D9 E1 F0 ; ................
012394  .dc.b 00 53 F1 C0 00 07 F8 00 01 83 F9 00 07 C3 F1 00 ; .S..............
0123A4  .dc.b 07 E8 C4 00 07 CC 00 F0 00 A3 F1 F8 00 04 F0 FC ; ................
0123B4  .dc.b 00 07 F9 FC 03 27 F8 60 0F B3 F2 00 1F D8 C6 00 ; .....'.`........
0123C4  .dc.b 1F 86 00 C0 0F 00 08 F0 00 03 80 F8 00 87 E0 78 ; ...............x
0123D4  .dc.b 00 43 E0 00 00 01 E0 00 00 00 00 00 00 00 00 00 ; .C..............
0123E4  .dc.b 00 00 00 00 00 00 00 00 00 00 00 00 00 00 00 00 ; ................
0123F4  .dc.b 00 00 00 00 08 01 80 00 18 01 00 10 1C 00 00 30 ; ...............0
012404  .dc.b 10 00 00 50 00 00 00 60 02 00 00 00 00 00 00 00 ; ...P...`........
012414  .dc.b 00 00 80 00 00 03 20 00 00 00 E0 00 00 00 00 00 ; ...... .........
012424  .dc.b 03 00 00 00 00 00 00 00 00 00 80 20 00 00 40 18 ; ........... ..@.
012434  .dc.b 00 01 20 00 00 00 C0 00 00 00 00 00 00 00 00 00 ; .. .............
012444  .dc.b 04 00 00 00 1E 00 00 00 08 00 00 00 00 00 80 00 ; ................
012454  .dc.b 00 01 40 28 00 00 00 00 00 00 00 00 00 00 00 00 ; ..@(............
012464  .dc.b 00 00 00 00 00 00 00 00 00 00 00 00 00 00 00 00 ; ................
012474  .dc.b 00 00 00 00 00 00 00 00 00 00 00 00 00 00 00 00 ; ................
012484  .dc.b 08 00 00 20 00 00 00 00 00 00 00 00 00 00 00 00 ; ... ............
012494  .dc.b 00 00 00 00 00 00 C0 00 00 00 00 00 01 00 00 00 ; ................
0124A4  .dc.b 00 00 00 00 00 00 00 00 00 00 00 10 00 00 00 00 ; ................
0124B4  .dc.b 00 00 C0 00 00 00 00 00 00 00 00 00 00 00 00 00 ; ................
0124C4  .dc.b 08 00 00 00 00 00 00 00 00 00 00 00 00 00 00 00 ; ................
0124D4  .dc.b 00 00 80 10 00 00 00 00 00 00 00 00 00 00 00 00 ; ................
0124E4  .dc.b 00 00 00 00 00 00 00 00 00 00 00 00 00 00 00 00 ; ................
0124F4  .dc.b 00 01 80 00 18 03 C0 00 1C 03 80 30 3E 00 00 78 ; ...........0>..x
012504  .dc.b 18 00 08 F8 1C 00 08 F0 02 08 00 40 00 01 A0 00 ; ...........@....
012514  .dc.b 00 03 F0 00 00 03 F0 00 01 03 F1 00 03 01 60 00 ; ..............`.
012524  .dc.b 07 88 04 00 01 08 00 30 00 01 C0 38 00 00 E0 7C ; .......0...8...|
012534  .dc.b 08 03 F0 1C 00 01 E0 00 00 10 C0 00 0C 00 02 00 ; ................
012544  .dc.b 1E 02 00 00 1E 00 08 20 1C 01 00 00 00 01 C0 10 ; ....... ........
012554  .dc.b 01 03 E0 3C 00 00 C0 38 00 00 00 08 00 00 00 00 ; ...<...8........
012564  .dc.b 00 00 00 00 00 00 00 00 00 00 00 00 00 00 00 00 ; ................
012574  .dc.b 00 03 C0 00 1C 03 C0 30 3E 03 C0 78 3E 03 80 F8 ; .......0>..x>...
012584  .dc.b 3C 00 08 F8 1F 00 08 F8 07 08 80 60 00 01 F0 00 ; <..........`....
012594  .dc.b 00 03 F0 00 00 07 F8 00 01 03 F9 00 07 81 F8 00 ; ................
0125A4  .dc.b 07 88 74 00 03 88 00 38 00 01 C0 7C 00 07 F0 7C ; ..t....8...|...|
0125B4  .dc.b 08 03 F0 3E 00 03 F0 18 00 11 F0 00 1E 00 02 00 ; ...>............
0125C4  .dc.b 1E 02 00 00 3F 00 08 20 1E 01 C0 30 0C 03 E0 78 ; ....?.. ...0...x
0125D4  .dc.b 01 43 E0 7C 00 01 E0 3C 00 00 00 18 00 00 00 00 ; .C.|...<........
0125E4  .dc.b 00 00 00 00 00 00 00 00 00 00 00 00 00 00 00 00 ; ................
0125F4  .dc.b 00 00 00 00 00 00 00 00 00 00 00 00 00 00 00 00 ; ................
012604  .dc.b 00 00 00 00 00 00 00 00 00 00 00 00 00 00 00 00 ; ................
012614  .dc.b 00 00 00 00 00 00 00 00 00 00 00 00 00 00 00 00 ; ................
012624  .dc.b 00 00 00 00 00 00 00 00 00 00 00 00 00 00 00 00 ; ................
012634  .dc.b 00 00 00 00 00 00 00 00 00 00 00 00 00 00 00 00 ; ................
012644  .dc.b 00 00 00 00 00 00 00 00 00 00 00 00 00 00 00 00 ; ................
012654  .dc.b 00 00 00 00 00 00 00 00 00 00 00 00 00 00 00 00 ; ................
012664  .dc.b 00 00 00 00 00 00 00 00 00 00 00 00 00 00 00 00 ; ................
012674  .dc.b 00 00 00 00 00 00 00 00 00 00 00 00 00 00 00 00 ; ................
012684  .dc.b 00 00 00 00 00 00 00 00 00 00 00 00 00 00 00 00 ; ................
012694  .dc.b 00 00 00 00 00 00 00 00 00 00 00 00 00 00 00 00 ; ................
0126A4  .dc.b 00 00 00 00 00 00 00 00 00 00 00 00 00 00 00 00 ; ................
0126B4  .dc.b 00 00 00 00 00 00 00 00 00 00 00 00 00 00 00 00 ; ................
0126C4  .dc.b 00 00 00 00 00 00 00 00 00 00 00 00 00 00 00 00 ; ................
0126D4  .dc.b 00 00 00 00 00 00 00 00 00 00 00 00 00 00 00 00 ; ................
0126E4  .dc.b 00 00 00 00 00 00 00 00 00 00 00 00 00 00 00 00 ; ................
0126F4  .dc.b 00 01 80 00 08 03 40 00 1C 01 00 30 10 00 00 78 ; ......@....0...x
012704  .dc.b 18 00 00 10 00 00 00 00 00 00 00 00 00 00 00 00 ; ................
012714  .dc.b 00 01 00 00 00 03 10 00 00 01 10 00 02 00 20 00 ; .............. .
012724  .dc.b 07 08 00 00 00 08 00 00 00 01 00 00 00 00 80 0C ; ................
012734  .dc.b 00 00 00 1C 00 00 E0 00 00 00 40 00 00 00 00 00 ; ..........@.....
012744  .dc.b 0C 00 00 00 18 00 00 00 14 00 00 00 00 00 00 00 ; ................
012754  .dc.b 01 03 60 0C 00 00 C0 20 00 00 00 00 00 00 00 00 ; ..`.... ........
012764  .dc.b 00 00 00 00 00 00 00 00 00 00 00 00 00 00 00 00 ; ................
012774  .dc.b 00 03 C0 00 1C 43 C0 30 1C 03 40 78 38 00 04 78 ; .....C.0..@x8..x
012784  .dc.b 38 00 00 78 10 10 00 10 00 00 00 00 00 03 00 00 ; 8..x............
012794  .dc.b 00 07 80 00 00 07 98 00 00 07 98 00 07 03 38 00 ; ..............8.
0127A4  .dc.b 07 08 30 00 02 08 00 00 00 01 80 44 00 00 80 1C ; ..0........D....
0127B4  .dc.b 10 00 00 1E 00 00 F0 18 00 00 E0 00 10 20 00 00 ; ............. ..
0127C4  .dc.b 0C 00 21 00 3C 00 00 00 1E 04 04 00 08 02 00 08 ; ..!.<...........
0127D4  .dc.b 01 43 E0 0C 00 01 E0 2C 00 00 00 18 00 00 00 00 ; .C.....,........
0127E4  .dc.b 00 00 00 00 00 00 00 00 00 00 00 00 01 C0 03 00 ; ................
0127F4  .dc.b 06 9A 0B 40 E3 32 6C D4 38 67 DB 67 CB B9 36 9E ; ...@.2l.8g.g..6.
012804  .dc.b EB 7A 3C 49 CD 6F DB AE 72 3C EF D5 90 70 33 21 ; .z<I.o..r<...p3!
012814  .dc.b 40 00 03 80 00 00 00 00 00 00 00 00 00 00 00 00 ; @...............
012824  .dc.b 00 00 00 00 00 00 00 00 01 60 07 80 1F CF 9F E3 ; .........`......
012834  .dc.b 7F FF FC FF F0 76 78 7B 87 BC 60 3E FE 9F FC 5F ; .....vx{..`>..._
012844  .dc.b FC 03 1F E3 60 00 0F C0 00 00 00 00 00 00 00 00 ; ....`...........
012854  .dc.b 00 00 00 00 00 00 78 00 78 45 86 00 87 F2 17 89 ; ......x.xE......
012864  .dc.b 1F FF 0F D2 FF FF FF F7 FF FF FF FF FF FF FF FF ; ................
012874  .dc.b FF FF 7E FF FF FF FF FF FF 7F FF FF F8 F8 7F F3 ; ..~.............
012884  .dc.b E5 10 F7 CA C2 E2 41 81 00 00 3E 00 00 00 78 00 ; ......A...>...x.
012894  .dc.b 78 45 86 00 87 F2 17 89 1F FF 0F D2 FF FF FF F7 ; xE..............
0128A4  .dc.b FF FF FF FF FF FF FF FF FF FF 7E FF FF FF FF FF ; ..........~.....
0128B4  .dc.b FF 7F FF FF F8 F8 7F F3 E5 10 F7 CA C2 E2 41 81 ; ..............A.
0128C4  .dc.b 00 00 3E 00 00 00 00 00 00 00 00 00 00 01 00 00 ; ..>.............
0128D4  .dc.b 07 04 C0 E0 9E 27 52 66 FB 29 BA ED 2F 5A 49 1C ; .....'Rf.)../ZI.
0128E4  .dc.b 4E E9 BC A6 F3 0E 73 8C A6 63 95 97 2C B0 01 18 ; N.....s..c..,...
0128F4  .dc.b 01 C0 00 60 00 00 00 00 00 00 00 00 00 00 00 00 ; ...`............
012904  .dc.b 00 00 00 00 00 00 00 00 00 03 00 00 60 1F E1 F8 ; ............`...
012914  .dc.b FC DF FD 1F 1E E1 BE 03 37 16 6F 1F FF FF 7F FF ; ........7.o.....
012924  .dc.b 79 FC 63 F8 03 40 00 E0 00 00 00 00 00 00 00 00 ; y.c..@..........
012934  .dc.b 00 00 00 00 00 00 00 00 03 81 C0 00 04 63 A8 C0 ; .............c..
012944  .dc.b 0F 9F E1 F7 FF 7F FF FF FF FF FF FF 7F FF FF FF ; ................
012954  .dc.b FF FF FF FF FF FF FF FF FF FF F7 FF FF FC 25 FC ; ..............%.
012964  .dc.b 07 F0 C8 F0 01 0F 00 00 00 00 00 00 00 00 00 00 ; ................
012974  .dc.b 03 81 C0 00 04 63 A8 C0 0F 9F E1 F7 FF 7F FF FF ; .....c..........
012984  .dc.b FF FF FF FF 7F FF FF FF FF FF FF FF FF FF FF FF ; ................
012994  .dc.b FF FF F7 FF FF FC 25 FC 07 F0 C8 F0 01 0F 00 00 ; ......%.........
0129A4  .dc.b 00 00 00 00 00 00 00 00 00 00 00 00 00 60 00 00 ; .............`..
0129B4  .dc.b 39 B0 00 00 08 E6 00 00 64 0C 80 C0 75 F2 9A C0 ; 9.......d...u...
0129C4  .dc.b 65 9D EB 10 36 BC 9D B4 C9 37 1B 72 40 1F EE 4F ; e...6....7.r@..O
0129D4  .dc.b 00 70 7D A5 00 00 37 D4 00 00 03 6B 00 00 03 A0 ; .p}...7....k....
0129E4  .dc.b 00 00 00 01 00 00 00 00 00 00 00 00 00 00 00 00 ; ................
0129F4  .dc.b 00 00 00 00 00 00 00 00 00 40 00 00 3F D8 00 00 ; .........@..?...
012A04  .dc.b 7F F3 00 00 40 3F E1 C0 7B FB FF E0 7F 5F 3E 78 ; ....@?..{...._>x
012A14  .dc.b 3E 0E 3C 3F 00 01 F0 3D 00 01 8E 1F 00 00 0F AF ; >.<?...=........
012A24  .dc.b 00 00 0F F3 00 00 00 43 00 00 00 00 00 00 00 00 ; .......C........
012A34  .dc.b 00 00 00 00 1C 00 00 00 22 00 00 00 01 F1 18 00 ; ........".......
012A44  .dc.b 3F FC 66 00 7F FF 81 80 7F FF C5 C0 7F FF FB E2 ; ?.f.............
012A54  .dc.b 7F FF FF F4 7F FF FF FC FF BF BF FF E8 3F FF 7F ; .............?..
012A64  .dc.b C5 7D FF FF 02 90 7F FF 00 60 FF FF 00 02 57 F3 ; .}.......`....W.
012A74  .dc.b 00 00 21 CB 00 00 1E 82 00 00 00 01 1C 00 00 00 ; ..!.............
012A84  .dc.b 22 00 00 00 01 F1 18 00 3F FC 66 00 7F FF 81 80 ; ".......?.f.....
012A94  .dc.b 7F FF C5 C0 7F FF FB E2 7F FF FF F4 7F FF FF FC ; ................
012AA4  .dc.b FF BF BF FF E8 3F FF 7F C5 7D FF FF 02 90 7F FF ; .....?...}......
012AB4  .dc.b 00 60 FF FF 00 02 57 F3 00 00 21 CB 00 00 1E 82 ; .`....W...!.....
012AC4  .dc.b 00 00 00 01 00 00 00 00 00 00 00 00 00 00 00 00 ; ................
012AD4  .dc.b 43 80 00 00 7F 00 80 00 1D 92 60 00 4F 97 A0 00 ; C.........`.O...
012AE4  .dc.b FE DC C9 70 A3 6A 5D 30 26 09 88 F3 0C 66 7D 1C ; ...p.j]0&....f}.
012AF4  .dc.b 03 B3 B2 AC 00 80 15 86 00 00 01 9C 00 00 00 16 ; ................
012B04  .dc.b 00 00 00 D0 00 00 00 00 00 00 00 00 00 00 00 00 ; ................
012B14  .dc.b 00 00 00 00 00 00 00 00 30 00 00 00 70 00 00 00 ; ........0...p...
012B24  .dc.b 0E 0D 80 00 3F 6F E0 00 F7 63 F0 00 7F 95 BE F8 ; ....?o...c......
012B34  .dc.b 19 FE 7F 0C 03 FF 6E 0F 00 44 7F 12 00 00 23 FE ; ......n..D....#.
012B44  .dc.b 00 00 01 FE 00 00 01 E8 00 00 00 00 00 00 00 00 ; ................
012B54  .dc.b 00 00 00 00 00 00 00 00 00 C0 00 00 02 00 00 00 ; ................
012B64  .dc.b 77 B0 E0 00 7F CD C0 00 3F BF F4 00 FF FF F0 60 ; w.......?......`
012B74  .dc.b FF FF FF F8 FF FF FF FB FF FF FF FF 1F FF FF FF ; ................
012B84  .dc.b 0F FF FF FE 02 E4 37 FE 00 19 85 FE 00 06 11 FE ; ......7.........
012B94  .dc.b 00 00 01 F8 00 00 00 00 00 00 00 00 00 00 00 00 ; ................
012BA4  .dc.b 00 C0 00 00 02 00 00 00 77 B0 E0 00 7F CD C0 00 ; ........w.......
012BB4  .dc.b 3F BF F4 00 FF FF F0 60 FF FF FF F8 FF FF FF FB ; ?......`........
012BC4  .dc.b FF FF FF FF 1F FF FF FF 0F FF FF FE 02 E4 37 FE ; ..............7.
012BD4  .dc.b 00 19 85 FE 00 06 11 FE 00 00 01 F8 00 00 00 00 ; ................
012BE4  .dc.b 00 00 00 00 00 00 00 00 00 00 00 00 10 00 00 00 ; ................
012BF4  .dc.b 08 B0 00 00 3E A8 00 00 72 44 00 00 65 9E 80 00 ; ....>...rD..e...
012C04  .dc.b 25 D0 80 00 12 BF 20 00 52 7C F5 C0 00 2A 8E A0 ; %..... .R|...*..
012C14  .dc.b 00 7F 35 60 00 24 FE 48 00 00 DC A4 00 00 5E 5E ; ..5`.$.H......^^
012C24  .dc.b 00 00 2F 5F 00 00 07 92 00 00 0E AC 00 00 00 04 ; ../_............
012C34  .dc.b 00 00 00 04 00 00 00 00 00 00 00 00 00 00 00 00 ; ................
012C44  .dc.b 00 00 00 00 00 00 00 00 16 00 00 00 3F D0 00 00 ; ............?...
012C54  .dc.b 4F F8 00 00 70 70 00 00 7F BF 80 00 7F 5B C0 00 ; O...pp.......[..
012C64  .dc.b 00 9F EF 00 00 1C 3F C0 00 07 7E C0 00 03 E0 F0 ; ......?...~.....
012C74  .dc.b 00 00 38 7A 00 00 38 3F 00 00 1E B3 00 00 0F FC ; ..8z..8?........
012C84  .dc.b 00 00 01 4E 00 00 00 0C 00 00 00 00 00 00 00 00 ; ...N............
012C94  .dc.b 00 00 00 00 1E 00 00 00 01 00 00 00 12 C0 00 00 ; ................
012CA4  .dc.b 3F F8 00 00 3F FE 80 00 7F FC BC 00 7F FF 83 00 ; ?...?...........
012CB4  .dc.b 7F FF C5 80 FF FF E1 80 FB FF FF E0 C4 7F FF E0 ; ................
012CC4  .dc.b 03 FF 7F EC 05 3F FF F9 00 E0 FF FE 00 00 FE FF ; .....?..........
012CD4  .dc.b 00 01 FF FF 00 01 1F FE 00 00 8F FE 00 00 77 4C ; ..............wL
012CE4  .dc.b 00 00 02 2C 00 00 00 08 00 00 00 08 1E 00 00 00 ; ...,............
012CF4  .dc.b 01 00 00 00 12 C0 00 00 3F F8 00 00 3F FE 80 00 ; ........?...?...
012D04  .dc.b 7F FC BC 00 7F FF 83 00 7F FF C5 80 FF FF E1 80 ; ................
012D14  .dc.b FB FF FF E0 C4 7F FF E0 03 FF 7F EC 05 3F FF F9 ; .............?..
012D24  .dc.b 00 E0 FF FE 00 00 FE FF 00 01 FF FF 00 01 1F FE ; ................
012D34  .dc.b 00 00 8F FE 00 00 77 4C 00 00 02 2C 00 00 00 08 ; ......wL...,....
012D44  .dc.b 00 00 00 08 00 00 00 00 00 00 00 00 14 00 00 00 ; ................
012D54  .dc.b 36 80 00 00 0F C0 00 00 FA 80 00 00 77 C9 40 00 ; 6...........w.@.
012D64  .dc.b DB 35 A0 00 21 EC B0 00 0E 15 C8 00 00 69 39 60 ; .5..!........i9`
012D74  .dc.b 03 A6 AD 30 00 A3 79 F0 00 00 35 2F 00 00 2E 9D ; ...0..y...5/....
012D84  .dc.b 00 00 0B 0C 00 00 03 1C 00 00 00 2A 00 00 01 EC ; ...........*....
012D94  .dc.b 00 00 00 08 00 00 00 04 00 00 00 00 00 00 00 00 ; ................
012DA4  .dc.b 00 00 00 00 08 00 00 00 38 00 00 00 6E 00 00 00 ; ........8...n...
012DB4  .dc.b 07 00 00 00 FB B4 80 00 3F EF C0 00 1F 93 E0 00 ; ........?.......
012DC4  .dc.b 01 E8 F0 00 03 FE D8 00 00 5F 7E C0 00 04 6E 38 ; ........._~...n8
012DD4  .dc.b 00 00 FE 18 00 00 07 06 00 00 07 F2 00 00 01 FE ; ................
012DE4  .dc.b 00 00 01 FE 00 00 00 04 00 00 00 04 00 00 00 00 ; ................
012DF4  .dc.b 00 00 00 00 00 00 00 00 00 40 00 00 1C B0 00 00 ; .........@......
012E04  .dc.b 3F 80 00 00 7F EC 00 00 FF D4 B0 00 FF FF F0 00 ; ?...............
012E14  .dc.b FF FF E8 00 7F FF FA 00 1F FF FC 20 07 FF FF E0 ; ........... ....
012E24  .dc.b 07 FF FF F8 02 FF FF FB 00 20 FF FF 00 18 6F FF ; ......... ....o.
012E34  .dc.b 00 07 8F FE 00 00 2B FE 00 00 03 FE 00 00 01 FC ; ......+.........
012E44  .dc.b 00 00 00 4C 00 00 00 04 00 00 00 00 00 00 00 00 ; ...L............
012E54  .dc.b 00 40 00 00 1C B0 00 00 3F 80 00 00 7F EC 00 00 ; .@......?.......
012E64  .dc.b FF D4 B0 00 FF FF F0 00 FF FF E8 00 7F FF FA 00 ; ................
012E74  .dc.b 1F FF FC 20 07 FF FF E0 07 FF FF F8 02 FF FF FB ; ... ............
012E84  .dc.b 00 20 FF FF 00 18 6F FF 00 07 8F FE 00 00 2B FE ; . ....o.......+.
012E94  .dc.b 00 00 03 FE 00 00 01 FC 00 00 00 4C 00 00 00 04 ; ...........L....
012EA4  .dc.b 00 00 00 00 00 00 00 00 00 00 00 00 08 00 00 00 ; ................
012EB4  .dc.b 06 00 00 00 1E 50 00 00 33 5C 00 00 3A 30 00 00 ; .....P..3\..:0..
012EC4  .dc.b 76 82 00 00 4F FC 00 00 52 B0 80 00 00 7F 80 00 ; v...O...R.......
012ED4  .dc.b 00 2D A0 00 00 FB 74 00 00 7E 35 80 00 01 38 80 ; .-....t..~5...8.
012EE4  .dc.b 00 03 BE C0 00 00 BC 40 00 00 A9 60 00 00 1F 08 ; .......@...`....
012EF4  .dc.b 00 00 1E 3C 00 00 3A 3C 00 00 0A E8 00 00 00 70 ; ...<..:<.......p
012F04  .dc.b 00 00 00 10 00 00 00 30 00 00 00 00 00 00 00 00 ; .......0........
012F14  .dc.b 00 00 00 00 08 00 00 00 1F 00 00 00 2F E0 00 00 ; ............/...
012F24  .dc.b 70 E8 00 00 3D 7C 00 00 3F 9A 00 00 05 5F 00 00 ; p...=|..?...._..
012F34  .dc.b 00 9B C0 00 00 1F C0 00 00 0C 68 00 00 06 7F 00 ; ..........h.....
012F44  .dc.b 00 07 FF C0 00 00 C1 80 00 00 61 E0 00 00 70 C0 ; ..........a...p.
012F54  .dc.b 00 00 78 F4 00 00 1D EE 00 00 0F EC 00 00 01 74 ; ..x............t
012F64  .dc.b 00 00 00 18 00 00 00 10 00 00 00 00 07 00 00 00 ; ................
012F74  .dc.b 01 80 00 00 08 40 00 00 1F E0 00 00 1F F4 00 00 ; .....@..........
012F84  .dc.b 3F FC 00 00 7F FE 00 00 7F FE 00 00 FF FF 7C 00 ; ?.............|.
012F94  .dc.b FF FF C2 00 01 FF C1 00 00 7F E5 80 06 FF FF 80 ; ................
012FA4  .dc.b 03 7F 7F C0 01 D7 FF C0 00 03 FF C0 00 11 FF F0 ; ................
012FB4  .dc.b 00 03 FD E1 00 03 FF FC 00 02 3F FE 00 01 3F FC ; ..........?...?.
012FC4  .dc.b 00 00 DF FC 00 00 0D 78 00 00 00 B0 00 00 00 70 ; .......x.......p
012FD4  .dc.b 07 00 00 00 01 80 00 00 08 40 00 00 1F E0 00 00 ; .........@......
012FE4  .dc.b 1F F4 00 00 3F FC 00 00 7F FE 00 00 7F FE 00 00 ; ....?...........
012FF4  .dc.b FF FF 7C 00 FF FF C2 00 01 FF C1 00 00 7F E5 80 ; ..|.............
013004  .dc.b 06 FF FF 80 03 7F 7F C0 01 D7 FF C0 00 03 FF C0 ; ................
013014  .dc.b 00 11 FF F0 00 03 FD E1 00 03 FF FC 00 02 3F FE ; ..............?.
013024  .dc.b 00 01 3F FC 00 00 DF FC 00 00 0D 78 00 00 00 B0 ; ..?........x....
013034  .dc.b 00 00 00 70 00 00 00 00 0A 00 00 00 08 00 00 00 ; ...p............
013044  .dc.b 17 E0 00 00 25 60 00 00 5B C0 00 00 1F CC 00 00 ; ....%`..[.......
013054  .dc.b 11 19 20 00 0F EB A0 00 00 14 F0 00 02 E9 E0 00 ; .. .............
013064  .dc.b 01 ED 58 00 00 A4 98 00 00 03 EA 60 00 01 7A 60 ; ..X........`..z`
013074  .dc.b 00 00 42 C0 00 00 1F 18 00 00 06 BA 00 00 0B 10 ; ..B.............
013084  .dc.b 00 00 00 FC 00 00 07 A0 00 00 00 30 00 00 00 10 ; ...........0....
013094  .dc.b 00 00 00 00 00 00 00 00 00 00 00 00 04 00 00 00 ; ................
0130A4  .dc.b 0E 00 00 00 0E 00 00 00 3B 80 00 00 3D 00 00 00 ; ........;...=...
0130B4  .dc.b 1D B0 00 00 0F F6 80 00 00 97 C0 00 03 E9 C0 00 ; ................
0130C4  .dc.b 01 7C F0 00 00 1E B0 00 00 0B 78 00 00 00 DD 80 ; .|........x.....
0130D4  .dc.b 00 00 FD C0 00 00 1C 30 00 00 0C 30 00 00 0F 5C ; .......0...0...\
0130E4  .dc.b 00 00 07 EE 00 00 07 FC 00 00 00 5C 00 00 00 18 ; ...........\....
0130F4  .dc.b 00 00 00 00 00 00 00 00 00 00 00 00 00 00 00 00 ; ................
013104  .dc.b 0E 00 00 00 0E D8 00 00 1F E0 00 00 3F F4 00 00 ; ............?...
013114  .dc.b 7F E0 00 00 7F FE 20 00 3F FF F8 00 0F FF E0 00 ; ...... .?.......
013124  .dc.b 07 FF F8 00 07 FF F2 00 03 FF FC 00 00 FF FE E0 ; ................
013134  .dc.b 00 0B FF E0 00 31 FF F0 00 1A DF F4 00 00 1F FC ; .....1..........
013144  .dc.b 00 00 6F FE 00 00 0F FE 00 00 0F FC 00 00 07 FC ; ..o.............
013154  .dc.b 00 00 01 78 00 00 00 10 00 00 00 00 00 00 00 00 ; ...x............
013164  .dc.b 00 00 00 00 0E 00 00 00 0E D8 00 00 1F E0 00 00 ; ................
013174  .dc.b 3F F4 00 00 7F E0 00 00 7F FE 20 00 3F FF F8 00 ; ?......... .?...
013184  .dc.b 0F FF E0 00 07 FF F8 00 07 FF F2 00 03 FF FC 00 ; ................
013194  .dc.b 00 FF FE E0 00 0B FF E0 00 31 FF F0 00 1A DF F4 ; .........1......
0131A4  .dc.b 00 00 1F FC 00 00 6F FE 00 00 0F FE 00 00 0F FC ; ......o.........
0131B4  .dc.b 00 00 07 FC 00 00 01 78 00 00 00 10 00 00 00 00 ; .......x........
0131C4  .dc.b 00 00 00 00 00 00 00 00 00 00 00 00 02 00 00 00 ; ................
0131D4  .dc.b 0B 00 00 00 1B 00 00 00 1D B8 00 00 53 2C 00 00 ; ............S,..
0131E4  .dc.b 4E 84 00 00 13 D0 00 00 03 9E 00 00 00 70 00 00 ; N............p..
0131F4  .dc.b 00 7B 80 00 01 DB 00 00 00 F5 C0 00 00 1C E0 00 ; .{..............
013204  .dc.b 00 04 2A 00 00 06 FF 00 00 02 CA 00 00 02 FE 00 ; ..*.............
013214  .dc.b 00 03 81 00 00 00 67 00 00 00 F5 00 00 00 D1 60 ; ......g........`
013224  .dc.b 00 00 45 E0 00 00 1E 70 00 00 03 40 00 00 00 40 ; ..E....p...@...@
013234  .dc.b 00 00 01 80 00 00 01 00 00 00 00 00 00 00 00 00 ; ................
013244  .dc.b 00 00 00 00 00 00 00 00 0E 00 00 00 17 80 00 00 ; ................
013254  .dc.b 33 C0 00 00 38 F0 00 00 3D 78 00 00 07 BC 00 00 ; 3...8...=x......
013264  .dc.b 00 F8 00 00 00 9E 00 00 00 37 00 00 00 3F 80 00 ; .........7...?..
013274  .dc.b 00 1B 80 00 00 08 C0 00 00 0D F0 00 00 03 FC 00 ; ................
013284  .dc.b 00 01 36 00 00 01 83 00 00 00 C7 00 00 01 C3 80 ; ..6.............
013294  .dc.b 00 00 E3 80 00 00 7F C0 00 00 3B 70 00 00 03 F0 ; ..........;p....
0132A4  .dc.b 00 00 01 A0 00 00 01 80 00 00 00 80 00 00 00 00 ; ................
0132B4  .dc.b 00 00 00 00 01 80 00 00 00 40 00 00 06 20 00 00 ; .........@... ..
0132C4  .dc.b 0F 80 00 00 1F F0 00 00 3F F8 00 00 7F FE 00 00 ; ........?.......
0132D4  .dc.b FF FE 00 00 BF FE 00 00 0B FE 00 00 09 FF E8 00 ; ................
0132E4  .dc.b 0D FF 8C 00 01 FF 86 00 06 FF CA 00 03 FF EA 00 ; ................
0132F4  .dc.b 00 0D FF 00 00 07 FF 00 00 67 FF 80 00 0F FF 00 ; .........g......
013304  .dc.b 00 1F FF 00 00 03 EF E0 00 09 FF 80 00 04 FF FC ; ................
013314  .dc.b 00 02 FF F0 00 00 FF F0 00 00 0B E0 00 00 09 C0 ; ................
013324  .dc.b 00 00 03 80 00 00 01 00 00 00 06 00 01 80 00 00 ; ................
013334  .dc.b 00 40 00 00 06 20 00 00 0F 80 00 00 1F F0 00 00 ; .@... ..........
013344  .dc.b 3F F8 00 00 7F FE 00 00 FF FE 00 00 BF FE 00 00 ; ?...............
013354  .dc.b 0B FE 00 00 09 FF E8 00 0D FF 8C 00 01 FF 86 00 ; ................
013364  .dc.b 06 FF CA 00 03 FF EA 00 00 0D FF 00 00 07 FF 00 ; ................
013374  .dc.b 00 67 FF 80 00 0F FF 00 00 1F FF 00 00 03 EF E0 ; .g..............
013384  .dc.b 00 09 FF 80 00 04 FF FC 00 02 FF F0 00 00 FF F0 ; ................
013394  .dc.b 00 00 0B E0 00 00 09 C0 00 00 03 80 00 00 01 00 ; ................
0133A4  .dc.b 00 00 06 00 00 00 00 00 00 00 00 00 01 00 00 00 ; ................
0133B4  .dc.b 06 00 00 00 1F A0 00 00 39 F0 00 00 1F 50 00 00 ; ........9....P..
0133C4  .dc.b 31 E0 00 00 09 40 00 00 0F E8 00 00 00 25 00 00 ; 1....@.......%..
0133D4  .dc.b 05 8D 00 00 02 58 E0 00 01 DB E0 00 00 0E 00 00 ; .....X..........
0133E4  .dc.b 00 08 F0 00 00 07 B0 00 00 01 ED 00 00 01 A9 80 ; ................
0133F4  .dc.b 00 00 2F 80 00 00 3B 00 00 00 38 00 00 00 51 E0 ; ../...;...8...Q.
013404  .dc.b 00 00 00 D8 00 00 2F B0 00 00 0F 80 00 00 01 C0 ; ....../.........
013414  .dc.b 00 00 01 00 00 00 00 00 00 00 00 00 00 00 00 00 ; ................
013424  .dc.b 00 00 00 00 06 00 00 00 0F 00 00 00 13 00 00 00 ; ................
013434  .dc.b 1F 80 00 00 1D 80 00 00 0F 80 00 00 07 B0 00 00 ; ................
013444  .dc.b 01 B4 00 00 07 DE 80 00 02 F7 C0 00 01 F3 80 00 ; ................
013454  .dc.b 00 3D C0 00 00 1D E0 00 00 05 60 00 00 03 F0 00 ; .=........`.....
013464  .dc.b 00 03 B0 00 00 00 F6 00 00 00 71 00 00 00 70 80 ; ..........q...p.
013474  .dc.b 00 00 39 C0 00 00 3E C0 00 00 3F 60 00 00 17 C0 ; ..9...>...?`....
013484  .dc.b 00 00 01 E0 00 00 00 C0 00 00 00 80 00 00 00 00 ; ................
013494  .dc.b 00 00 00 00 00 00 00 00 00 00 00 00 07 00 00 00 ; ................
0134A4  .dc.b 0F 40 00 00 1F E8 00 00 3F F4 00 00 7F FC 00 00 ; .@......?.......
0134B4  .dc.b 3F E2 00 00 1F FA 00 00 0F FF 00 00 0F FF E0 00 ; ?...............
0134C4  .dc.b 07 FF F0 00 07 FF E0 00 01 FF F0 00 00 FF E4 00 ; ................
0134D4  .dc.b 00 AF F0 00 00 47 F8 00 00 23 FF 80 00 0B FF 80 ; .....G...#......
0134E4  .dc.b 00 00 7F C0 00 00 FF C0 00 00 3F F0 00 00 7F F0 ; ..........?.....
0134F4  .dc.b 00 00 7F F8 00 00 3F F0 00 00 1F E0 00 00 07 C0 ; ......?.........
013504  .dc.b 00 00 03 80 00 00 01 00 00 00 00 00 00 00 00 00 ; ................
013514  .dc.b 00 00 00 00 07 00 00 00 0F 40 00 00 1F E8 00 00 ; .........@......
013524  .dc.b 3F F4 00 00 7F FC 00 00 3F E2 00 00 1F FA 00 00 ; ?.......?.......
013534  .dc.b 0F FF 00 00 0F FF E0 00 07 FF F0 00 07 FF E0 00 ; ................
013544  .dc.b 01 FF F0 00 00 FF E4 00 00 AF F0 00 00 47 F8 00 ; .............G..
013554  .dc.b 00 23 FF 80 00 0B FF 80 00 00 7F C0 00 00 FF C0 ; .#..............
013564  .dc.b 00 00 3F F0 00 00 7F F0 00 00 7F F8 00 00 3F F0 ; ..?...........?.
013574  .dc.b 00 00 1F E0 00 00 07 C0 00 00 03 80 00 00 01 00 ; ................
013584  .dc.b 00 00 00 00 00 00 00 00 01 00 00 00 0D 80 00 00 ; ................
013594  .dc.b 1D 00 00 00 7D A0 00 00 59 B8 00 00 0E 2C 00 00 ; ....}...Y....,..
0135A4  .dc.b 13 8C 00 00 02 C0 00 00 01 18 00 00 00 F6 00 00 ; ................
0135B4  .dc.b 00 70 00 00 01 BF 00 00 01 E6 00 00 00 7E 00 00 ; .p...........~..
0135C4  .dc.b 00 11 80 00 00 09 00 00 00 1F B0 00 00 0B 6C 00 ; ..............l.
0135D4  .dc.b 00 1B 2C 00 00 0E E0 00 00 03 0C 00 00 03 B8 00 ; ..,.............
0135E4  .dc.b 00 07 EE 00 00 02 88 00 00 02 0B 00 00 00 FE 00 ; ................
0135F4  .dc.b 00 00 13 00 00 00 0C 00 00 00 08 00 00 00 10 00 ; ................
013604  .dc.b 00 00 00 00 00 00 00 00 00 00 00 00 0E 00 00 00 ; ................
013614  .dc.b 13 80 00 00 1B C0 00 00 3C E0 00 00 1D 70 00 00 ; ........<....p..
013624  .dc.b 07 70 00 00 05 BC 00 00 00 F4 00 00 00 38 00 00 ; .p...........8..
013634  .dc.b 00 3E 00 00 00 76 00 00 00 3F 00 00 00 13 80 00 ; .>...v...?......
013644  .dc.b 00 31 00 00 00 1B C0 00 00 07 E0 00 00 04 F0 00 ; .1..............
013654  .dc.b 00 06 D8 00 00 07 1C 00 00 06 18 00 00 07 1C 00 ; ................
013664  .dc.b 00 03 98 00 00 01 FC 00 00 01 FE 00 00 00 1B 80 ; ................
013674  .dc.b 00 00 1F 00 00 00 1A 00 00 00 18 00 00 00 00 00 ; ................
013684  .dc.b 00 00 00 00 00 A0 00 00 03 20 00 00 0F 90 00 00 ; ......... ......
013694  .dc.b 1F C0 00 00 7F F0 00 00 FF F8 00 00 FF FE 00 00 ; ................
0136A4  .dc.b 1F FE 00 00 07 FE 00 00 03 FE 00 00 10 FE 80 00 ; ................
0136B4  .dc.b 03 FF 80 00 0D FF 20 00 05 FF 98 00 01 FF 88 00 ; ...... .........
0136C4  .dc.b 00 3F 94 00 00 1B C0 00 00 9F FC 00 00 3F FC 00 ; .?...........?..
0136D4  .dc.b 00 7F FC 00 00 1F FC 00 00 47 BC 00 00 2F BC 00 ; .........G.../..
0136E4  .dc.b 00 37 FE 80 00 17 FC 00 00 07 FF 80 00 00 FF 80 ; .7..............
0136F4  .dc.b 00 00 3F 00 00 00 9E 00 00 00 38 00 00 00 10 00 ; ..?.......8.....
013704  .dc.b 00 00 40 00 00 A0 00 00 03 20 00 00 0F 90 00 00 ; ..@...... ......
013714  .dc.b 1F C0 00 00 7F F0 00 00 FF F8 00 00 FF FE 00 00 ; ................
013724  .dc.b 1F FE 00 00 07 FE 00 00 03 FE 00 00 10 FE 80 00 ; ................
013734  .dc.b 03 FF 80 00 0D FF 20 00 05 FF 98 00 01 FF 88 00 ; ...... .........
013744  .dc.b 00 3F 94 00 00 1B C0 00 00 9F FC 00 00 3F FC 00 ; .?...........?..
013754  .dc.b 00 7F FC 00 00 1F FC 00 00 47 BC 00 00 2F BC 00 ; .........G.../..
013764  .dc.b 00 37 FE 80 00 17 FC 00 00 07 FF 80 00 00 FF 80 ; .7..............
013774  .dc.b 00 00 3F 00 00 00 9E 00 00 00 38 00 00 00 10 00 ; ..?.......8.....
013784  .dc.b 00 00 40 00 00 00 00 00 06 00 00 00 12 00 00 00 ; ..@.............
013794  .dc.b 3B 80 00 00 09 E0 00 00 3F 60 00 00 03 D0 00 00 ; ;.......?`......
0137A4  .dc.b 1D C0 00 00 0F 00 00 00 00 F8 00 00 09 40 00 00 ; .............@..
0137B4  .dc.b 05 5E 00 00 05 32 80 00 01 2A 80 00 00 2A 80 00 ; .^...2...*...*..
0137C4  .dc.b 00 28 00 00 00 33 80 00 00 0E 80 00 00 07 80 00 ; .(...3..........
0137D4  .dc.b 00 0D 60 00 00 05 48 00 00 05 6C 00 00 03 DC 00 ; ..`...H...l.....
0137E4  .dc.b 00 03 00 00 00 00 BA 00 00 02 4E 00 00 02 B9 00 ; ..........N.....
0137F4  .dc.b 00 00 AB 80 00 00 3C 00 00 00 38 00 00 00 10 00 ; ......<...8.....
013804  .dc.b 00 00 10 00 00 00 00 00 07 00 00 00 13 00 00 00 ; ................
013814  .dc.b 11 00 00 00 1F 00 00 00 1D 80 00 00 0F 80 00 00 ; ................
013824  .dc.b 03 00 00 00 03 E0 00 00 07 60 00 00 07 BC 00 00 ; .........`......
013834  .dc.b 03 AC 00 00 00 CF 00 00 00 F7 00 00 00 77 00 00 ; .............w..
013844  .dc.b 00 17 80 00 00 05 00 00 00 1F 80 00 00 0D C0 00 ; ................
013854  .dc.b 00 07 80 00 00 03 B0 00 00 03 98 00 00 03 88 00 ; ................
013864  .dc.b 00 01 8C 00 00 03 CC 00 00 01 F4 00 00 00 76 00 ; ..............v.
013874  .dc.b 00 00 5E 00 00 00 1F 00 00 00 0C 00 00 00 08 00 ; ..^.............
013884  .dc.b 00 00 00 00 00 00 00 00 07 00 00 00 1F 00 00 00 ; ................
013894  .dc.b 3F C0 00 00 7F E8 00 00 3F E4 00 00 1F F4 00 00 ; ?.......?.......
0138A4  .dc.b 1F C4 00 00 1F F4 00 00 1F FC 00 00 0F FE 00 00 ; ................
0138B4  .dc.b 07 FF C0 00 07 FF C0 00 03 FF A0 00 00 FF 80 00 ; ................
0138C4  .dc.b 02 3F C0 00 01 3F 90 00 01 DF C0 00 00 5F E0 00 ; .?...?......._..
0138D4  .dc.b 00 1F FC 00 00 07 FE 00 00 1F FC 00 00 03 FE 00 ; ................
0138E4  .dc.b 00 03 FD 00 00 07 FF 00 00 03 FF 80 00 03 FF 40 ; ...............@
0138F4  .dc.b 00 01 FF 80 00 00 7F 00 00 00 7C 00 00 00 38 00 ; ..........|...8.
013904  .dc.b 00 00 10 00 00 00 00 00 07 00 00 00 1F 00 00 00 ; ................
013914  .dc.b 3F C0 00 00 7F E8 00 00 3F E4 00 00 1F F4 00 00 ; ?.......?.......
013924  .dc.b 1F C4 00 00 1F F4 00 00 1F FC 00 00 0F FE 00 00 ; ................
013934  .dc.b 07 FF C0 00 07 FF C0 00 03 FF A0 00 00 FF 80 00 ; ................
013944  .dc.b 02 3F C0 00 01 3F 90 00 01 DF C0 00 00 5F E0 00 ; .?...?......._..
013954  .dc.b 00 1F FC 00 00 07 FE 00 00 1F FC 00 00 03 FE 00 ; ................
013964  .dc.b 00 03 FD 00 00 07 FF 00 00 03 FF 80 00 03 FF 40 ; ...............@
013974  .dc.b 00 01 FF 80 00 00 7F 00 00 00 7C 00 00 00 38 00 ; ..........|...8.
013984  .dc.b 00 00 10 00 00 00 00 00 02 80 00 00 0E 80 00 00 ; ................
013994  .dc.b 3D 80 00 00 68 80 00 00 0B B0 00 00 16 38 00 00 ; =...h........8..
0139A4  .dc.b 03 A8 00 00 05 C4 00 00 00 60 00 00 01 BC 00 00 ; .........`......
0139B4  .dc.b 04 EC 00 00 03 60 00 00 03 EE 00 00 00 C8 00 00 ; .....`..........
0139C4  .dc.b 00 7C 00 00 00 26 00 00 00 66 00 00 00 7E 00 00 ; .|...&...f...~..
0139D4  .dc.b 00 6F 80 00 00 5A E0 00 00 17 60 00 00 1B 40 00 ; .o...Z....`...@.
0139E4  .dc.b 00 3D 60 00 00 3C C0 00 00 2A 60 00 00 02 80 00 ; .=`..<...*`.....
0139F4  .dc.b 00 0C 90 00 00 01 60 00 00 03 60 00 00 01 C0 00 ; ......`...`.....
013A04  .dc.b 00 03 00 00 00 00 00 00 02 00 00 00 1F 00 00 00 ; ................
013A14  .dc.b 1B C0 00 00 1D C0 00 00 1C C0 00 00 0F 60 00 00 ; .............`..
013A24  .dc.b 07 70 00 00 03 38 00 00 01 B8 00 00 00 60 00 00 ; .p...8.......`..
013A34  .dc.b 00 70 00 00 00 D8 00 00 00 FC 00 00 00 7C 00 00 ; .p...........|..
013A44  .dc.b 00 CE 00 00 00 64 00 00 00 3C 00 00 00 3F 00 00 ; .....d...<...?..
013A54  .dc.b 00 17 00 00 00 37 C0 00 00 38 C0 00 00 30 E0 00 ; .....7...8...0..
013A64  .dc.b 00 30 C0 00 00 19 C0 00 00 1D C0 00 00 0D C0 00 ; .0..............
013A74  .dc.b 00 03 C0 00 00 01 B0 00 00 01 F0 00 00 03 20 00 ; .............. .
013A84  .dc.b 00 01 80 00 00 70 00 00 03 90 00 00 1F 90 00 00 ; .....p..........
013A94  .dc.b 7F E8 00 00 FF E0 00 00 3F F8 00 00 1F F8 00 00 ; ........?.......
013AA4  .dc.b 07 F8 00 00 17 FE 00 00 23 FC 00 00 0D FE 00 00 ; ........#.......
013AB4  .dc.b 17 FD 00 00 0B FC 00 00 0F FF 80 00 01 FE 80 00 ; ................
013AC4  .dc.b 00 FE 20 00 00 6E 20 00 00 7E 50 00 01 7F 00 00 ; .. ..n ..~P.....
013AD4  .dc.b 01 FF E0 00 00 FF F0 00 02 FF E0 00 01 3F F0 00 ; .............?..
013AE4  .dc.b 01 7D E0 00 00 BF C0 00 00 7F F0 00 00 7F C8 00 ; .}..............
013AF4  .dc.b 00 0F D0 00 00 0F FC 00 00 0B F4 00 00 03 E0 00 ; ................
013B04  .dc.b 00 07 80 00 00 70 00 00 03 90 00 00 1F 90 00 00 ; .....p..........
013B14  .dc.b 7F E8 00 00 FF E0 00 00 3F F8 00 00 1F F8 00 00 ; ........?.......
013B24  .dc.b 07 F8 00 00 17 FE 00 00 23 FC 00 00 0D FE 00 00 ; ........#.......
013B34  .dc.b 17 FD 00 00 0B FC 00 00 0F FF 80 00 01 FE 80 00 ; ................
013B44  .dc.b 00 FE 20 00 00 6E 20 00 00 7E 50 00 01 7F 00 00 ; .. ..n ..~P.....
013B54  .dc.b 01 FF E0 00 00 FF F0 00 02 FF E0 00 01 3F F0 00 ; .............?..
013B64  .dc.b 01 7D E0 00 00 BF C0 00 00 7F F0 00 00 7F C8 00 ; .}..............
013B74  .dc.b 00 0F D0 00 00 0F FC 00 00 0B F4 00 00 03 E0 00 ; ................
013B84  .dc.b 00 07 80 00 02 00 00 00 04 00 00 00 62 00 00 00 ; ............b...
013B94  .dc.b 17 00 00 00 73 40 00 00 46 C0 00 00 27 C0 00 00 ; ....s@..F...'...
013BA4  .dc.b 37 80 00 00 0C 00 00 00 22 00 00 00 35 40 00 00 ; 7......."...5@..
013BB4  .dc.b 15 80 00 00 08 F8 00 00 05 10 00 00 01 50 00 00 ; .............P..
013BC4  .dc.b 03 D4 00 00 01 4C 00 00 01 38 00 00 00 6C 00 00 ; .....L...8...l..
013BD4  .dc.b 00 68 00 00 00 90 00 00 00 16 00 00 00 6C 80 00 ; .h...........l..
013BE4  .dc.b 00 33 80 00 00 7B C0 00 00 05 00 00 00 42 00 00 ; .3...{.......B..
013BF4  .dc.b 00 53 C0 00 00 17 40 00 00 0A 80 00 00 0E 80 00 ; .S....@.........
013C04  .dc.b 00 00 00 00 00 00 00 00 06 00 00 00 23 00 00 00 ; ............#...
013C14  .dc.b 3A 00 00 00 3E 00 00 00 3B 00 00 00 1E 00 00 00 ; :...>...;.......
013C24  .dc.b 0E 00 00 00 17 80 00 00 1D 80 00 00 0E A0 00 00 ; ................
013C34  .dc.b 0E 60 00 00 07 30 00 00 03 B8 00 00 03 BC 00 00 ; .`...0..........
013C44  .dc.b 00 B8 00 00 00 B8 00 00 00 4C 00 00 00 F8 00 00 ; .........L......
013C54  .dc.b 00 D8 00 00 00 3C 00 00 00 38 00 00 00 33 00 00 ; .....<...8...3..
013C64  .dc.b 00 39 00 00 00 31 00 00 00 78 80 00 00 3D 80 00 ; .9...1...x...=..
013C74  .dc.b 00 3C 80 00 00 0E 80 00 00 07 C0 00 00 03 00 00 ; .<..............
013C84  .dc.b 00 06 00 00 02 00 00 00 06 00 00 00 7F 00 00 00 ; ................
013C94  .dc.b 7F 00 00 00 7F E0 00 00 7F D0 00 00 3F D0 00 00 ; ............?...
013CA4  .dc.b 3F E8 00 00 3F 90 00 00 3F C8 00 00 7F F0 00 00 ; ?...?...?.......
013CB4  .dc.b 1F F0 00 00 1F FC 00 00 0F FE 00 00 17 FF 00 00 ; ................
013CC4  .dc.b 17 FD 00 00 09 FE 00 00 09 FC 00 00 02 FD 00 00 ; ................
013CD4  .dc.b 03 FC 00 00 00 BE 00 00 01 3F 00 00 00 FF C0 00 ; .........?......
013CE4  .dc.b 00 3F C0 00 00 7F C0 00 00 FF E0 00 00 7F D0 00 ; .?..............
013CF4  .dc.b 00 7F E0 00 00 3F F0 00 00 1F C0 00 00 0F 80 00 ; .....?..........
013D04  .dc.b 00 0E 00 00 02 00 00 00 06 00 00 00 7F 00 00 00 ; ................
013D14  .dc.b 7F 00 00 00 7F E0 00 00 7F D0 00 00 3F D0 00 00 ; ............?...
013D24  .dc.b 3F E8 00 00 3F 90 00 00 3F C8 00 00 7F F0 00 00 ; ?...?...?.......
013D34  .dc.b 1F F0 00 00 1F FC 00 00 0F FE 00 00 17 FF 00 00 ; ................
013D44  .dc.b 17 FD 00 00 09 FE 00 00 09 FC 00 00 02 FD 00 00 ; ................
013D54  .dc.b 03 FC 00 00 00 BE 00 00 01 3F 00 00 00 FF C0 00 ; .........?......
013D64  .dc.b 00 3F C0 00 00 7F C0 00 00 FF E0 00 00 7F D0 00 ; .?..............
013D74  .dc.b 00 7F E0 00 00 3F F0 00 00 1F C0 00 00 0F 80 00 ; .....?..........
013D84  .dc.b 00 0E 00 00 00 80 00 00 0E 80 00 00 3E 80 00 00 ; ............>...
013D94  .dc.b 55 00 00 00 11 00 00 00 07 20 00 00 04 60 00 00 ; U........ ...`..
013DA4  .dc.b 0B 50 00 00 07 30 00 00 01 88 00 00 0B E0 00 00 ; .P...0..........
013DB4  .dc.b 0F B0 00 00 0D 90 00 00 07 C0 00 00 06 78 00 00 ; .............x..
013DC4  .dc.b 01 E0 00 00 01 20 00 00 03 30 00 00 03 50 00 00 ; ..... ...0...P..
013DD4  .dc.b 06 F0 00 00 02 DC 00 00 01 EA 00 00 01 36 00 00 ; .............6..
013DE4  .dc.b 07 96 00 00 07 94 00 00 02 EE 00 00 00 88 00 00 ; ................
013DF4  .dc.b 01 54 00 00 00 B0 00 00 00 6E 00 00 00 6C 00 00 ; .T.......n...l..
013E04  .dc.b 00 14 00 00 00 00 00 00 1E 00 00 00 1B 00 00 00 ; ................
013E14  .dc.b 3B 80 00 00 3B 80 00 00 0C C0 00 00 0E C0 00 00 ; ;...;...........
013E24  .dc.b 06 E0 00 00 02 C0 00 00 06 F0 00 00 00 D0 00 00 ; ................
013E34  .dc.b 01 C0 00 00 03 E0 00 00 03 60 00 00 03 F0 00 00 ; .........`......
013E44  .dc.b 03 30 00 00 03 30 00 00 01 60 00 00 01 E0 00 00 ; .0...0...`......
013E54  .dc.b 01 F8 00 00 01 B8 00 00 03 9C 00 00 03 8C 00 00 ; ................
013E64  .dc.b 03 0C 00 00 03 0E 00 00 01 9C 00 00 01 FC 00 00 ; ................
013E74  .dc.b 00 B8 00 00 00 78 00 00 00 74 00 00 00 3E 00 00 ; .....x...t...>..
013E84  .dc.b 00 6E 00 00 00 A0 00 00 1F 90 00 00 FF 90 00 00 ; .n..............
013E94  .dc.b FF D0 00 00 7F E8 00 00 1F F0 00 00 0F F0 00 00 ; ................
013EA4  .dc.b 2F F0 00 00 4F F0 00 00 37 F8 00 00 2F F8 00 00 ; /...O...7.../...
013EB4  .dc.b 2F F8 00 00 2F F0 00 00 1F F4 00 00 07 FE 00 00 ; /.../...........
013EC4  .dc.b 03 FA 00 00 13 F1 00 00 0B 71 00 00 0F F1 00 00 ; .........q......
013ED4  .dc.b 1F F8 80 00 17 FF 00 00 13 FF 00 00 17 FE 00 00 ; ................
013EE4  .dc.b 17 FE 00 00 17 BE 00 00 07 FE 00 00 03 FC 00 00 ; ................
013EF4  .dc.b 01 FF 00 00 01 F8 00 00 02 FF 00 00 00 7E 80 00 ; .............~..
013F04  .dc.b 01 FE 00 00 00 A0 00 00 1F 90 00 00 FF 90 00 00 ; ................
013F14  .dc.b FF D0 00 00 7F E8 00 00 1F F0 00 00 0F F0 00 00 ; ................
013F24  .dc.b 2F F0 00 00 4F F0 00 00 37 F8 00 00 2F F8 00 00 ; /...O...7.../...
013F34  .dc.b 2F F8 00 00 2F F0 00 00 1F F4 00 00 07 FE 00 00 ; /.../...........
013F44  .dc.b 03 FA 00 00 13 F1 00 00 0B 71 00 00 0F F1 00 00 ; .........q......
013F54  .dc.b 1F F8 80 00 17 FF 00 00 13 FF 00 00 17 FE 00 00 ; ................
013F64  .dc.b 17 FE 00 00 17 BE 00 00 07 FE 00 00 03 FC 00 00 ; ................
013F74  .dc.b 01 FF 00 00 01 F8 00 00 02 FF 00 00 00 7E 80 00 ; .............~..
013F84  .dc.b 01 FE 00 00 01 00 00 00 32 00 00 00 3A 00 00 00 ; ........2...:...
013F94  .dc.b 17 80 00 00 29 80 00 00 07 C0 00 00 36 C0 00 00 ; ....).......6...
013FA4  .dc.b 3F 40 00 00 19 80 00 00 22 00 00 00 3B 40 00 00 ; ?@......"...;@..
013FB4  .dc.b 2A 80 00 00 11 00 00 00 17 B0 00 00 02 20 00 00 ; *............ ..
013FC4  .dc.b 06 A8 00 00 05 50 00 00 05 78 00 00 01 60 00 00 ; .....P...x...`..
013FD4  .dc.b 01 B0 00 00 03 A0 00 00 00 E0 00 00 02 98 00 00 ; ................
013FE4  .dc.b 00 80 00 00 03 B4 00 00 01 DC 00 00 00 1C 00 00 ; ................
013FF4  .dc.b 04 50 00 00 07 98 00 00 01 5C 00 00 00 F4 00 00 ; .P.......\......
014004  .dc.b 00 A0 00 00 00 00 00 00 13 00 00 00 13 00 00 00 ; ................
014014  .dc.b 39 00 00 00 1F 00 00 00 1B 00 00 00 0F 00 00 00 ; 9...............
014024  .dc.b 0E 00 00 00 2E 00 00 00 1D 80 00 00 0D 80 00 00 ; ................
014034  .dc.b 1D 40 00 00 0E C0 00 00 0E 60 00 00 07 70 00 00 ; .@.......`...p..
014044  .dc.b 03 70 00 00 02 E0 00 00 00 E0 00 00 07 B0 00 00 ; .p..............
014054  .dc.b 03 E0 00 00 01 60 00 00 01 E0 00 00 01 E0 00 00 ; .....`..........
014064  .dc.b 01 F8 00 00 01 C8 00 00 03 88 00 00 03 88 00 00 ; ................
014074  .dc.b 03 8C 00 00 00 EC 00 00 00 E8 00 00 00 68 00 00 ; .............h..
014084  .dc.b 00 70 00 00 01 00 00 00 3B 00 00 00 7F 00 00 00 ; .p......;.......
014094  .dc.b 7F 80 00 00 3F C0 00 00 3F E0 00 00 3F D0 00 00 ; ....?...?...?...
0140A4  .dc.b 7F D8 00 00 7F A8 00 00 7F D0 00 00 3F D0 00 00 ; ............?...
0140B4  .dc.b 3F E0 00 00 3F E0 00 00 3F F0 00 00 2F F8 00 00 ; ?...?...?.../...
0140C4  .dc.b 2F FC 00 00 27 FC 00 00 27 FA 00 00 17 FC 00 00 ; /...'...'.......
0140D4  .dc.b 0F F0 00 00 07 F4 00 00 01 F0 00 00 0B F8 00 00 ; ................
0140E4  .dc.b 05 FC 00 00 03 FE 00 00 03 FE 00 00 07 FC 00 00 ; ................
0140F4  .dc.b 07 FE 00 00 07 FC 00 00 03 FE 00 00 01 FE 00 00 ; ................
014104  .dc.b 00 F0 00 00 01 00 00 00 3B 00 00 00 7F 00 00 00 ; ........;.......
014114  .dc.b 7F 80 00 00 3F C0 00 00 3F E0 00 00 3F D0 00 00 ; ....?...?...?...
014124  .dc.b 7F D8 00 00 7F A8 00 00 7F D0 00 00 3F D0 00 00 ; ............?...
014134  .dc.b 3F E0 00 00 3F E0 00 00 3F F0 00 00 2F F8 00 00 ; ?...?...?.../...
014144  .dc.b 2F FC 00 00 27 FC 00 00 27 FA 00 00 17 FC 00 00 ; /...'...'.......
014154  .dc.b 0F F0 00 00 07 F4 00 00 01 F0 00 00 0B F8 00 00 ; ................
014164  .dc.b 05 FC 00 00 03 FE 00 00 03 FE 00 00 07 FC 00 00 ; ................
014174  .dc.b 07 FE 00 00 07 FC 00 00 03 FE 00 00 01 FE 00 00 ; ................
014184  .dc.b 00 F0 00 00 17 40 00 00 2F 40 00 00 0A C0 00 00 ; .....@../@......
014194  .dc.b 18 80 00 00 07 80 00 00 04 20 00 00 0B 60 00 00 ; ......... ...`..
0141A4  .dc.b 07 50 00 00 01 30 00 00 16 90 00 00 1F C0 00 00 ; .P...0..........
0141B4  .dc.b 1B 60 00 00 0F 20 00 00 0C 80 00 00 06 E0 00 00 ; .`... ..........
0141C4  .dc.b 05 80 00 00 0C 80 00 00 0C C0 00 00 1B 40 00 00 ; .............@..
0141D4  .dc.b 17 80 00 00 0E E0 00 00 0B 40 00 00 3D B0 00 00 ; .........@..=...
0141E4  .dc.b 3C B0 00 00 2D 40 00 00 0A E0 00 00 14 80 00 00 ; <...-@..........
0141F4  .dc.b 09 40 00 00 07 00 00 00 0D C0 00 00 05 80 00 00 ; .@..............
014204  .dc.b 1A 80 00 00 0F 00 00 00 1D 80 00 00 1D 80 00 00 ; ................
014214  .dc.b 0D C0 00 00 0C C0 00 00 0E C0 00 00 06 C0 00 00 ; ................
014224  .dc.b 02 E0 00 00 06 C0 00 00 01 E0 00 00 03 A0 00 00 ; ................
014234  .dc.b 07 80 00 00 06 C0 00 00 07 C0 00 00 0D C0 00 00 ; ................
014244  .dc.b 0C C0 00 00 04 C0 00 00 07 80 00 00 07 80 00 00 ; ................
014254  .dc.b 0D C0 00 00 1D C0 00 00 1C E0 00 00 18 60 00 00 ; .............`..
014264  .dc.b 18 60 00 00 18 E0 00 00 1D C0 00 00 0B C0 00 00 ; .`..............
014274  .dc.b 07 80 00 00 07 80 00 00 06 80 00 00 0F C0 00 00 ; ................
014284  .dc.b 0D C0 00 00 7F D0 00 00 7F C8 00 00 3F C8 00 00 ; ............?...
014294  .dc.b 1F E8 00 00 1F E8 00 00 2F F0 00 00 4F F0 00 00 ; ......../...O...
0142A4  .dc.b 2F F0 00 00 57 F0 00 00 5F F8 00 00 5F F0 00 00 ; /...W..._..._...
0142B4  .dc.b 3F F0 00 00 1F E0 00 00 0F E8 00 00 4F F0 00 00 ; ?...........O...
0142C4  .dc.b 0F E8 00 00 2D C8 00 00 7F C4 00 00 BF C4 00 00 ; ....-...........
0142D4  .dc.b BF D4 00 00 9F E4 00 00 BF F8 00 00 BF F8 00 00 ; ................
0142E4  .dc.b 7D F0 00 00 7F F0 00 00 3F E0 00 00 1F C0 00 00 ; }.......?.......
0142F4  .dc.b 1F E0 00 00 2F 90 00 00 0F C0 00 00 3F E0 00 00 ; ..../.......?...
014304  .dc.b 5F D0 00 00 7F D0 00 00 7F C8 00 00 3F C8 00 00 ; _...........?...
014314  .dc.b 1F E8 00 00 1F E8 00 00 2F F0 00 00 4F F0 00 00 ; ......../...O...
014324  .dc.b 2F F0 00 00 57 F0 00 00 5F F8 00 00 5F F0 00 00 ; /...W..._..._...
014334  .dc.b 3F F0 00 00 1F E0 00 00 0F E8 00 00 4F F0 00 00 ; ?...........O...
014344  .dc.b 0F E8 00 00 2D C8 00 00 7F C4 00 00 BF C4 00 00 ; ....-...........
014354  .dc.b BF D4 00 00 9F E4 00 00 BF F8 00 00 BF F8 00 00 ; ................
014364  .dc.b 7D F0 00 00 7F F0 00 00 3F E0 00 00 1F C0 00 00 ; }.......?.......
014374  .dc.b 1F E0 00 00 2F 90 00 00 0F C0 00 00 3F E0 00 00 ; ..../.......?...
014384  .dc.b 5F D0 00 00 0C C0 00 00 06 80 00 00 1D 80 00 00 ; _...............
014394  .dc.b 04 C0 00 00 13 C0 00 00 1B 60 00 00 0F E0 00 00 ; .........`......
0143A4  .dc.b 25 A0 00 00 32 00 00 00 2B 00 00 00 1A C0 00 00 ; %...2...+.......
0143B4  .dc.b 11 00 00 00 07 80 00 00 04 60 00 00 0D 40 00 00 ; .........`...@..
0143C4  .dc.b 0A D0 00 00 0A A0 00 00 05 60 00 00 06 80 00 00 ; .........`......
0143D4  .dc.b 0E C0 00 00 03 80 00 00 0A 00 00 00 04 C0 00 00 ; ................
0143E4  .dc.b 1D 00 00 00 0E A0 00 00 20 E0 00 00 22 E0 00 00 ; ........ ..."...
0143F4  .dc.b 19 00 00 00 15 80 00 00 0F C0 00 00 0A 40 00 00 ; .............@..
014404  .dc.b 08 80 00 00 04 80 00 00 0C C0 00 00 0E C0 00 00 ; ................
014414  .dc.b 0F 80 00 00 0D 80 00 00 07 80 00 00 17 00 00 00 ; ................
014424  .dc.b 1E 00 00 00 0D 80 00 00 1D 80 00 00 0D 00 00 00 ; ................
014434  .dc.b 0E C0 00 00 0C C0 00 00 0E C0 00 00 06 E0 00 00 ; ................
014444  .dc.b 05 E0 00 00 01 C0 00 00 0E C0 00 00 0F C0 00 00 ; ................
014454  .dc.b 05 80 00 00 07 80 00 00 07 80 00 00 0F 00 00 00 ; ................
014464  .dc.b 0E C0 00 00 1C 40 00 00 1C 40 00 00 1C 40 00 00 ; .....@...@...@..
014474  .dc.b 0E C0 00 00 0E C0 00 00 06 80 00 00 07 80 00 00 ; ................
014484  .dc.b 07 80 00 00 1E C0 00 00 1F C0 00 00 1F C0 00 00 ; ................
014494  .dc.b 1F C0 00 00 1F E0 00 00 3F F0 00 00 3F E8 00 00 ; ........?...?...
0144A4  .dc.b 7F E8 00 00 3F A8 00 00 3F D0 00 00 3F D0 00 00 ; ....?...?...?...
0144B4  .dc.b 3F E0 00 00 5F E0 00 00 5F E0 00 00 4F F0 00 00 ; ?..._..._...O...
0144C4  .dc.b 4F F8 00 00 2F F8 00 00 2F E8 00 00 1F F0 00 00 ; O.../.../.......
0144D4  .dc.b 0F C0 00 00 27 D0 00 00 1F C0 00 00 0F C0 00 00 ; ....'...........
0144E4  .dc.b 1F E0 00 00 3F F0 00 00 3F F0 00 00 3F E0 00 00 ; ....?...?...?...
0144F4  .dc.b 3F E0 00 00 1F C0 00 00 1F E0 00 00 0F E0 00 00 ; ?...............
014504  .dc.b 0F E0 00 00 1E C0 00 00 1F C0 00 00 1F C0 00 00 ; ................
014514  .dc.b 1F C0 00 00 1F E0 00 00 3F F0 00 00 3F E8 00 00 ; ........?...?...
014524  .dc.b 7F E8 00 00 3F A8 00 00 3F D0 00 00 3F D0 00 00 ; ....?...?...?...
014534  .dc.b 3F E0 00 00 5F E0 00 00 5F E0 00 00 4F F0 00 00 ; ?..._..._...O...
014544  .dc.b 4F F8 00 00 2F F8 00 00 2F E8 00 00 1F F0 00 00 ; O.../.../.......
014554  .dc.b 0F C0 00 00 27 D0 00 00 1F C0 00 00 0F C0 00 00 ; ....'...........
014564  .dc.b 1F E0 00 00 3F F0 00 00 3F F0 00 00 3F E0 00 00 ; ....?...?...?...
014574  .dc.b 3F E0 00 00 1F C0 00 00 1F E0 00 00 0F E0 00 00 ; ?...............
014584  .dc.b 0F E0 00 00 00 00 00 00 00 00 00 00 00 00 00 00 ; ................
014594  .dc.b 00 20 00 00 00 00 00 00 01 90 C0 60 01 51 E0 40 ; . .........`.Q.@
0145A4  .dc.b 00 D3 51 C0 00 6A A2 80 00 14 75 00 06 00 2D 00 ; ..Q..j....u...-.
0145B4  .dc.b 03 88 96 00 03 33 83 60 01 C7 E3 C0 00 27 E5 40 ; .....3.`.....'.@
0145C4  .dc.b 00 B3 CE 20 00 01 E8 00 00 33 E4 00 00 23 C2 00 ; ... .....3...#..
0145D4  .dc.b 01 C0 09 40 02 43 52 C0 05 A6 B1 00 06 9C 20 C0 ; ...@.CR....... .
0145E4  .dc.b 00 68 50 40 00 30 28 20 00 00 10 00 00 00 00 00 ; .hP@.0( ........
0145F4  .dc.b 00 00 00 00 00 00 00 00 00 00 00 00 00 00 00 00 ; ................
014604  .dc.b 00 00 00 00 00 00 00 00 00 00 00 00 00 00 00 00 ; ................
014614  .dc.b 00 00 00 00 00 00 00 00 00 00 00 00 00 80 00 00 ; ................
014624  .dc.b 00 20 80 00 00 11 41 00 00 0B 82 00 00 0F D2 00 ; . ....A.........
014634  .dc.b 00 17 E8 00 00 CF FC 00 00 3F FC 00 00 1F FA 80 ; .........?......
014644  .dc.b 00 0F F0 00 00 1F F0 00 00 0F F8 00 00 5F FD 00 ; ............._..
014654  .dc.b 00 3F F6 00 01 BC A1 00 02 58 40 80 00 60 40 00 ; .?.......X@..`@.
014664  .dc.b 00 10 20 00 00 00 00 00 00 00 00 00 00 00 00 00 ; .. .............
014674  .dc.b 00 00 00 00 00 00 00 00 00 00 00 00 00 00 00 00 ; ................
014684  .dc.b 00 00 00 00 00 00 00 00 00 10 48 00 00 34 1C 00 ; ..........H..4..
014694  .dc.b 02 34 90 00 01 91 E9 28 23 D9 F0 F0 11 FB FB F0 ; .4.....(#.......
0146A4  .dc.b 01 FB FB E0 00 FF F7 C0 1E 3F FF AC 0F 9F FF D8 ; .........?......
0146B4  .dc.b 27 FF FF 70 07 FF FF F8 1F FF FF E0 35 FF FF F0 ; '..p........5...
0146C4  .dc.b 03 FF FF FE 00 3F FD 78 01 FF FF 00 07 FF FF C8 ; .....?.x........
0146D4  .dc.b 03 FF FF E0 0F FF FF F0 3F FF FB C0 1F FE F9 E0 ; ........?.......
0146E4  .dc.b 4F FE FC E0 04 FC 7C F0 03 79 7E 20 02 A8 1C 10 ; O.....|..y~ ....
0146F4  .dc.b 00 41 06 40 01 01 86 20 00 13 02 00 00 01 00 00 ; .A.@... ........
014704  .dc.b 00 00 00 00 00 00 00 00 00 10 48 00 00 34 1C 00 ; ..........H..4..
014714  .dc.b 02 34 90 00 01 91 E9 28 23 D9 F0 F0 11 FB FB F0 ; .4.....(#.......
014724  .dc.b 01 FB FB E0 00 FF F7 C0 1E 3F FF AC 0F 9F FF D8 ; .........?......
014734  .dc.b 27 FF FF 70 07 FF FF F8 1F FF FF E0 35 FF FF F0 ; '..p........5...
014744  .dc.b 03 FF FF FE 00 3F FD 78 01 FF FF 00 07 FF FF C8 ; .....?.x........
014754  .dc.b 03 FF FF E0 0F FF FF F0 3F FF FB C0 1F FE F9 E0 ; ........?.......
014764  .dc.b 4F FE FC E0 04 FC 7C F0 03 79 7E 20 02 A8 1C 10 ; O.....|..y~ ....
014774  .dc.b 00 41 06 40 01 01 86 20 00 13 02 00 00 01 00 00 ; .A.@... ........
014784  .dc.b 00 00 00 00 00 00 00 00 00 00 00 00 00 08 00 00 ; ................
014794  .dc.b 00 18 04 00 00 54 04 00 00 10 08 00 00 34 05 00 ; .....T.......4..
0147A4  .dc.b 00 4C 5E 00 00 D4 54 00 02 4B 10 30 00 E2 E8 40 ; .L^...T..K.0...@
0147B4  .dc.b 00 60 10 80 00 30 0A 80 00 12 E1 00 00 67 F2 00 ; .`...0.......g..
0147C4  .dc.b 03 E7 E1 00 04 CF F1 80 03 66 C2 80 00 20 C1 C0 ; .........f... ..
0147D4  .dc.b 00 06 16 C0 00 4A 8B 80 00 B3 10 00 02 41 E8 00 ; .....J.......A..
0147E4  .dc.b 02 C1 A4 00 00 03 18 00 00 07 8C 00 00 02 06 00 ; ................
0147F4  .dc.b 00 00 00 00 00 00 00 00 00 00 00 00 00 00 00 00 ; ................
014804  .dc.b 00 00 00 00 00 00 00 00 00 00 00 00 00 00 00 00 ; ................
014814  .dc.b 00 00 00 00 00 08 00 00 00 08 00 00 00 08 00 00 ; ................
014824  .dc.b 00 30 00 00 00 2A 08 00 00 B4 08 00 00 1D 10 20 ; .0...*......... 
014834  .dc.b 00 1F E8 40 00 0F F1 00 00 0F FE 00 00 1F FC 00 ; ...@............
014844  .dc.b 00 1F FE 00 01 3F FE 00 00 1F FD 00 00 1F FE 00 ; .....?..........
014854  .dc.b 00 39 E9 00 00 31 70 00 00 40 E0 00 01 80 10 00 ; .9...1p..@......
014864  .dc.b 00 00 18 00 00 00 04 00 00 00 00 00 00 00 00 00 ; ................
014874  .dc.b 00 00 00 00 00 00 00 00 00 00 00 00 00 00 00 00 ; ................
014884  .dc.b 00 00 00 00 00 00 00 00 01 0C 02 00 00 9C 0E 00 ; ................
014894  .dc.b 00 DE 1C 00 00 7C 0C 80 00 7E 1D 80 02 FE 5F 80 ; .....|...~...._.
0148A4  .dc.b 01 FE FF 06 13 FF FF 3C 0F FF FE F8 03 FF FF F0 ; .......<........
0148B4  .dc.b 04 FF FB F0 01 FF FF E0 01 3F FF F4 03 FF FF 60 ; .........?.....`
0148C4  .dc.b 07 FF FF 80 0F FF FF 80 1F FF FF E0 19 FF FF F0 ; ................
0148D4  .dc.b 21 7F FF E0 02 FF FF F0 03 FB FB A0 07 FF FC 50 ; !..............P
0148E4  .dc.b 0F E7 FE 00 0B CF FE 40 02 8F DF 20 00 0F CF 00 ; .......@... ....
0148F4  .dc.b 00 06 87 00 00 09 01 00 00 00 00 80 00 00 00 00 ; ................
014904  .dc.b 00 00 00 00 00 00 00 00 01 0C 02 00 00 9C 0E 00 ; ................
014914  .dc.b 00 DE 1C 00 00 7C 0C 80 00 7E 1D 80 02 FE 5F 80 ; .....|...~...._.
014924  .dc.b 01 FE FF 06 13 FF FF 3C 0F FF FE F8 03 FF FF F0 ; .......<........
014934  .dc.b 04 FF FB F0 01 FF FF E0 01 3F FF F4 03 FF FF 60 ; .........?.....`
014944  .dc.b 07 FF FF 80 0F FF FF 80 1F FF FF E0 19 FF FF F0 ; ................
014954  .dc.b 21 7F FF E0 02 FF FF F0 03 FB FB A0 07 FF FC 50 ; !..............P
014964  .dc.b 0F E7 FE 00 0B CF FE 40 02 8F DF 20 00 0F CF 00 ; .......@... ....
014974  .dc.b 00 06 87 00 00 09 01 00 00 00 00 80 00 00 00 00 ; ................
014984  .dc.b 00 00 00 00 00 00 00 00 00 00 00 00 00 00 00 00 ; ................
014994  .dc.b 00 00 00 00 00 00 00 00 00 00 04 00 00 00 08 00 ; ................
0149A4  .dc.b 00 40 36 00 00 60 DA 00 00 71 A6 00 00 29 9C 00 ; .@6..`...q...)..
0149B4  .dc.b 04 15 08 00 02 10 00 00 01 83 98 00 07 07 8C 00 ; ................
0149C4  .dc.b 02 4F 08 00 00 63 E1 80 00 67 CB C0 02 C5 D0 00 ; .O...c...g......
0149D4  .dc.b 00 60 98 00 00 B4 04 00 01 9B 32 00 02 36 AD 00 ; .`........2..6..
0149E4  .dc.b 00 09 24 00 00 31 C0 00 00 41 00 00 00 00 00 00 ; ..$..1...A......
0149F4  .dc.b 00 01 00 00 00 00 00 00 00 00 00 00 00 00 00 00 ; ................
014A04  .dc.b 00 00 00 00 00 00 00 00 00 00 00 00 00 00 00 00 ; ................
014A14  .dc.b 00 00 00 00 00 00 00 00 00 00 00 00 00 00 00 00 ; ................
014A24  .dc.b 00 00 40 00 00 00 24 00 00 00 58 00 00 10 60 00 ; ..@...$...X...`.
014A34  .dc.b 00 0A F0 00 00 0F F0 00 02 1F E0 00 00 FF F0 00 ; ................
014A44  .dc.b 00 BF F0 00 00 1F FE 00 00 1F F0 00 00 3F E0 00 ; .............?..
014A54  .dc.b 00 9F E0 00 00 0B F8 00 00 04 CC 00 00 09 40 00 ; ..............@.
014A64  .dc.b 00 10 C0 00 00 00 00 00 00 00 00 00 00 00 00 00 ; ................
014A74  .dc.b 00 00 00 00 00 00 00 00 00 00 00 00 00 00 00 00 ; ................
014A84  .dc.b 00 00 00 00 00 00 00 00 00 00 00 00 00 00 00 00 ; ................
014A94  .dc.b 00 04 20 00 00 04 6C 00 01 00 7C 00 00 C8 EE C0 ; .. ...l...|.....
014AA4  .dc.b 11 F1 FF 80 00 F3 FF 00 01 FB FE 08 14 FF FF 30 ; ...............0
014AB4  .dc.b 1E 3F FE 00 07 BF FC 00 0F FF FD 20 07 FF FE 80 ; .?......... ....
014AC4  .dc.b 07 FF FF C0 00 FF FF C0 07 FF FF E0 0F FF FB 40 ; ...............@
014AD4  .dc.b 1C FF FE 00 01 FF FE 10 03 BF FF 80 07 FF FF C0 ; ................
014AE4  .dc.b 07 3F FD E0 00 7F EC 00 00 7B EB 00 08 63 A2 00 ; .?.......{...c..
014AF4  .dc.b 10 C1 80 00 00 81 08 00 00 01 00 00 00 00 00 00 ; ................
014B04  .dc.b 00 00 00 00 00 00 00 00 00 00 00 00 00 00 00 00 ; ................
014B14  .dc.b 00 04 20 00 00 04 6C 00 01 00 7C 00 00 C8 EE C0 ; .. ...l...|.....
014B24  .dc.b 11 F1 FF 80 00 F3 FF 00 01 FB FE 08 14 FF FF 30 ; ...............0
014B34  .dc.b 1E 3F FE 00 07 BF FC 00 0F FF FD 20 07 FF FE 80 ; .?......... ....
014B44  .dc.b 07 FF FF C0 00 FF FF C0 07 FF FF E0 0F FF FB 40 ; ...............@
014B54  .dc.b 1C FF FE 00 01 FF FE 10 03 BF FF 80 07 FF FF C0 ; ................
014B64  .dc.b 07 3F FD E0 00 7F EC 00 00 7B EB 00 08 63 A2 00 ; .?.......{...c..
014B74  .dc.b 10 C1 80 00 00 81 08 00 00 01 00 00 00 00 00 00 ; ................
014B84  .dc.b 00 00 00 00 08 08 38 38 7D 7C 7B 7C FC 7E 23 3C ; ......88}|{|.~#<
014B94  .dc.b 57 C8 6F B8 03 70 34 A4 7B 5E 7D BF 7D 3F 3A 7E ; W.o..p4.{^}.}?:~
014BA4  .dc.b 0C 1C 00 00 30 30 7C 7C FE FE FC FE 7B FC 7F F8 ; ....00||....{...
014BB4  .dc.b 2F B0 1F C0 3F 80 7B 18 FC 3C FE 7E FE 7E 7C 3F ; /...?.{..<.~.~|?
014BC4  .dc.b 30 3E 00 1C 3C 38 7E 7C FF FE FF FE FF FE FF FE ; 0>..<8~|........
014BD4  .dc.b 7F FC 7F FC 7F FC 7F FE FF FF FF FF FF FF FF FF ; ................
014BE4  .dc.b 7E 7E 3C 3C 3C 38 7E 7C FF FE FF FE FF FE FF FE ; ~~<<<8~|........
014BF4  .dc.b 7F FC 7F FC 7F FC 7F FE FF FF FF FF FF FF FF FF ; ................
014C04  .dc.b 7E 7E 3C 3C 18 10 2C 48 52 94 BA B8 D5 52 68 EC ; ~~<<..,HR....Rh.
014C14  .dc.b 37 38 13 40 38 B0 47 2C 52 46 3A BB D2 1A 64 42 ; 78.@8.G,RF:...dB
014C24  .dc.b 38 2C 00 10 00 00 10 30 3C 78 7C 7C 3A 3C 17 10 ; 8,.....0<x||:<..
014C34  .dc.b 0F 80 0F 80 07 00 38 10 3C 38 7C 7C 3C 7C 18 3C ; ......8.<8||<|.<
014C44  .dc.b 00 10 00 00 3C 38 7E 7C FF FE FF FE FF FE FF FE ; ....<8~|........
014C54  .dc.b 7F FC 7F F8 7F FC FF FE FF FF FF FF FF FF FE FF ; ................
014C64  .dc.b 7E 7E 3C 3C 3C 38 7E 7C FF FE FF FE FF FE FF FE ; ~~<<<8~|........
014C74  .dc.b 7F FC 7F F8 7F FC FF FE FF FF FF FF FF FF FE FF ; ................
014C84  .dc.b 7E 7E 3C 3C 00 00 50 08 20 10 50 2E 60 18 03 40 ; ~~<<..P. .P.`..@
014C94  .dc.b 04 E0 08 40 04 C0 13 80 38 0C 64 26 44 2A 28 10 ; ...@....8.d&D*(.
014CA4  .dc.b 10 08 00 00 00 00 20 00 00 08 20 10 00 04 00 00 ; ...... ... .....
014CB4  .dc.b 03 00 07 80 03 00 00 00 00 00 18 08 38 14 10 08 ; ............8...
014CC4  .dc.b 00 00 00 00 70 1C F8 3C F0 7F F8 7F FB BE 77 EC ; ....p..<......w.
014CD4  .dc.b 0F F0 1F E0 0F E0 3F DC 7F BE FE 7F FE 7F 7E 7F ; ......?.......~.
014CE4  .dc.b 3C 3C 18 18 70 1C F8 3C F0 7F F8 7F FB BE 77 EC ; <<..p..<......w.
014CF4  .dc.b 0F F0 1F E0 0F E0 3F DC 7F BE FE 7F FE 7F 7E 7F ; ......?.......~.
014D04  .dc.b 3C 3C 18 18 00 00 50 1C 20 28 00 00 60 01 40 06 ; <<....P. (..`.@.
014D14  .dc.b 03 00 04 80 06 80 11 00 38 1C 2C 0A 34 6A 18 56 ; ........8.,.4j.V
014D24  .dc.b 00 30 00 00 00 00 20 00 00 10 00 00 00 02 20 00 ; .0.... ....... .
014D34  .dc.b 00 00 03 00 01 00 00 00 00 00 10 04 08 04 00 20 ; ............... 
014D44  .dc.b 00 00 00 00 70 1C F8 3E F0 7C 70 33 F8 0F F3 0F ; ....p..>.|p3....
014D54  .dc.b 67 86 0F C0 0F C0 3F DC 7D 3E 7E 5F 7E FF 3C FF ; g.....?.}>~_~.<.
014D64  .dc.b 18 7A 00 38 70 1C F8 3E F0 7C 70 33 F8 0F F3 0F ; .z.8p..>.|p3....
014D74  .dc.b 67 86 0F C0 0F C0 3F DC 7D 3E 7E 5F 7E FF 3C FF ; g.....?.}>~_~.<.
014D84  .dc.b 18 7A 00 38 00 00 20 20 00 00 00 00 00 00 20 00 ; .z.8..  ...... .
014D94  .dc.b 00 04 01 80 03 00 00 00 00 04 18 04 18 00 10 60 ; ...............`
014DA4  .dc.b 00 20 00 00 00 00 00 00 00 00 00 00 00 00 00 00 ; . ..............
014DB4  .dc.b 00 00 00 00 00 00 00 00 00 00 00 00 00 00 00 00 ; ................
014DC4  .dc.b 00 00 00 00 00 20 70 70 30 20 00 08 30 00 70 06 ; ..... pp0 ..0.p.
014DD4  .dc.b 21 8E 03 C4 07 C0 03 84 18 0E 3C 0E 3C 66 38 F0 ; !.........<.<f8.
014DE4  .dc.b 10 78 00 30 00 20 70 70 30 20 00 08 30 00 70 06 ; .x.0. pp0 ..0.p.
014DF4  .dc.b 21 8E 03 C4 07 C0 03 84 18 0E 3C 0E 3C 66 38 F0 ; !.........<.<f8.
014E04  .dc.b 10 78 00 30 E9 80 17 80 FD 2C 02 FC F1 80 0F 80 ; .x.0.....,......
014E14  .dc.b FC 30 03 F0 FB 53 04 BF FE 2C 01 FC F4 A0 0B A0 ; .0...S...,......
014E24  .dc.b FE 68 01 E8 FD 23 02 DF E8 58 17 F8 F2 C0 0F C0 ; .h...#...X......
014E34  .dc.b FE 68 01 E8 FB 53 04 BF EE 38 11 F8 F8 C0 07 C0 ; .h...S...8......
014E44  .dc.b EA 68 15 E8 EC B0 13 F0 FB 1C 04 FC EE 57 11 BF ; .h...........W..
014E54  .dc.b FC 68 03 E8 FB D0 04 D0 FD D8 02 78 F8 16 07 FE ; .h.........x....
014E64  .dc.b F7 68 08 E8 FC B0 03 B0 EE 28 11 F8 F9 44 06 FC ; .h.......(...D..
014E74  .dc.b EC 30 13 F0 FF A0 01 A0 F2 96 0D 7E D9 C0 27 C0 ; .0.........~..'.
014E84  .dc.b E2 68 1D F8 01 97 01 E8 34 BF 3F 40 01 8F 01 F0 ; .h......4.?@....
014E94  .dc.b 0C 3F 0F C0 CA DF FD 20 34 7B 3F 84 05 2F 05 D0 ; .?..... 4{?../..
014EA4  .dc.b 16 7F 17 80 C4 BF FB 40 1A 17 1F E8 03 4F 03 F0 ; .......@.....O..
014EB4  .dc.b 16 7F 17 80 CA DF FD 20 1C 77 1F 88 03 1F 03 E0 ; ....... .w......
014EC4  .dc.b 16 57 17 A8 0D 37 0F C8 38 DF 3F 20 EA 77 FD 88 ; .W...7..8.? .w..
014ED4  .dc.b 16 3F 17 C0 0B DF 0B 20 1B BF 1E 40 68 1F 7F E0 ; .?..... ...@h...
014EE4  .dc.b 16 EF 17 10 0D 3F 0D C0 14 77 1F 88 22 9F 3F 60 ; .....?...w..".?`
014EF4  .dc.b 0C 37 0F C8 05 FF 05 80 69 4F 7E B0 03 9F 03 E0 ; .7......iO~.....
014F04  .dc.b 16 47 1F B8 00 00 00 00 00 00 00 00 00 00 00 00 ; .G..............
014F14  .dc.b 00 00 00 00 00 00 00 00 04 00 04 00 0E 00 0A 00 ; ................
014F24  .dc.b 04 00 04 10 00 38 00 28 00 38 00 44 00 38 00 28 ; .....8.(.8.D.8.(
014F34  .dc.b 00 00 00 10 00 00 00 10 00 38 00 28 00 10 00 28 ; .........8.(...(
014F44  .dc.b 00 BA 00 C6 00 FE 01 01 00 BA 00 C6 00 10 00 28 ; ...............(
014F54  .dc.b 00 38 00 28 00 01 00 11 00 00 00 00 00 00 00 00 ; .8.(............
014F64  .dc.b 00 00 00 00 00 00 00 00 00 00 00 04 00 0E 00 0A ; ................
014F74  .dc.b 00 0E 00 11 00 0E 00 0A 00 00 00 04 00 00 00 00 ; ................
014F84  .dc.b 00 10 00 10 00 38 00 28 00 10 00 10 00 00 02 00 ; .....8.(........
014F94  .dc.b 07 00 05 00 07 00 08 80 07 00 05 00 00 00 02 00 ; ................
014FA4  .dc.b 00 00 00 00 00 00 00 00 00 00 00 00 00 00 00 00 ; ................
014FB4  .dc.b 00 00 00 00 00 00 00 00 00 00 00 00 00 00 00 00 ; ................
014FC4  .dc.b 00 00 00 00 04 00 04 00 0E 00 0E 00 04 10 04 10 ; ................
014FD4  .dc.b 00 38 00 38 00 7C 00 7C 00 38 00 38 00 10 00 10 ; .8.8.|.|.8.8....
014FE4  .dc.b 00 10 00 10 00 38 00 38 00 38 00 38 00 FE 00 FE ; .....8.8.8.8....
014FF4  .dc.b 01 FF 01 FF 00 FE 00 FE 00 38 00 38 00 38 00 38 ; .........8.8.8.8
015004  .dc.b 00 11 00 11 00 00 00 00 00 00 00 00 00 00 00 00 ; ................
015014  .dc.b 00 00 00 00 00 04 00 04 00 0E 00 0E 00 1F 00 1F ; ................
015024  .dc.b 00 0E 00 0E 00 04 00 04 00 00 00 00 00 10 00 10 ; ................
015034  .dc.b 00 38 00 38 00 10 00 10 02 00 02 00 07 00 07 00 ; .8.8............
015044  .dc.b 0F 80 0F 80 07 00 07 00 02 00 02 00 00 00 00 00 ; ................
015054  .dc.b 00 00 00 00 00 00 00 00 00 00 00 00 00 00 00 00 ; ................
015064  .dc.b 00 00 00 00 00 00 00 00 00 00 00 00 04 00 04 00 ; ................
015074  .dc.b 0E 00 0A 00 04 00 04 00 00 00 00 00 00 00 00 00 ; ................
015084  .dc.b 00 00 00 00 00 00 00 00 00 00 10 00 38 00 28 00 ; ............8.(.
015094  .dc.b 54 00 6C 00 7C 00 82 00 54 00 6C 80 39 C0 29 40 ; T.l.|...T.l.9.)@
0150A4  .dc.b 00 80 11 40 01 C0 02 20 8B E8 8C 18 CF F8 50 04 ; ...@... ......P.
0150B4  .dc.b BB E8 AC 18 55 C0 6E 20 7C 80 83 40 55 C0 6D 40 ; ....U.n |..@U.m@
0150C4  .dc.b 38 00 28 80 00 00 10 00 00 00 00 00 00 00 00 40 ; 8.(............@
0150D4  .dc.b 00 E0 00 A0 00 E0 01 10 00 E0 00 A0 00 00 04 40 ; ...............@
0150E4  .dc.b 0E 00 0A 00 04 00 0A 00 2E 80 31 80 3F 80 40 40 ; ..........1.?.@@
0150F4  .dc.b 2E 80 31 80 04 00 0A 00 0E 00 0A 00 00 00 04 00 ; ..1.............
015104  .dc.b 00 00 00 00 00 00 00 00 00 00 00 00 00 00 00 00 ; ................
015114  .dc.b 00 00 00 00 00 00 00 00 04 00 04 00 0E 00 0E 00 ; ................
015124  .dc.b 04 00 04 00 00 00 00 00 00 00 00 00 00 00 00 00 ; ................
015134  .dc.b 00 00 00 00 10 00 10 00 38 00 38 00 7C 00 7C 00 ; ........8.8.|.|.
015144  .dc.b FE 00 FE 00 7C 80 7C 80 39 C0 39 C0 11 C0 11 C0 ; ....|.|.9.9.....
015154  .dc.b 03 E0 03 E0 8F F8 8F F8 DF FC DF FC BF F8 BF F8 ; ................
015164  .dc.b 7F E0 7F E0 FF C0 FF C0 7D C0 7D C0 38 80 38 80 ; ........}.}.8.8.
015174  .dc.b 10 00 10 00 00 00 00 00 00 40 00 40 00 E0 00 E0 ; .........@.@....
015184  .dc.b 01 F0 01 F0 00 E0 00 E0 04 40 04 40 0E 00 0E 00 ; .........@.@....
015194  .dc.b 0E 00 0E 00 3F 80 3F 80 7F C0 7F C0 3F 80 3F 80 ; ....?.?.....?.?.
0151A4  .dc.b 0E 00 0E 00 0E 00 0E 00 04 00 04 00 00 00 00 00 ; ................
0151B4  .dc.b 00 00 00 00 00 00 00 00 00 00 00 00 00 00 00 00 ; ................
0151C4  .dc.b 00 00 00 00 00 00 04 00 0E 00 0A 00 0E 00 11 10 ; ................
0151D4  .dc.b 0E 38 0A 28 00 54 04 6C 00 7C 00 82 00 54 00 6C ; .8.(.T.l.|...T.l
0151E4  .dc.b 00 38 00 28 08 00 08 10 1C 00 14 10 08 38 08 29 ; .8.(.........8.)
0151F4  .dc.b 00 54 00 6C 00 7C 00 82 00 54 00 6C 00 38 00 28 ; .T.l.|...T.l.8.(
015204  .dc.b 00 01 00 11 00 01 00 02 00 01 00 01 00 80 00 80 ; ................
015214  .dc.b 01 C0 01 41 00 80 00 84 04 0E 04 0A 0E 15 0A 1B ; ...A............
015224  .dc.b 04 1F 04 20 00 15 00 1B 00 0E 00 0A 00 00 00 24 ; ... ...........$
015234  .dc.b 00 71 00 51 00 73 00 8A 00 71 02 51 07 00 05 20 ; .q.Q.s...q.Q... 
015244  .dc.b 0A 80 0D 80 0F 80 10 40 0A 80 0D 80 07 00 05 00 ; .......@........
015254  .dc.b 00 00 02 00 00 00 00 00 00 00 00 00 00 00 00 00 ; ................
015264  .dc.b 00 00 00 00 00 00 00 00 00 00 00 00 00 00 00 00 ; ................
015274  .dc.b 04 00 04 00 0E 00 0E 00 1F 10 1F 10 0E 38 0E 38 ; .............8.8
015284  .dc.b 04 7C 04 7C 00 FE 00 FE 00 7C 00 7C 00 38 00 38 ; .|.|.....|.|.8.8
015294  .dc.b 08 10 08 10 1C 10 1C 10 08 39 08 39 00 7C 00 7C ; .........9.9.|.|
0152A4  .dc.b 00 FE 00 FE 00 7C 00 7C 00 38 00 38 00 11 00 11 ; .....|.|.8.8....
0152B4  .dc.b 00 03 00 03 00 01 00 01 00 80 00 80 01 C1 01 C1 ; ................
0152C4  .dc.b 00 84 00 84 04 0E 04 0E 0E 1F 0E 1F 04 3F 04 3F ; .............?.?
0152D4  .dc.b 00 1F 00 1F 00 0E 00 0E 00 24 00 24 00 71 00 71 ; .........$.$.q.q
0152E4  .dc.b 00 FB 00 FB 02 71 02 71 07 20 07 20 0F 80 0F 80 ; .....q.q. . ....
0152F4  .dc.b 1F C0 1F C0 0F 80 0F 80 07 00 07 00 02 00 02 00 ; ................
015304  .dc.b 00 00 00 00 00 00 00 00 00 00 00 00 00 00 00 00 ; ................
015314  .dc.b 00 00 00 00 00 00 00 00 00 00 04 00 0E 00 0A 00 ; ................
015324  .dc.b 0E 00 11 00 0E 00 0A 00 00 00 04 00 00 00 00 00 ; ................
015334  .dc.b 00 80 00 80 01 C0 11 40 38 80 28 80 10 00 28 00 ; .......@8.(...(.
015344  .dc.b BA 00 C6 00 FE 00 01 00 BA 00 C6 00 10 00 28 80 ; ..............(.
015354  .dc.b 39 C0 29 40 00 80 91 40 C5 D0 56 30 DF F0 28 08 ; 9.)@...@..V0..(.
015364  .dc.b D5 D0 6E 30 3A 80 C7 40 FE C0 01 40 BA 00 C6 80 ; ..n0:..@...@....
015374  .dc.b 10 00 28 00 38 00 28 00 00 00 90 40 00 E0 00 A0 ; ..(.8.(....@....
015384  .dc.b 01 50 01 B0 01 F0 02 08 01 50 01 B0 80 E0 80 A0 ; .P.......P......
015394  .dc.b 00 00 04 40 0E 00 0A 00 15 00 1B 00 1F 00 20 80 ; ...@.......... .
0153A4  .dc.b 15 00 1B 00 0E 00 0A 00 00 00 04 00 00 00 00 00 ; ................
0153B4  .dc.b 00 00 00 00 00 00 00 00 00 00 00 00 00 00 00 00 ; ................
0153C4  .dc.b 00 00 00 00 04 00 04 00 0E 00 0E 00 1F 00 1F 00 ; ................
0153D4  .dc.b 0E 00 0E 00 04 00 04 00 00 00 00 00 00 80 00 80 ; ................
0153E4  .dc.b 11 C0 11 C0 38 80 38 80 38 00 38 00 FE 00 FE 00 ; ....8.8.8.8.....
0153F4  .dc.b FF 00 FF 00 FE 00 FE 00 38 80 38 80 39 C0 39 C0 ; ........8.8.9.9.
015404  .dc.b 91 C0 91 C0 D7 F0 D7 F0 FF F8 FF F8 FF F0 FF F0 ; ................
015414  .dc.b FF C0 FF C0 FF C0 FF C0 FE 80 FE 80 38 00 38 00 ; ............8.8.
015424  .dc.b 38 00 38 00 90 40 90 40 00 E0 00 E0 01 F0 01 F0 ; 8.8..@.@........
015434  .dc.b 03 F8 03 F8 01 F0 01 F0 80 E0 80 E0 04 40 04 40 ; .............@.@
015444  .dc.b 0E 00 0E 00 1F 00 1F 00 3F 80 3F 80 1F 00 1F 00 ; ........?.?.....
015454  .dc.b 0E 00 0E 00 04 00 04 00 00 00 00 00 00 00 00 00 ; ................
015464  .dc.b 00 00 00 00 00 00 00 00 00 00 00 00 00 00 00 00 ; ................
015474  .dc.b 00 00 04 00 0E 00 0A 00 15 00 1B 10 1F 38 20 A8 ; .............8 .
015484  .dc.b 15 10 1B 28 0E BA 0A C6 00 FE 05 01 00 BA 00 C6 ; ...(............
015494  .dc.b 00 10 08 28 1C 38 14 28 1C 01 22 11 1C 01 14 12 ; ...(.8.(..".....
0154A4  .dc.b 00 39 08 29 00 38 00 44 00 38 00 28 00 01 00 11 ; .9.).8.D.8.(....
0154B4  .dc.b 00 02 00 03 00 03 00 04 00 02 00 83 01 C1 01 41 ; ...............A
0154C4  .dc.b 01 C1 02 26 01 CF 05 4B 0E 04 0A 8A 0E 2E 11 31 ; ...&...K.......1
0154D4  .dc.b 0E 3F 0A 40 00 2E 04 31 00 04 00 2A 00 7E 00 5B ; .?.@...1...*.~.[
0154E4  .dc.b 00 AB 00 DE 00 FB 03 04 07 AB 05 DA 02 70 05 51 ; .............p.Q
0154F4  .dc.b 17 40 18 E0 1F C0 20 20 17 40 18 C0 02 00 05 00 ; .@....  .@......
015504  .dc.b 07 00 05 00 00 00 02 00 00 00 00 00 00 00 00 00 ; ................
015514  .dc.b 00 00 00 00 00 00 00 00 00 00 00 00 04 00 04 00 ; ................
015524  .dc.b 0E 00 0E 00 1F 10 1F 10 3F B8 3F B8 1F 38 1F 38 ; ........?.?..8.8
015534  .dc.b 0E FE 0E FE 05 FF 05 FF 00 FE 00 FE 08 38 08 38 ; .............8.8
015544  .dc.b 1C 38 1C 38 3E 11 3E 11 1C 13 1C 13 08 39 08 39 ; .8.8>.>......9.9
015554  .dc.b 00 7C 00 7C 00 38 00 38 00 11 00 11 00 03 00 03 ; .|.|.8.8........
015564  .dc.b 00 07 00 07 00 83 00 83 01 C1 01 C1 03 E7 03 E7 ; ................
015574  .dc.b 05 CF 05 CF 0E 8E 0E 8E 1F 3F 1F 3F 0E 7F 0E 7F ; .........?.?....
015584  .dc.b 04 3F 04 3F 00 2E 00 2E 00 7F 00 7F 00 FF 00 FF ; .?.?............
015594  .dc.b 03 FF 03 FF 07 FB 07 FB 07 71 07 71 1F E0 1F E0 ; .........q.q....
0155A4  .dc.b 3F E0 3F E0 1F C0 1F C0 07 00 07 00 07 00 07 00 ; ?.?.............
0155B4  .dc.b 02 00 02 00 00 00 00 00 00 00 00 00 00 00 00 00 ; ................
0155C4  .dc.b 00 00 00 00 00 00 04 00 0E 00 0A 00 15 00 1B 00 ; ................
0155D4  .dc.b 1F 00 20 80 15 00 1B 00 0E 00 0A 00 00 00 04 80 ; .. .............
0155E4  .dc.b 01 C0 11 40 39 C0 2A 20 11 C0 29 40 38 00 44 80 ; ...@9.* ..)@8.D.
0155F4  .dc.b 7D 00 83 00 FF 00 00 80 7D 00 83 00 38 00 44 00 ; }.......}...8.D.
015604  .dc.b 10 00 A8 80 E9 C0 79 40 BA A0 6B 60 E3 E0 1C 10 ; ......y@..k`....
015614  .dc.b BA A0 67 60 FD C0 43 40 7F 00 80 80 7D 00 83 00 ; ..g`..C@....}...
015624  .dc.b 38 00 44 00 90 00 A8 40 B8 E0 68 A0 80 40 90 A0 ; 8.D....@..h..@..
015634  .dc.b 02 E8 03 18 03 F8 04 04 82 E8 83 18 80 40 40 A0 ; .............@@.
015644  .dc.b 80 E0 80 A0 00 00 04 40 0E 00 0A 00 0E 00 11 00 ; .......@........
015654  .dc.b 0E 00 0A 00 00 00 04 00 00 00 00 00 00 00 00 00 ; ................
015664  .dc.b 00 00 00 00 00 00 00 00 00 00 00 00 00 00 00 00 ; ................
015674  .dc.b 04 00 04 00 0E 00 0E 00 1F 00 1F 00 3F 80 3F 80 ; ............?.?.
015684  .dc.b 1F 00 1F 00 0E 00 0E 00 04 80 04 80 11 C0 11 C0 ; ................
015694  .dc.b 3B E0 3B E0 39 C0 39 C0 7C 80 7C 80 FF 00 FF 00 ; ;.;.9.9.|.|.....
0156A4  .dc.b FF 80 FF 80 FF 00 FF 00 7C 00 7C 00 B8 80 B8 80 ; ........|.|.....
0156B4  .dc.b F9 C0 F9 C0 FB E0 FB E0 FF F0 FF F0 FF E0 FF E0 ; ................
0156C4  .dc.b FF C0 FF C0 FF 80 FF 80 FF 00 FF 00 7C 00 7C 00 ; ............|.|.
0156D4  .dc.b B8 40 B8 40 F8 E0 F8 E0 90 E0 90 E0 03 F8 03 F8 ; .@.@............
0156E4  .dc.b 07 FC 07 FC 83 F8 83 F8 C0 E0 C0 E0 80 E0 80 E0 ; ................
0156F4  .dc.b 04 40 04 40 0E 00 0E 00 1F 00 1F 00 0E 00 0E 00 ; .@.@............
015704  .dc.b 04 00 04 00 00 00 00 00 00 00 00 00 00 00 00 00 ; ................
015714  .dc.b 00 00 00 00 00 00 00 00 00 00 00 00 00 00 04 00 ; ................
015724  .dc.b 0E 00 0A 00 04 00 0A 10 2E B8 31 A8 3F 90 40 68 ; ..........1.?.@h
015734  .dc.b 2E B8 31 C4 05 7D 0B 83 0D FF 0A 00 01 7D 0D 83 ; ..1..}.......}..
015744  .dc.b 1C 38 14 44 2A 10 36 28 3E 38 41 28 2A 00 36 11 ; .8.D*.6(>8A(*.6.
015754  .dc.b 1C 10 14 10 00 38 08 28 00 11 00 11 00 00 00 01 ; .....8.(........
015764  .dc.b 00 05 00 06 00 07 00 88 01 C5 01 46 02 A0 03 65 ; ...........F...e
015774  .dc.b 03 EF 04 1B 0E A4 0B 6A 15 CE 1B 51 1F 5F 20 E0 ; .......j...Q._ .
015784  .dc.b 15 7F 1B 80 0E 5F 0A 60 00 6E 04 51 00 27 00 5A ; ....._.`.n.Q.'.Z
015794  .dc.b 01 7D 03 8E 07 F7 05 08 02 75 05 8E 07 23 08 D2 ; .}.......u...#..
0157A4  .dc.b 2F B0 30 71 3F E0 40 10 2F A0 30 60 07 00 08 80 ; /.0q?.@./.0`....
0157B4  .dc.b 02 00 05 00 07 00 05 00 00 00 02 00 00 00 00 00 ; ................
0157C4  .dc.b 00 00 00 00 00 00 00 00 04 00 04 00 0E 00 0E 00 ; ................
0157D4  .dc.b 0E 10 0E 10 3F B8 3F B8 7F F8 7F F8 3F FC 3F FC ; ....?.?.....?.?.
0157E4  .dc.b 0F FF 0F FF 0F FF 0F FF 0D FF 0D FF 1C 7C 1C 7C ; .............|.|
0157F4  .dc.b 3E 38 3E 38 7F 38 7F 38 3E 11 3E 11 1C 10 1C 10 ; >8>8.8.8>.>.....
015804  .dc.b 08 38 08 38 00 11 00 11 00 01 00 01 00 07 00 07 ; .8.8............
015814  .dc.b 00 8F 00 8F 01 C7 01 C7 03 E5 03 E5 07 FF 07 FF ; ................
015824  .dc.b 0F EE 0F EE 1F DF 1F DF 3F FF 3F FF 1F FF 1F FF ; ........?.?.....
015834  .dc.b 0E 7F 0E 7F 04 7F 04 7F 00 7F 00 7F 03 FF 03 FF ; ................
015844  .dc.b 07 FF 07 FF 07 FF 07 FF 0F F3 0F F3 3F F1 3F F1 ; ............?.?.
015854  .dc.b 7F F0 7F F0 3F E0 3F E0 0F 80 0F 80 07 00 07 00 ; ....?.?.........
015864  .dc.b 07 00 07 00 02 00 02 00 00 00 00 00 00 00 00 00 ; ................
015874  .dc.b 00 00 04 00 0E 00 0A 00 04 00 0A 00 2E 80 31 80 ; ..............1.
015884  .dc.b 3F 80 40 40 2E 80 31 80 04 00 0A 80 0F C0 0B 40 ; ?.@@..1........@
015894  .dc.b 02 A0 87 60 03 E0 14 10 3A A0 2B 60 11 C0 29 40 ; ...`....:.+`..)@
0158A4  .dc.b BA 00 C6 80 FE 00 01 00 BA 00 C6 00 10 00 A8 00 ; ................
0158B4  .dc.b F8 00 68 00 80 00 50 80 D1 C0 31 40 F1 C0 0A 20 ; ..h...P...1@... 
0158C4  .dc.b D1 C0 39 40 BA 00 46 80 FE 00 41 00 3A 00 C6 00 ; ..9@..F...A.:...
0158D4  .dc.b 10 00 28 40 78 E0 E8 A0 C0 40 30 A0 40 E0 C1 10 ; ..(@x....@0.@...
0158E4  .dc.b 01 F4 02 0C 87 FC 88 02 45 F4 C6 0C C0 E0 21 10 ; ........E.....!.
0158F4  .dc.b 40 40 C0 A0 80 E0 80 A0 04 00 04 40 0E 00 0A 00 ; @@.........@....
015904  .dc.b 04 00 04 00 00 00 00 00 00 00 00 00 00 00 00 00 ; ................
015914  .dc.b 00 00 00 00 00 00 00 00 00 00 00 00 04 00 04 00 ; ................
015924  .dc.b 0E 00 0E 00 0E 00 0E 00 3F 80 3F 80 7F C0 7F C0 ; ........?.?.....
015934  .dc.b 3F 80 3F 80 0E 80 0E 80 0F C0 0F C0 87 E0 87 E0 ; ?.?.............
015944  .dc.b 17 F0 17 F0 3B E0 3B E0 39 C0 39 C0 FE 80 FE 80 ; ....;.;.9.9.....
015954  .dc.b FF 00 FF 00 FE 00 FE 00 B8 00 B8 00 F8 00 F8 00 ; ................
015964  .dc.b D0 80 D0 80 F1 C0 F1 C0 FB E0 FB E0 F9 C0 F9 C0 ; ................
015974  .dc.b FE 80 FE 80 FF 00 FF 00 FE 00 FE 00 38 40 38 40 ; ............8@8@
015984  .dc.b F8 E0 F8 E0 F0 E0 F0 E0 C1 F0 C1 F0 03 FC 03 FC ; ................
015994  .dc.b 8F FE 8F FE C7 FC C7 FC E1 F0 E1 F0 C0 E0 C0 E0 ; ................
0159A4  .dc.b 80 E0 80 E0 04 40 04 40 0E 00 0E 00 04 00 04 00 ; .....@.@........
0159B4  .dc.b 00 00 00 00 00 00 00 00 00 00 00 00 00 00 00 00 ; ................
0159C4  .dc.b 00 00 00 00 00 00 00 00 00 00 04 00 0E 00 0A 00 ; ................
0159D4  .dc.b 04 00 0A 00 0E 00 11 00 5F 40 60 D0 7F F8 80 28 ; ........_@`....(
0159E4  .dc.b 5F 50 60 E8 0E BA 11 C6 04 FE 0B 01 1E BA 16 C6 ; _P`.............
0159F4  .dc.b 08 10 14 28 5D 38 63 28 7F 00 80 90 5D 00 63 10 ; ...(]8c(....].c.
015A04  .dc.b 08 38 14 28 1C 39 14 45 00 38 08 29 00 01 00 12 ; .8.(.9.E.8.)....
015A14  .dc.b 00 0B 00 0C 00 0F 00 10 00 0B 00 8C 01 C1 05 42 ; ...............B
015A24  .dc.b 0F C0 0A 25 05 CF 0B 4B 2E 84 31 8A 3F AE 40 71 ; ...%...K..1.?.@q
015A34  .dc.b 2E BF 31 C0 04 6E 0A 71 0E 24 0A 5A 00 7E 04 8B ; ..1..n.q.$.Z.~..
015A44  .dc.b 02 FB 03 06 01 FB 06 04 07 FB 05 06 02 70 05 89 ; .............p..
015A54  .dc.b 17 60 18 D0 1F D0 20 30 17 40 18 E0 02 00 05 00 ; .`.... 0.@......
015A64  .dc.b 07 00 05 00 00 00 02 00 00 00 00 00 00 00 00 00 ; ................
015A74  .dc.b 00 00 00 00 04 00 04 00 0E 00 0E 00 0E 00 0E 00 ; ................
015A84  .dc.b 1F 00 1F 00 7F D0 7F D0 FF F8 FF F8 7F F8 7F F8 ; ................
015A94  .dc.b 1F FE 1F FE 0F FF 0F FF 1E FE 1E FE 1C 38 1C 38 ; .............8.8
015AA4  .dc.b 7F 38 7F 38 FF 90 FF 90 7F 10 7F 10 1C 38 1C 38 ; .8.8.........8.8
015AB4  .dc.b 1C 7D 1C 7D 08 39 08 39 00 13 00 13 00 0F 00 0F ; .}.}.9.9........
015AC4  .dc.b 00 1F 00 1F 00 8F 00 8F 05 C3 05 C3 0F E5 0F E5 ; ................
015AD4  .dc.b 0F CF 0F CF 3F 8E 3F 8E 7F FF 7F FF 3F FF 3F FF ; ....?.?.....?.?.
015AE4  .dc.b 0E 7F 0E 7F 0E 7E 0E 7E 04 FF 04 FF 03 FF 03 FF ; .....~.~........
015AF4  .dc.b 07 FF 07 FF 07 FF 07 FF 07 F9 07 F9 1F F0 1F F0 ; ................
015B04  .dc.b 3F F0 3F F0 1F E0 1F E0 07 00 07 00 07 00 07 00 ; ?.?.............
015B14  .dc.b 02 00 02 00 00 00 00 00 00 00 00 00 00 00 00 00 ; ................
015B24  .dc.b 00 00 00 00 00 00 04 00 0E 00 0A 00 15 00 1B 00 ; ................
015B34  .dc.b 1F 00 20 80 15 00 1B 00 0E 00 0A 00 00 00 04 80 ; .. .............
015B44  .dc.b 01 C0 01 40 01 C0 02 20 01 C0 11 40 38 00 28 80 ; ...@... ...@8.(.
015B54  .dc.b 54 00 6C 00 7C 00 82 00 54 00 EC 00 F8 00 68 00 ; T.l.|...T.....h.
015B64  .dc.b 80 00 50 00 C0 00 20 00 E8 80 18 80 FD C0 05 40 ; ..P... ........@
015B74  .dc.b E8 80 18 80 D4 00 2C 00 BC 00 42 00 D4 00 6C 00 ; ......,...B...l.
015B84  .dc.b 38 00 A8 00 80 00 90 40 80 E0 40 A0 80 40 80 A0 ; 8......@..@..@..
015B94  .dc.b 02 E8 03 18 03 F8 04 04 82 E8 83 18 80 40 40 A0 ; .............@@.
015BA4  .dc.b 80 E0 80 A0 00 00 04 40 0E 00 0A 00 0E 00 11 00 ; .......@........
015BB4  .dc.b 0E 00 0A 00 00 00 04 00 00 00 00 00 00 00 00 00 ; ................
015BC4  .dc.b 00 00 00 00 00 00 00 00 00 00 00 00 00 00 00 00 ; ................
015BD4  .dc.b 04 00 04 00 0E 00 0E 00 1F 00 1F 00 3F 80 3F 80 ; ............?.?.
015BE4  .dc.b 1F 00 1F 00 0E 00 0E 00 04 80 04 80 01 C0 01 C0 ; ................
015BF4  .dc.b 03 E0 03 E0 11 C0 11 C0 38 80 38 80 7C 00 7C 00 ; ........8.8.|.|.
015C04  .dc.b FE 00 FE 00 FC 00 FC 00 F8 00 F8 00 D0 00 D0 00 ; ................
015C14  .dc.b E0 00 E0 00 F8 80 F8 80 FD C0 FD C0 F8 80 F8 80 ; ................
015C24  .dc.b FC 00 FC 00 FE 00 FE 00 FC 00 FC 00 B8 00 B8 00 ; ................
015C34  .dc.b 90 40 90 40 C0 E0 C0 E0 80 E0 80 E0 03 F8 03 F8 ; .@.@............
015C44  .dc.b 07 FC 07 FC 83 F8 83 F8 C0 E0 C0 E0 80 E0 80 E0 ; ................
015C54  .dc.b 04 40 04 40 0E 00 0E 00 1F 00 1F 00 0E 00 0E 00 ; .@.@............
015C64  .dc.b 04 00 04 00 00 00 00 00 00 00 00 00 00 00 00 00 ; ................
015C74  .dc.b 00 00 00 00 00 00 00 00 00 00 00 00 00 00 04 00 ; ................
015C84  .dc.b 0E 00 0A 00 04 00 0A 00 2E 80 31 80 3F 80 40 50 ; ..........1.?.@P
015C94  .dc.b 2E B8 31 A8 04 54 0A 6C 0E 7C 0A 82 00 54 0C 6C ; ..1..T.l.|...T.l
015CA4  .dc.b 1C 38 14 28 2A 00 36 10 3E 00 41 10 2A 38 36 28 ; .8.(*.6.>.A.*86(
015CB4  .dc.b 1C 54 14 6C 00 7C 08 82 00 55 00 6D 00 38 00 29 ; .T.l.|...U.m.8.)
015CC4  .dc.b 00 05 00 16 00 07 00 08 00 05 00 06 00 80 00 81 ; ................
015CD4  .dc.b 01 C1 05 41 0E 80 0A 84 15 0E 1B 0A 1F 15 20 9B ; ...A.......... .
015CE4  .dc.b 15 1F 1B 20 0E 15 0A 3B 00 7E 04 5A 00 20 00 54 ; ... ...;.~.Z. .T
015CF4  .dc.b 01 75 01 8D 01 FF 02 02 01 75 03 8D 07 20 05 50 ; .u.......u... .P
015D04  .dc.b 0A F0 0D D0 0F 80 10 60 0A 80 0D 80 07 00 05 00 ; .......`........
015D14  .dc.b 00 00 02 00 00 00 00 00 00 00 00 00 00 00 00 00 ; ................
015D24  .dc.b 00 00 00 00 00 00 00 00 04 00 04 00 0E 00 0E 00 ; ................
015D34  .dc.b 0E 00 0E 00 3F 80 3F 80 7F D0 7F D0 3F B8 3F B8 ; ....?.?.....?.?.
015D44  .dc.b 0E 7C 0E 7C 0E FE 0E FE 0C 7C 0C 7C 1C 38 1C 38 ; .|.|.....|.|.8.8
015D54  .dc.b 3E 10 3E 10 7F 10 7F 10 3E 38 3E 38 1C 7C 1C 7C ; >.>.....>8>8.|.|
015D64  .dc.b 08 FE 08 FE 00 7D 00 7D 00 39 00 39 00 17 00 17 ; .....}.}.9.9....
015D74  .dc.b 00 0F 00 0F 00 07 00 07 00 81 00 81 05 C1 05 C1 ; ................
015D84  .dc.b 0E 84 0E 84 1F 0E 1F 0E 3F 9F 3F 9F 1F 3F 1F 3F ; ........?.?..?.?
015D94  .dc.b 0E 3F 0E 3F 04 7E 04 7E 00 74 00 74 01 FD 01 FD ; .?.?.~.~.t.t....
015DA4  .dc.b 03 FF 03 FF 03 FD 03 FD 07 70 07 70 0F F0 0F F0 ; .........p.p....
015DB4  .dc.b 1F E0 1F E0 0F 80 0F 80 07 00 07 00 02 00 02 00 ; ................
015DC4  .dc.b 00 00 00 00 00 00 00 00 00 00 00 00 00 00 00 00 ; ................
015DD4  .dc.b 00 00 00 00 00 00 00 00 00 00 04 00 0E 00 0A 00 ; ................
015DE4  .dc.b 0E 00 11 00 0E 00 0A 00 00 00 04 00 00 00 00 00 ; ................
015DF4  .dc.b 00 80 00 80 01 C0 01 40 00 80 00 80 00 00 10 00 ; .......@........
015E04  .dc.b 38 00 28 00 38 00 44 00 38 00 28 00 00 00 90 00 ; 8.(.8.D.8.(.....
015E14  .dc.b C0 00 40 00 80 00 40 80 D1 C0 31 40 F1 C0 0A 20 ; ..@...@...1@... 
015E24  .dc.b D1 C0 31 40 B8 00 68 80 F8 00 44 00 38 00 A8 00 ; ..1@..h...D.8...
015E34  .dc.b 00 00 10 00 00 00 00 00 00 00 80 40 00 E0 00 A0 ; ...........@....
015E44  .dc.b 01 50 01 B0 01 F0 02 08 01 50 01 B0 80 E0 80 A0 ; .P.......P......
015E54  .dc.b 00 00 04 40 0E 00 0A 00 15 00 1B 00 1F 00 20 80 ; ...@.......... .
015E64  .dc.b 15 00 1B 00 0E 00 0A 00 00 00 04 00 00 00 00 00 ; ................
015E74  .dc.b 00 00 00 00 00 00 00 00 00 00 00 00 00 00 00 00 ; ................
015E84  .dc.b 00 00 00 00 04 00 04 00 0E 00 0E 00 1F 00 1F 00 ; ................
015E94  .dc.b 0E 00 0E 00 04 00 04 00 00 00 00 00 00 80 00 80 ; ................
015EA4  .dc.b 01 C0 01 C0 00 80 00 80 10 00 10 00 38 00 38 00 ; ............8.8.
015EB4  .dc.b 7C 00 7C 00 38 00 38 00 90 00 90 00 C0 00 C0 00 ; |.|.8.8.........
015EC4  .dc.b C0 80 C0 80 F1 C0 F1 C0 FB E0 FB E0 F1 C0 F1 C0 ; ................
015ED4  .dc.b F8 80 F8 80 FC 00 FC 00 B8 00 B8 00 10 00 10 00 ; ................
015EE4  .dc.b 00 00 00 00 80 40 80 40 00 E0 00 E0 01 F0 01 F0 ; .....@.@........
015EF4  .dc.b 03 F8 03 F8 01 F0 01 F0 80 E0 80 E0 04 40 04 40 ; .............@.@
015F04  .dc.b 0E 00 0E 00 1F 00 1F 00 3F 80 3F 80 1F 00 1F 00 ; ........?.?.....
015F14  .dc.b 0E 00 0E 00 04 00 04 00 00 00 00 00 00 00 00 00 ; ................
015F24  .dc.b 00 00 00 00 00 00 00 00 00 00 00 00 00 00 00 00 ; ................
015F34  .dc.b 00 00 04 00 0E 00 0A 00 15 00 1B 00 1F 00 20 80 ; .............. .
015F44  .dc.b 15 00 1B 10 0E 38 0A 28 00 38 04 44 00 38 00 28 ; .....8.(.8.D.8.(
015F54  .dc.b 00 00 08 10 1C 00 14 10 1C 38 22 28 1C 10 14 28 ; .........8"(...(
015F64  .dc.b 00 BA 08 C6 00 FE 01 01 00 BA 00 C6 00 11 00 29 ; ...............)
015F74  .dc.b 00 3A 00 2B 00 03 00 14 00 02 00 03 00 01 00 01 ; .:.+............
015F84  .dc.b 00 00 00 00 00 00 04 00 0E 00 0A 04 0E 0E 11 0A ; ................
015F94  .dc.b 0E 0E 0A 11 00 0E 04 0A 00 00 00 24 00 70 00 50 ; ...........$.p.P
015FA4  .dc.b 00 A8 00 D8 00 F8 01 04 00 A8 00 D8 00 70 02 50 ; .............p.P
015FB4  .dc.b 07 00 05 20 07 00 08 80 07 00 05 00 00 00 02 00 ; ... ............
015FC4  .dc.b 00 00 00 00 00 00 00 00 00 00 00 00 00 00 00 00 ; ................
015FD4  .dc.b 00 00 00 00 00 00 00 00 00 00 00 00 04 00 04 00 ; ................
015FE4  .dc.b 0E 00 0E 00 1F 00 1F 00 3F 80 3F 80 1F 10 1F 10 ; ........?.?.....
015FF4  .dc.b 0E 38 0E 38 04 7C 04 7C 00 38 00 38 08 10 08 10 ; .8.8.|.|.8.8....
016004  .dc.b 1C 10 1C 10 3E 38 3E 38 1C 38 1C 38 08 FE 08 FE ; ....>8>8.8.8....
016014  .dc.b 01 FF 01 FF 00 FE 00 FE 00 39 00 39 00 3B 00 3B ; .........9.9.;.;
016024  .dc.b 00 17 00 17 00 03 00 03 00 01 00 01 00 00 00 00 ; ................
016034  .dc.b 04 00 04 00 0E 04 0E 04 1F 0E 1F 0E 0E 1F 0E 1F ; ................
016044  .dc.b 04 0E 04 0E 00 24 00 24 00 70 00 70 00 F8 00 F8 ; .....$.$.p.p....
016054  .dc.b 01 FC 01 FC 00 F8 00 F8 02 70 02 70 07 20 07 20 ; .........p.p. . 
016064  .dc.b 0F 80 0F 80 07 00 07 00 02 00 02 00 00 00 00 00 ; ................
016074  .dc.b 00 00 00 00 00 00 00 00 00 00 00 00 00 00 00 00 ; ................
016084  .dc.b 00 00 00 00 00 00 00 00 00 00 00 00 04 00 04 00 ; ................
016094  .dc.b 0E 00 0A 00 04 00 04 00 00 00 00 00 00 00 00 00 ; ................
0160A4  .dc.b 00 00 00 00 00 00 00 00 00 00 00 00 00 00 00 00 ; ................
0160B4  .dc.b 10 00 10 00 38 00 28 00 10 00 10 00 00 00 00 00 ; ....8.(.........
0160C4  .dc.b 00 00 80 80 C1 C0 41 40 A2 A0 63 60 E3 E0 14 10 ; ......A@..c`....
0160D4  .dc.b A2 A0 63 60 D1 C0 51 40 38 00 A8 80 10 00 10 00 ; ..c`..Q@8.......
0160E4  .dc.b 00 00 00 00 00 00 00 00 00 00 00 00 00 00 00 40 ; ...............@
0160F4  .dc.b 00 E0 00 A0 00 E0 01 10 00 E0 00 A0 00 00 04 40 ; ...............@
016104  .dc.b 0E 00 0A 00 04 00 0A 00 2E 80 31 80 3F 80 40 40 ; ..........1.?.@@
016114  .dc.b 2E 80 31 80 04 00 0A 00 0E 00 0A 00 00 00 04 00 ; ..1.............
016124  .dc.b 00 00 00 00 00 00 00 00 00 00 00 00 00 00 00 00 ; ................
016134  .dc.b 00 00 00 00 00 00 00 00 04 00 04 00 0E 00 0E 00 ; ................
016144  .dc.b 04 00 04 00 00 00 00 00 00 00 00 00 00 00 00 00 ; ................
016154  .dc.b 00 00 00 00 00 00 00 00 00 00 00 00 10 00 10 00 ; ................
016164  .dc.b 38 00 38 00 10 00 10 00 00 00 00 00 80 80 80 80 ; 8.8.............
016174  .dc.b C1 C0 C1 C0 E3 E0 E3 E0 F7 F0 F7 F0 E3 E0 E3 E0 ; ................
016184  .dc.b D1 C0 D1 C0 B8 80 B8 80 10 00 10 00 00 00 00 00 ; ................
016194  .dc.b 00 00 00 00 00 00 00 00 00 40 00 40 00 E0 00 E0 ; .........@.@....
0161A4  .dc.b 01 F0 01 F0 00 E0 00 E0 04 40 04 40 0E 00 0E 00 ; .........@.@....
0161B4  .dc.b 0E 00 0E 00 3F 80 3F 80 7F C0 7F C0 3F 80 3F 80 ; ....?.?.....?.?.
0161C4  .dc.b 0E 00 0E 00 0E 00 0E 00 04 00 04 00 00 00 00 00 ; ................
0161D4  .dc.b 00 00 00 00 00 00 00 00 00 00 00 00 00 00 00 00 ; ................
0161E4  .dc.b 00 00 00 00 00 00 04 00 0E 00 0A 00 0E 00 11 00 ; ................
0161F4  .dc.b 0E 00 0A 00 00 10 04 10 00 38 00 28 00 10 00 10 ; .........8.(....
016204  .dc.b 00 00 00 10 08 38 08 28 1C 10 14 28 08 38 08 44 ; .....8.(...(.8.D
016214  .dc.b 01 7D 01 83 01 FF 02 00 01 7D 01 83 00 38 00 44 ; .}.......}...8.D
016224  .dc.b 00 11 00 29 00 39 00 2A 00 01 00 11 00 00 00 00 ; ...).9.*........
016234  .dc.b 00 00 00 00 00 00 00 00 04 00 04 00 0E 04 0A 04 ; ................
016244  .dc.b 04 0E 04 0A 00 04 00 04 00 00 00 00 00 00 00 20 ; ............... 
016254  .dc.b 00 70 00 50 00 70 00 88 00 70 00 50 00 00 00 20 ; .p.P.p...p.P... 
016264  .dc.b 02 00 02 00 07 00 05 00 02 00 02 00 00 00 00 00 ; ................
016274  .dc.b 00 00 00 00 00 00 00 00 00 00 00 00 00 00 00 00 ; ................
016284  .dc.b 00 00 00 00 00 00 00 00 00 00 00 00 00 00 00 00 ; ................
016294  .dc.b 04 00 04 00 0E 00 0E 00 1F 00 1F 00 0E 00 0E 00 ; ................
0162A4  .dc.b 04 10 04 10 00 38 00 38 00 10 00 10 00 10 00 10 ; .....8.8........
0162B4  .dc.b 08 38 08 38 1C 38 1C 38 08 7C 08 7C 01 FF 01 FF ; .8.8.8.8.|.|....
0162C4  .dc.b 03 FF 03 FF 01 FF 01 FF 00 7C 00 7C 00 39 00 39 ; .........|.|.9.9
0162D4  .dc.b 00 3B 00 3B 00 11 00 11 00 00 00 00 00 00 00 00 ; .;.;............
0162E4  .dc.b 00 00 00 00 04 00 04 00 0E 04 0E 04 04 0E 04 0E ; ................
0162F4  .dc.b 00 04 00 04 00 00 00 00 00 20 00 20 00 70 00 70 ; ......... . .p.p
016304  .dc.b 00 F8 00 F8 00 70 00 70 00 20 00 20 02 00 02 00 ; .....p.p. . ....
016314  .dc.b 07 00 07 00 02 00 02 00 00 00 00 00 00 00 00 00 ; ................
016324  .dc.b 00 00 00 00 00 00 00 00 00 00 00 00 00 00 00 00 ; ................
016334  .dc.b 00 00 00 00 00 00 00 00 00 00 00 00 00 00 00 00 ; ................
016344  .dc.b 00 00 00 00 00 00 00 00 00 00 00 00 00 00 00 00 ; ................
016354  .dc.b 00 00 00 00 00 00 00 00 00 00 00 00 00 00 10 00 ; ................
016364  .dc.b 38 00 28 00 38 00 44 00 38 00 28 00 00 00 90 80 ; 8.(.8.D.8.(.....
016374  .dc.b 01 C0 01 40 00 80 81 40 C5 D0 46 30 C7 F0 28 08 ; ...@...@..F0..(.
016384  .dc.b C5 D0 56 30 38 80 A9 40 39 C0 45 40 38 00 28 80 ; ..V08..@9.E@8.(.
016394  .dc.b 00 00 10 00 00 00 00 00 00 00 00 00 00 00 00 00 ; ................
0163A4  .dc.b 00 40 00 40 00 E0 00 A0 00 40 04 40 0E 00 0A 00 ; .@.@.....@.@....
0163B4  .dc.b 04 00 0A 00 0E 00 11 00 5F 40 60 C0 7F C0 80 20 ; ........_@`.... 
0163C4  .dc.b 5F 40 60 C0 0E 00 11 00 04 00 0A 00 0E 00 0A 00 ; _@`.............
0163D4  .dc.b 00 00 04 00 00 00 00 00 00 00 00 00 00 00 00 00 ; ................
0163E4  .dc.b 00 00 00 00 00 00 00 00 00 00 00 00 00 00 00 00 ; ................
0163F4  .dc.b 00 00 00 00 00 00 00 00 00 00 00 00 00 00 00 00 ; ................
016404  .dc.b 00 00 00 00 00 00 00 00 10 00 10 00 38 00 38 00 ; ............8.8.
016414  .dc.b 7C 00 7C 00 38 00 38 00 90 80 90 80 01 C0 01 C0 ; |.|.8.8.........
016424  .dc.b 81 C0 81 C0 C7 F0 C7 F0 EF F8 EF F8 D7 F0 D7 F0 ; ................
016434  .dc.b B9 C0 B9 C0 7D C0 7D C0 38 80 38 80 10 00 10 00 ; ....}.}.8.8.....
016444  .dc.b 00 00 00 00 00 00 00 00 00 00 00 00 00 40 00 40 ; .............@.@
016454  .dc.b 00 E0 00 E0 04 40 04 40 0E 00 0E 00 0E 00 0E 00 ; .....@.@........
016464  .dc.b 1F 00 1F 00 7F C0 7F C0 FF E0 FF E0 7F C0 7F C0 ; ................
016474  .dc.b 1F 00 1F 00 0E 00 0E 00 0E 00 0E 00 04 00 04 00 ; ................
016484  .dc.b 00 00 00 00 FE 00 00 00 7D FF FF FF FF FE FE FF ; ........}.......
016494  .dc.b FF FE FE FF FF FE FE FF FF FE FE FF FF FE FE FF ; ................
0164A4  .dc.b FF FE 00 00 00 00 00 00 00 7F C5 FF FF FF 83 00 ; ................
0164B4  .dc.b 00 01 80 01 7F 00 00 01 7F 00 00 01 7F 00 00 01 ; ................
0164C4  .dc.b 7F 00 00 01 7F 00 01 85 FF FF FF FF FF FF FF C2 ; ................
0164D4  .dc.b BA 00 00 00 3B 79 FF 3D BF FF 7F 7F FF FF 7F 7F ; ....;y.=........
0164E4  .dc.b FF FF 7F 7F FF FF 7F 7F FF FF 7F 7F FD BA 00 00 ; ................
0164F4  .dc.b 00 00 00 00 00 5D BA 00 00 00 1B 7C FE 7D BF FD ; .....].....|.}..
016504  .dc.b 81 3F FF FD 81 3F FF FD 81 3F FF FD 81 3F FF FD ; .?...?...?...?..
016514  .dc.b 81 3F FD BA 00 00 00 00 00 00 00 5D BA 00 00 00 ; .?.........]....
016524  .dc.b 1B 7E 7C FD BF F3 7F 4F FF F3 7F 4F FF F3 7F 4F ; .~|....O...O...O
016534  .dc.b FF F3 7F 4F FF F3 7F 4F FD BA 00 00 00 00 00 00 ; ...O...O........
016544  .dc.b 00 5D BA 00 00 00 0B 7F 01 FD BF CC 00 53 FF CC ; .]...........S..
016554  .dc.b 1C 53 FF CC 00 53 FF CC 00 53 FF CC 00 53 FD BA ; .S...S...S...S..
016564  .dc.b 00 00 00 00 00 00 00 5D BA 00 00 00 0B 9F FF F3 ; .......]........
016574  .dc.b BF 33 FF F4 FF 30 7C 14 FF 30 7E 14 FF 30 00 14 ; .3...0|..0~..0..
016584  .dc.b FF 30 00 14 FD BA 00 00 00 00 00 00 00 5D BA 00 ; .0...........]..
016594  .dc.b 00 00 1A E7 FF CC BC CF FF FD 3C C0 7E 05 3C C1 ; ..........<.~.<.
0165A4  .dc.b 83 85 3C C1 00 45 3C C1 00 85 3D BA 00 00 00 00 ; ..<..E<...=.....
0165B4  .dc.b 00 00 00 5D BA 00 00 00 1A 39 FF 30 BD 3F FF FF ; ...].....9.0.?..
0165C4  .dc.b BD 00 FF 11 BD 00 49 81 BD 02 00 81 BD 08 24 11 ; ......I.......$.
0165D4  .dc.b BD BA 00 00 00 00 00 00 00 5D BA 00 00 00 02 0E ; .........]......
0165E4  .dc.b 7C C0 BD 7F FF FF BD 01 FF 84 BD 02 B5 C0 BD 01 ; |...............
0165F4  .dc.b 5A 40 BD 11 00 88 BD BA 00 00 00 00 00 00 00 5D ; Z@.............]
016604  .dc.b BB FF FF FF BD FC BB FF BD 41 17 43 BD 03 FF C2 ; .........A.C....
016614  .dc.b BD 01 34 80 BD 03 7E C0 BD 18 42 18 BD BB FF FF ; ..4...~...B.....
016624  .dc.b FF FF FF FF FF DD BA 00 98 00 00 00 BA 00 BD 77 ; ...............w
016634  .dc.b B2 5F BD FF F0 3F BD 01 8A 80 BD 01 E7 80 BD 11 ; ._...?..........
016644  .dc.b 00 88 BD BA 00 00 00 00 00 00 00 5D BA 00 78 00 ; ...........]..x.
016654  .dc.b 00 00 BA 00 BD 77 B0 5F BD C3 F0 38 BD 00 F5 00 ; .....w._...8....
016664  .dc.b BD 03 3C C0 BD 18 24 18 BD BA 00 00 00 00 00 00 ; ..<...$.........
016674  .dc.b 00 5D FC 00 78 00 38 38 FC 38 FE 77 B5 47 FE 31 ; .]..x.88.8.w.G.1
016684  .dc.b F0 70 FE 02 0A 40 7E 07 99 E0 7E 11 00 88 FE FC ; .p...@~...~.....
016694  .dc.b 38 38 38 38 38 38 38 7E C4 11 FB 00 7C 7C C4 7C ; 8888888~....||.|
0166A4  .dc.b C2 77 B7 5F C2 08 F0 E0 C2 03 E5 40 C2 0B A5 D0 ; .w._.......@....
0166B4  .dc.b C2 18 42 18 C2 C4 7C 7C 7C 7C 7C 7C 7C 62 BA 2F ; ..B...|||||||b./
0166C4  .dc.b FF 00 C6 C6 BA C6 BD 77 B7 5F BD 02 71 80 BD 01 ; .......w._..q...
0166D4  .dc.b 14 80 BD 09 5A 90 BD 11 00 88 BD BA C6 C6 C6 C6 ; ....Z...........
0166E4  .dc.b C6 C6 C6 5D BA 3C FC 00 C6 C6 BA C6 BD 77 17 43 ; ...].<.......w.C
0166F4  .dc.b BD 00 33 00 BD 01 D5 80 BD 06 A5 60 BD 08 24 10 ; ..3........`..$.
016704  .dc.b BD BA C6 C6 C6 C6 C6 C6 C6 5D BA 02 F0 00 CE CE ; .........]......
016714  .dc.b BA CE BD 7F FF FF BD 00 14 00 BD 00 7E 00 BD 1F ; ............~...
016724  .dc.b BD F8 BD 01 00 80 BD BA CE CE CE CE CE CE CE 5D ; ...............]
016734  .dc.b BA 05 F0 00 DE DE BA DE BD 00 00 00 BD 00 00 00 ; ................
016744  .dc.b BD 00 00 00 BD 00 00 00 BD 00 00 00 BD BA DE DE ; ................
016754  .dc.b DE DE DE DE DE 5D BA 0B F0 00 F6 F6 BA F6 BD 18 ; .....]..........
016764  .dc.b 18 18 BD 18 18 18 BD 18 18 18 BD 18 18 18 BD 18 ; ................
016774  .dc.b 18 18 BD BA F6 F6 F6 F6 F6 F6 F6 5D BA 17 F0 00 ; ...........]....
016784  .dc.b E6 E6 BA E6 BD 24 24 24 BD 24 24 24 BD 24 24 24 ; .....$$$.$$$.$$$
016794  .dc.b BD 24 24 24 BD 24 24 24 BD BA E6 E6 E6 E6 E6 E6 ; .$$$.$$$........
0167A4  .dc.b E6 5D FC 0F 58 00 C6 C6 FC C6 FE 66 66 66 FE 66 ; .]..X......fff.f
0167B4  .dc.b 66 66 FE 66 66 66 7E 66 66 66 7E 66 66 66 FE FC ; ff.fff~fff~fff..
0167C4  .dc.b C6 C6 C6 C6 C6 C6 C6 7E C4 7C 1C 00 C6 C6 C4 C6 ; .......~.|......
0167D4  .dc.b C2 6E 6E 6E C2 6E 6E 6E C2 6E 6E 6E C2 6E 6E 6E ; .nnn.nnn.nnn.nnn
0167E4  .dc.b C2 6E 6E 6E C2 C4 C6 C6 C6 C6 C6 C6 C6 62 BA 00 ; .nnn.........b..
0167F4  .dc.b 2C 00 7C 7C BA 7C BD 76 76 76 BD 76 76 76 BD 76 ; ,.||.|.vvv.vvv.v
016804  .dc.b 76 76 BD 76 76 76 BD 76 76 76 BD BA 7C 7C 7C 7C ; vv.vvv.vvv..||||
016814  .dc.b 7C 7C 7C 5D BA 00 0C 00 38 38 BA 38 BD 66 66 66 ; |||]....88.8.fff
016824  .dc.b BD 66 66 66 BD 66 66 66 BD 66 66 66 BD 66 66 66 ; .fff.fff.fff.fff
016834  .dc.b BD BA 38 38 38 38 38 38 38 5D BA 00 0C 00 00 00 ; ..8888888]......
016844  .dc.b BA 00 BD 24 24 24 BD 24 24 24 BD 24 24 24 BD 24 ; ...$$$.$$$.$$$.$
016854  .dc.b 24 24 BD 24 24 24 BD BA 00 00 00 00 00 00 00 5D ; $$.$$$.........]
016864  .dc.b BA 00 00 00 00 00 BA 00 BD 18 18 18 BD 18 18 18 ; ................
016874  .dc.b BD 18 18 18 BD 18 18 18 BD 18 18 18 BD BA 00 00 ; ................
016884  .dc.b 00 00 00 00 00 5D BD FF FF FF FB FF 7D FE 3D 00 ; .....]......}.=.
016894  .dc.b 00 00 BD 00 00 00 BD 00 00 00 BD 00 00 00 BD 00 ; ................
0168A4  .dc.b 00 00 BD BB FF FD FF FF FF FB FF BD BE 80 00 00 ; ................
0168B4  .dc.b 04 02 FE 80 DC FF FF FF 3C FF FF FF 3C FF FF FF ; ........<...<...
0168C4  .dc.b 3C FF FF FF 3C FF FF FF 3B 7D 00 46 00 00 00 8C ; <...<...;}.F....
0168D4  .dc.b 01 7D BF 4F FF FE 75 E5 FF 4E 6F 30 18 0C C7 30 ; .}.O..u..No0...0
0168E4  .dc.b 18 0C C7 30 18 0C C7 30 18 0C C7 30 18 0C 76 FE ; ...0...0...0..v.
0168F4  .dc.b 9F 3A FB FF BE 75 F2 FD 87 A7 FF FE 35 CB C7 A7 ; .:...u......5...
016904  .dc.b 37 CF A5 F3 DF CF A5 F3 DF CF A5 F3 DF CF A5 F3 ; 7...............
016914  .dc.b DF CF A5 F3 ED EF 4F 3A FD FF 7E 75 E5 E2 BB D3 ; ......O:..~u....
016924  .dc.b FF FE 35 97 BB D3 9B F3 24 CF A7 F3 24 CF A7 F3 ; ..5.....$...$...
016934  .dc.b 24 CF A7 F3 24 CF A7 F3 24 CF DB D7 A7 3A FE FE ; $...$...$....:..
016944  .dc.b FE 75 CB DD BD E9 FF FE 35 2F 7D E9 CD FD A5 BF ; .u......5/}.....
016954  .dc.b 43 FD A5 BF 43 FD A5 BF 43 FD A5 BF 43 FD A5 BF ; C...C...C...C...
016964  .dc.b B7 BB D3 3A FF 7D FE 75 97 BD BE F4 00 00 04 5E ; ...:.}.u.......^
016974  .dc.b FE F4 06 FD 24 BE 99 FD 24 BE 99 FD 24 BE 99 FD ; ....$...$...$...
016984  .dc.b 24 BE 99 FD 24 BF 6F 7D E8 02 00 00 00 04 2F 7D ; $...$.o}....../}
016994  .dc.b 40 83 FF FF FB 41 00 83 FF FF A5 BD 3C FF A5 BD ; @....A......<...
0169A4  .dc.b 3C FF A5 BD 3C FF A5 BD 3C FF A5 BF A0 82 07 BD ; <...<...<.......
0169B4  .dc.b FF FF FF 7B A0 81 03 FF FF FF 82 10 00 21 FF FE ; ...{.........!..
0169C4  .dc.b FE FF FF FE FE FF FF FE FE FF FF FE FE FF FF FE ; ................
0169D4  .dc.b FE FF FD 03 FF FF FF FF FF FF FF 81 3D FF FF FF ; ............=...
0169E4  .dc.b F8 F7 FF BC 80 01 01 00 00 01 01 00 00 01 01 00 ; ................
0169F4  .dc.b 00 01 01 00 00 01 01 00 03 7D FF FF FF FF FF FF ; .........}......
016A04  .dc.b FF BE 78 06 06 06 78 FB FF 7C 80 01 01 00 00 01 ; ..x...x..|......
016A14  .dc.b 01 00 00 01 01 00 00 01 01 00 00 01 01 00 03 78 ; ...............x
016A24  .dc.b 00 00 00 00 00 00 00 3C 68 8C 8C 8C 38 CD C6 E4 ; .......<h...8...
016A34  .dc.b 80 03 7F 00 00 03 7F 00 00 03 7F 00 00 03 7F 00 ; ................
016A44  .dc.b 00 03 7F 00 03 68 00 00 00 00 00 00 00 34 68 D8 ; .....h.......4h.
016A54  .dc.b D8 D8 38 CE FD E4 80 0F 7F 40 00 0F 7F 40 00 0F ; ..8......@...@..
016A64  .dc.b 7F 40 00 0F 7F 40 00 0F 7F 40 03 68 00 00 00 00 ; .@...@...@.h....
016A74  .dc.b 00 00 00 34 68 7C 7C 7C 18 FF 03 FC 80 3C 00 10 ; ...4h|||.....<..
016A84  .dc.b 00 3C 28 10 00 3C 00 10 00 3C 00 10 00 3C 00 10 ; .<(..<...<...<..
016A94  .dc.b 03 68 00 00 00 00 00 00 00 34 68 3E 3E 3E 18 7F ; .h.......4h>>>..
016AA4  .dc.b FF F0 80 F0 00 04 00 F0 CC 04 00 F0 00 04 00 F0 ; ................
016AB4  .dc.b 00 04 00 F0 00 04 03 68 00 00 00 00 00 00 00 34 ; .......h.......4
016AC4  .dc.b 68 1B 1B 1B 38 9E 00 C0 83 C0 00 01 03 C3 8E 01 ; h...8...........
016AD4  .dc.b 03 C0 00 01 03 C3 00 C1 03 CE 00 71 03 68 00 00 ; ...........q.h..
016AE4  .dc.b 00 00 00 00 00 34 68 31 31 31 38 27 83 00 83 00 ; .....4h1118'....
016AF4  .dc.b 00 00 83 0F 0F 10 83 00 78 00 83 02 18 80 83 17 ; ........x.......
016B04  .dc.b C3 E8 83 68 FF FF FF FF FF FF FF 34 68 60 60 60 ; ...h.......4h```
016B14  .dc.b 40 09 EC 00 83 00 00 00 83 3E 0F 84 83 00 CC 00 ; @........>......
016B24  .dc.b 83 00 18 00 83 0E 00 70 83 68 00 00 00 00 00 00 ; .......p.h......
016B34  .dc.b 00 34 68 00 00 00 40 01 68 00 83 3E E8 BC 83 FC ; .4h...@.h..>....
016B44  .dc.b 0F C3 83 01 CC 00 83 00 42 00 83 07 81 E0 83 68 ; ........B......h
016B54  .dc.b 00 00 00 00 00 00 00 34 68 00 60 00 00 00 68 00 ; .......4h.`...h.
016B64  .dc.b 83 08 4D A0 83 00 0F FF 83 01 F8 00 83 00 18 00 ; ..M.............
016B74  .dc.b 83 0E 00 70 83 68 00 00 00 00 00 00 00 34 78 00 ; ...p.h.......4x.
016B84  .dc.b 80 00 00 00 68 00 83 08 4F A0 83 C3 F0 00 83 00 ; ....h...O.......
016B94  .dc.b F0 00 83 03 00 C0 83 07 C3 E0 83 78 00 00 00 00 ; ...........x....
016BA4  .dc.b 00 00 00 3C 40 00 83 00 44 44 40 44 BE 08 4A B8 ; ...<@...DD@D..J.
016BB4  .dc.b BE 31 F0 00 BE 00 00 00 3E 04 99 20 3E 0E 00 70 ; .1......>.. >..p
016BC4  .dc.b BE 40 44 44 44 44 44 44 44 20 3C 0E 04 00 82 82 ; .@DDDDDDD <.....
016BD4  .dc.b 3C 82 C1 08 48 A0 C1 08 F0 00 C1 00 01 00 41 0C ; <...H.........A.
016BE4  .dc.b 81 30 41 07 81 E0 C1 3C 82 82 82 82 82 82 82 1E ; .0A....<........
016BF4  .dc.b 78 10 00 00 00 00 78 00 83 08 48 A0 83 02 70 00 ; x.....x...H...p.
016C04  .dc.b 83 00 06 00 83 0F 18 F0 83 0E 00 70 83 78 00 00 ; ...........p.x..
016C14  .dc.b 00 00 00 00 00 3C 68 01 00 00 00 00 68 00 83 08 ; .....<h.....h...
016C24  .dc.b E8 BC 83 00 30 00 83 00 1C 00 83 06 00 60 83 17 ; ....0........`..
016C34  .dc.b C3 E8 83 68 00 00 00 00 00 00 00 34 68 01 00 00 ; ...h.......4h...
016C44  .dc.b 00 00 68 00 83 00 00 00 83 00 10 00 83 00 00 00 ; ..h.............
016C54  .dc.b 83 00 00 00 83 0E 00 70 83 68 00 00 00 00 00 00 ; .......p.h......
016C64  .dc.b 00 34 68 02 00 00 00 00 68 00 83 00 00 00 83 00 ; .4h.....h.......
016C74  .dc.b 00 00 83 00 00 00 83 00 00 00 83 00 00 00 83 68 ; ...............h
016C84  .dc.b 00 00 00 00 00 00 00 34 68 04 00 00 00 00 68 00 ; .......4h.....h.
016C94  .dc.b 83 24 24 24 83 24 24 24 83 24 24 24 83 24 24 24 ; .$$$.$$$.$$$.$$$
016CA4  .dc.b 83 24 24 24 83 68 00 00 00 00 00 00 00 34 78 08 ; .$$$.h.......4x.
016CB4  .dc.b 00 00 00 00 78 00 83 42 42 42 83 42 42 42 83 42 ; ....x..BBB.BBB.B
016CC4  .dc.b 42 42 83 42 42 42 83 42 42 42 83 78 00 00 00 00 ; BB.BBB.BBB.x....
016CD4  .dc.b 00 00 00 3C 40 70 20 00 00 00 40 00 BE 00 00 00 ; ...<@p ...@.....
016CE4  .dc.b BE 00 00 00 BE 00 00 00 3E 00 00 00 3E 00 00 00 ; ........>...>...
016CF4  .dc.b BE 40 00 00 00 00 00 00 00 20 3C 00 20 00 00 00 ; .@....... <. ...
016D04  .dc.b 3C 00 C1 00 00 00 C1 00 00 00 C1 00 00 00 41 00 ; <.............A.
016D14  .dc.b 00 00 41 00 00 00 C1 3C 00 00 00 00 00 00 00 1E ; ..A....<........
016D24  .dc.b 78 00 10 00 82 82 78 82 83 00 00 00 83 00 00 00 ; x.....x.........
016D34  .dc.b 83 00 00 00 83 00 00 00 83 00 00 00 83 78 82 82 ; .............x..
016D44  .dc.b 82 82 82 82 82 3C 68 00 10 00 44 44 68 44 83 00 ; .....<h...DDhD..
016D54  .dc.b 00 00 83 00 00 00 83 00 00 00 83 00 00 00 83 00 ; ................
016D64  .dc.b 00 00 83 68 44 44 44 44 44 44 44 34 68 00 10 00 ; ...hDDDDDDD4h...
016D74  .dc.b 00 00 68 00 83 42 42 42 83 42 42 42 83 42 42 42 ; ..h..BBB.BBB.BBB
016D84  .dc.b 83 42 42 42 83 42 42 42 83 68 00 00 00 00 00 00 ; .BBB.BBB.h......
016D94  .dc.b 00 34 68 00 00 00 00 00 68 00 83 24 24 24 83 24 ; .4h.....h..$$$.$
016DA4  .dc.b 24 24 83 24 24 24 83 24 24 24 83 24 24 24 83 68 ; $$.$$$.$$$.$$$.h
016DB4  .dc.b 00 00 00 00 00 00 00 34 64 FF FF FF 07 FE C4 FE ; .......4d.......
016DC4  .dc.b 03 00 00 00 83 00 00 00 83 00 00 00 83 00 00 00 ; ................
016DD4  .dc.b 83 00 00 00 83 69 FF 83 FF FF FF 07 FF 64 72 00 ; .....i.......dr.
016DE4  .dc.b 00 00 F0 01 82 00 03 FF FF FF 03 FF FF FF 03 FF ; ................
016DF4  .dc.b FF FF 03 FF FF FF 03 FF FF FF 06 C4 00 3C 00 00 ; .............<..
016E04  .dc.b 00 78 00 CC 79 0F FF FE F1 E3 39 0E 00 F0 18 0C ; .x..y.....9.....
016E14  .dc.b 3C F0 18 0C 3C F0 18 0C 3C F0 18 0C 3C F0 18 0C ; <...<...<...<...
016E24  .dc.b 0D 92 1F 78 FB FF BE F1 F1 9C 7C 87 FF FE 71 C6 ; ...x......|...q.
016E34  .dc.b 7C 87 00 3C 3C 30 38 3C 3C 30 38 3C 3C 30 38 3C ; |..<<08<<08<<08<
016E44  .dc.b 3C 30 38 3C 3C 30 1B 39 0F 78 FD FF 7E F1 E3 3E ; <08<<0.9.x..~..>
016E54  .dc.b 7A 43 FF FE 71 8C FA 43 80 0F 00 C0 60 0F 00 C0 ; zC..q..C....`...
016E64  .dc.b 60 0F 00 C0 60 0F 00 C0 60 0F 00 C0 36 74 87 78 ; `...`...`...6t.x
016E74  .dc.b FE FE FE F1 C6 7C 6D 21 FF FE 71 19 ED 21 C0 03 ; .....|m!..q..!..
016E84  .dc.b 3C 80 C0 03 3C 80 C0 03 3C 80 C0 03 3C 80 C0 03 ; <...<...<...<...
016E94  .dc.b 3C 80 6C FA 43 78 FF 7D FE F1 8C F4 7E F0 00 00 ; <.l.Cx.}....~...
016EA4  .dc.b 80 3F FE F0 00 03 00 81 98 03 00 81 98 03 00 81 ; .?..............
016EB4  .dc.b 98 03 00 81 98 03 00 80 DF FD E0 40 00 00 00 80 ; ...........@....
016EC4  .dc.b 1F FC C0 00 00 00 80 C1 00 00 00 FF 3C 7F 3C 3F ; ............<.<?
016ED4  .dc.b 3C 7F 3C 3F 3C 7F 3C 3F 3C 7F 3C 3F 3C 7F E0 80 ; <.<?<.<?<.<?<...
016EE4  .dc.b 00 00 00 00 00 00 60 80 00 00 00 00 00 00 00 00 ; ......`.........
016EF4  .dc.b 00 01 01 00 00 01 01 00 00 01 01 00 00 01 01 00 ; ................
016F04  .dc.b 00 01 01 00 03 00 00 00 00 00 00 00 00 00 02 00 ; ................
016F14  .dc.b 00 00 06 08 00 43 7F FF FF FF FF FF FF FF FF FF ; .....C..........
016F24  .dc.b FF FF FF FF FF FF FF FF FF FF FF 02 00 00 00 00 ; ................
016F34  .dc.b 00 00 00 01 07 FF FF FF 86 04 00 83 7F FF FF FF ; ................
016F44  .dc.b FF FF FF FF FF FF FF FF FF FF FF FF FF FF FF FF ; ................
016F54  .dc.b FF 07 FF FF FF FF FF FF FF 83 07 FF FF FF C6 02 ; ................
016F64  .dc.b 01 03 60 1F FF F8 00 1F FF F8 00 1F FF F8 00 1F ; ..`.............
016F74  .dc.b FF F8 00 1F FF F8 07 07 00 00 00 00 00 00 00 83 ; ................
016F84  .dc.b 07 FF FF FF C6 01 02 03 60 7F 7F BE 00 7F 7F BE ; ........`.......
016F94  .dc.b 00 7F 7F BE 00 7F 7F BE 00 7F 7F BE 07 07 00 00 ; ................
016FA4  .dc.b 00 00 00 00 00 83 07 FF FF FF E6 00 FC 03 61 FC ; ..............a.
016FB4  .dc.b 00 6F 81 FC 04 6F 81 FC 00 6F 81 FC 00 6F 81 FC ; .o...o...o...o..
016FC4  .dc.b 00 6F 87 07 00 00 00 00 00 00 00 83 07 FF FF FF ; .o..............
016FD4  .dc.b E6 00 00 0F 67 F3 FF FB E7 F0 03 1B E7 F0 7E 1B ; ....g.........~.
016FE4  .dc.b E7 F0 00 1B E7 F0 00 1B E7 07 00 00 00 00 00 00 ; ................
016FF4  .dc.b 00 83 07 FF FF FF C7 00 00 3F 67 CF FF FE E7 C0 ; .........?g.....
017004  .dc.b 01 C6 E7 C1 FF 86 E7 C0 00 06 E7 CC 00 36 E7 07 ; .............6..
017014  .dc.b 00 00 00 00 00 00 00 83 07 FF FF FF C7 C0 00 FF ; ................
017024  .dc.b 67 3F FF FF 67 00 00 E1 67 01 87 81 67 01 00 41 ; g?..g...g...g..A
017034  .dc.b 67 17 00 E9 67 07 00 00 00 00 00 00 00 83 07 FF ; g...g...........
017044  .dc.b FF FF BF F0 03 FF 67 7F FF FF 67 00 00 78 67 03 ; ......g...g..xg.
017054  .dc.b 03 C0 67 03 66 C0 67 0C 00 30 67 07 FF FF FF FF ; ..g.f.g..0g.....
017064  .dc.b FF FF FF 83 07 FF FF FF BD FE 07 FF 67 7F FF FF ; ............g...
017074  .dc.b 67 00 00 3C 67 02 02 C0 67 03 81 C0 67 06 00 60 ; g..<g...g...g..`
017084  .dc.b 67 07 FF FF FF FF FF FF FF 83 06 00 80 00 00 00 ; g...............
017094  .dc.b 06 00 67 7F FF FF 67 00 00 00 67 02 06 C0 67 03 ; ..g...g...g...g.
0170A4  .dc.b DB C0 67 0C 00 30 67 06 00 00 00 00 00 00 00 03 ; ..g..0g.........
0170B4  .dc.b 06 00 00 00 00 00 06 00 7F 7F FF FF 7F 3C 0F FF ; .............<..
0170C4  .dc.b 7F 03 0D C0 7F 04 C3 20 7F 07 00 E0 7F 06 00 00 ; ....... ........
0170D4  .dc.b 00 00 00 00 00 03 3C 00 08 00 00 00 3C 00 7E 7F ; ......<.....<.~.
0170E4  .dc.b FF FF 7E 0E 0F FC 7E 03 FB C0 FE 08 66 10 FE 0C ; ..~...~.....f...
0170F4  .dc.b 00 30 7E 3C 00 00 00 00 00 00 00 1E 02 10 10 00 ; .0~<............
017104  .dc.b 00 00 02 00 3F 7F FF FF 3F 07 0F F0 3F 03 E6 C0 ; ....?...?...?...
017114  .dc.b 3F 10 7E 08 3F 06 00 60 3F 02 00 00 00 00 00 00 ; ?.~.?..`?.......
017124  .dc.b 00 01 06 00 01 00 00 00 06 00 7F 7F FF FF 7F 01 ; ................
017134  .dc.b 8F C0 7F 01 19 80 7F 10 E7 08 7F 0C 00 30 7F 06 ; .............0..
017144  .dc.b 00 00 00 00 00 00 00 03 06 24 04 00 00 00 06 00 ; .........$......
017154  .dc.b 67 7F FF FF 67 00 CF 00 67 01 E3 80 67 19 BD 98 ; g...g...g...g...
017164  .dc.b 67 17 00 E8 67 06 00 00 00 00 00 00 00 03 06 02 ; g...g...........
017174  .dc.b 10 00 00 00 06 00 67 7F FF FF 67 00 2C 00 67 00 ; ......g...g.,.g.
017184  .dc.b 7E 00 67 1F BD F8 67 0C 00 30 67 06 00 00 00 00 ; ~.g...g..0g.....
017194  .dc.b 00 00 00 03 06 04 10 00 00 00 06 00 67 00 00 00 ; ............g...
0171A4  .dc.b 67 00 00 00 67 00 00 00 67 00 00 00 67 00 00 00 ; g...g...g...g...
0171B4  .dc.b 67 06 00 00 00 00 00 00 00 03 06 08 10 00 00 00 ; g...............
0171C4  .dc.b 06 00 67 00 00 00 67 00 00 00 67 00 00 00 67 00 ; ..g...g...g...g.
0171D4  .dc.b 00 00 67 00 00 00 67 06 00 00 00 00 00 00 00 03 ; ..g...g.........
0171E4  .dc.b 06 10 00 00 00 00 06 00 7F 00 00 00 7F 00 00 00 ; ................
0171F4  .dc.b 7F 00 00 00 7F 00 00 00 7F 00 00 00 7F 06 00 00 ; ................
017204  .dc.b 00 00 00 00 00 03 3C 01 48 00 00 00 3C 00 7E 00 ; ......<.H...<.~.
017214  .dc.b 00 00 7E 00 00 00 7E 00 00 00 FE 00 00 00 FE 00 ; ..~...~.........
017224  .dc.b 00 00 7E 3C 00 00 00 00 00 00 00 1E 02 04 04 00 ; ..~<............
017234  .dc.b 00 00 02 00 3F 00 00 00 3F 00 00 00 3F 00 00 00 ; ....?...?...?...
017244  .dc.b 3F 00 00 00 3F 00 00 00 3F 02 00 00 00 00 00 00 ; ?...?...?.......
017254  .dc.b 00 01 06 00 24 00 00 00 06 00 7F 00 00 00 7F 00 ; ....$...........
017264  .dc.b 00 00 7F 00 00 00 7F 00 00 00 7F 00 00 00 7F 06 ; ................
017274  .dc.b 00 00 00 00 00 00 00 03 06 00 04 00 00 00 06 00 ; ................
017284  .dc.b 67 00 00 00 67 00 00 00 67 00 00 00 67 00 00 00 ; g...g...g...g...
017294  .dc.b 67 00 00 00 67 06 00 00 00 00 00 00 00 03 06 00 ; g...g...........
0172A4  .dc.b 04 00 00 00 06 00 67 00 00 00 67 00 00 00 67 00 ; ......g...g...g.
0172B4  .dc.b 00 00 67 00 00 00 67 00 00 00 67 06 00 00 00 00 ; ..g...g...g.....
0172C4  .dc.b 00 00 00 03 06 00 00 00 00 00 06 00 67 00 00 00 ; ............g...
0172D4  .dc.b 67 00 00 00 67 00 00 00 67 00 00 00 67 00 00 00 ; g...g...g...g...
0172E4  .dc.b 67 06 00 00 00 00 00 00 00 03 03 00 00 00 00 00 ; g...............
0172F4  .dc.b 03 01 E7 00 00 00 67 00 00 00 67 00 00 00 67 00 ; ......g...g...g.
017304  .dc.b 00 00 67 00 00 00 67 06 00 00 00 00 00 00 00 03 ; ..g...g.........
017314  .dc.b 01 FF FF FF 0F FC 01 FF FF C0 00 00 FF C0 00 00 ; ................
017324  .dc.b FF C0 00 00 FF C0 00 00 FF C0 00 00 FE 03 FF 83 ; ................
017334  .dc.b FF FF FF 07 FE 03 00 FF FF FF 0F F8 00 FF FF FF ; ................
017344  .dc.b E7 F3 C3 FF E7 F3 C3 FF E7 F3 C3 FF E7 F3 C3 FF ; ................
017354  .dc.b E7 F3 FC 01 FF 87 FF FF FF 0F FC 03 00 7F FF FF ; ................
017364  .dc.b 8F F0 00 7F FF FF C3 CF C7 FF C3 CF C7 FF C3 CF ; ................
017374  .dc.b C7 FF C3 CF C7 FF C3 CF F8 00 FF 87 FF FF FF 0F ; ................
017384  .dc.b F8 01 04 3F FF FF 8F E0 04 3F FF FF 3C 3F 9F FF ; ...?.....?..<?..
017394  .dc.b 3C 3F 9F FF 3C 3F 9F FF 3C 3F 9F FF 3C 3F F0 08 ; <?..<?..<?..<?..
0173A4  .dc.b 7F 87 FF FF FF 0F F0 03 02 1F FF FF 8F C0 02 1F ; ................
0173B4  .dc.b FF FF C3 7F 3F FF C3 7F 3F FF C3 7F 3F FF C3 7F ; ....?...?...?...
0173C4  .dc.b 3F FF C3 7F E0 04 3F 87 FF FF FF 0F E0 03 01 0F ; ?.....?.........
0173D4  .dc.b FF FF 7F 80 01 0F FF FF 3C 7E 7F FF 3C 7E 7F FF ; ........<~..<~..
0173E4  .dc.b 3C 7E 7F FF 3C 7E 7F FF 3C 7F C0 02 1F BF FF FF ; <~..<~..<.......
0173F4  .dc.b FF 7F C0 03 3F FF FF FF 7B 3E FF FF FF FF C3 FC ; ....?...{>......
017404  .dc.b FF FF C3 FC FF FF C3 FC FF FF C3 FC FF FF C3 FF ; ................
017414  .dc.b 9F 7F FF FD FF FF FF FB 9F 7F 00 00 00 00 00 00 ; ................
017424  .dc.b 00 00 FF FF FF FF FF FF FF FF FF FF FF FF FF FF ; ................
017434  .dc.b FF FF FF FF FF FF FF 00 00 00 00 00 00 00 00 00 ; ................
017444  .dc.b 00 00 00 00 00 00 00 00 FF FF FF FF FF FF FF FF ; ................
017454  .dc.b FF FF FF FF FF FF FF FF FF FF FF FF FF 00 00 00 ; ................
017464  .dc.b 00 00 00 00 00 00 00 00 00 00 00 00 00 00 FF FF ; ................
017474  .dc.b FF FF FF FF FF FF FF FF FF FF FF FF FF FF FF FF ; ................
017484  .dc.b FF FF FF 00 00 00 00 00 00 00 00 00 10 00 00 00 ; ................
017494  .dc.b 00 30 38 18 FF FF FF FF FF FF FF FF FF FF FF FF ; .08.............
0174A4  .dc.b FF FF FF FF FF FF FF FF FF 10 FF FF FF FF FF FF ; ................
0174B4  .dc.b FF 08 10 00 00 00 00 30 00 18 FF FF 7F FF FF FF ; .......0........
0174C4  .dc.b 7F FF FF FF 7F FF FF FF 7F FF FF FF 7F FF FF 10 ; ................
0174D4  .dc.b FF FF FF FF FF FF FF 08 10 00 00 00 00 00 00 00 ; ................
0174E4  .dc.b FF FC 00 3F FF FC 00 3F FF FC 00 3F FF FC 00 3F ; ...?...?...?...?
0174F4  .dc.b FF FC 00 3F FF 10 FF FF FF FF FF FF FF 08 10 00 ; ...?............
017504  .dc.b 00 00 00 00 00 00 FF F0 00 0F FF F0 00 0F FF F0 ; ................
017514  .dc.b 00 0F FF F0 00 0F FF F0 00 0F FF 10 FF FF FF FF ; ................
017524  .dc.b FF FF FF 08 10 00 00 00 00 01 FF 00 FF C0 00 03 ; ................
017534  .dc.b FF C0 00 03 FF C0 00 03 FF C0 00 03 FF C3 00 C3 ; ................
017544  .dc.b FF 10 FF FF FF FF FF FF FF 08 10 00 00 00 00 00 ; ................
017554  .dc.b 7C 00 FF 00 00 00 FF 00 00 00 FF 00 00 00 FF 00 ; |...............
017564  .dc.b 00 00 FF 00 E7 00 FF 10 00 00 00 00 00 00 00 08 ; ................
017574  .dc.b 10 00 00 00 00 00 10 00 FF 00 00 00 FF 00 00 00 ; ................
017584  .dc.b FF 00 00 00 FF 00 00 00 FF 03 00 C0 FF 10 00 00 ; ................
017594  .dc.b 00 00 00 00 00 08 10 00 00 00 00 00 10 00 FF 00 ; ................
0175A4  .dc.b 00 00 FF 00 00 00 FF 00 00 00 FF 00 3C 00 FF 01 ; ............<...
0175B4  .dc.b C3 80 FF 10 00 00 00 00 00 00 00 08 10 00 78 00 ; ..............x.
0175C4  .dc.b 00 00 10 00 FF 00 00 00 FF 00 00 00 FF 00 00 00 ; ................
0175D4  .dc.b FF 00 24 00 FF 03 00 C0 FF 10 00 00 00 00 00 00 ; ..$.............
0175E4  .dc.b 00 08 00 00 F8 00 00 00 10 00 FF 00 00 00 FF 00 ; ................
0175F4  .dc.b 00 00 FF 00 00 00 FF 00 3C 00 FF 00 E7 00 FF 00 ; ........<.......
017604  .dc.b 00 00 00 00 00 00 00 00 00 00 F3 00 00 00 00 00 ; ................
017614  .dc.b FE 00 00 00 FE 00 00 00 FE 00 00 00 FE 00 00 00 ; ................
017624  .dc.b FE 03 00 C0 FE 00 00 00 00 00 00 00 00 00 00 0F ; ................
017634  .dc.b EF 00 00 00 00 00 FF 00 00 00 FF 00 00 00 FF 00 ; ................
017644  .dc.b 00 00 7F 00 00 00 7F 01 C3 80 FF 00 00 00 00 00 ; ................
017654  .dc.b 00 00 00 00 00 3F FE 20 00 00 00 00 FF 00 00 00 ; .....?. ........
017664  .dc.b FF 00 00 00 FF 00 00 00 FF 00 00 00 FF 03 00 C0 ; ................
017674  .dc.b FF 00 00 00 00 00 00 00 00 00 10 19 F8 30 00 00 ; .............0..
017684  .dc.b 10 00 FF 00 00 00 FF 00 00 00 FF 00 00 00 FF 00 ; ................
017694  .dc.b 00 00 FF 00 E7 00 FF 10 00 00 00 00 00 00 00 08 ; ................
0176A4  .dc.b 10 01 E0 38 00 00 10 00 FF 00 00 00 FF 00 00 00 ; ...8............
0176B4  .dc.b FF 00 00 00 FF 00 00 00 FF 03 00 C0 FF 10 00 00 ; ................
0176C4  .dc.b 00 00 00 00 00 08 10 03 E1 FC 00 00 10 00 FF 00 ; ................
0176D4  .dc.b 00 00 FF 00 00 00 FF 00 00 00 FF 00 00 00 FF 00 ; ................
0176E4  .dc.b 00 00 FF 10 00 00 00 00 00 00 00 08 10 07 E1 FC ; ................
0176F4  .dc.b 00 00 10 00 FF 00 00 00 FF 00 00 00 FF 00 00 00 ; ................
017704  .dc.b FF 00 00 00 FF 00 00 00 FF 10 00 00 00 00 00 00 ; ................
017714  .dc.b 00 08 00 0F F0 38 00 00 00 00 FF 00 00 00 FF 00 ; .....8..........
017724  .dc.b 00 00 FF 00 00 00 FF 00 00 00 FF 00 00 00 FF 00 ; ................
017734  .dc.b 00 00 00 00 00 00 00 00 00 7E 30 30 00 00 00 00 ; .........~00....
017744  .dc.b FE 00 00 00 FE 00 00 00 FE 00 00 00 FE 00 00 00 ; ................
017754  .dc.b FE 00 00 00 FE 00 00 00 00 00 00 00 00 00 00 78 ; ...............x
017764  .dc.b 38 20 00 00 00 00 FF 00 00 00 FF 00 00 00 FF 00 ; 8 ..............
017774  .dc.b 00 00 7F 00 00 00 7F 00 00 00 FF 00 00 00 00 00 ; ................
017784  .dc.b 00 00 00 00 00 00 18 00 00 00 00 00 FF 00 00 00 ; ................
017794  .dc.b FF 00 00 00 FF 00 00 00 FF 00 00 00 FF 00 00 00 ; ................
0177A4  .dc.b FF 00 00 00 00 00 00 00 00 00 10 00 18 00 00 00 ; ................
0177B4  .dc.b 10 00 FF 00 00 00 FF 00 00 00 FF 00 00 00 FF 00 ; ................
0177C4  .dc.b 00 00 FF 00 00 00 FF 10 00 00 00 00 00 00 00 08 ; ................
0177D4  .dc.b 10 00 18 00 00 00 10 00 FF 00 00 00 FF 00 00 00 ; ................
0177E4  .dc.b FF 00 00 00 FF 00 00 00 FF 00 00 00 FF 10 00 00 ; ................
0177F4  .dc.b 00 00 00 00 00 08 10 00 00 00 00 00 10 00 FF 00 ; ................
017804  .dc.b 00 00 FF 00 00 00 FF 00 00 00 FF 00 00 00 FF 00 ; ................
017814  .dc.b 00 00 FF 10 00 00 00 00 00 00 00 08 18 00 00 00 ; ................
017824  .dc.b 00 00 38 00 7F 00 00 00 FF 00 00 00 FF 00 00 00 ; ..8.............
017834  .dc.b FF 00 00 00 FF 00 00 00 FF 10 00 00 00 00 00 00 ; ................
017844  .dc.b 00 18 0C 00 00 00 00 00 7C 00 3F C0 00 03 FF C0 ; ........|.?.....
017854  .dc.b 00 03 FF C0 00 03 FF C0 00 03 FF C0 00 03 FE 38 ; ...............8
017864  .dc.b 00 00 00 00 00 00 00 30 06 00 00 00 00 00 C6 00 ; .......0........
017874  .dc.b 1F F0 00 0F C3 F0 00 0F C3 F0 00 0F C3 F0 00 0F ; ................
017884  .dc.b C3 F0 00 0F FC 6C 00 00 00 00 00 00 00 60 03 00 ; .....l.......`..
017894  .dc.b 00 00 00 01 83 00 0F FC 00 3F C3 FC 00 3F C3 FC ; .........?...?..
0178A4  .dc.b 00 3F C3 FC 00 3F C3 FC 00 3F F8 C6 00 00 00 00 ; .?...?...?......
0178B4  .dc.b 00 00 00 C0 01 80 00 00 00 03 01 80 07 FF 00 FF ; ................
0178C4  .dc.b 81 FF 00 FF 81 FF 00 FF 81 FF 00 FF 81 FF 00 FF ; ................
0178D4  .dc.b F1 83 00 00 00 00 00 00 01 80 10 C0 00 00 00 06 ; ................
0178E4  .dc.b 10 C0 03 FF 00 FF 00 FF 00 FF 00 FF 00 FF 00 FF ; ................
0178F4  .dc.b 00 FF 00 FF 00 FF E3 01 80 00 00 00 00 00 03 08 ; ................
017904  .dc.b 00 00 00 00 00 00 00 00 01 FF 00 FE 00 7F 00 FE ; ................
017914  .dc.b 00 7F 00 FE 00 7F 00 FE 00 7F 00 FF C0 00 00 00 ; ................
017924  .dc.b 00 00 00 00 00 00 00 00 00 00 00 00 00 00 00 FF ; ................
017934  .dc.b 00 FC 00 3F 00 FC 00 3F 00 FC 00 3F 00 FC 00 3F ; ...?...?...?...?
017944  .dc.b 00 FF 80 00 00 00 00 00 00 00 00 00 06 8C D8 7C ; ...............|
017954  .dc.b 3E 1B 31 60 FF FF FF FF FF FF FF FF 18 24 66 6E ; >.1`.........$fn
017964  .dc.b 76 66 24 18 18 18 38 18 18 18 18 3C 18 26 66 0C ; vf$...8....<.&f.
017974  .dc.b 30 20 66 7E 18 24 06 1C 06 06 24 18 60 66 66 66 ; 0 f~.$....$.`fff
017984  .dc.b 7F 06 06 06 7E 66 60 78 04 66 24 18 18 26 60 78 ; ....~f`x.f$..&`x
017994  .dc.b 64 66 24 18 7E 66 66 0C 08 18 18 18 18 24 66 3C ; df$.~ff......$f<
0179A4  .dc.b 66 66 24 18 18 24 66 26 1E 06 64 18 24 42 00 00 ; ff$..$f&..d.$B..
0179B4  .dc.b 00 00 42 24 00 20 00 00 00 00 00 00 24 40 00 00 ; ..B$. ......$@..
0179C4  .dc.b 08 40 00 00 24 42 00 00 00 00 42 24 00 00 00 00 ; .@..$B....B$....
0179D4  .dc.b 00 00 00 00 00 00 00 04 02 00 42 24 24 40 00 04 ; ..........B$$@..
0179E4  .dc.b 02 00 42 24 00 00 00 00 10 00 00 00 24 42 00 00 ; ..B$........$B..
0179F4  .dc.b 00 00 42 24 24 42 00 40 20 00 02 24 38 7C C6 C6 ; ..B$$B.@ ..$8|..
017A04  .dc.b CE DE F6 E6 C6 C6 7C 38 08 18 38 78 18 18 18 18 ; ......|8..8x....
017A14  .dc.b 18 18 7E 7E 38 7C C6 06 04 08 10 20 40 C2 FE FE ; ..~~8|..... @...
017A24  .dc.b 38 7C C6 06 0C 3C 3C 0C 06 C6 7C 38 0C 1C 1C 3C ; 8|...<<...|8...<
017A34  .dc.b 2C 4C 4C FE FE 0C 0C 0C FE FE C0 C0 C0 F8 FC 06 ; ,LL.............
017A44  .dc.b 06 C6 7C 38 38 7C C6 C0 C0 F8 FC C6 C6 C6 7C 38 ; ..|88|........|8
017A54  .dc.b FE FE C6 04 04 08 08 18 18 18 18 18 38 7C C6 C6 ; ............8|..
017A64  .dc.b 44 7C 7C C6 C6 C6 7C 38 38 7C C6 C6 C6 7E 3E 06 ; D||...|88|...~>.
017A74  .dc.b 06 C6 7C 38 44 82 00 00 00 00 00 00 00 00 82 44 ; ..|8D..........D
017A84  .dc.b 10 20 40 00 00 00 00 00 00 00 00 00 44 82 00 00 ; . @.........D...
017A94  .dc.b 0A 14 28 50 A0 00 00 00 44 82 00 00 02 00 00 02 ; ..(P....D.......
017AA4  .dc.b 00 00 82 44 10 00 20 00 40 20 80 00 00 00 00 00 ; ...D.. .@ ......
017AB4  .dc.b 00 00 00 00 00 04 02 00 00 00 82 44 44 82 00 00 ; ...........DD...
017AC4  .dc.b 00 04 02 00 00 00 82 44 00 00 00 02 08 04 10 00 ; .......D........
017AD4  .dc.b 00 00 00 00 44 82 00 00 82 00 82 00 00 00 82 44 ; ....D..........D
017AE4  .dc.b 44 82 00 00 00 80 40 00 00 00 82 44 FF FE FF FF ; D.....@....D....
017AF4  .dc.b FF FE FF FF FF FC FF FE 80 00 FF FF FD 2E FE 1C ; ................
017B04  .dc.b 98 04 FF FF F4 BE F8 7C A0 1C FF FF D2 FA E1 FC ; .......|........
017B14  .dc.b 80 70 FF FF CB EA C7 F0 81 C0 FF FF EF A2 DF C0 ; .p..............
017B24  .dc.b 87 00 FF FF FE 8A FF 04 9C 00 FF FF FA 2E FC 1C ; ................
017B34  .dc.b B0 04 FF FF E8 BE F0 7C 80 18 FF FF E2 F6 C1 F8 ; .......|........
017B44  .dc.b 80 60 FF FF CB D6 C7 E0 81 80 FF FF EF 56 DF 8C ; .`...........V..
017B54  .dc.b 86 00 FF FF BF FE C0 00 80 00 FF FF 00 00 80 00 ; ................
017B64  .dc.b 00 00 FF FF 00 00 00 00 00 00 00 00 00 00 00 00 ; ................
017B74  .dc.b 75 5C 00 00 45 48 00 00 62 48 00 00 45 48 40 00 ; u\..EH..bH..EH@.
017B84  .dc.b 75 48 80 00 00 01 00 00 7F F2 00 00 00 04 00 00 ; uH..............
017B94  .dc.b 00 08 00 00 00 00 00 00 00 00 00 00 00 00 00 00 ; ................
017BA4  .dc.b 75 5C 00 00 45 48 00 00 62 48 00 00 45 48 00 00 ; u\..EH..bH..EH..
017BB4  .dc.b 75 48 00 00 00 00 00 00 00 00 00 00 00 00 00 00 ; uH..............
017BC4  .dc.b 00 00 00 00 00 08 00 00 00 0C 00 00 FF FE 00 00 ; ................
017BD4  .dc.b FF FF 00 00 FF FF 80 00 FF FF C0 00 FF FF 80 00 ; ................
017BE4  .dc.b FF FF 00 00 FF FE 00 00 00 0C 00 00 00 08 00 00 ; ................
017BF4  .dc.b 00 00 00 00 00 08 00 00 00 0C 00 00 FF FE 00 00 ; ................
017C04  .dc.b FF FF 00 00 FF FF 80 00 FF FF C0 00 FF FF C0 00 ; ................
017C14  .dc.b FF FF 80 00 FF FF 00 00 7F FE 00 00 00 0C 00 00 ; ................
017C24  .dc.b 00 08 00 00 3F F0 3F E0 F0 38 FF C3 FF 03 C0 E3 ; ....?.?..8......
017C34  .dc.b 80 E3 FF D0 0F F4 7F F8 7F F0 E0 3C FF D3 FF 43 ; ...........<...C
017C44  .dc.b 80 F3 C0 F3 FE 30 1F FA FF B0 FF F4 E8 3C FC 13 ; .....0.......<..
017C54  .dc.b F0 43 A0 F3 C0 F3 F2 F0 3E 0D EF E4 EF 94 F0 3C ; .C......>......<
017C64  .dc.b B5 F2 D7 C3 C0 F3 C0 F3 FF F0 3B F5 F0 0C F0 04 ; ..........;.....
017C74  .dc.b F4 34 0D 00 34 03 D0 D3 40 D3 40 00 36 07 F0 1C ; .4..4...@.@.6...
017C84  .dc.b F0 04 E8 34 0D 00 34 03 A0 D3 40 D3 40 00 34 05 ; ...4..4...@.@.4.
017C94  .dc.b F0 00 F0 14 CA 3C 0D 00 34 03 28 F3 C0 F3 40 00 ; .....<..4.(...@.
017CA4  .dc.b 0C 07 F0 00 F0 14 EC 3C 0D 00 34 03 B0 F3 C0 F3 ; .......<..4.....
017CB4  .dc.b 40 00 3C 07 D0 00 D0 34 D5 34 0D 00 34 03 54 D3 ; @.<....4.4..4.T.
017CC4  .dc.b 40 D3 40 00 00 1F D0 00 D0 34 DE 34 0D 00 34 03 ; @.@......4.4..4.
017CD4  .dc.b 78 D3 40 D3 C0 00 00 2B F0 00 F0 34 D2 B4 0D 00 ; x.@....+...4....
017CE4  .dc.b 34 03 4A D3 C0 D3 7F 40 00 72 F0 00 F0 34 D7 34 ; 4.J....@.r...4.4
017CF4  .dc.b 0D 00 34 03 5C D3 40 D3 FF C0 00 F6 D0 00 D0 34 ; ..4.\.@........4
017D04  .dc.b D1 74 0D 00 34 03 45 D3 40 D3 CB C0 01 CC D0 00 ; .t..4.E.@.......
017D14  .dc.b D0 34 D2 B4 0D 00 34 03 4A D3 40 D3 FF C0 03 D8 ; .4....4.J.@.....
017D24  .dc.b F0 00 D0 34 D0 B4 0D 00 34 03 42 D3 40 D3 40 00 ; ...4....4.B.@.@.
017D34  .dc.b 01 B0 D0 00 D0 34 D1 74 0D 00 34 03 45 D3 40 D3 ; .....4.t..4.E.@.
017D44  .dc.b 40 00 03 A0 F0 00 F0 34 D0 74 0D 00 34 03 41 D3 ; @......4.t..4.A.
017D54  .dc.b C0 D3 40 00 01 60 70 00 F0 34 D0 B4 0D 00 34 03 ; ..@..`p..4....4.
017D64  .dc.b 42 D3 40 D3 40 00 03 E0 F0 38 70 34 D0 34 0D 00 ; B.@.@....8p4.4..
017D74  .dc.b 34 03 40 D1 40 D3 C0 00 00 00 70 34 70 34 90 64 ; 4.@.@.....p4p4.d
017D84  .dc.b 0D 00 34 02 41 91 C0 D3 C0 00 00 00 5B F4 5F FC ; ..4.A.......[._.
017D94  .dc.b D0 34 0D 03 FF 43 40 D1 7F F3 FF 90 03 A0 9F CC ; .4...C@.........
017DA4  .dc.b 8F EC 90 24 0D 03 FC C2 40 92 3F B3 FF 30 03 60 ; ...$....@.?..0.`
017DB4  .dc.b 40 38 40 38 30 0C 03 03 9B C0 C0 31 00 E2 09 F0 ; @8@80......1....
017DC4  .dc.b 02 E0 3F F0 3F F0 F0 3C 0F 01 FF C3 C0 F0 FF C3 ; ..?.?..<........
017DD4  .dc.b FF F0 03 E0 00 00 00 00 00 00 00 00 00 00 00 00 ; ................
017DE4  .dc.b 00 00 00 00 00 00 00 00 00 00 00 00 00 00 00 00 ; ................
017DF4  .dc.b 00 00 00 00 00 00 00 00 00 00 00 00 00 00 00 00 ; ................
017E04  .dc.b 00 00 00 00 00 00 00 00 00 00 00 00 00 00 00 00 ; ................
017E14  .dc.b 00 00 00 00 00 00 00 00 00 00 00 00 00 00 00 3C ; ...............<
017E24  .dc.b 3C FF 10 FF 80 00 30 F0 38 3F C0 00 00 00 00 00 ; <.....0.8?......
017E34  .dc.b 00 3C 34 EF F1 BF 60 00 68 F8 3C 79 E0 00 00 00 ; .<4...`.h.<y....
017E44  .dc.b 00 00 00 3C 34 F0 03 C0 90 00 D8 FC 34 E0 10 00 ; ...<4.......4...
017E54  .dc.b 00 00 00 00 00 3C 3C D0 03 40 70 01 B0 DE 30 E0 ; .....<<..@p...0.
017E64  .dc.b 1C 00 00 00 00 00 00 34 3C D0 03 40 00 03 60 EF ; .......4<..@..`.
017E74  .dc.b 34 D0 34 00 00 00 00 00 00 3A 6C D0 03 00 00 06 ; 4.4......:l.....
017E84  .dc.b C0 DE BC F0 34 00 00 00 00 00 00 16 58 FE 40 FF ; ....4.......X.@.
017E94  .dc.b 80 0D 80 D7 74 D0 34 00 00 00 00 00 00 0B B0 EF ; ....t.4.........
017EA4  .dc.b C0 97 C0 1B 00 D3 A4 D0 24 00 00 00 00 00 00 07 ; ........$.......
017EB4  .dc.b 60 D0 00 00 70 36 00 B1 F4 D0 34 00 00 00 00 00 ; `...p6....4.....
017EC4  .dc.b 00 03 C0 D0 00 00 D0 6C 00 D0 EC D0 3C 00 00 00 ; .......l....<...
017ED4  .dc.b 00 00 00 03 C0 D0 03 80 D0 D8 00 B0 6C D0 2C 00 ; ............l.,.
017EE4  .dc.b 00 00 00 00 00 02 C0 D0 03 80 B1 B0 00 B0 2C D0 ; ..............,.
017EF4  .dc.b 2C 00 00 00 00 00 00 02 C0 FF B0 FF 63 60 00 70 ; ,...........c`.p
017F04  .dc.b 1C 3F 98 00 00 00 00 00 00 03 C0 FF F0 3F C2 C0 ; .?...........?..
017F14  .dc.b 00 F0 3C 09 F0 00 00 00 3F F0 3F F0 F0 3C FF F3 ; ..<.....?.?..<..
017F24  .dc.b FF C3 C0 F3 C0 F3 FF E0 0F F8 7F F8 7F F8 F0 38 ; ...............8
017F34  .dc.b FF E3 FF 83 C0 E3 80 E3 FF C0 1F FC FF FC FF F8 ; ................
017F44  .dc.b F0 38 FF E3 FF 83 C0 E3 80 E3 FD 00 3F FE F0 18 ; .8..........?...
017F54  .dc.b F0 78 F8 38 CE 03 38 03 E0 E3 80 E3 80 00 3C 0E ; .x.8..8.......<.
017F64  .dc.b E0 30 E0 38 F8 38 0E 00 38 03 E0 E3 80 E3 80 00 ; .0.8.8..8.......
017F74  .dc.b 38 0C E0 20 E0 38 FC 38 0E 00 38 03 F0 E3 80 E3 ; 8.. .8.8..8.....
017F84  .dc.b 80 00 38 0E E0 00 E0 38 FC 38 0E 00 38 03 F0 E3 ; ..8....8.8..8...
017F94  .dc.b 80 E3 80 00 30 0C E0 00 E0 38 FE 38 0E 00 38 03 ; ....0....8.8..8.
017FA4  .dc.b F8 E3 80 E3 80 00 00 0C E0 00 E0 38 EE 38 0E 00 ; ...........8.8..
017FB4  .dc.b 38 03 B8 E3 80 E3 80 00 00 0C E0 00 E0 38 E7 38 ; 8............8.8
017FC4  .dc.b 0E 00 38 03 9C E3 80 E3 00 00 00 1C E0 00 E0 38 ; ..8............8
017FD4  .dc.b E7 38 0E 00 38 03 9C E3 80 E3 FF 80 00 3C E0 00 ; .8..8........<..
017FE4  .dc.b E0 38 E3 B8 0E 00 38 03 8E E3 80 E3 FF 00 00 78 ; .8....8........x
017FF4  .dc.b E0 00 E0 38 E3 B8 0E 00 38 03 8E E3 80 E3 F4 00 ; ...8....8.......
018004  .dc.b 00 F0 E0 00 E0 38 E1 F8 0E 00 38 03 87 E3 80 E3 ; .....8....8.....
018014  .dc.b 80 00 01 E0 C0 00 E0 38 E1 F8 0E 00 38 03 87 E3 ; .......8....8...
018024  .dc.b 80 E3 80 00 03 C0 E0 00 E0 38 E0 F8 0E 00 38 03 ; .........8....8.
018034  .dc.b 83 E3 80 E3 80 00 03 C0 C0 00 C0 38 E0 F8 0E 00 ; ...........8....
018044  .dc.b 38 03 83 E3 00 E3 80 00 03 80 C0 00 C0 38 E0 78 ; 8............8.x
018054  .dc.b 0E 00 38 03 81 E3 80 E3 80 00 00 00 C0 3C C0 38 ; ..8..........<.8
018064  .dc.b E0 78 0E 00 38 03 81 E3 80 E3 00 00 00 00 C0 38 ; .x..8..........8
018074  .dc.b C0 38 E0 38 0E 00 38 03 80 E3 00 E3 00 00 00 00 ; .8.8..8.........
018084  .dc.b EF F8 EF F0 E0 38 0E 03 FF 83 80 E3 BF C3 FF E0 ; .....8..........
018094  .dc.b 03 C0 7F F0 7F F0 E0 38 0E 03 FF 03 80 E1 FF C3 ; .......8........
0180A4  .dc.b FF C0 03 80 3F C0 3F C0 C0 30 0C 03 E4 03 00 C0 ; ....?.?..0......
0180B4  .dc.b FF 03 F6 00 03 00 00 00 00 00 00 00 00 02 00 00 ; ................
0180C4  .dc.b 00 00 00 00 00 00 00 00 00 00 00 00 00 00 00 00 ; ................
0180D4  .dc.b 00 00 00 00 00 00 00 00 00 00 00 00 00 00 00 00 ; ................
0180E4  .dc.b 00 00 00 00 00 00 00 00 00 00 00 00 00 00 00 00 ; ................
0180F4  .dc.b 00 00 00 00 00 00 00 00 00 00 00 00 00 00 00 00 ; ................
018104  .dc.b 00 00 00 00 00 00 00 00 00 00 00 00 00 00 00 00 ; ................
018114  .dc.b 00 00 00 38 38 FF E0 FF C0 00 38 F0 3C 3F F0 00 ; ...88.....8.<?..
018124  .dc.b 00 00 00 00 00 30 38 F0 01 C0 C0 00 70 F0 38 7E ; .....08.....p.8~
018134  .dc.b 18 00 00 00 00 00 00 30 38 E0 03 80 E0 00 E0 F8 ; .......08.......
018144  .dc.b 38 F0 3C 00 00 00 00 00 00 30 30 E0 03 80 80 01 ; 8.<......00.....
018154  .dc.b C0 FC 3C F0 38 00 00 00 00 00 00 38 30 E0 03 80 ; ..<.8......80...
018164  .dc.b 00 03 80 FE 38 E0 38 00 00 00 00 00 00 1C 30 E0 ; ....8.8.......0.
018174  .dc.b 03 C0 00 07 00 E7 38 E0 38 00 00 00 00 00 00 0F ; ......8.8.......
018184  .dc.b E0 FF 81 FF C0 0E 00 E3 B8 E0 38 00 00 00 00 00 ; ..........8.....
018194  .dc.b 00 07 C0 F0 00 68 60 1C 00 E1 F8 E0 38 00 00 00 ; .....h`.....8...
0181A4  .dc.b 00 00 00 03 80 E0 00 00 E0 38 00 C0 F8 E0 38 00 ; .........8....8.
0181B4  .dc.b 00 00 00 00 00 03 00 E0 00 00 E0 70 00 E0 70 E0 ; ...........p..p.
0181C4  .dc.b 30 00 00 00 00 00 00 03 00 E0 03 C0 E0 E0 00 C0 ; 0...............
0181D4  .dc.b 30 E0 30 00 00 00 00 00 00 03 00 E0 03 C0 C1 C0 ; 0.0.............
0181E4  .dc.b 00 C0 30 E0 30 00 00 00 00 00 00 03 00 FF C1 FF ; ..0.0...........
0181F4  .dc.b 83 80 00 80 20 7F E0 00 00 00 00 00 00 00 00 80 ; .... ...........
018204  .dc.b 00 C0 03 00 00 00 00 36 00 00 00 00 1F 40 1F 40 ; .......6.....@.@
018214  .dc.b C0 30 FF 83 FE 03 00 C3 00 C3 FB 00 03 D0 3F E0 ; .0............?.
018224  .dc.b 3F E0 C0 30 FA 03 E8 03 00 C3 00 C3 B0 00 0E 80 ; ?..0............
018234  .dc.b 60 00 60 00 C0 30 80 02 00 03 00 C3 00 C3 00 00 ; `.`..0..........
018244  .dc.b 18 00 C0 00 C0 00 C0 30 00 00 00 03 00 C3 00 C3 ; .......0........
018254  .dc.b 00 00 30 04 C0 00 C0 00 D0 30 04 00 10 03 40 C3 ; ..0......0....@.
018264  .dc.b 00 C3 00 00 20 00 C0 00 C0 00 C0 30 04 00 10 03 ; .... ......0....
018274  .dc.b 00 C3 00 C2 00 00 20 00 C0 00 C0 00 C8 30 04 00 ; ...... ......0..
018284  .dc.b 10 03 20 C3 00 C2 00 00 00 04 C0 00 C0 00 C0 30 ; .. ............0
018294  .dc.b 0C 00 30 03 00 C3 00 C3 00 00 00 04 C0 00 C0 00 ; ..0.............
0182A4  .dc.b C4 30 04 00 10 03 10 C3 00 43 00 00 00 00 C0 00 ; .0.......C......
0182B4  .dc.b C0 00 C0 30 04 00 10 03 00 C3 00 41 00 00 00 08 ; ...0.......A....
0182C4  .dc.b C0 00 40 20 40 10 0C 00 30 01 00 41 00 83 32 00 ; ..@ @...0..A..2.
0182D4  .dc.b 00 10 C0 00 C0 20 C0 30 0C 00 30 03 00 C3 00 83 ; ..... .0..0.....
0182E4  .dc.b FC 00 00 60 C0 00 40 00 40 30 04 00 10 01 00 C1 ; ...`..@.@0......
0182F4  .dc.b 00 41 00 00 00 C0 00 00 40 20 40 10 04 00 10 01 ; .A......@ @.....
018304  .dc.b 00 41 00 81 00 00 01 80 80 00 00 30 00 00 0C 00 ; .A.........0....
018314  .dc.b 30 00 00 00 00 C3 00 00 01 00 00 00 00 20 40 10 ; 0............ @.
018324  .dc.b 04 00 10 01 00 40 00 81 00 00 03 00 00 00 00 30 ; .....@.........0
018334  .dc.b 00 20 04 00 10 00 00 80 00 C0 00 00 00 00 00 00 ; . ..............
018344  .dc.b 00 30 00 20 00 00 00 00 00 80 00 C1 00 00 00 00 ; .0. ............
018354  .dc.b 00 10 00 30 00 20 04 00 10 00 00 80 00 C1 00 00 ; ...0. ..........
018364  .dc.b 00 00 00 30 00 20 00 00 04 00 10 00 00 00 00 80 ; ...0. ..........
018374  .dc.b 00 00 00 00 00 E0 00 E0 00 00 00 03 FA 00 00 00 ; ................
018384  .dc.b 03 82 FE 00 03 00 00 00 02 80 00 00 00 02 80 00 ; ................
018394  .dc.b 00 00 0A 02 B0 00 02 00 00 00 00 00 00 00 00 02 ; ................
0183A4  .dc.b 00 00 00 00 00 00 00 00 00 00 00 00 00 00 00 00 ; ................
0183B4  .dc.b 00 00 00 00 00 00 00 00 00 00 00 00 00 00 00 00 ; ................
0183C4  .dc.b 00 00 00 00 00 00 00 00 00 00 00 00 00 00 00 00 ; ................
0183D4  .dc.b 00 00 00 00 00 00 00 00 00 00 00 00 00 00 00 00 ; ................
0183E4  .dc.b 00 00 00 00 00 00 00 00 00 00 00 00 00 00 00 00 ; ................
0183F4  .dc.b 00 00 00 00 00 00 00 00 00 00 00 00 00 00 00 00 ; ................
018404  .dc.b 00 00 00 00 00 00 00 30 30 F4 00 7D 00 00 20 E0 ; .......00..}.. .
018414  .dc.b 38 1F 00 00 00 00 00 00 00 20 20 C0 01 80 00 00 ; 8........  .....
018424  .dc.b 40 E0 30 60 00 00 00 00 00 00 00 20 20 80 01 00 ; @.0`.......  ...
018434  .dc.b 00 00 80 90 20 40 10 00 00 00 00 00 00 20 20 80 ; .... @.......  .
018444  .dc.b 03 00 00 01 00 88 30 C0 10 00 00 00 00 00 00 10 ; ......0.........
018454  .dc.b 20 80 02 00 00 02 00 C4 20 80 10 00 00 00 00 00 ;  ....... .......
018464  .dc.b 00 00 00 80 00 00 00 04 00 82 20 C0 30 00 00 00 ; .......... .0...
018474  .dc.b 00 00 00 04 40 AC 00 BD 00 08 00 80 00 80 20 00 ; ....@......... .
018484  .dc.b 00 00 00 00 00 01 00 40 00 00 00 10 00 80 00 C0 ; .......@........
018494  .dc.b 20 00 00 00 00 00 00 02 00 80 00 00 40 20 00 00 ;  ...........@ ..
0184A4  .dc.b 60 80 00 00 00 00 00 00 00 03 00 80 00 00 40 40 ; `.............@@
0184B4  .dc.b 00 00 20 80 20 00 00 00 00 00 00 02 00 80 03 80 ; .. . ...........
0184C4  .dc.b 80 80 00 80 00 00 20 00 00 00 00 00 00 02 00 00 ; ...... .........
0184D4  .dc.b 02 00 01 00 00 80 00 00 00 00 00 00 00 00 00 00 ; ................
0184E4  .dc.b 00 E4 00 BC 02 00 00 00 00 0F 00 00 00 00 00 00 ; ................
0184F4  .dc.b 00 00 00 80 00 00 00 00 00 00 00 00 00 00 00 00 ; ................
018504  .dc.b 3F F0 3F F0 F0 3C FF F3 FF C3 C0 F3 C0 F3 FF F0 ; ?.?..<..........
018514  .dc.b 0F FC 7F F8 7F F8 F0 3C FF F3 FF C3 C0 F3 C0 F3 ; .......<........
018524  .dc.b FF F0 1F FE FF FC FF FC F8 3C FF F3 FF C3 E0 F3 ; .........<......
018534  .dc.b C0 F3 FF F0 3F FF FF FC FF FC F8 3C FF F3 FF C3 ; ....?......<....
018544  .dc.b E0 F3 C0 F3 FF F0 3F FF F0 3C F0 3C FC 3C 0F 00 ; ......?..<.<.<..
018554  .dc.b 3C 03 F0 F3 C0 F3 C0 00 3E 0F F0 3C F0 3C FC 3C ; <.......>..<.<.<
018564  .dc.b 0F 00 3C 03 F0 F3 C0 F3 C0 00 3C 0F F0 00 F0 3C ; ..<.......<....<
018574  .dc.b FE 3C 0F 00 3C 03 F8 F3 C0 F3 C0 00 3C 0F F0 00 ; .<..<.......<...
018584  .dc.b F0 3C FE 3C 0F 00 3C 03 F8 F3 C0 F3 C0 00 3C 0F ; .<.<..<.......<.
018594  .dc.b F0 00 F0 3C FF 3C 0F 00 3C 03 FC F3 C0 F3 C0 00 ; ...<.<..<.......
0185A4  .dc.b 00 1F F0 00 F0 3C FF 3C 0F 00 3C 03 FC F3 C0 F3 ; .....<.<..<.....
0185B4  .dc.b C0 00 00 3F F0 00 F0 3C F7 BC 0F 00 3C 03 DE F3 ; ...?...<....<...
0185C4  .dc.b C0 F3 FF C0 00 7E F0 00 F0 3C F7 BC 0F 00 3C 03 ; .....~...<....<.
0185D4  .dc.b DE F3 C0 F3 FF C0 00 FE F0 00 F0 3C F3 FC 0F 00 ; ...........<....
0185E4  .dc.b 3C 03 CF F3 C0 F3 FF C0 01 FC F0 00 F0 3C F3 FC ; <............<..
0185F4  .dc.b 0F 00 3C 03 CF F3 C0 F3 FF C0 03 F8 F0 00 F0 3C ; ..<............<
018604  .dc.b F1 FC 0F 00 3C 03 C7 F3 C0 F3 C0 00 03 F0 F0 00 ; ....<...........
018614  .dc.b F0 3C F1 FC 0F 00 3C 03 C7 F3 C0 F3 C0 00 03 E0 ; .<....<.........
018624  .dc.b F0 00 F0 3C F0 FC 0F 00 3C 03 C3 F3 C0 F3 C0 00 ; ...<....<.......
018634  .dc.b 03 E0 F0 00 F0 3C F0 FC 0F 00 3C 03 C3 F3 C0 F3 ; .....<....<.....
018644  .dc.b C0 00 03 E0 F0 3C F0 3C F0 7C 0F 00 3C 03 C1 F3 ; .....<.<.|..<...
018654  .dc.b C0 F3 C0 00 00 00 F0 3C F0 3C F0 7C 0F 00 3C 03 ; .......<.<.|..<.
018664  .dc.b C1 F3 C0 F3 C0 00 00 00 FF FC FF FC F0 3C 0F 03 ; .............<..
018674  .dc.b FF C3 C0 F3 FF F3 FF F0 03 E0 FF FC FF FC F0 3C ; ...............<
018684  .dc.b 0F 03 FF C3 C0 F3 FF F3 FF F0 03 E0 7F F8 7F F8 ; ................
018694  .dc.b F0 3C 0F 03 FF C3 C0 F1 FF E3 FF F0 03 E0 3F F0 ; .<............?.
0186A4  .dc.b 3F F0 F0 3C 0F 03 FF C3 C0 F0 FF C3 FF F0 03 E0 ; ?..<............
0186B4  .dc.b 00 00 00 00 00 00 00 00 00 00 00 00 00 00 00 00 ; ................
0186C4  .dc.b 00 00 00 00 00 00 00 00 00 00 00 00 00 00 00 00 ; ................
0186D4  .dc.b 00 00 00 00 00 00 00 00 00 00 00 00 00 00 00 00 ; ................
0186E4  .dc.b 00 00 00 00 00 00 00 00 00 00 00 00 00 00 00 00 ; ................
0186F4  .dc.b 00 00 00 00 00 00 00 00 00 00 00 3C 3C FF F0 FF ; ...........<<...
018704  .dc.b C0 00 38 F0 3C 3F F0 00 00 00 00 00 00 3C 3C FF ; ..8.<?.......<<.
018714  .dc.b F1 FF E0 00 78 F8 3C 7F F8 00 00 00 00 00 00 3C ; ....x.<........<
018724  .dc.b 3C F0 03 C0 F0 00 F8 FC 3C F0 3C 00 00 00 00 00 ; <.......<.<.....
018734  .dc.b 00 3C 3C F0 03 C0 F0 01 F0 FE 3C F0 3C 00 00 00 ; .<<.......<.<...
018744  .dc.b 00 00 00 3C 3C F0 03 C0 00 03 E0 FF 3C F0 3C 00 ; ...<<.......<.<.
018754  .dc.b 00 00 00 00 00 3E 7C F0 03 C0 00 07 C0 FF BC F0 ; .....>|.........
018764  .dc.b 3C 00 00 00 00 00 00 1F F8 FF C1 FF C0 0F 80 F7 ; <...............
018774  .dc.b FC F0 3C 00 00 00 00 00 00 0F F0 FF C0 FF E0 1F ; ..<.............
018784  .dc.b 00 F3 FC F0 3C 00 00 00 00 00 00 07 E0 F0 00 00 ; ....<...........
018794  .dc.b F0 3E 00 F1 FC F0 3C 00 00 00 00 00 00 03 C0 F0 ; .>....<.........
0187A4  .dc.b 00 00 F0 7C 00 F0 FC F0 3C 00 00 00 00 00 00 03 ; ...|....<.......
0187B4  .dc.b C0 F0 03 C0 F0 F8 00 F0 7C F0 3C 00 00 00 00 00 ; ........|.<.....
0187C4  .dc.b 00 03 C0 F0 03 C0 F1 F0 00 F0 3C F0 3C 00 00 00 ; ..........<.<...
0187D4  .dc.b 00 00 00 03 C0 FF F1 FF E3 E0 00 F0 3C 7F F8 00 ; ............<...
0187E4  .dc.b 00 00 00 00 00 03 C0 FF F0 FF C3 C0 00 F0 3C 3F ; ..............<?
0187F4  .dc.b F0 00 00 00 3F F0 FF C0 F0 38 FF F4 00 00 3F E0 ; ....?....8....?.
018804  .dc.b E0 38 3F F0 00 E0 3F F4 FF D0 E0 3C FF 8C 00 00 ; .8?...?....<....
018814  .dc.b 7F F0 F0 3C 3F F4 00 F0 3F 04 FC 10 E8 7C FC BC ; ...<?...?....|..
018824  .dc.b 00 00 FF F4 F0 3C 3F 04 00 F0 2D 7C B5 F0 F0 7C ; .....<?...-|...|
018834  .dc.b FF FC 00 00 EF 94 F0 3C 2D 7C 00 F0 03 40 0D 00 ; .......<-|...@..
018844  .dc.b FC F4 D0 00 00 00 F0 04 D0 34 03 40 00 D0 03 40 ; .........4.@...@
018854  .dc.b 0D 00 E8 F4 D0 00 00 00 F0 04 D0 34 03 40 00 D0 ; ...........4.@..
018864  .dc.b 03 40 0D 00 CF BC D0 00 00 00 F0 14 F0 3C 03 40 ; .@...........<.@
018874  .dc.b 00 F0 03 40 0D 00 E5 FC D0 00 00 00 F0 14 F0 3C ; ...@...........<
018884  .dc.b 03 40 00 F0 03 40 0D 00 D7 74 D0 00 00 00 D0 34 ; .@...@...t.....4
018894  .dc.b D0 34 03 40 00 D0 03 40 0D 00 D3 B4 F0 00 00 00 ; .4.@...@........
0188A4  .dc.b D0 34 D0 34 03 40 00 D0 03 40 0D 00 D6 B4 DF D0 ; .4.4.@...@......
0188B4  .dc.b 00 00 F0 34 F0 34 03 40 00 D0 03 40 0D 00 D1 34 ; ...4.4.@...@...4
0188C4  .dc.b FF F0 00 00 F0 34 D0 34 03 40 00 D0 03 40 0D 00 ; .....4.4.@...@..
0188D4  .dc.b D3 34 F2 F0 00 00 D0 34 D0 34 03 40 00 D0 03 40 ; .4.....4.4.@...@
0188E4  .dc.b 0D 00 D0 34 FF F0 00 00 D0 34 D0 34 03 40 00 D0 ; ...4.....4.4.@..
0188F4  .dc.b 03 40 0D 00 D0 34 D0 00 00 00 D0 34 D0 34 03 40 ; .@...4.....4.4.@
018904  .dc.b 00 D0 03 40 0D 00 D0 34 D0 00 00 00 D0 34 D0 34 ; ...@...4.....4.4
018914  .dc.b 03 40 00 D0 03 40 0D 00 D0 34 D0 00 00 00 F0 34 ; .@...@...4.....4
018924  .dc.b F0 34 03 40 00 90 03 40 0D 00 D0 34 D0 00 00 00 ; .4.@...@...4....
018934  .dc.b F0 34 D0 34 03 40 00 70 03 40 0D 00 D0 34 F0 00 ; .4.4.@.p.@...4..
018944  .dc.b 00 00 70 34 50 34 03 40 00 00 03 40 0D 00 90 24 ; ..p4P4.@...@...$
018954  .dc.b F0 00 00 00 70 34 70 34 03 40 00 00 03 40 FF D0 ; ....p4p4.@...@..
018964  .dc.b D0 34 FF E4 00 00 5F FC 5F FC 03 40 00 E0 03 40 ; .4...._._..@...@
018974  .dc.b FF 30 90 24 FF CC 00 00 8F EC 8F EC 03 40 00 D0 ; .0.$.........@..
018984  .dc.b 00 C0 E6 F0 30 0C 82 7C 00 00 40 38 40 38 00 C0 ; ....0..|..@8@8..
018994  .dc.b 00 B0 03 C0 7F F0 F0 3C FF FC 00 00 3F F0 3F F0 ; .......<....?.?.
0189A4  .dc.b 03 C0 00 F0 3F FC FF F0 F0 3C FF F8 00 00 3F F0 ; ....?....<....?.
0189B4  .dc.b F0 3C 3F FC 00 F0 3F F8 FF E0 F0 38 FF F0 00 00 ; .<?...?....8....
0189C4  .dc.b 7F F8 E0 38 3F F8 00 E0 3F F8 FF E0 F0 38 FF 40 ; ...8?...?....8.@
0189D4  .dc.b 00 00 FF F8 E0 38 3F F8 00 E0 33 80 CE 00 F8 78 ; .....8?...3....x
0189E4  .dc.b E0 00 00 00 F0 78 E0 38 33 80 00 E0 03 80 0E 00 ; .....x.83.......
0189F4  .dc.b F8 78 E0 00 00 00 E0 38 E0 38 03 80 00 E0 03 80 ; .x.....8.8......
018A04  .dc.b 0E 00 FC F8 E0 00 00 00 E0 38 E0 38 03 80 00 E0 ; .........8.8....
018A14  .dc.b 03 80 0E 00 FC F8 E0 00 00 00 E0 38 E0 38 03 80 ; ...........8.8..
018A24  .dc.b 00 E0 03 80 0E 00 FF B8 E0 00 00 00 E0 38 E0 38 ; .............8.8
018A34  .dc.b 03 80 00 E0 03 80 0E 00 EF B8 E0 00 00 00 E0 38 ; ...............8
018A44  .dc.b E0 38 03 80 00 E0 03 80 0E 00 E7 38 C0 00 00 00 ; .8.........8....
018A54  .dc.b E0 38 E0 38 03 80 00 E0 03 80 0E 00 E3 38 FF E0 ; .8.8.........8..
018A64  .dc.b 00 00 E0 38 E0 38 03 80 00 E0 03 80 0E 00 E2 38 ; ...8.8.........8
018A74  .dc.b FF C0 00 00 E0 38 E0 38 03 80 00 E0 03 80 0E 00 ; .....8.8........
018A84  .dc.b E0 38 FD 00 00 00 E0 38 E0 38 03 80 00 E0 03 80 ; .8.....8.8......
018A94  .dc.b 0E 00 E0 38 E0 00 00 00 E0 38 E0 38 03 80 00 E0 ; ...8.....8.8....
018AA4  .dc.b 03 80 0E 00 E0 38 E0 00 00 00 E0 38 E0 38 03 80 ; .....8.....8.8..
018AB4  .dc.b 00 E0 03 80 0E 00 E0 38 E0 00 00 00 E0 38 E0 38 ; .......8.....8.8
018AC4  .dc.b 03 80 00 E0 03 80 0E 00 E0 38 E0 00 00 00 C0 38 ; .........8.....8
018AD4  .dc.b C0 38 03 80 00 E0 03 80 0E 00 E0 38 E0 00 00 00 ; .8.........8....
018AE4  .dc.b C0 38 E0 38 03 80 00 80 03 80 0E 00 E0 38 C0 00 ; .8.8.........8..
018AF4  .dc.b 00 00 C0 38 E0 38 03 80 00 00 03 80 0E 00 E0 38 ; ...8.8.........8
018B04  .dc.b C0 00 00 00 C0 38 C0 38 03 80 00 00 03 80 FF E0 ; .....8.8........
018B14  .dc.b E0 38 FF F8 00 00 EF F0 EF F0 03 80 00 F0 03 80 ; .8..............
018B24  .dc.b FF C0 E0 38 FF F0 00 00 7F F0 7F F0 03 80 00 E0 ; ...8............
018B34  .dc.b 03 00 F9 00 C0 30 FD 80 00 00 3F C0 3F C0 03 00 ; .....0....?.?...
018B44  .dc.b 00 C0 00 00 80 00 00 00 00 00 00 00 00 00 00 00 ; ................
018B54  .dc.b 00 00 00 00 3F E0 FF 80 E0 30 FE C0 00 00 1F 40 ; ....?....0.....@
018B64  .dc.b C0 30 3F E0 00 C0 3E 80 FA 00 C0 30 EC 00 00 00 ; .0?...>....0....
018B74  .dc.b 3F E0 C0 30 3E 80 00 C0 20 00 80 00 E0 30 C0 00 ; ?..0>... ....0..
018B84  .dc.b 00 00 60 00 C0 30 20 00 00 C0 00 00 00 00 C0 30 ; ..`..0 ........0
018B94  .dc.b C0 00 00 00 C0 00 C0 30 00 00 00 C0 01 00 04 00 ; .......0........
018BA4  .dc.b D0 70 C0 00 00 00 C0 00 C0 30 01 00 00 C0 01 00 ; .p.......0......
018BB4  .dc.b 04 00 C0 30 80 00 00 00 C0 00 C0 30 01 00 00 C0 ; ...0.......0....
018BC4  .dc.b 01 00 04 00 C0 B0 80 00 00 00 C0 00 C0 30 01 00 ; .............0..
018BD4  .dc.b 00 C0 03 00 0C 00 C0 30 C0 00 00 00 C0 00 C0 30 ; .......0.......0
018BE4  .dc.b 03 00 00 C0 01 00 04 00 C1 30 C0 00 00 00 C0 00 ; .........0......
018BF4  .dc.b C0 10 01 00 00 40 01 00 04 00 C0 30 40 00 00 00 ; .....@.....0@...
018C04  .dc.b C0 00 C0 10 01 00 00 40 03 00 0C 00 40 10 CC 80 ; .......@....@...
018C14  .dc.b 00 00 40 20 40 20 03 00 00 80 03 00 0C 00 C0 30 ; ..@ @ .........0
018C24  .dc.b FF 00 00 00 C0 20 C0 20 03 00 00 80 01 00 04 00 ; ..... . ........
018C34  .dc.b 40 30 40 00 00 00 40 00 40 10 01 00 00 40 01 00 ; @0@...@.@....@..
018C44  .dc.b 04 00 40 10 40 00 00 00 40 20 40 20 01 00 00 80 ; ..@.@...@ @ ....
018C54  .dc.b 03 00 0C 00 00 00 C0 00 00 00 00 30 00 30 03 00 ; ...........0.0..
018C64  .dc.b 00 C0 01 00 04 00 40 10 40 00 00 00 00 20 00 20 ; ......@.@.... . 
018C74  .dc.b 01 00 00 80 01 00 04 00 00 20 00 00 00 00 00 30 ; ......... .....0
018C84  .dc.b 00 30 01 00 00 80 00 00 00 00 00 20 40 00 00 00 ; .0......... @...
018C94  .dc.b 00 30 00 30 00 00 00 00 01 00 04 00 00 20 40 00 ; .0.0......... @.
018CA4  .dc.b 00 00 00 30 00 30 01 00 00 00 01 00 04 00 00 00 ; ...0.0..........
018CB4  .dc.b 00 00 00 00 00 20 00 20 01 00 00 00 00 00 FE 80 ; ..... . ........
018CC4  .dc.b 00 00 BF 80 00 00 00 E0 00 E0 00 00 00 C0 00 00 ; ................
018CD4  .dc.b A0 00 00 00 AC 00 00 00 02 80 02 80 00 00 00 80 ; ................
018CE4  .dc.b 00 00 80 00 00 00 00 00 00 00 00 00 00 00 00 00 ; ................
018CF4  .dc.b 00 00 00 00 00 00 00 00 00 00 00 00 00 00 00 00 ; ................
018D04  .dc.b 00 00 00 00 3F FC FF F0 F0 3C FF FC 00 00 3F F0 ; ....?....<....?.
018D14  .dc.b F0 3C 3F FC 00 F0 3F FC FF F0 F8 7C FF FC 00 00 ; .<?...?....|....
018D24  .dc.b 7F F8 F0 3C 3F FC 00 F0 3F FC FF F0 F8 7C FF FC ; ...<?...?....|..
018D34  .dc.b 00 00 FF FC F0 3C 3F FC 00 F0 3F FC FF F0 FC FC ; .....<?...?.....
018D44  .dc.b FF FC 00 00 FF FC F0 3C 3F FC 00 F0 03 C0 0F 00 ; .......<?.......
018D54  .dc.b FC FC F0 00 00 00 F0 3C F0 3C 03 C0 00 F0 03 C0 ; .......<.<......
018D64  .dc.b 0F 00 FF FC F0 00 00 00 F0 3C F0 3C 03 C0 00 F0 ; .........<.<....
018D74  .dc.b 03 C0 0F 00 FF FC F0 00 00 00 F0 3C F0 3C 03 C0 ; ...........<.<..
018D84  .dc.b 00 F0 03 C0 0F 00 FF FC F0 00 00 00 F0 3C F0 3C ; .............<.<
018D94  .dc.b 03 C0 00 F0 03 C0 0F 00 FF FC F0 00 00 00 F0 3C ; ...............<
018DA4  .dc.b F0 3C 03 C0 00 F0 03 C0 0F 00 FF FC F0 00 00 00 ; .<..............
018DB4  .dc.b F0 3C F0 3C 03 C0 00 F0 03 C0 0F 00 F7 BC FF F0 ; .<.<............
018DC4  .dc.b 00 00 F0 3C F0 3C 03 C0 00 F0 03 C0 0F 00 F7 BC ; ...<.<..........
018DD4  .dc.b FF F0 00 00 F0 3C F0 3C 03 C0 00 F0 03 C0 0F 00 ; .....<.<........
018DE4  .dc.b F3 3C FF F0 00 00 F0 3C F0 3C 03 C0 00 F0 03 C0 ; .<.....<.<......
018DF4  .dc.b 0F 00 F3 3C FF F0 00 00 F0 3C F0 3C 03 C0 00 F0 ; ...<.....<.<....
018E04  .dc.b 03 C0 0F 00 F0 3C F0 00 00 00 F0 3C F0 3C 03 C0 ; .....<.....<.<..
018E14  .dc.b 00 F0 03 C0 0F 00 F0 3C F0 00 00 00 F0 3C F0 3C ; .......<.....<.<
018E24  .dc.b 03 C0 00 F0 03 C0 0F 00 F0 3C F0 00 00 00 F0 3C ; .........<.....<
018E34  .dc.b F0 3C 03 C0 00 F0 03 C0 0F 00 F0 3C F0 00 00 00 ; .<.........<....
018E44  .dc.b F0 3C F0 3C 03 C0 00 F0 03 C0 0F 00 F0 3C F0 00 ; .<.<.........<..
018E54  .dc.b 00 00 F0 3C F0 3C 03 C0 00 00 03 C0 0F 00 F0 3C ; ...<.<.........<
018E64  .dc.b F0 00 00 00 F0 3C F0 3C 03 C0 00 00 03 C0 FF F0 ; .....<.<........
018E74  .dc.b F0 3C FF FC 00 00 FF FC FF FC 03 C0 00 F0 03 C0 ; .<..............
018E84  .dc.b FF F0 F0 3C FF FC 00 00 FF FC FF FC 03 C0 00 F0 ; ...<............
018E94  .dc.b 03 C0 FF F0 F0 3C FF FC 00 00 7F F8 7F F8 03 C0 ; .....<..........
018EA4  .dc.b 00 F0 03 C0 FF F0 F0 3C FF FC 00 00 3F F0 3F F0 ; .......<....?.?.
018EB4  .dc.b 03 C0 00 F0 3F F0 3F E0 F0 38 FF F4 00 00 3F E0 ; ....?.?..8....?.
018EC4  .dc.b E0 38 FF F4 FF E0 7F F8 7F F0 E0 3C FF 8C 00 00 ; .8.........<....
018ED4  .dc.b 7F F0 F0 3C FF 8C FF C0 FF B0 FF F4 E8 7C FC BC ; ...<.........|..
018EE4  .dc.b 00 00 FF F4 F0 3C FC BC FC 34 EF E4 EF 94 F0 7C ; .....<...4.....|
018EF4  .dc.b FF FC 00 00 EF 94 F0 3C FF FC EF B0 F0 0C F0 04 ; .......<........
018F04  .dc.b FC F4 D0 00 00 00 F0 04 D0 34 D0 00 F0 3C F0 1C ; .........4...<..
018F14  .dc.b F0 04 E8 F4 D0 00 00 00 F0 04 D0 34 D0 00 F0 38 ; ...........4...8
018F24  .dc.b F0 00 F0 14 CF BC D0 00 00 00 F0 14 F0 3C D0 00 ; .............<..
018F34  .dc.b D0 3C F0 00 F0 14 E5 FC D0 00 00 00 F0 14 F0 3C ; .<.............<
018F44  .dc.b D0 00 F0 34 D0 00 D0 34 D7 74 D0 00 00 00 D0 34 ; ...4...4.t.....4
018F54  .dc.b D0 34 D0 00 D0 3C D0 00 D0 34 D3 B4 F0 00 00 00 ; .4...<...4......
018F64  .dc.b D0 34 D0 34 F0 00 D0 34 F3 FC FF F4 D6 B4 DF D0 ; .4.4...4........
018F74  .dc.b 00 00 F0 34 F0 34 DF D0 FF F4 F3 F8 FF F4 D1 34 ; ...4.4.........4
018F84  .dc.b FF F0 00 00 F0 34 D0 34 FF F0 FF E4 D3 90 EC 34 ; .....4.4.......4
018F94  .dc.b D3 34 F2 F0 00 00 D0 34 D0 34 F2 F0 EF 18 D2 F4 ; .4.....4.4......
018FA4  .dc.b C7 F4 D0 34 FF F0 00 00 D0 34 D0 34 FF F0 CD F0 ; ...4.....4.4....
018FB4  .dc.b F0 10 D0 34 D0 34 D0 00 00 00 D0 34 D0 34 D0 00 ; ...4.4.....4.4..
018FC4  .dc.b D2 E0 D0 14 D0 34 D0 34 D0 00 00 00 D0 34 68 74 ; .....4.4.....4ht
018FD4  .dc.b D0 00 D1 70 F0 3C D0 34 D0 34 D0 00 00 00 F0 34 ; ...p.<.4.4.....4
018FE4  .dc.b 28 28 D0 00 D0 B8 70 34 D0 34 D0 34 D0 00 00 00 ; ((....p4.4.4....
018FF4  .dc.b F0 34 74 E8 D0 00 D0 50 F0 3C D0 34 D0 34 F0 00 ; .4t....P.<.4.4..
019004  .dc.b 00 00 70 34 14 F0 F0 00 D0 34 70 34 90 24 90 24 ; ..p4.....4p4.$.$
019014  .dc.b F0 00 00 00 70 34 3F D0 F0 00 90 34 5B F4 D0 34 ; ....p4?....4[..4
019024  .dc.b D0 34 FF E4 00 00 5F FC 0F E0 FF E4 D0 34 9F CC ; .4...._......4..
019034  .dc.b 90 24 90 24 FF CC 00 00 8F EC 13 A0 FF CC 90 34 ; .$.$...........4
019044  .dc.b 40 38 30 0C 30 0C 82 7C 00 00 40 38 08 40 82 7C ; @80.0..|..@8.@.|
019054  .dc.b 30 0C 3F F0 F0 3C F0 3C FF FC 00 00 3F F0 0F C0 ; 0.?..<.<....?...
019064  .dc.b FF FC F0 3C 3F F0 3F F0 F0 3C FF F8 00 00 3F F0 ; ...<?.?..<....?.
019074  .dc.b F0 3C FF F8 FF F0 7F F8 7F F8 F0 38 FF F0 00 00 ; .<.........8....
019084  .dc.b 7F F8 E0 38 FF F0 FF F8 FF FC FF F8 F0 38 FF 40 ; ...8.........8.@
019094  .dc.b 00 00 FF F8 E0 38 FF 40 FF F8 F0 18 F0 78 F8 78 ; .....8.@.....x.x
0190A4  .dc.b E0 00 00 00 F0 78 E0 38 E0 00 F0 7C E0 30 E0 38 ; .....x.8...|.0.8
0190B4  .dc.b F8 78 E0 00 00 00 E0 38 E0 38 E0 00 E0 38 E0 20 ; .x.....8.8...8. 
0190C4  .dc.b E0 38 FC F8 E0 00 00 00 E0 38 E0 38 E0 00 E0 3C ; .8.......8.8...<
0190D4  .dc.b E0 00 E0 38 FC F8 E0 00 00 00 E0 38 E0 38 E0 00 ; ...8.......8.8..
0190E4  .dc.b E0 38 E0 00 E0 38 FF B8 E0 00 00 00 E0 38 E0 38 ; .8...8.......8.8
0190F4  .dc.b E0 00 E0 38 E0 00 E0 38 EF B8 E0 00 00 00 E0 38 ; ...8...8.......8
019104  .dc.b E0 38 E0 00 E0 38 E0 00 E0 38 E7 38 C0 00 00 00 ; .8...8...8.8....
019114  .dc.b E0 38 E0 38 C0 00 E0 38 E3 FC FF F8 E3 38 FF E0 ; .8.8...8.....8..
019124  .dc.b 00 00 E0 38 E0 38 FF E0 FF F8 E3 FC FF F8 E2 38 ; ...8.8.........8
019134  .dc.b FF C0 00 00 E0 38 E0 38 FF C0 FF F8 E3 FC FF F8 ; .....8.8........
019144  .dc.b E0 38 FD 00 00 00 E0 38 E0 38 FD 00 FF E0 E3 18 ; .8.....8.8......
019154  .dc.b F8 38 E0 38 E0 00 00 00 E0 38 E0 38 E0 00 F3 80 ; .8.8.....8.8....
019164  .dc.b C0 3C E0 38 E0 38 E0 00 00 00 E0 38 E0 38 E0 00 ; .<.8.8.....8.8..
019174  .dc.b E1 C0 E0 38 E0 38 E0 38 E0 00 00 00 E0 38 F0 38 ; ...8.8.8.....8.8
019184  .dc.b E0 00 E0 E0 C0 38 E0 38 E0 38 E0 00 00 00 C0 38 ; .....8.8.8.....8
019194  .dc.b 70 70 E0 00 E0 70 C0 38 E0 38 E0 38 E0 00 00 00 ; pp...p.8.8.8....
0191A4  .dc.b C0 38 38 70 E0 00 E0 38 C0 38 E0 38 E0 38 C0 00 ; .88p...8.8.8.8..
0191B4  .dc.b 00 00 C0 38 38 E0 C0 00 E0 38 C0 38 E0 38 E0 38 ; ...88....8.8.8.8
0191C4  .dc.b C0 00 00 00 C0 38 1F E0 C0 00 E0 38 EF F8 E0 38 ; .....8.....8...8
0191D4  .dc.b E0 38 FF F8 00 00 EF F0 1F C0 FF F8 E0 38 7F F0 ; .8...........8..
0191E4  .dc.b E0 38 E0 38 FF F0 00 00 7F F0 0F C0 FF F0 E0 38 ; .8.8...........8
0191F4  .dc.b 3F C0 C0 30 C0 30 FD 80 00 00 3F C0 07 80 FD 80 ; ?..0.0....?.....
019204  .dc.b C0 30 00 00 00 00 00 00 00 00 00 00 00 00 00 00 ; .0..............
019214  .dc.b 00 00 00 00 1F 40 1F 40 E0 30 FE C0 00 00 1F 40 ; .....@.@.0.....@
019224  .dc.b C0 30 FE C0 FF C0 3F E0 3F E0 C0 30 EC 00 00 00 ; .0....?.?..0....
019234  .dc.b 3F E0 C0 30 EC 00 F4 00 60 00 60 00 E0 30 C0 00 ; ?..0....`.`..0..
019244  .dc.b 00 00 60 00 C0 30 C0 00 E0 00 C0 00 C0 00 C0 30 ; ..`..0.........0
019254  .dc.b C0 00 00 00 C0 00 C0 30 C0 00 C0 00 C0 00 C0 00 ; .......0........
019264  .dc.b D0 70 C0 00 00 00 C0 00 C0 30 C0 00 80 30 C0 00 ; .p.......0...0..
019274  .dc.b C0 00 C0 30 80 00 00 00 C0 00 C0 30 80 00 C0 30 ; ...0.......0...0
019284  .dc.b C0 00 C0 00 C0 B0 80 00 00 00 C0 00 C0 30 80 00 ; .............0..
019294  .dc.b C0 20 C0 00 C0 00 C0 30 C0 00 00 00 C0 00 C0 30 ; . .....0.......0
0192A4  .dc.b C0 00 C0 20 C0 00 C0 00 C1 30 C0 00 00 00 C0 00 ; ... .....0......
0192B4  .dc.b C0 10 C0 00 C0 30 C0 00 C0 00 C0 30 40 00 00 00 ; .....0.....0@...
0192C4  .dc.b C0 00 C0 10 40 00 C0 20 C3 D8 7F 20 40 10 CC 80 ; ....@.. ... @...
0192D4  .dc.b 00 00 40 20 40 20 CC 80 7D 80 C3 60 E8 20 C0 30 ; ..@ @ ..}..`. .0
0192E4  .dc.b FF 00 00 00 C0 20 C0 20 FF 00 E8 00 C2 00 40 00 ; ..... . ......@.
0192F4  .dc.b 40 30 40 00 00 00 40 00 40 10 40 00 42 00 00 00 ; @0@...@.@.@.B...
019304  .dc.b 40 20 40 10 40 00 00 00 40 20 40 20 40 00 41 00 ; @ @.@...@ @ @.A.
019314  .dc.b 80 10 00 00 00 00 C0 00 00 00 00 30 00 30 C0 00 ; ...........0.0..
019324  .dc.b 80 80 00 00 40 10 40 10 40 00 00 00 00 20 40 20 ; ....@.@.@.... @ 
019334  .dc.b 40 00 40 00 00 10 00 20 00 20 00 00 00 00 00 30 ; @.@.... . .....0
019344  .dc.b 20 20 00 00 80 20 00 30 00 20 00 20 40 00 00 00 ;   ... .0. . @...
019354  .dc.b 00 30 00 60 40 00 80 00 00 10 00 20 00 20 40 00 ; .0.`@...... . @.
019364  .dc.b 00 00 00 30 10 40 40 00 00 30 00 30 00 00 00 00 ; ...0.@@..0.0....
019374  .dc.b 00 00 00 00 00 20 00 C0 00 00 00 20 00 E0 00 00 ; ..... ..... ....
019384  .dc.b 00 00 BF 80 00 00 00 E0 07 80 BF 80 80 20 00 00 ; ............. ..
019394  .dc.b 00 00 00 00 AC 00 00 00 02 80 00 00 AC 00 00 00 ; ................
0193A4  .dc.b 00 00 00 00 00 00 00 00 00 00 00 00 00 00 00 00 ; ................
0193B4  .dc.b 00 00 00 00 00 00 00 00 00 00 00 00 00 00 00 00 ; ................
0193C4  .dc.b 00 00 00 00 3F F0 3F F0 F0 3C FF FC 00 00 3F F0 ; ....?.?..<....?.
0193D4  .dc.b F0 3C FF FC FF F0 7F F8 7F F8 F8 7C FF FC 00 00 ; .<.........|....
0193E4  .dc.b 7F F8 F0 3C FF FC FF F8 FF FC FF FC F8 7C FF FC ; ...<.........|..
0193F4  .dc.b 00 00 FF FC F0 3C FF FC FF FC FF FC FF FC FC FC ; .....<..........
019404  .dc.b FF FC 00 00 FF FC F0 3C FF FC FF FC F0 3C F0 3C ; .......<.....<.<
019414  .dc.b FC FC F0 00 00 00 F0 3C F0 3C F0 00 F0 3C F0 3C ; .......<.<...<.<
019424  .dc.b F0 3C FF FC F0 00 00 00 F0 3C F0 3C F0 00 F0 3C ; .<.......<.<...<
019434  .dc.b F0 00 F0 3C FF FC F0 00 00 00 F0 3C F0 3C F0 00 ; ...<.......<.<..
019444  .dc.b F0 3C F0 00 F0 3C FF FC F0 00 00 00 F0 3C F0 3C ; .<...<.......<.<
019454  .dc.b F0 00 F0 3C F0 00 F0 3C FF FC F0 00 00 00 F0 3C ; ...<...<.......<
019464  .dc.b F0 3C F0 00 F0 3C F0 00 F0 3C FF FC F0 00 00 00 ; .<...<...<......
019474  .dc.b F0 3C F0 3C F0 00 F0 3C F3 FC FF FC F7 BC FF F0 ; .<.<...<........
019484  .dc.b 00 00 F0 3C F0 3C FF F0 FF FC F3 FC FF FC F7 BC ; ...<.<..........
019494  .dc.b FF F0 00 00 F0 3C F0 3C FF F0 FF FC F3 FC FF FC ; .....<.<........
0194A4  .dc.b F3 3C FF F0 00 00 F0 3C F0 3C FF F0 FF F8 F3 FC ; .<.....<.<......
0194B4  .dc.b FF FC F3 3C FF F0 00 00 F0 3C F0 3C FF F0 FF F0 ; ...<.....<.<....
0194C4  .dc.b F0 3C F0 3C F0 3C F0 00 00 00 F0 3C F0 3C F0 00 ; .<.<.<.....<.<..
0194D4  .dc.b F3 E0 F0 3C F0 3C F0 3C F0 00 00 00 F0 3C F8 7C ; ...<.<.<.....<.|
0194E4  .dc.b F0 00 F1 F0 F0 3C F0 3C F0 3C F0 00 00 00 F0 3C ; .....<.<.<.....<
0194F4  .dc.b 78 78 F0 00 F0 F8 F0 3C F0 3C F0 3C F0 00 00 00 ; xx.....<.<.<....
019504  .dc.b F0 3C 7C F8 F0 00 F0 78 F0 3C F0 3C F0 3C F0 00 ; .<|....x.<.<.<..
019514  .dc.b 00 00 F0 3C 3C F0 F0 00 F0 3C F0 3C F0 3C F0 3C ; ...<<....<.<.<.<
019524  .dc.b F0 00 00 00 F0 3C 3F F0 F0 00 F0 3C FF FC F0 3C ; .....<?....<...<
019534  .dc.b F0 3C FF FC 00 00 FF FC 1F E0 FF FC F0 3C FF FC ; .<...........<..
019544  .dc.b F0 3C F0 3C FF FC 00 00 FF FC 1F E0 FF FC F0 3C ; .<.<...........<
019554  .dc.b 7F F8 F0 3C F0 3C FF FC 00 00 7F F8 0F C0 FF FC ; ...<.<..........
019564  .dc.b F0 3C 3F F0 F0 3C F0 3C FF FC 00 00 3F F0 0F C0 ; .<?..<.<....?...
019574  .dc.b FF FC F0 3C 00 30 30 F4 E0 7D 40 00 00 20 28 D0 ; ...<.00..}@.. (.
019584  .dc.b 01 C0 80 00 00 20 28 80 01 00 60 00 00 20 20 A0 ; ..... (...`..  .
019594  .dc.b 03 80 80 01 00 18 20 A0 02 80 00 03 00 04 10 A0 ; ...... .........
0195A4  .dc.b 00 C0 00 06 00 0D E0 AD 81 BD 40 0D 00 05 40 50 ; ..........@...@P
0195B4  .dc.b 00 68 20 1B 00 02 80 A0 00 00 C0 36 00 03 00 A0 ; .h ........6....
0195C4  .dc.b 00 00 60 6C 00 02 00 A0 03 C0 A0 D8 00 03 00 20 ; ..`l........... 
0195D4  .dc.b 02 40 41 B0 00 01 00 E4 41 BC 83 60 00 00 00 80 ; .@A.....A..`....
0195E4  .dc.b 00 C0 02 C0 00 38 38 FF 00 FF 80 00 00 30 30 E0 ; .....88......00.
0195F4  .dc.b 01 80 40 00 00 30 30 E0 03 80 80 00 00 30 30 C0 ; ..@..00......00.
019604  .dc.b 03 00 00 01 00 30 30 C0 03 00 00 03 00 18 20 C0 ; .....00....... .
019614  .dc.b 03 00 00 07 00 06 40 FE 00 FF 80 0E 00 03 80 E0 ; ......@.........
019624  .dc.b 00 00 40 1C 00 03 00 C0 00 00 60 38 00 03 00 C0 ; ..@.......`8....
019634  .dc.b 00 00 C0 70 00 03 00 C0 03 80 C0 E0 00 02 00 C0 ; ...p............
019644  .dc.b 03 80 81 C0 00 02 00 FF 80 FF 03 80 00 00 00 80 ; ................
019654  .dc.b 00 00 03 00 00 3C 3C FF F0 FF C0 00 00 3C 3C FF ; .....<<......<<.
019664  .dc.b F1 FF E0 00 00 3C 3C F0 03 C0 F0 00 00 3C 3C F0 ; .....<<......<<.
019674  .dc.b 03 C0 F0 01 00 3C 3C F0 03 C0 00 02 00 3E 7C F0 ; .....<<......>|.
019684  .dc.b 03 C0 00 04 00 1F F8 FF C1 FF C0 08 00 0F F0 FF ; ................
019694  .dc.b C0 FF E0 10 00 07 E0 F0 00 00 F0 20 00 03 C0 F0 ; ........... ....
0196A4  .dc.b 00 00 F0 40 00 03 C0 F0 03 C0 F0 80 00 03 C0 F0 ; ...@............
0196B4  .dc.b 03 C0 F1 00 00 03 C0 FF F1 FF E2 00 00 03 C0 FF ; ................
0196C4  .dc.b F0 FF C0 00 00 3C 3C FF F0 FF C0 00 00 3C 3C FF ; .....<<......<<.
0196D4  .dc.b F1 FF E0 00 00 3C 3C F0 03 C0 F0 00 00 3C 3C F0 ; .....<<......<<.
0196E4  .dc.b 03 C0 F0 01 00 3C 3C F0 03 C0 00 03 00 3E 7C F0 ; .....<<......>|.
0196F4  .dc.b 03 C0 00 07 00 1F F8 FF C1 FF C0 0F 00 0F F0 FF ; ................
019704  .dc.b C0 FF E0 1F 00 07 E0 F0 00 00 F0 3E 00 03 C0 F0 ; ...........>....
019714  .dc.b 00 00 F0 7C 00 03 C0 F0 03 C0 F0 F8 00 03 C0 F0 ; ...|............
019724  .dc.b 03 C0 F1 F0 00 03 C0 FF F1 FF E3 E0 00 03 C0 FF ; ................
019734  .dc.b F0 FF C3 C0 00 3C 3C FF 10 FF 80 00 00 3C 34 EF ; .....<<......<4.
019744  .dc.b F1 BF 60 00 00 3C 34 F0 03 C0 90 00 00 3C 3C D0 ; ..`..<4......<<.
019754  .dc.b 03 40 70 01 00 34 3C D0 03 40 00 03 00 3A 6C D0 ; .@p..4<..@...:l.
019764  .dc.b 03 00 00 06 00 16 58 FE 40 FF 80 0D 00 0B B0 EF ; ......X.@.......
019774  .dc.b C0 97 C0 1B 00 07 60 D0 00 00 70 36 00 03 C0 D0 ; ......`...p6....
019784  .dc.b 00 00 D0 6C 00 03 C0 D0 03 80 D0 D8 00 02 C0 D0 ; ...l............
019794  .dc.b 03 80 B1 B0 00 02 C0 FF B0 FF 63 60 00 03 C0 FF ; ..........c`....
0197A4  .dc.b F0 3F C2 C0 00 38 38 FF E0 FF C0 00 00 30 38 F0 ; .?...88......08.
0197B4  .dc.b 01 C0 C0 00 00 30 38 E0 03 80 E0 00 00 30 30 E0 ; .....08......00.
0197C4  .dc.b 03 80 80 01 00 38 30 E0 03 80 00 03 00 1C 30 E0 ; .....80.......0.
0197D4  .dc.b 03 C0 00 07 00 0F E0 FF 81 FF C0 0E 00 07 C0 F0 ; ................
0197E4  .dc.b 00 68 60 1C 00 03 80 E0 00 00 E0 38 00 03 00 E0 ; .h`........8....
0197F4  .dc.b 00 00 E0 70 00 03 00 E0 03 C0 E0 E0 00 03 00 E0 ; ...p............
019804  .dc.b 03 C0 C1 C0 00 03 00 FF C1 FF 83 80 00 00 00 80 ; ................
019814  .dc.b 00 C0 03 00 00 30 30 F4 00 7D 00 00 00 20 20 C0 ; .....00..}...  .
019824  .dc.b 01 80 00 00 00 20 20 80 01 00 00 00 00 20 20 80 ; .....  ......  .
019834  .dc.b 03 00 00 01 00 10 20 80 02 00 00 02 00 00 00 80 ; ...... .........
019844  .dc.b 00 00 00 04 00 04 40 AC 00 BD 00 08 00 01 00 40 ; ......@........@
019854  .dc.b 00 00 00 10 00 02 00 80 00 00 40 20 00 03 00 80 ; ..........@ ....
019864  .dc.b 00 00 40 40 00 02 00 80 03 80 80 80 00 02 00 00 ; ..@@............
019874  .dc.b 02 00 01 00 00 00 00 E4 00 BC 02 00 00 00 00 80 ; ................
019884  .dc.b 00 00 00 00 00 3C 3C FF F0 FF C0 00 00 3C 3C FF ; .....<<......<<.
019894  .dc.b F1 FF E0 00 00 3C 3C F0 03 C0 F0 00 00 3C 3C F0 ; .....<<......<<.
0198A4  .dc.b 03 C0 F0 01 00 3C 3C F0 03 C0 00 03 00 3E 7C F0 ; .....<<......>|.
0198B4  .dc.b 03 C0 00 07 00 1F F8 FF C1 FF C0 0F 00 0F F0 FF ; ................
0198C4  .dc.b C0 FF E0 1F 00 07 E0 F0 00 00 F0 3E 00 03 C0 F0 ; ...........>....
0198D4  .dc.b 00 00 F0 7C 00 03 C0 F0 03 C0 F0 F8 00 03 C0 F0 ; ...|............
0198E4  .dc.b 03 C0 F1 F0 00 03 C0 FF F1 FF E3 E0 00 03 C0 FF ; ................
0198F4  .dc.b F0 FF C3 C0 30 E0 3C 1F 30 00 68 E0 30 66 18 00 ; ....0.<.0.h.0f..
019904  .dc.b D8 90 28 50 3C 00 B0 A8 3C D0 30 00 60 D4 28 A0 ; ..(P<...<.0.`.(.
019914  .dc.b 18 00 C0 A3 20 C0 38 00 80 A0 88 A0 28 00 00 A0 ; .... .8.....(...
019924  .dc.b 58 E0 38 00 00 40 68 A0 08 00 00 20 30 A0 20 00 ; X.8..@h.... 0. .
019934  .dc.b 00 C0 10 20 30 00 00 C0 10 20 10 00 00 80 20 4F ; ... 0.... .... O
019944  .dc.b 60 00 00 00 00 36 00 00 38 F0 38 3F C0 00 70 F0 ; `....6..8.8?..p.
019954  .dc.b 38 78 00 00 E0 F8 30 E0 10 00 C0 DC 30 E0 18 00 ; 8x....0.....0...
019964  .dc.b 80 EE 30 C0 30 00 00 C6 38 E0 30 00 00 C3 30 C0 ; ..0.0...8.0...0.
019974  .dc.b 30 00 00 C1 A0 C0 20 00 00 80 F0 C0 30 00 00 C0 ; 0..... .....0...
019984  .dc.b 60 C0 30 00 00 80 20 C0 20 00 00 80 20 C0 20 00 ; `.0... . ... . .
019994  .dc.b 00 00 00 3F 80 00 00 00 00 00 00 00 20 F0 3C 3F ; ...?........ .<?
0199A4  .dc.b F0 00 40 F8 3C 7F F8 00 80 FC 3C F0 3C 00 00 FE ; ..@.<.....<.<...
0199B4  .dc.b 3C F0 3C 00 00 FF 3C F0 3C 00 00 FF BC F0 3C 00 ; <.<...<.<.....<.
0199C4  .dc.b 00 F7 FC F0 3C 00 00 F3 FC F0 3C 00 00 F1 FC F0 ; ....<.....<.....
0199D4  .dc.b 3C 00 00 F0 FC F0 3C 00 00 F0 7C F0 3C 00 00 F0 ; <.....<...|.<...
0199E4  .dc.b 3C F0 3C 00 00 F0 3C 7F F8 00 00 F0 3C 3F F0 00 ; <.<...<.....<?..
0199F4  .dc.b 38 F0 3C 3F F0 00 78 F8 3C 7F F8 00 F8 FC 3C F0 ; 8.<?..x.<.....<.
019A04  .dc.b 3C 00 F0 FE 3C F0 3C 00 E0 FF 3C F0 3C 00 C0 FF ; <...<.<...<.<...
019A14  .dc.b BC F0 3C 00 80 F7 FC F0 3C 00 00 F3 FC F0 3C 00 ; ..<.....<.....<.
019A24  .dc.b 00 F1 FC F0 3C 00 00 F0 FC F0 3C 00 00 F0 7C F0 ; ....<.....<...|.
019A34  .dc.b 3C 00 00 F0 3C F0 3C 00 00 F0 3C 7F F8 00 00 F0 ; <...<.<...<.....
019A44  .dc.b 3C 3F F0 00 30 F0 38 3F C0 00 68 F8 3C 79 E0 00 ; <?..0.8?..h.<y..
019A54  .dc.b D8 FC 34 E0 10 00 B0 DE 30 E0 1C 00 60 EF 34 D0 ; ..4.....0...`.4.
019A64  .dc.b 34 00 C0 DE BC F0 34 00 80 D7 74 D0 34 00 00 D3 ; 4.....4...t.4...
019A74  .dc.b A4 D0 24 00 00 B1 F4 D0 34 00 00 D0 EC D0 3C 00 ; ..$.....4.....<.
019A84  .dc.b 00 B0 6C D0 2C 00 00 B0 2C D0 2C 00 00 70 1C 3F ; ..l.,...,.,..p.?
019A94  .dc.b 98 00 00 F0 3C 09 F0 00 38 F0 3C 3F F0 00 70 F0 ; ....<...8.<?..p.
019AA4  .dc.b 38 7E 18 00 E0 F8 38 F0 3C 00 C0 FC 3C F0 38 00 ; 8~....8.<...<.8.
019AB4  .dc.b 80 FE 38 E0 38 00 00 E7 38 E0 38 00 00 E3 B8 E0 ; ..8.8...8.8.....
019AC4  .dc.b 38 00 00 E1 F8 E0 38 00 00 C0 F8 E0 38 00 00 E0 ; 8.....8.....8...
019AD4  .dc.b 70 E0 30 00 00 C0 30 E0 30 00 00 C0 30 E0 30 00 ; p.0...0.0...0.0.
019AE4  .dc.b 00 80 20 7F E0 00 00 00 00 36 00 00 20 E0 38 1F ; .. ......6.. .8.
019AF4  .dc.b 00 00 40 E0 30 60 00 00 80 90 20 40 10 00 00 88 ; ..@.0`.... @....
019B04  .dc.b 30 C0 10 00 00 C4 20 80 10 00 00 82 20 C0 30 00 ; 0..... ..... .0.
019B14  .dc.b 00 80 00 80 20 00 00 80 00 C0 20 00 00 00 60 80 ; .... ..... ...`.
019B24  .dc.b 00 00 00 00 20 80 20 00 00 80 00 00 20 00 00 80 ; .... . ..... ...
019B34  .dc.b 00 00 00 00 00 00 00 0F 00 00 00 00 00 00 00 00 ; ................
019B44  .dc.b 38 F0 3C 3F F0 00 78 F8 3C 7F F8 00 F8 FC 3C F0 ; 8.<?..x.<.....<.
019B54  .dc.b 3C 00 F0 FE 3C F0 3C 00 E0 FF 3C F0 3C 00 C0 FF ; <...<.<...<.<...
019B64  .dc.b BC F0 3C 00 80 F7 FC F0 3C 00 00 F3 FC F0 3C 00 ; ..<.....<.....<.
019B74  .dc.b 00 F1 FC F0 3C 00 00 F0 FC F0 3C 00 00 F0 7C F0 ; ....<.....<...|.
019B84  .dc.b 3C 00 00 F0 3C F0 3C 00 00 F0 3C 7F F8 00 00 F0 ; <...<.<...<.....
019B94  .dc.b 3C 3F F0 00 3F E1 C0 70 7F E1 C0 70 00 00 F0 34 ; <?..?..p...p...4
019BA4  .dc.b 3F E0 E0 38 00 E0 7F F1 E0 78 FF F1 E0 78 00 00 ; ?..8.....x...x..
019BB4  .dc.b D0 34 7F F0 F0 3C 00 F0 FF F5 E0 79 FF 61 E0 78 ; .4...<.....y.a.x
019BC4  .dc.b 00 00 D0 34 FF F4 F0 3C 00 F0 EF F9 E0 79 DF C9 ; ...4...<.....y..
019BD4  .dc.b E0 78 00 00 F0 34 EF 94 F0 3C 00 F0 F0 01 A0 69 ; .x...4...<.....i
019BE4  .dc.b E0 19 A0 68 00 00 D0 34 F0 04 D0 34 00 D0 F0 01 ; ...h...4...4....
019BF4  .dc.b A0 69 E0 39 A0 68 00 00 D0 34 F0 04 D0 34 00 D0 ; .i.9.h...4...4..
019C04  .dc.b F0 01 E0 79 E0 01 E0 E8 00 00 D0 34 F0 14 F0 3C ; ...y.......4...<
019C14  .dc.b 00 F0 F0 01 E0 79 E0 01 E0 50 00 00 D0 34 F0 14 ; .....y...P...4..
019C24  .dc.b F0 3C 00 F0 D0 01 A0 69 A0 01 A1 D0 00 00 68 74 ; .<.....i......ht
019C34  .dc.b D0 34 D0 34 00 D0 D0 01 A0 69 A0 01 A5 E0 00 00 ; .4.4.....i......
019C44  .dc.b 28 28 D0 34 D0 34 00 D0 FF 81 E0 69 E0 01 FF A0 ; ((.4.4.....i....
019C54  .dc.b 00 00 74 E8 F0 34 F0 34 00 D0 FF C1 A0 69 E0 01 ; ..t..4.4.....i..
019C64  .dc.b FF C0 00 00 14 F0 F0 34 D0 34 00 D0 ED D1 A0 69 ; .......4.4.....i
019C74  .dc.b A0 01 DE 00 00 00 3F D0 D0 34 D0 34 00 D0 C7 E1 ; ......?..4.4....
019C84  .dc.b A0 69 A0 01 9B 80 00 00 0F E0 D0 34 D0 34 00 D0 ; .i.........4.4..
019C94  .dc.b D0 01 A0 69 E0 01 A5 C0 00 00 13 A0 D0 34 D0 34 ; ...i.........4.4
019CA4  .dc.b 00 D0 D0 01 A0 69 A0 01 A2 E0 00 00 08 40 D0 34 ; .....i.......@.4
019CB4  .dc.b D0 34 00 D0 D0 01 E0 69 E0 01 A1 70 00 00 06 80 ; .4.....i...p....
019CC4  .dc.b F0 34 F0 34 00 90 D0 01 A0 68 E0 01 A0 A0 00 00 ; .4.4.....h......
019CD4  .dc.b 06 80 F0 34 D0 34 00 70 D0 00 A0 69 E0 71 A0 68 ; ...4.4.p...i.q.h
019CE4  .dc.b 00 00 06 80 70 34 50 34 00 00 90 00 E0 68 E0 69 ; ....p4P4.....h.i
019CF4  .dc.b 20 68 00 00 04 80 70 34 70 34 00 00 D0 00 BF F8 ;  h....p4p4......
019D04  .dc.b B7 E9 A0 68 00 00 06 80 5F FC 5F FC 00 E0 90 01 ; ...h...._._.....
019D14  .dc.b 1F D9 3F 99 20 68 00 00 04 80 8F EC 8F EC 00 D0 ; ..?. h..........
019D24  .dc.b 30 00 80 70 80 70 60 18 00 00 01 80 40 38 40 38 ; 0..p.p`.....@8@8
019D34  .dc.b 00 B0 F0 00 7F E0 7F E1 E0 78 00 00 07 80 3F F0 ; .........x....?.
019D44  .dc.b 3F F0 00 F0 3F F1 E0 78 7F E1 E0 78 00 00 E0 38 ; ?...?..x...x...8
019D54  .dc.b 3F F0 F0 3C 00 F0 7F F9 C0 70 FF F1 C0 70 00 00 ; ?..<.....p...p..
019D64  .dc.b E0 38 7F F8 E0 38 00 E0 FF F9 C0 71 FF F9 C0 70 ; .8...8.....q...p
019D74  .dc.b 00 00 E0 38 FF F8 E0 38 00 E0 F0 01 C0 71 E0 31 ; ...8...8.....q.1
019D84  .dc.b C0 70 00 00 E0 38 F0 78 E0 38 00 E0 E0 01 C0 71 ; .p...8.x.8.....q
019D94  .dc.b C0 61 C0 70 00 00 E0 38 E0 38 E0 38 00 E0 E0 01 ; .a.p...8.8.8....
019DA4  .dc.b C0 71 C0 41 C0 70 00 00 E0 38 E0 38 E0 38 00 E0 ; .q.A.p...8.8.8..
019DB4  .dc.b E0 01 C0 71 C0 01 C0 70 00 00 E0 38 E0 38 E0 38 ; ...q...p...8.8.8
019DC4  .dc.b 00 E0 E0 01 C0 71 C0 01 C0 E0 00 00 E0 38 E0 38 ; .....q.......8.8
019DD4  .dc.b E0 38 00 E0 E0 01 C0 71 C0 01 C0 E0 00 00 F0 38 ; .8.....q.......8
019DE4  .dc.b E0 38 E0 38 00 E0 E0 01 C0 71 C0 01 C3 C0 00 00 ; .8.8.....q......
019DF4  .dc.b 70 70 E0 38 E0 38 00 E0 FF C1 C0 71 C0 01 FF C0 ; pp.8.8.....q....
019E04  .dc.b 00 00 38 70 E0 38 E0 38 00 E0 FF E1 C0 71 C0 01 ; ..8p.8.8.....q..
019E14  .dc.b FF 80 00 00 38 E0 E0 38 E0 38 00 E0 FF E1 C0 71 ; ....8..8.8.....q
019E24  .dc.b C0 01 FF 00 00 00 1F E0 E0 38 E0 38 00 E0 F8 01 ; .........8.8....
019E34  .dc.b C0 71 C0 01 E7 00 00 00 1F C0 E0 38 E0 38 00 E0 ; .q.........8.8..
019E44  .dc.b E0 01 C0 71 80 01 C3 80 00 00 0F C0 E0 38 E0 38 ; ...q.........8.8
019E54  .dc.b 00 E0 E0 01 C0 71 C0 01 C1 C0 00 00 07 80 E0 38 ; .....q.........8
019E64  .dc.b E0 38 00 E0 E0 01 80 71 80 01 C0 E0 00 00 07 00 ; .8.....q........
019E74  .dc.b C0 38 C0 38 00 E0 E0 01 C0 71 80 01 C0 70 00 00 ; .8.8.....q...p..
019E84  .dc.b 07 00 C0 38 E0 38 00 80 E0 01 C0 71 80 79 C0 70 ; ...8.8.....q.y.p
019E94  .dc.b 00 00 07 00 C0 38 E0 38 00 00 E0 01 80 71 80 71 ; .....8.8.....q.q
019EA4  .dc.b C0 70 00 00 07 00 C0 38 C0 38 00 00 E0 01 DF E1 ; .p.....8.8......
019EB4  .dc.b DF F1 C0 70 00 00 07 00 EF F0 EF F0 00 F0 E0 00 ; ...p............
019EC4  .dc.b FF E0 FF E1 C0 70 00 00 07 00 7F F0 7F F0 00 E0 ; .....p..........
019ED4  .dc.b C0 00 7F 80 7F 81 80 60 00 00 06 00 3F C0 3F C0 ; .......`....?.?.
019EE4  .dc.b 00 C0 00 00 00 00 00 00 00 00 00 00 00 00 00 00 ; ................
019EF4  .dc.b 00 00 00 00 1F 41 80 60 3E 81 80 60 00 00 40 20 ; .....A.`>..`..@ 
019F04  .dc.b 1F 40 C0 30 00 C0 3F E1 80 60 7F C1 80 60 00 00 ; .@.0..?..`...`..
019F14  .dc.b C0 20 3F E0 C0 30 00 C0 60 01 80 60 C0 01 80 60 ; . ?..0..`..`...`
019F24  .dc.b 00 00 40 10 60 00 C0 30 00 C0 C0 01 80 61 80 01 ; ..@.`..0.....a..
019F34  .dc.b 80 60 00 00 40 20 C0 00 C0 30 00 C0 C0 01 80 61 ; .`..@ ...0.....a
019F44  .dc.b 80 01 80 60 00 00 C0 20 C0 00 C0 30 00 C0 C0 01 ; ...`... ...0....
019F54  .dc.b 80 61 80 01 80 60 00 00 40 10 C0 00 C0 30 00 C0 ; .a...`..@....0..
019F64  .dc.b C0 01 80 61 80 01 80 40 00 00 40 20 C0 00 C0 30 ; ...a...@..@ ...0
019F74  .dc.b 00 C0 C0 01 80 61 80 01 80 40 00 00 00 30 C0 00 ; .....a...@...0..
019F84  .dc.b C0 30 00 C0 C0 01 80 21 80 01 80 C0 00 00 40 20 ; .0.....!......@ 
019F94  .dc.b C0 00 C0 10 00 40 C0 01 80 21 80 01 80 80 00 00 ; .....@...!......
019FA4  .dc.b 20 20 C0 00 C0 10 00 40 7F 00 80 41 80 00 FB 80 ;   .....@...A....
019FB4  .dc.b 00 00 00 60 40 20 40 20 00 80 E9 81 80 41 80 01 ; ...`@ @ .....A..
019FC4  .dc.b D1 00 00 00 10 40 C0 20 C0 20 00 80 40 00 80 21 ; .....@. . ..@..!
019FD4  .dc.b 80 00 84 00 00 00 00 C0 40 00 40 10 00 40 40 00 ; ........@.@..@@.
019FE4  .dc.b 80 40 00 00 82 00 00 00 07 80 40 20 40 20 00 80 ; .@........@ @ ..
019FF4  .dc.b 00 00 00 61 00 01 01 00 00 00 00 00 00 30 00 30 ; ...a.........0.0
01A004  .dc.b 00 C0 40 00 00 40 00 00 80 00 00 00 00 00 00 20 ; ..@..@......... 
01A014  .dc.b 00 20 00 80 00 00 00 60 00 01 00 40 00 00 04 00 ; . .....`...@....
01A024  .dc.b 00 30 00 30 00 80 00 00 00 60 00 01 00 00 00 00 ; .0.0.....`......
01A034  .dc.b 04 00 00 30 00 30 00 00 00 00 00 60 00 20 00 60 ; ...0.0.....`. .`
01A044  .dc.b 00 00 00 00 00 30 00 30 00 00 00 00 00 40 00 60 ; .....0.0.....@.`
01A054  .dc.b 00 40 00 00 00 00 00 20 00 20 00 00 00 00 01 C0 ; .@..... . ......
01A064  .dc.b 01 C1 00 40 00 00 04 00 00 E0 00 E0 00 C0 00 00 ; ...@............
01A074  .dc.b 05 00 00 00 00 00 00 00 00 00 02 80 02 80 00 80 ; ................
01A084  .dc.b 00 00 00 00 00 00 00 00 00 00 00 00 00 00 00 00 ; ................
01A094  .dc.b 00 00 00 00 00 00 00 00 00 00 00 00 00 00 00 00 ; ................
01A0A4  .dc.b 00 00 00 00 3F F1 E0 78 7F E1 E0 78 00 00 F0 3C ; ....?..x...x...<
01A0B4  .dc.b 3F F0 F0 3C 00 F0 7F F9 E0 78 FF F1 E0 78 00 00 ; ?..<.....x...x..
01A0C4  .dc.b F0 3C 7F F8 F0 3C 00 F0 FF FD E0 79 FF F9 E0 78 ; .<...<.....y...x
01A0D4  .dc.b 00 00 F0 3C FF FC F0 3C 00 F0 FF F9 E0 79 FF F9 ; ...<...<.....y..
01A0E4  .dc.b E0 78 00 00 F0 3C FF FC F0 3C 00 F0 F0 01 E0 79 ; .x...<...<.....y
01A0F4  .dc.b E0 79 E0 78 00 00 F0 3C F0 3C F0 3C 00 F0 F0 01 ; .y.x...<.<.<....
01A104  .dc.b E0 79 E0 79 E0 78 00 00 F0 3C F0 3C F0 3C 00 F0 ; .y.y.x...<.<.<..
01A114  .dc.b F0 01 E0 79 E0 01 E0 F8 00 00 F0 3C F0 3C F0 3C ; ...y.......<.<.<
01A124  .dc.b 00 F0 F0 01 E0 79 E0 01 E0 F0 00 00 F0 3C F0 3C ; .....y.......<.<
01A134  .dc.b F0 3C 00 F0 F0 01 E0 79 E0 01 E1 F0 00 00 F8 7C ; .<.....y.......|
01A144  .dc.b F0 3C F0 3C 00 F0 F0 01 E0 79 E0 01 E7 E0 00 00 ; .<.<.....y......
01A154  .dc.b 78 78 F0 3C F0 3C 00 F0 FF C1 E0 79 E0 01 FF E0 ; xx.<.<.....y....
01A164  .dc.b 00 00 7C F8 F0 3C F0 3C 00 F0 FF E1 E0 79 E0 01 ; ..|..<.<.....y..
01A174  .dc.b FF C0 00 00 3C F0 F0 3C F0 3C 00 F0 FF F1 E0 79 ; ....<..<.<.....y
01A184  .dc.b E0 01 FF 00 00 00 3F F0 F0 3C F0 3C 00 F0 FF E1 ; ......?..<.<....
01A194  .dc.b E0 79 E0 01 FF 80 00 00 1F E0 F0 3C F0 3C 00 F0 ; .y.........<.<..
01A1A4  .dc.b F0 01 E0 79 E0 01 E7 C0 00 00 1F E0 F0 3C F0 3C ; ...y.........<.<
01A1B4  .dc.b 00 F0 F0 01 E0 79 E0 01 E3 E0 00 00 0F C0 F0 3C ; .....y.........<
01A1C4  .dc.b F0 3C 00 F0 F0 01 E0 79 E0 01 E1 F0 00 00 07 80 ; .<.....y........
01A1D4  .dc.b F0 3C F0 3C 00 F0 F0 01 E0 79 E0 01 E0 F0 00 00 ; .<.<.....y......
01A1E4  .dc.b 07 80 F0 3C F0 3C 00 F0 F0 01 E0 79 E0 79 E0 78 ; ...<.<.....y.y.x
01A1F4  .dc.b 00 00 07 80 F0 3C F0 3C 00 00 F0 01 E0 79 E0 79 ; .....<.<.....y.y
01A204  .dc.b E0 78 00 00 07 80 F0 3C F0 3C 00 00 F0 01 FF F9 ; .x.....<.<......
01A214  .dc.b FF F9 E0 78 00 00 07 80 FF FC FF FC 00 F0 F0 01 ; ...x............
01A224  .dc.b FF F9 FF F9 E0 78 00 00 07 80 FF FC FF FC 00 F0 ; .....x..........
01A234  .dc.b F0 00 FF F0 FF F1 E0 78 00 00 07 80 7F F8 7F F8 ; .......x........
01A244  .dc.b 00 F0 F0 00 7F E0 7F E1 E0 78 00 00 07 80 3F F0 ; .........x....?.
01A254  .dc.b 3F F0 00 F0 00 00 00 00 00 00 00 00 00 00 00 00 ; ?...............
01A264  .dc.b 00 00 00 00 00 00 00 00 00 00 00 00 00 00 00 00 ; ................
01A274  .dc.b 00 00 00 00 00 00 00 00 00 00 00 00 00 00 03 F3 ; ................
01A284  .dc.b 00 00 00 00 00 00 00 01 00 00 00 00 00 00 00 00 ; ................
01A294  .dc.b 00 00 05 01 00 00 03 E9 00 00 05 01 60 00 0F 90 ; ............`...
01A2A4  .dc.b 60 00 00 52                                     ; `..R

; ==== sound_api  $01A2A8  (3 callers) — BRA jump table = the resident sound driver's public API (init / play / stop / config). level_setup JSRs $1A2A8/$1A2AC/$1A2B4/$1A2DC to set it up; inactive slots BRA sound_silence ($1B232). ====
01A2A8  60 00 0F 88                   BRA $01B232

; ==== sub_01A2AC (4 callers) ====
01A2AC  60 00 0F 58                   BRA $01B206
01A2B0  .dc.b 60 00 0B E2                                     ; `...

; ==== sub_01A2B4 (3 callers) ====
01A2B4  60 00 0F D2                   BRA $01B288
01A2B8  .dc.b 60 00 0F 78 60 00 0F 74 60 00 0C EE 60 00 0F 3C ; `..x`..t`...`..<

; ==== sub_01A2C8 (4 callers) ====
01A2C8  60 00 0E 3C                   BRA $01B106

; ==== sub_01A2CC (2 callers) ====
01A2CC  60 00 0E 88                   BRA $01B156
01A2D0  .dc.b 60 00 0F 60 60 00 0F 5C 60 00 0F 58             ; `..``..\`..X

; ==== sub_01A2DC (25 callers) ====
01A2DC  60 00 0E 96                   BRA $01B174
01A2E0  .dc.b 60 00 0F 3A 60 00 0F 4C 60 00 0F 48 60 00 0F 44 ; `..:`..L`..H`..D
01A2F0  .dc.b 60 00 0F 40 60 00 0F 3C                         ; `..@`..<

; --- sound_update  $01A2F8 — Per-frame update of the resident player (same shape as the overlay's sound_tick): a6 = sound_state ($1B2D8); steps the sequencer/voices and calls sound_update_voices. ---
01A2F8  48 E7 FF FE                   MOVEM.l d0-d7/a0-a6,-(a7)
01A2FC  4D FA 0F DA                   LEA $01B2D8(pc),a6
01A300  4A 2E 00 3D                   TST.b $3D(a6)
01A304  6B 06                         BMI $01A30C
01A306  61 00 0C CE                   BSR $01AFD6
01A30A  60 1E                         BRA $01A32A
01A30C  4A 6E 00 08                   TST.w $8(a6)
01A310  67 06                         BEQ $01A318
01A312  4A 2E 00 2E                   TST.b $2E(a6)
01A316  66 0C                         BNE $01A324
01A318  41 FA 12 D4                   LEA $01B5EE(pc),a0
01A31C  42 68 00 00                   CLR.w $0(a0)
01A320  60 00 00 08                   BRA $01A32A
01A324  61 0A                         BSR $01A330
01A326  61 00 05 4E                   BSR $01A876
01A32A  4C DF 7F FF                   MOVEM.l (a7)+,d0-d7/a0-a6
01A32E  4E 75                         RTS

; ==== sub_01A330 (1 caller) ====
01A330  4B FA 11 74                   LEA $01B4A6(pc),a5
01A334  28 6E 00 00                   MOVEA.l $0(a6),a4
01A338  4A 6E 00 2C                   TST.w $2C(a6)
01A33C  67 08                         BEQ $01A346
01A33E  04 6E 00 01 00 2C             SUBI.w #$1,$2C(a6)
01A344  4E 75                         RTS
01A346  3D 6D 00 06 00 2C             MOVE.w $6(a5),$2C(a6)
01A34C  4A 6E 00 3E                   TST.w $3E(a6)
01A350  67 00 00 1A                   BEQ $01A36C
01A354  4A 6E 00 0A                   TST.w $A(a6)
01A358  67 00 00 12                   BEQ $01A36C
01A35C  42 6E 00 2C                   CLR.w $2C(a6)
01A360  42 6E 00 0A                   CLR.w $A(a6)
01A364  3D 7C 00 01 00 44             MOVE.w #$1,$44(a6)
01A36A  4E 75                         RTS
01A36C  20 4D                         MOVEA.l a5,a0
01A36E  42 2E 00 0A                   CLR.b $A(a6)
01A372  61 4E                         BSR $01A3C2
01A374  4A 2E 00 0A                   TST.b $A(a6)
01A378  66 D2                         BNE $01A34C
01A37A  58 88                         ADDQ.l #4,a0
01A37C  61 44                         BSR $01A3C2
01A37E  4A 2E 00 0A                   TST.b $A(a6)
01A382  66 C8                         BNE $01A34C
01A384  58 88                         ADDQ.l #4,a0
01A386  61 3A                         BSR $01A3C2
01A388  4A 2E 00 0A                   TST.b $A(a6)
01A38C  66 BE                         BNE $01A34C
01A38E  58 88                         ADDQ.l #4,a0
01A390  61 30                         BSR $01A3C2
01A392  4A 2E 00 0A                   TST.b $A(a6)
01A396  66 B4                         BNE $01A34C
01A398  58 88                         ADDQ.l #4,a0
01A39A  61 26                         BSR $01A3C2
01A39C  4A 2E 00 0A                   TST.b $A(a6)
01A3A0  66 AA                         BNE $01A34C
01A3A2  58 88                         ADDQ.l #4,a0
01A3A4  61 1C                         BSR $01A3C2
01A3A6  4A 2E 00 0A                   TST.b $A(a6)
01A3AA  66 A0                         BNE $01A34C
01A3AC  58 88                         ADDQ.l #4,a0
01A3AE  61 12                         BSR $01A3C2
01A3B0  4A 2E 00 0A                   TST.b $A(a6)
01A3B4  66 96                         BNE $01A34C
01A3B6  58 88                         ADDQ.l #4,a0
01A3B8  61 08                         BSR $01A3C2
01A3BA  4A 2E 00 0A                   TST.b $A(a6)
01A3BE  66 8C                         BNE $01A34C
01A3C0  4E 75                         RTS

; ==== sub_01A3C2 (8 callers) ====
01A3C2  0C 28 00 90 00 48             CMPI.b #$90,$48(a0)
01A3C8  65 1C                         BCS $01A3E6
01A3CA  0C 28 00 FE 00 48             CMPI.b #$FE,$48(a0)
01A3D0  66 20                         BNE $01A3F2
01A3D2  11 7C 00 FF 00 48             MOVE.b #$FF,$48(a0)
01A3D8  10 28 00 49                   MOVE.b $49(a0),d0
01A3DC  4A 68 00 08                   TST.w $8(a0)
01A3E0  67 00 0B CE                   BEQ $01AFB0
01A3E4  4E 75                         RTS
01A3E6  4A 68 00 6A                   TST.w $6A(a0)
01A3EA  67 08                         BEQ $01A3F4
01A3EC  04 68 00 01 00 6A             SUBI.w #$1,$6A(a0)
01A3F2  4E 75                         RTS
01A3F4  30 28 00 68                   MOVE.w $68(a0),d0
01A3F8  E5 48                         LSL.w #2,d0
01A3FA  22 68 00 28                   MOVEA.l $28(a0),a1
01A3FE  2D 71 00 00 00 28             MOVE.l $0(a1,d0.w),$28(a6)
01A404  0C 2E 00 F0 00 28             CMPI.b #$F0,$28(a6)
01A40A  64 4A                         BCC $01A456
01A40C  0C 2E 00 C0 00 28             CMPI.b #$C0,$28(a6)
01A412  64 14                         BCC $01A428
01A414  0C 2E 00 7F 00 28             CMPI.b #$7F,$28(a6)
01A41A  65 0C                         BCS $01A428
01A41C  11 6E 00 2B 00 6B             MOVE.b $2B(a6),$6B(a0)
01A422  02 6E FF 00 00 2A             ANDI.w #$FF00,$2A(a6)
01A428  10 28 00 49                   MOVE.b $49(a0),d0
01A42C  D1 2E 00 28                   ADD.b d0,$28(a6)
01A430  20 2E 00 28                   MOVE.l $28(a6),d0
01A434  4A 68 00 08                   TST.w $8(a0)
01A438  66 04                         BNE $01A43E
01A43A  61 00 0A 58                   BSR $01AE94
01A43E  0C 2E 00 C0 00 28             CMPI.b #$C0,$28(a6)
01A444  64 2A                         BCC $01A470
01A446  0C 2E 00 7F 00 28             CMPI.b #$7F,$28(a6)
01A44C  65 22                         BCS $01A470
01A44E  06 68 00 01 00 68             ADDI.w #$1,$68(a0)
01A454  4E 75                         RTS
01A456  10 2E 00 28                   MOVE.b $28(a6),d0
01A45A  02 40 00 0F                   ANDI.w #$F,d0
01A45E  E5 48                         LSL.w #2,d0
01A460  43 FA 01 A2                   LEA $01A604(pc),a1
01A464  22 31 00 00                   MOVE.l $0(a1,d0.w),d1
01A468  43 FA FE 36                   LEA $01A2A0(pc),a1
01A46C  D3 C1                         ADDA.l d1,a1
01A46E  4E D1                         JMP (a1)
01A470  06 68 00 01 00 68             ADDI.w #$1,$68(a0)
01A476  60 00 FF 7C                   BRA $01A3F4
01A47A  .dc.b 0C 28 00 81 00 48 67 00 00 8E 30 2D 00 04 B0 6D ; .(...Hg...0-...m
01A48A  .dc.b 00 02 66 08 3B 6D 00 00 00 04 60 06 06 6D 00 01 ; ..f.;m....`..m..
01A49A  .dc.b 00 04 61 00 01 A6 3D 7C FF FF 00 0A 4E 75 4A 28 ; ..a...=|....NuJ(
01A4AA  .dc.b 00 4A 67 10 0C 28 00 FF 00 4A 67 10 04 28 00 01 ; .Jg..(...Jg..(..
01A4BA  .dc.b 00 4A 60 14 11 7C 00 FF 00 4A 60 AA 10 2E 00 29 ; .J`..|...J`....)
01A4CA  .dc.b 04 00 00 01 11 40 00 4A 31 6E 00 2A 00 68 60 00 ; .....@.J1n.*.h`.
01A4DA  .dc.b FF 1A 10 2E 00 29 02 40 00 7F 11 40 00 48 E5 48 ; .....).@...@.H.H
01A4EA  .dc.b 22 4C D3 FC 00 00 04 00 20 31 00 00 D0 8C 21 40 ; "L...... 1....!@
01A4FA  .dc.b 00 28 31 6E 00 2A 00 68 60 00 FE F0 11 6E 00 29 ; .(1n.*.h`....n.)
01A50A  .dc.b 00 6B 60 00 FF 40 11 7C 00 FF 00 48 4E 75 20 2E ; .k`..@.|...HNu .
01A51A  .dc.b 00 28 4A 68 00 08 66 04 61 00 09 70 60 00 FF 48 ; .(Jh..f.a..p`..H
01A52A  .dc.b 21 68 00 28 00 88 31 68 00 68 00 A8 10 2E 00 29 ; !h.(..1h.h.....)
01A53A  .dc.b 02 40 00 7F 11 40 00 48 E5 48 22 4C D3 FC 00 00 ; .@...@.H.H"L....
01A54A  .dc.b 04 00 20 31 00 00 D0 8C 21 40 00 28 31 6E 00 2A ; .. 1....!@.(1n.*
01A55A  .dc.b 00 68 60 00 FE 96 2B 6D 00 88 00 28 3B 6D 00 A8 ; .h`...+m...(;m..
01A56A  .dc.b 00 68 60 00 FF 02 43 FA 10 7C 4A 69 00 00 66 00 ; .h`...C..|Ji..f.
01A57A  .dc.b FE F6 33 7C 00 01 00 00 1D 6E 00 2B 00 51 1D 6E ; ..3|.....n.+.Q.n
01A58A  .dc.b 00 29 00 52 1D 6E 00 29 00 53 67 1C 1D 7C 00 01 ; .).R.n.).Sg..|..
01A59A  .dc.b 00 1C 10 2E 00 50 B0 2E 00 51 67 12 65 00 FE C8 ; .....P...Qg.e...
01A5AA  .dc.b 44 2E 00 1C 60 00 FE C0 1D 6E 00 51 00 50 1D 7C ; D...`....n.Q.P.|
01A5BA  .dc.b 00 00 00 1C 42 69 00 00 60 00 FE AC 12 2E 00 2A ; ....Bi..`......*
01A5CA  .dc.b 02 41 00 07 E5 49 10 2E 00 29 1B 80 10 48 1B AE ; .A...I...)...H..
01A5DA  .dc.b 00 2B 10 49 02 40 00 7F E5 48 22 4C D3 FC 00 00 ; .+.I.@...H"L....
01A5EA  .dc.b 04 00 20 31 00 00 D0 8C 2B 80 10 28 42 B5 10 68 ; .. 1....+..(B..h
01A5FA  .dc.b 3B BC FF FF 10 4A 60 00 FE 6E 00 00 01 DA 00 00 ; ;....J`..n......
01A60A  .dc.b 02 08 00 00 02 3C 00 00 02 66 00 00 02 70 00 00 ; .....<...f...p..
01A61A  .dc.b 02 78 00 00 02 78 00 00 02 78 00 00 02 8A 00 00 ; .x...x...x......
01A62A  .dc.b 02 C0 00 00 02 D0 00 00 03 26 00 00 01 AE 00 00 ; .........&......
01A63A  .dc.b 01 AE 00 00 02 70 00 00 01 D0                   ; .....p....

; ==== sub_01A644 (1 caller) ====
01A644  48 E7 80 C0                   MOVEM.l d0/a0-a1,-(a7)
01A648  70 00                         MOVEQ #$0,d0
01A64A  30 2D 00 04                   MOVE.w $4(a5),d0
01A64E  E9 48                         LSL.w #4,d0
01A650  D0 8C                         ADD.l a4,d0
01A652  06 80 00 00 08 00             ADDI.l #$800,d0
01A658  20 40                         MOVEA.l d0,a0
01A65A  22 4C                         MOVEA.l a4,a1
01A65C  D3 FC 00 00 04 00             ADDA.l #$400,a1
01A662  30 18                         MOVE.w (a0)+,d0
01A664  B0 7C EF FE                   CMP.w #$EFFE,d0
01A668  66 1C                         BNE $01A686
01A66A  30 18                         MOVE.w (a0)+,d0
01A66C  B0 7C 00 05                   CMP.w #$5,d0
01A670  65 02                         BCS $01A674
01A672  70 00                         MOVEQ #$0,d0
01A674  E5 48                         LSL.w #2,d0
01A676  43 FA 01 EA                   LEA $01A862(pc),a1
01A67A  20 31 00 00                   MOVE.l $0(a1,d0.w),d0
01A67E  43 FA FC 20                   LEA $01A2A0(pc),a1
01A682  D3 C0                         ADDA.l d0,a1
01A684  4E D1                         JMP (a1)
01A686  3B 40 00 48                   MOVE.w d0,$48(a5)
01A68A  6B 1A                         BMI $01A6A6
01A68C  02 40 7F 00                   ANDI.w #$7F00,d0
01A690  EC 48                         LSR.w #6,d0
01A692  20 31 00 00                   MOVE.l $0(a1,d0.w),d0
01A696  D0 8C                         ADD.l a4,d0
01A698  2B 40 00 28                   MOVE.l d0,$28(a5)
01A69C  42 AD 00 68                   CLR.l $68(a5)
01A6A0  3B 7C FF FF 00 4A             MOVE.w #$FFFF,$4A(a5)
01A6A6  30 18                         MOVE.w (a0)+,d0
01A6A8  3B 40 00 4C                   MOVE.w d0,$4C(a5)
01A6AC  6B 1A                         BMI $01A6C8
01A6AE  02 40 7F 00                   ANDI.w #$7F00,d0
01A6B2  EC 48                         LSR.w #6,d0
01A6B4  20 31 00 00                   MOVE.l $0(a1,d0.w),d0
01A6B8  D0 8C                         ADD.l a4,d0
01A6BA  2B 40 00 2C                   MOVE.l d0,$2C(a5)
01A6BE  42 AD 00 6C                   CLR.l $6C(a5)
01A6C2  3B 7C FF FF 00 4E             MOVE.w #$FFFF,$4E(a5)
01A6C8  30 18                         MOVE.w (a0)+,d0
01A6CA  3B 40 00 50                   MOVE.w d0,$50(a5)
01A6CE  6B 1A                         BMI $01A6EA
01A6D0  02 40 7F 00                   ANDI.w #$7F00,d0
01A6D4  EC 48                         LSR.w #6,d0
01A6D6  20 31 00 00                   MOVE.l $0(a1,d0.w),d0
01A6DA  D0 8C                         ADD.l a4,d0
01A6DC  2B 40 00 30                   MOVE.l d0,$30(a5)
01A6E0  42 AD 00 70                   CLR.l $70(a5)
01A6E4  3B 7C FF FF 00 52             MOVE.w #$FFFF,$52(a5)
01A6EA  30 18                         MOVE.w (a0)+,d0
01A6EC  3B 40 00 54                   MOVE.w d0,$54(a5)
01A6F0  6B 1A                         BMI $01A70C
01A6F2  02 40 7F 00                   ANDI.w #$7F00,d0
01A6F6  EC 48                         LSR.w #6,d0
01A6F8  20 31 00 00                   MOVE.l $0(a1,d0.w),d0
01A6FC  D0 8C                         ADD.l a4,d0
01A6FE  2B 40 00 34                   MOVE.l d0,$34(a5)
01A702  42 AD 00 74                   CLR.l $74(a5)
01A706  3B 7C FF FF 00 56             MOVE.w #$FFFF,$56(a5)
01A70C  30 18                         MOVE.w (a0)+,d0
01A70E  3B 40 00 58                   MOVE.w d0,$58(a5)
01A712  6B 1A                         BMI $01A72E
01A714  02 40 7F 00                   ANDI.w #$7F00,d0
01A718  EC 48                         LSR.w #6,d0
01A71A  20 31 00 00                   MOVE.l $0(a1,d0.w),d0
01A71E  D0 8C                         ADD.l a4,d0
01A720  2B 40 00 38                   MOVE.l d0,$38(a5)
01A724  42 AD 00 78                   CLR.l $78(a5)
01A728  3B 7C FF FF 00 5A             MOVE.w #$FFFF,$5A(a5)
01A72E  30 18                         MOVE.w (a0)+,d0
01A730  3B 40 00 5C                   MOVE.w d0,$5C(a5)
01A734  6B 1A                         BMI $01A750
01A736  02 40 7F 00                   ANDI.w #$7F00,d0
01A73A  EC 48                         LSR.w #6,d0
01A73C  20 31 00 00                   MOVE.l $0(a1,d0.w),d0
01A740  D0 8C                         ADD.l a4,d0
01A742  2B 40 00 3C                   MOVE.l d0,$3C(a5)
01A746  42 AD 00 7C                   CLR.l $7C(a5)
01A74A  3B 7C FF FF 00 5E             MOVE.w #$FFFF,$5E(a5)
01A750  30 18                         MOVE.w (a0)+,d0
01A752  3B 40 00 60                   MOVE.w d0,$60(a5)
01A756  6B 1A                         BMI $01A772
01A758  02 40 7F 00                   ANDI.w #$7F00,d0
01A75C  EC 48                         LSR.w #6,d0
01A75E  20 31 00 00                   MOVE.l $0(a1,d0.w),d0
01A762  D0 8C                         ADD.l a4,d0
01A764  2B 40 00 40                   MOVE.l d0,$40(a5)
01A768  42 AD 00 80                   CLR.l $80(a5)
01A76C  3B 7C FF FF 00 62             MOVE.w #$FFFF,$62(a5)
01A772  30 18                         MOVE.w (a0)+,d0
01A774  3B 40 00 64                   MOVE.w d0,$64(a5)
01A778  6B 1A                         BMI $01A794
01A77A  02 40 7F 00                   ANDI.w #$7F00,d0
01A77E  EC 48                         LSR.w #6,d0
01A780  20 31 00 00                   MOVE.l $0(a1,d0.w),d0
01A784  D0 8C                         ADD.l a4,d0
01A786  2B 40 00 44                   MOVE.l d0,$44(a5)
01A78A  42 AD 00 84                   CLR.l $84(a5)
01A78E  3B 7C FF FF 00 66             MOVE.w #$FFFF,$66(a5)
01A794  4C DF 03 01                   MOVEM.l (a7)+,d0/a0-a1
01A798  4E 75                         RTS
01A79A  .dc.b 61 00 09 C0 42 2E 00 2E 43 FA 0E 4A 33 7C 00 02 ; a...B...C..J3|..
01A7AA  .dc.b 00 02 4C DF 03 01 4E 75 3B 50 00 04 60 00 FE 90 ; ..L...Nu;P..`...
01A7BA  .dc.b 3B 50 00 06 3D 50 00 2C 1D 6E 00 5C 00 4A 30 28 ; ;P..=P.,.n.\.J0(
01A7CA  .dc.b 00 02 6B 00 00 20 02 40 01 FF 4A 40 67 00 00 16 ; ..k.. .@..J@g...
01A7DA  .dc.b 22 3C 00 00 1C 00 82 C0 13 C1 00 BF D7 00 1D 7C ; "<.............|
01A7EA  .dc.b 00 01 00 4A 06 6D 00 01 00 04 60 00 FE 52 3D 50 ; ...J.m....`..R=P
01A7FA  .dc.b 00 3E 06 6D 00 01 00 04 60 00 FE 44 06 6D 00 01 ; .>.m....`..D.m..
01A80A  .dc.b 00 04 43 FA 0D E0 4A 69 00 00 66 00 FE 32 33 7C ; ..C...Ji..f..23|
01A81A  .dc.b 00 01 00 00 1D 68 00 03 00 51 1D 68 00 01 00 52 ; .....h...Q.h...R
01A82A  .dc.b 1D 68 00 01 00 53 67 1C 1D 7C 00 01 00 1C 10 2E ; .h...Sg..|......
01A83A  .dc.b 00 50 B0 2E 00 51 67 12 65 00 FE 04 44 2E 00 1C ; .P...Qg.e...D...
01A84A  .dc.b 60 00 FD FC 1D 6E 00 51 00 50 1D 7C 00 00 00 1C ; `....n.Q.P.|....
01A85A  .dc.b 42 69 00 00 60 00 FD E8 00 00 04 FE 00 00 05 12 ; Bi..`...........
01A86A  .dc.b 00 00 05 1A 00 00 05 58 00 00 05 66             ; .......X...f

; ==== sound_update_voices  $01A876  (1 caller) — Update the three voices (sound_update_voice x3, a5 walks voice_table $1B332). ====
01A876  4D FA 0A 60                   LEA $01B2D8(pc),a6
01A87A  4B FA 0A B6                   LEA $01B332(pc),a5
01A87E  61 06                         BSR $01A886
01A880  61 04                         BSR $01A886
01A882  61 00 00 02                   BSR $01A886

; ==== sound_update_voice  $01A886  (3 callers) — Update one voice: a4 = voice.$160 (its $DFF0Ax hardware channel), then the vibrato/portamento/envelope steps — identical to the overlay's update_voice. ====
01A886  DB FC 00 00 00 04             ADDA.l #$4,a5
01A88C  28 6D 01 60                   MOVEA.l $160(a5),a4
01A890  4A 6D 00 02                   TST.w $2(a5)
01A894  67 02                         BEQ $01A898
01A896  6A 70                         BPL $01A908
01A898  4A 6D 01 00                   TST.w $100(a5)
01A89C  6B 08                         BMI $01A8A6
01A89E  04 6D 00 01 01 00             SUBI.w #$1,$100(a5)
01A8A4  60 04                         BRA $01A8AA
01A8A6  42 2D 01 03                   CLR.b $103(a5)
01A8AA  61 00 05 08                   BSR $01ADB4
01A8AE  61 00 05 42                   BSR $01ADF2
01A8B2  61 00 05 8C                   BSR $01AE40
01A8B6  4A 2E 00 1C                   TST.b $1C(a6)
01A8BA  67 2C                         BEQ $01A8E8
01A8BC  04 2E 00 01 00 52             SUBI.b #$1,$52(a6)
01A8C2  66 24                         BNE $01A8E8
01A8C4  1D 6E 00 53 00 52             MOVE.b $53(a6),$52(a6)
01A8CA  10 2E 00 1C                   MOVE.b $1C(a6),d0
01A8CE  D1 2E 00 50                   ADD.b d0,$50(a6)
01A8D2  10 2E 00 51                   MOVE.b $51(a6),d0
01A8D6  B0 2E 00 50                   CMP.b $50(a6),d0
01A8DA  66 0C                         BNE $01A8E8
01A8DC  42 2E 00 1C                   CLR.b $1C(a6)
01A8E0  41 FA 0D 0C                   LEA $01B5EE(pc),a0
01A8E4  42 68 00 00                   CLR.w $0(a0)
01A8E8  72 00                         MOVEQ #$0,d1
01A8EA  12 2E 00 50                   MOVE.b $50(a6),d1
01A8EE  70 00                         MOVEQ #$0,d0
01A8F0  10 2D 00 60                   MOVE.b $60(a5),d0
01A8F4  B2 7C 00 40                   CMP.w #$40,d1
01A8F8  67 0A                         BEQ $01A904
01A8FA  E5 48                         LSL.w #2,d0
01A8FC  C0 C1                         MULU.W d1,d0
01A8FE  E0 48                         LSR.w #8,d0
01A900  02 40 00 7F                   ANDI.w #$7F,d0
01A904  39 40 00 08                   MOVE.w d0,$8(a4)
01A908  4A 6D 00 02                   TST.w $2(a5)
01A90C  67 34                         BEQ $01A942
01A90E  6B 26                         BMI $01A936
01A910  42 6D 00 40                   CLR.w $40(a5)
01A914  3B 6E 00 44 00 42             MOVE.w $44(a6),$42(a5)
01A91A  3B 7C FF FF 00 02             MOVE.w #$FFFF,$2(a5)
01A920  3B 7C FF FF 00 62             MOVE.w #$FFFF,$62(a5)
01A926  33 ED 01 12 00 DF F0 9A       MOVE.w $112(a5),$DFF09A.l
01A92E  33 ED 01 12 00 DF F0 9C       MOVE.w $112(a5),$DFF09C.l
01A936  4A 6D 00 42                   TST.w $42(a5)
01A93A  67 08                         BEQ $01A944
01A93C  04 6D 00 01 00 42             SUBI.w #$1,$42(a5)
01A942  4E 75                         RTS
01A944  20 6D 00 30                   MOVEA.l $30(a5),a0
01A948  30 2D 00 40                   MOVE.w $40(a5),d0
01A94C  E5 48                         LSL.w #2,d0
01A94E  2D 70 00 00 00 28             MOVE.l $0(a0,d0.w),$28(a6)
01A954  10 2E 00 28                   MOVE.b $28(a6),d0
01A958  42 2E 00 28                   CLR.b $28(a6)
01A95C  02 40 00 FF                   ANDI.w #$FF,d0
01A960  B0 7C 00 23                   CMP.w #$23,d0
01A964  64 12                         BCC $01A978
01A966  E5 48                         LSL.w #2,d0
01A968  41 FA 03 B6                   LEA $01AD20(pc),a0
01A96C  22 30 00 00                   MOVE.l $0(a0,d0.w),d1
01A970  41 FA F9 2E                   LEA $01A2A0(pc),a0
01A974  D1 C1                         ADDA.l d1,a0
01A976  4E D0                         JMP (a0)
01A978  06 6D 00 01 00 40             ADDI.w #$1,$40(a5)
01A97E  4E 75                         RTS
01A980  .dc.b 06 6D 00 01 00 40 60 BC 42 2D 00 70 42 2D 00 92 ; .m...@`.B-.pB-..
01A990  .dc.b 42 6D 00 C0 33 ED 01 12 00 DF F0 9A 33 ED 01 12 ; Bm..3.......3...
01A9A0  .dc.b 00 DF F0 9C 33 ED 00 52 00 DF F0 96 60 D2 33 ED ; ....3..R....`.3.
01A9B0  .dc.b 00 50 00 DF F0 96 60 C8 20 2E 00 28 D0 AE 00 04 ; .P....`. ..(....
01A9C0  .dc.b 2B 40 00 B0 28 80 60 B8 32 2E 00 2A 48 C1 20 2D ; +@..(.`.2..*H. -
01A9D0  .dc.b 00 B0 D0 81 60 EA 30 2E 00 2A 32 2D 00 D0 D2 40 ; ....`.0..*2-...@
01A9E0  .dc.b 3B 41 00 D0 39 41 00 04 60 96 3B 6E 00 2A 00 D0 ; ;A..9A..`.;n.*..
01A9F0  .dc.b 39 6E 00 2A 00 04 60 88 3B 6E 00 2A 00 42 60 00 ; 9n.*..`.;n.*.B`.
01AA00  .dc.b FF 78 20 2E 00 28 60 00 FF 78 60 00 FF 74 60 00 ; .x ..(`..x`..t`.
01AA10  .dc.b FF 70 60 00 FF 6C 60 00 FF 68 42 6D 00 02 33 ED ; .p`..l`..hBm..3.
01AA20  .dc.b 01 10 00 DF F0 9A 60 00 FF 50 48 E7 80 04 4B FA ; ......`..PH...K.
01AA30  .dc.b 09 06 30 39 00 DF F0 1E 08 00 00 07 66 00 00 24 ; ..09........f..$
01AA40  .dc.b DB FC 00 00 00 04 08 00 00 08 66 00 00 16 DB FC ; ..........f.....
01AA50  .dc.b 00 00 00 04 08 00 00 09 66 00 00 08 DB FC 00 00 ; ........f.......
01AA60  .dc.b 00 04 33 ED 01 12 00 DF F0 9A 33 ED 01 12 00 DF ; ..3.......3.....
01AA70  .dc.b F0 9C 3B 7C FF FF 00 02 4C DF 20 01 4E 73 10 2E ; ..;|....L. .Ns..
01AA80  .dc.b 00 29 B0 2D 00 11 64 00 FE F8 3B 6E 00 2A 00 40 ; .).-..d...;n.*.@
01AA90  .dc.b 60 00 FE B2 10 2E 00 29 B0 2D 00 60 64 00 FE E2 ; `......).-.`d...
01AAA0  .dc.b 3B 6E 00 2A 00 40 60 00 FE 9C 60 00 FE D4 4A 2D ; ;n.*.@`...`...J-
01AAB0  .dc.b 00 62 67 10 0C 2D 00 FF 00 62 67 12 04 2D 00 01 ; .bg..-...bg..-..
01AAC0  .dc.b 00 62 60 16 1B 7C 00 FF 00 62 60 00 FE B4 10 2E ; .b`..|...b`.....
01AAD0  .dc.b 00 29 04 00 00 01 1B 40 00 62 3B 6E 00 2A 00 40 ; .).....@.b;n.*.@
01AAE0  .dc.b 60 00 FE 62 4A 2D 00 D2 66 C4 60 00 FE 94 10 2E ; `..bJ-..f.`.....
01AAF0  .dc.b 00 29 02 80 00 00 00 7F 20 6E 00 00 E5 48 D1 C0 ; .)...... n...H..
01AB00  .dc.b 20 28 06 00 D0 AE 00 00 2B 40 00 30 3B 6E 00 2A ;  (......+@.0;n.*
01AB10  .dc.b 00 40 3B 7C FF FF 00 62 60 00 FD EE 42 6D 00 02 ; .@;|...b`...Bm..
01AB20  .dc.b 4E 75 0C 2E 00 FE 00 2A 66 00 00 14 14 2D 00 11 ; Nu.....*f....-..
01AB30  .dc.b 1F 2E 00 2B 42 6E 00 2A 61 50 1D 5F 00 2B 30 2D ; ...+Bn.*aP._.+0-
01AB40  .dc.b 00 20 E3 48 D0 6D 00 20 D0 6E 00 2A 1B 40 00 60 ; . .H.m. .n.*.@.`
01AB50  .dc.b 60 00 FE 2E 0C 2E 00 FE 00 2A 66 12 14 2D 00 11 ; `........*f..-..
01AB60  .dc.b 1F 2E 00 2B 42 6E 00 2A 61 20 1D 5F 00 2B 1B 6E ; ...+Bn.*a ._.+.n
01AB70  .dc.b 00 2B 00 60 60 00 FE 0A 14 2D 00 11 61 0C 60 00 ; .+.``....-..a.`.
01AB80  .dc.b FD F8 74 00 61 04 60 00 FD F0 10 2E 00 29 D0 02 ; ..t.a.`......)..
01AB90  .dc.b 48 80 E3 48 41 FA 0A 8E 32 2D 00 22 48 81 30 30 ; H..HA...2-."H.00
01ABA0  .dc.b 00 00 D0 41 D0 6E 00 2A 3B 40 00 A0 4A 6D 00 C0 ; ...A.n.*;@..Jm..
01ABB0  .dc.b 66 00 00 06 39 40 00 06 4E 75 3B 6E 00 2A 00 A0 ; f...9@..Nu;n.*..
01ABC0  .dc.b 4A 6D 00 C0 66 00 FD BA 39 6E 00 2A 00 06 60 00 ; Jm..f...9n.*..`.
01ABD0  .dc.b FD B0 1B 6E 00 29 00 82 1B 7C 00 01 00 83 3B 6E ; ...n.)...|....;n
01ABE0  .dc.b 00 2A 00 C0 3B 6D 00 A0 00 C2 60 00 FD 94 10 2E ; .*..;m....`.....
01ABF0  .dc.b 00 29 1B 40 00 92 E2 08 1B 40 00 93 1B 6E 00 2B ; .).@.....@...n.+
01AC00  .dc.b 00 80 1B 7C 00 01 00 81 4A 6D 00 C0 66 00 FD 72 ; ...|....Jm..f..r
01AC10  .dc.b 39 6D 00 A0 00 06 42 6D 00 90 60 00 FD 64 1B 6E ; 9m....Bm..`..d.n
01AC20  .dc.b 00 2A 00 70 1B 6E 00 29 00 73 1B 6E 00 2A 00 71 ; .*.p.n.).s.n.*.q
01AC30  .dc.b 1B 6E 00 2B 00 72 60 00 FD 48 42 2D 00 70 42 2D ; .n.+.r`..HB-.pB-
01AC40  .dc.b 00 92 42 6D 00 C0 60 00 FD 38 33 ED 01 12 00 DF ; ..Bm..`..83.....
01AC50  .dc.b F0 9A 33 ED 01 12 00 DF F0 9C 33 ED 00 52 00 DF ; ..3.......3..R..
01AC60  .dc.b F0 96 60 00 FD 1C 4A 2D 00 D2 67 00 FD 14 4A 2D ; ..`...J-..g...J-
01AC70  .dc.b 00 62 67 10 0C 2D 00 FF 00 62 67 12 04 2D 00 01 ; .bg..-...bg..-..
01AC80  .dc.b 00 62 60 16 1B 7C 00 FF 00 62 60 00 FC F4 10 2E ; .b`..|...b`.....
01AC90  .dc.b 00 2B 04 00 00 01 1B 40 00 62 4E 75 2B 6D 00 30 ; .+.....@.bNu+m.0
01ACA0  .dc.b 00 E0 3B 6D 00 40 00 F0 10 2E 00 29 02 80 00 00 ; ..;m.@.....)....
01ACB0  .dc.b 00 7F 20 6E 00 00 E5 48 D1 C0 20 28 06 00 D0 AE ; .. n...H.. (....
01ACC0  .dc.b 00 00 2B 40 00 30 3B 6E 00 2A 00 40 60 00 FC 3A ; ..+@.0;n.*.@`..:
01ACD0  .dc.b 2B 6D 00 E0 00 30 3B 6D 00 F0 00 40 60 00 FC A2 ; +m...0;m...@`...
01ACE0  .dc.b 20 2E 00 28 02 80 00 00 FF FF D1 AD 00 B0 28 AD ;  ..(..........(.
01ACF0  .dc.b 00 B0 E2 48 91 6D 00 D0 39 6D 00 D0 00 04 60 00 ; ...H.m..9m....`.
01AD00  .dc.b FC 80 2B 6E 00 04 00 B0 28 AE 00 04 3B 7C 00 01 ; ..+n....(...;|..
01AD10  .dc.b 00 D0 39 7C 00 01 00 04 60 00 FC 66 60 00 FC 62 ; ..9|....`..f`..b
01AD20  .dc.b 00 00 06 E8 00 00 07 0E 00 00 07 18 00 00 07 4A ; ...............J
01AD30  .dc.b 00 00 07 58 00 00 08 0E 00 00 08 4E 00 00 08 7C ; ...X.......N...|
01AD40  .dc.b 00 00 08 D8 00 00 08 E2 00 00 09 9A 00 00 09 32 ; ...............2
01AD50  .dc.b 00 00 09 4E 00 00 08 82 00 00 08 B4 00 00 09 7E ; ...N...........~
01AD60  .dc.b 00 00 08 44 00 00 07 28 00 00 07 36 00 00 09 AA ; ...D...(...6....
01AD70  .dc.b 00 00 09 C6 00 00 09 FC 00 00 0A 30 00 00 09 1A ; ...........0....
01AD80  .dc.b 00 00 0A 40 00 00 0A 62 00 00 07 7A 00 00 08 0A ; ...@...b...z....
01AD90  .dc.b 00 00 07 DE 00 00 07 F4 00 00 0A 7C 00 00 0A 7C ; ...........|...|
01ADA0  .dc.b 00 00 07 62 00 00 07 6A 00 00 07 6E 00 00 07 72 ; ...b...j...n...r
01ADB0  .dc.b 00 00 07 76                                     ; ...v

; ==== sub_01ADB4 (1 caller) ====
01ADB4  4A 2D 00 92                   TST.b $92(a5)
01ADB8  67 36                         BEQ $01ADF0
01ADBA  10 2D 00 80                   MOVE.b $80(a5),d0
01ADBE  48 80                         EXT.W d0
01ADC0  D1 6D 00 90                   ADD.w d0,$90(a5)
01ADC4  30 2D 00 90                   MOVE.w $90(a5),d0
01ADC8  D0 6D 00 A0                   ADD.w $A0(a5),d0
01ADCC  4A 6D 00 C0                   TST.w $C0(a5)
01ADD0  66 04                         BNE $01ADD6
01ADD2  39 40 00 06                   MOVE.w d0,$6(a4)
01ADD6  04 2D 00 01 00 93             SUBI.b #$1,$93(a5)
01ADDC  66 12                         BNE $01ADF0
01ADDE  1B 6D 00 92 00 93             MOVE.b $92(a5),$93(a5)
01ADE4  0A 2D 00 FF 00 80             EORI.b #$FF,$80(a5)
01ADEA  06 2D 00 01 00 80             ADDI.b #$1,$80(a5)
01ADF0  4E 75                         RTS

; ==== sub_01ADF2 (1 caller) ====
01ADF2  4A 6D 00 C0                   TST.w $C0(a5)
01ADF6  67 F8                         BEQ $01ADF0
01ADF8  04 2D 00 01 00 83             SUBI.b #$1,$83(a5)
01ADFE  66 F0                         BNE $01ADF0
01AE00  1B 6D 00 82 00 83             MOVE.b $82(a5),$83(a5)
01AE06  32 2D 00 A0                   MOVE.w $A0(a5),d1
01AE0A  30 2D 00 C2                   MOVE.w $C2(a5),d0
01AE0E  B0 41                         CMP.w d1,d0
01AE10  67 DE                         BEQ $01ADF0
01AE12  65 20                         BCS $01AE34
01AE14  90 6D 00 C0                   SUB.w $C0(a5),d0
01AE18  B0 41                         CMP.w d1,d0
01AE1A  67 02                         BEQ $01AE1E
01AE1C  64 08                         BCC $01AE26
01AE1E  42 6D 00 C0                   CLR.w $C0(a5)
01AE22  30 2D 00 A0                   MOVE.w $A0(a5),d0
01AE26  02 40 07 FF                   ANDI.w #$7FF,d0
01AE2A  3B 40 00 C2                   MOVE.w d0,$C2(a5)
01AE2E  39 40 00 06                   MOVE.w d0,$6(a4)
01AE32  4E 75                         RTS
01AE34  D0 6D 00 C0                   ADD.w $C0(a5),d0
01AE38  B0 41                         CMP.w d1,d0
01AE3A  67 E2                         BEQ $01AE1E
01AE3C  64 E0                         BCC $01AE1E
01AE3E  60 E6                         BRA $01AE26

; ==== sub_01AE40 (1 caller) ====
01AE40  4A 2D 00 70                   TST.b $70(a5)
01AE44  67 0C                         BEQ $01AE52
01AE46  4A 2D 00 71                   TST.b $71(a5)
01AE4A  67 08                         BEQ $01AE54
01AE4C  04 2D 00 01 00 71             SUBI.b #$1,$71(a5)
01AE52  4E 75                         RTS
01AE54  1B 6D 00 70 00 71             MOVE.b $70(a5),$71(a5)
01AE5A  10 2D 00 72                   MOVE.b $72(a5),d0
01AE5E  B0 2D 00 60                   CMP.b $60(a5),d0
01AE62  6E 20                         BGT $01AE84
01AE64  12 2D 00 73                   MOVE.b $73(a5),d1
01AE68  93 2D 00 60                   SUB.b d1,$60(a5)
01AE6C  6B 00 00 0A                   BMI $01AE78
01AE70  B0 2D 00 60                   CMP.b $60(a5),d0
01AE74  6C 02                         BGE $01AE78
01AE76  4E 75                         RTS
01AE78  1B 6D 00 72 00 60             MOVE.b $72(a5),$60(a5)
01AE7E  42 2D 00 70                   CLR.b $70(a5)
01AE82  4E 75                         RTS
01AE84  12 2D 00 73                   MOVE.b $73(a5),d1
01AE88  D3 2D 00 60                   ADD.b d1,$60(a5)
01AE8C  B0 2D 00 60                   CMP.b $60(a5),d0
01AE90  6F E6                         BLE $01AE78
01AE92  4E 75                         RTS

; ==== sub_01AE94 (2 callers) ====
01AE94  48 E7 80 0E                   MOVEM.l d0/a4-a6,-(a7)
01AE98  4D FA 04 3E                   LEA $01B2D8(pc),a6
01AE9C  2F 2E 00 28                   MOVE.l $28(a6),-(a7)
01AEA0  4B FA 04 94                   LEA $01B336(pc),a5
01AEA4  2D 40 00 28                   MOVE.l d0,$28(a6)
01AEA8  10 2E 00 2A                   MOVE.b $2A(a6),d0
01AEAC  02 80 00 00 00 03             ANDI.l #$3,d0
01AEB2  E5 48                         LSL.w #2,d0
01AEB4  DB C0                         ADDA.l d0,a5
01AEB6  4A 2D 01 03                   TST.b $103(a5)
01AEBA  66 00 00 B0                   BNE $01AF6C
01AEBE  0C 2E 00 F7 00 28             CMPI.b #$F7,$28(a6)
01AEC4  66 1C                         BNE $01AEE2
01AEC6  1B 7C 00 01 00 70             MOVE.b #$1,$70(a5)
01AECC  1B 6E 00 29 00 73             MOVE.b $29(a6),$73(a5)
01AED2  1B 7C 00 01 00 71             MOVE.b #$1,$71(a5)
01AED8  1B 6E 00 2B 00 72             MOVE.b $2B(a6),$72(a5)
01AEDE  60 00 00 8C                   BRA $01AF6C
01AEE2  0C 2E 00 F6 00 28             CMPI.b #$F6,$28(a6)
01AEE8  66 24                         BNE $01AF0E
01AEEA  10 2E 00 29                   MOVE.b $29(a6),d0
01AEEE  02 00 00 FE                   ANDI.b #$FE,d0
01AEF2  1B 40 00 92                   MOVE.b d0,$92(a5)
01AEF6  E2 08                         LSR.b #1,d0
01AEF8  1B 40 00 93                   MOVE.b d0,$93(a5)
01AEFC  1B 6E 00 2B 00 80             MOVE.b $2B(a6),$80(a5)
01AF02  1B 7C 00 01 00 81             MOVE.b #$1,$81(a5)
01AF08  42 6D 00 90                   CLR.w $90(a5)
01AF0C  60 5E                         BRA $01AF6C
01AF0E  0C 2E 00 F5 00 28             CMPI.b #$F5,$28(a6)
01AF14  66 06                         BNE $01AF1C
01AF16  42 2D 00 D2                   CLR.b $D2(a5)
01AF1A  60 50                         BRA $01AF6C
01AF1C  0C 2E 00 BF 00 28             CMPI.b #$BF,$28(a6)
01AF22  64 52                         BCC $01AF76
01AF24  02 6E 3F FF 00 28             ANDI.w #$3FFF,$28(a6)
01AF2A  1B 6E 00 2B 00 23             MOVE.b $2B(a6),$23(a5)
01AF30  10 2E 00 2A                   MOVE.b $2A(a6),d0
01AF34  E8 08                         LSR.b #4,d0
01AF36  02 00 00 0F                   ANDI.b #$F,d0
01AF3A  1B 40 00 21                   MOVE.b d0,$21(a5)
01AF3E  10 2E 00 29                   MOVE.b $29(a6),d0
01AF42  1B 40 00 13                   MOVE.b d0,$13(a5)
01AF46  1B 6E 00 28 00 11             MOVE.b $28(a6),$11(a5)
01AF4C  28 6E 00 00                   MOVEA.l $0(a6),a4
01AF50  E5 48                         LSL.w #2,d0
01AF52  D9 C0                         ADDA.l d0,a4
01AF54  28 6C 06 00                   MOVEA.l $600(a4),a4
01AF58  D9 EE 00 00                   ADDA.l $0(a6),a4
01AF5C  2B 4C 00 30                   MOVE.l a4,$30(a5)
01AF60  3B 7C 00 01 00 02             MOVE.w #$1,$2(a5)
01AF66  1B 7C 00 01 00 D2             MOVE.b #$1,$D2(a5)
01AF6C  2D 5F 00 28                   MOVE.l (a7)+,$28(a6)
01AF70  4C DF 70 01                   MOVEM.l (a7)+,d0/a4-a6
01AF74  4E 75                         RTS
01AF76  2F 01                         MOVE.l d1,-(a7)
01AF78  1B 6E 00 29 00 82             MOVE.b $29(a6),$82(a5)
01AF7E  1B 7C 00 01 00 83             MOVE.b #$1,$83(a5)
01AF84  42 2D 00 C0                   CLR.b $C0(a5)
01AF88  1B 6E 00 2B 00 C1             MOVE.b $2B(a6),$C1(a5)
01AF8E  3B 6D 00 A0 00 C2             MOVE.w $A0(a5),$C2(a5)
01AF94  10 2E 00 28                   MOVE.b $28(a6),d0
01AF98  02 40 00 3F                   ANDI.w #$3F,d0
01AF9C  1B 40 00 11                   MOVE.b d0,$11(a5)
01AFA0  E3 48                         LSL.w #1,d0
01AFA2  49 FA 06 80                   LEA $01B624(pc),a4
01AFA6  3B 74 00 00 00 A0             MOVE.w $0(a4,d0.w),$A0(a5)
01AFAC  22 1F                         MOVE.l (a7)+,d1
01AFAE  60 BC                         BRA $01AF6C
01AFB0  48 E7 00 04                   MOVEM.l a5,-(a7)
01AFB4  4B FA 03 80                   LEA $01B336(pc),a5
01AFB8  02 40 00 03                   ANDI.w #$3,d0
01AFBC  E5 48                         LSL.w #2,d0
01AFBE  DA C0                         ADDA.w d0,a5
01AFC0  33 ED 00 52 00 DF F0 96       MOVE.w $52(a5),$DFF096.l
01AFC8  42 6D 00 02                   CLR.w $2(a5)
01AFCC  42 2D 01 23                   CLR.b $123(a5)
01AFD0  4C DF 20 00                   MOVEM.l (a7)+,a5
01AFD4  4E 75                         RTS

; ==== sub_01AFD6 (1 caller) ====
01AFD6  08 2E 00 05 00 3D             BTST.b #$5,$3D(a6)
01AFDC  66 04                         BNE $01AFE2
01AFDE  61 00 02 52                   BSR $01B232
01AFE2  42 2E 00 2E                   CLR.b $2E(a6)
01AFE6  3D 7C 00 01 00 44             MOVE.w #$1,$44(a6)
01AFEC  28 6E 00 04                   MOVEA.l $4(a6),a4
01AFF0  42 94                         CLR.l (a4)
01AFF2  28 6E 00 00                   MOVEA.l $0(a6),a4
01AFF6  30 2E 00 3C                   MOVE.w $3C(a6),d0
01AFFA  02 80 00 00 00 1F             ANDI.l #$1F,d0
01B000  E3 88                         LSL.l #1,d0
01B002  D9 C0                         ADDA.l d0,a4
01B004  4B FA 04 A0                   LEA $01B4A6(pc),a5
01B008  41 FA 05 64                   LEA $01B56E(pc),a0
01B00C  32 2E 00 0C                   MOVE.w $C(a6),d1
01B010  02 41 00 1F                   ANDI.w #$1F,d1
01B014  E3 49                         LSL.w #1,d1
01B016  31 AD 00 04 10 00             MOVE.w $4(a5),$0(a0,d1.w)
01B01C  11 AE 00 3F 10 40             MOVE.b $3F(a6),$40(a0,d1.w)
01B022  11 AD 00 07 10 41             MOVE.b $7(a5),$41(a0,d1.w)
01B028  42 6E 00 3E                   CLR.w $3E(a6)
01B02C  3B 6C 01 00 00 04             MOVE.w $100(a4),$4(a5)
01B032  3B 6C 01 00 00 00             MOVE.w $100(a4),$0(a5)
01B038  3B 6C 01 40 00 02             MOVE.w $140(a4),$2(a5)
01B03E  3B 6C 01 80 00 06             MOVE.w $180(a4),$6(a5)
01B044  32 3C 00 1C                   MOVE.w #$1C,d1
01B048  08 2E 00 06 00 3D             BTST.b #$6,$3D(a6)
01B04E  67 12                         BEQ $01B062
01B050  3B 70 00 00 00 04             MOVE.w $0(a0,d0.w),$4(a5)
01B056  1D 70 00 40 00 3F             MOVE.b $40(a0,d0.w),$3F(a6)
01B05C  1B 70 00 41 00 07             MOVE.b $41(a0,d0.w),$7(a5)
01B062  1D 6E 00 5C 00 4A             MOVE.b $5C(a6),$4A(a6)
01B068  0C 6D 00 0F 00 06             CMPI.w #$F,$6(a5)
01B06E  63 12                         BLS $01B082
01B070  3D 7C 00 01 00 3E             MOVE.w #$1,$3E(a6)
01B076  04 6D 00 10 00 06             SUBI.w #$10,$6(a5)
01B07C  3D 7C 00 02 00 44             MOVE.w #$2,$44(a6)
01B082  2B BA 05 80 10 28             MOVE.l $01B604(pc),$28(a5,d1.w)
01B088  3B BC FF 00 10 48             MOVE.w #$FF00,$48(a5,d1.w)
01B08E  42 B5 10 68                   CLR.l $68(a5,d1.w)
01B092  04 41 00 04                   SUBI.w #$4,d1
01B096  6A CA                         BPL $01B062
01B098  0C 6D 01 FF 00 00             CMPI.w #$1FF,$0(a5)
01B09E  67 08                         BEQ $01B0A8
01B0A0  28 6E 00 00                   MOVEA.l $0(a6),a4
01B0A4  61 00 F5 9E                   BSR $01A644
01B0A8  42 6E 00 0A                   CLR.w $A(a6)
01B0AC  42 6E 00 2C                   CLR.w $2C(a6)
01B0B0  08 F9 00 01 00 BF E0 01       BSET.b #$1,$BFE001.l
01B0B8  33 FC 00 FF 00 DF F0 9E       MOVE.w #$FF,$DFF09E.l
01B0C0  30 2E 00 3C                   MOVE.w $3C(a6),d0
01B0C4  02 40 00 1F                   ANDI.w #$1F,d0
01B0C8  3D 40 00 0C                   MOVE.w d0,$C(a6)
01B0CC  1D 7C 00 FF 00 3D             MOVE.b #$FF,$3D(a6)
01B0D2  49 FA 05 1A                   LEA $01B5EE(pc),a4
01B0D6  42 6C 00 02                   CLR.w $2(a4)
01B0DA  4B FA 02 5A                   LEA $01B336(pc),a5
01B0DE  42 2D 01 03                   CLR.b $103(a5)
01B0E2  42 2D 01 07                   CLR.b $107(a5)
01B0E6  42 2D 01 0B                   CLR.b $10B(a5)
01B0EA  42 2D 01 0F                   CLR.b $10F(a5)
01B0EE  42 6D 01 00                   CLR.w $100(a5)
01B0F2  42 6D 01 04                   CLR.w $104(a5)
01B0F6  42 6D 01 08                   CLR.w $108(a5)
01B0FA  42 6D 01 0C                   CLR.w $10C(a5)
01B0FE  1D 7C 00 01 00 2E             MOVE.b #$1,$2E(a6)
01B104  4E 75                         RTS
01B106  48 E7 00 06                   MOVEM.l a5-a6,-(a7)
01B10A  4D FA 01 CC                   LEA $01B2D8(pc),a6
01B10E  4B FA 04 DE                   LEA $01B5EE(pc),a5
01B112  3B 7C 00 01 00 00             MOVE.w #$1,$0(a5)
01B118  1D 40 00 51                   MOVE.b d0,$51(a6)
01B11C  48 40                         SWAP d0
01B11E  1D 40 00 52                   MOVE.b d0,$52(a6)
01B122  1D 40 00 53                   MOVE.b d0,$53(a6)
01B126  67 18                         BEQ $01B140
01B128  10 2E 00 50                   MOVE.b $50(a6),d0
01B12C  1D 7C 00 01 00 1C             MOVE.b #$1,$1C(a6)
01B132  B0 2E 00 51                   CMP.b $51(a6),d0
01B136  67 0E                         BEQ $01B146
01B138  65 16                         BCS $01B150
01B13A  44 2E 00 1C                   NEG.b $1C(a6)
01B13E  60 10                         BRA $01B150
01B140  1D 6E 00 51 00 50             MOVE.b $51(a6),$50(a6)
01B146  1D 7C 00 00 00 1C             MOVE.b #$0,$1C(a6)
01B14C  42 6D 00 00                   CLR.w $0(a5)
01B150  4C DF 60 00                   MOVEM.l (a7)+,a5-a6
01B154  4E 75                         RTS
01B156  41 FA 04 96                   LEA $01B5EE(pc),a0
01B15A  4E 75                         RTS
01B15C  .dc.b 2F 08 41 FA 04 8E 31 7C 00 01 00 02 42 68 00 00 ; /.A...1|....Bh..
01B16C  .dc.b 42 2E 00 2E 20 5F 4E 75                         ; B... _Nu
01B174  48 E7 70 0E                   MOVEM.l d1-d3/a4-a6,-(a7)
01B178  4D FA 01 5E                   LEA $01B2D8(pc),a6
01B17C  49 FA 01 B8                   LEA $01B336(pc),a4
01B180  34 00                         MOVE.w d0,d2
01B182  2A 6E 00 00                   MOVEA.l $0(a6),a5
01B186  DB FC 00 00 05 FC             ADDA.l #$5FC,a5
01B18C  2A 55                         MOVEA.l (a5),a5
01B18E  DB EE 00 00                   ADDA.l $0(a6),a5
01B192  02 42 00 3F                   ANDI.w #$3F,d2
01B196  E7 4A                         LSL.w #3,d2
01B198  12 35 20 02                   MOVE.b $2(a5,d2.w),d1
01B19C  0C 2E 00 1F 00 0D             CMPI.b #$1F,$D(a6)
01B1A2  66 00 00 06                   BNE $01B1AA
01B1A6  12 35 20 04                   MOVE.b $4(a5,d2.w),d1
01B1AA  02 81 00 00 00 03             ANDI.l #$3,d1
01B1B0  E5 49                         LSL.w #2,d1
01B1B2  26 01                         MOVE.l d1,d3
01B1B4  ED 4B                         LSL.w #6,d3
01B1B6  D9 C1                         ADDA.l d1,a4
01B1B8  B4 2C 01 02                   CMP.b $102(a4),d2
01B1BC  66 0A                         BNE $01B1C8
01B1BE  08 35 00 07 20 05             BTST.b #$7,$5(a5,d2.w)
01B1C4  66 36                         BNE $01B1FC
01B1C6  60 10                         BRA $01B1D8
01B1C8  12 35 20 05                   MOVE.b $5(a5,d2.w),d1
01B1CC  B2 2C 01 03                   CMP.b $103(a4),d1
01B1D0  6C 06                         BGE $01B1D8
01B1D2  4A 6C 01 00                   TST.w $100(a4)
01B1D6  6A 24                         BPL $01B1FC
01B1D8  42 2C 01 03                   CLR.b $103(a4)
01B1DC  20 35 20 00                   MOVE.l $0(a5,d2.w),d0
01B1E0  02 80 FF FF F0 FF             ANDI.l #$FFFFF0FF,d0
01B1E6  80 83                         OR.l d3,d0
01B1E8  61 00 FC AA                   BSR $01AE94
01B1EC  19 75 20 05 01 03             MOVE.b $5(a5,d2.w),$103(a4)
01B1F2  39 75 20 06 01 00             MOVE.w $6(a5,d2.w),$100(a4)
01B1F8  19 42 01 02                   MOVE.b d2,$102(a4)
01B1FC  4C DF 70 0E                   MOVEM.l (a7)+,d1-d3/a4-a6
01B200  4E 75                         RTS
01B202  .dc.b 08 C0 00 05                                     ; ....
01B206  48 E7 00 06                   MOVEM.l a5-a6,-(a7)
01B20A  4D FA 00 CC                   LEA $01B2D8(pc),a6
01B20E  3D 40 00 3C                   MOVE.w d0,$3C(a6)
01B212  42 2E 00 4A                   CLR.b $4A(a6)
01B216  4C DF 60 00                   MOVEM.l (a7)+,a5-a6
01B21A  4E 75                         RTS
01B21C  .dc.b 48 E7 00 06 4D FA 00 B6 08 C0 00 06 3D 40 00 3C ; H...M.......=@.<
01B22C  .dc.b 4C DF 60 00 4E 75                               ; L.`.Nu

; ==== sound_silence  $01B232  (1 caller) — Zero the four AUDxVOL registers ($DFF0A8/B8/C8/D8); the default sound_api slot. ====
01B232  48 E7 80 0E                   MOVEM.l d0/a4-a6,-(a7)
01B236  4D FA 00 A0                   LEA $01B2D8(pc),a6
01B23A  42 2E 00 2E                   CLR.b $2E(a6)
01B23E  42 79 00 DF F0 A8             CLR.w $DFF0A8.l
01B244  42 79 00 DF F0 B8             CLR.w $DFF0B8.l
01B24A  42 79 00 DF F0 C8             CLR.w $DFF0C8.l
01B250  42 79 00 DF F0 D8             CLR.w $DFF0D8.l
01B256  33 FC 00 0F 00 DF F0 96       MOVE.w #$F,$DFF096.l
01B25E  4B FA 00 D6                   LEA $01B336(pc),a5
01B262  42 6D 00 02                   CLR.w $2(a5)
01B266  42 6D 00 06                   CLR.w $6(a5)
01B26A  42 6D 00 0A                   CLR.w $A(a5)
01B26E  42 6D 00 0E                   CLR.w $E(a5)
01B272  42 2D 01 23                   CLR.b $123(a5)
01B276  42 2D 01 27                   CLR.b $127(a5)
01B27A  42 2D 01 2B                   CLR.b $12B(a5)
01B27E  42 2D 01 2F                   CLR.b $12F(a5)
01B282  4C DF 70 01                   MOVEM.l (a7)+,d0/a4-a6
01B286  4E 75                         RTS
01B288  48 E7 00 0E                   MOVEM.l a4-a6,-(a7)
01B28C  4D FA 00 4A                   LEA $01B2D8(pc),a6
01B290  2D 7C 40 40 00 00 00 50       MOVE.l #$40400000,$50(a6)
01B298  2D 40 00 00                   MOVE.l d0,$0(a6)
01B29C  2D 41 00 04                   MOVE.l d1,$4(a6)
01B2A0  3D 7C 00 01 00 08             MOVE.w #$1,$8(a6)
01B2A6  2A 40                         MOVEA.l d0,a5
01B2A8  28 40                         MOVEA.l d0,a4
01B2AA  DB FC 00 00 01 00             ADDA.l #$100,a5
01B2B0  D9 FC 00 00 01 80             ADDA.l #$180,a4
01B2B6  4D FA 02 B6                   LEA $01B56E(pc),a6
01B2BA  30 3C 00 1F                   MOVE.w #$1F,d0
01B2BE  3D 5C 00 40                   MOVE.w (a4)+,$40(a6)
01B2C2  3C DD                         MOVE.w (a5)+,(a6)+
01B2C4  51 C8 FF F8                   DBRA d0,$01B2BE
01B2C8  49 FA F7 60                   LEA $01AA2A(pc),a4
01B2CC  23 CC 00 00 00 70             MOVE.l a4,$70.l
01B2D2  4C DF 70 00                   MOVEM.l (a7)+,a4-a6
01B2D6  4E 75                         RTS

; --- sound_state  $01B2D8 — Resident sound-driver state struct (counterpart of the overlay's player_state $1CC22). (data) ---
01B2D8  .dc.b 00 00 00 00 00 00 00 00 00 00 00 00 00 00 00 00 ; ................
01B2E8  .dc.b 00 00 00 00 00 00 00 00 00 00 00 00 00 00 00 00 ; ................
01B2F8  .dc.b 00 00 00 00 00 00 00 00 00 00 00 00 00 00 00 00 ; ................
01B308  .dc.b 00 00 00 00 00 00 00 00 00 00 00 00 FF FF 00 00 ; ................
01B318  .dc.b 00 00 00 00 00 01 00 00 00 00 00 00 00 00 00 00 ; ................
01B328  .dc.b 40 40 00 00 00 00 00 00 00 00                   ; @@........

; --- voice_table2  $01B332 — Resident per-voice state array (counterpart of the overlay's voice_table $1CC7C); $160 per voice = its hardware channel pointer. (data) ---
01B332  .dc.b 00 00 00 00 00 00 00 00 00 00 00 00 00 00 00 00 ; ................
01B342  .dc.b 00 00 00 00 00 00 00 00 00 00 00 00 00 00 00 00 ; ................
01B352  .dc.b 00 00 00 00 00 00 00 00 00 00 00 00 00 00 00 00 ; ................
01B362  .dc.b 00 00 00 00 00 00 00 00 00 00 00 00 00 00 00 00 ; ................
01B372  .dc.b 00 00 00 00 00 00 00 00 00 00 00 00 00 00 00 00 ; ................
01B382  .dc.b 00 00 00 00 82 01 00 01 82 02 00 02 82 04 00 04 ; ................
01B392  .dc.b 82 08 00 08 00 00 00 00 00 00 00 00 00 00 00 00 ; ................
01B3A2  .dc.b 00 00 00 00 00 00 00 00 00 00 00 00 00 00 00 00 ; ................
01B3B2  .dc.b 00 00 00 00 00 00 00 00 00 00 00 00 00 00 00 00 ; ................
01B3C2  .dc.b 00 00 00 00 00 00 00 00 00 00 00 00 00 00 00 00 ; ................
01B3D2  .dc.b 00 00 00 00 00 00 00 00 00 00 00 00 00 00 00 00 ; ................
01B3E2  .dc.b 00 00 00 00 00 00 00 00 00 00 00 00 00 00 00 00 ; ................
01B3F2  .dc.b 00 00 00 00 00 00 00 00 00 00 00 00 00 00 00 00 ; ................
01B402  .dc.b 00 00 00 00 00 00 00 00 00 00 00 00 00 00 00 00 ; ................
01B412  .dc.b 00 00 00 00 00 00 00 00 00 00 00 00 00 00 00 00 ; ................
01B422  .dc.b 00 00 00 00 00 00 00 00 00 00 00 00 00 00 00 00 ; ................
01B432  .dc.b 00 00 00 00 00 00 00 00 00 00 00 00 00 00 00 00 ; ................
01B442  .dc.b 00 00 00 00 C0 80 00 80 C1 00 01 00 C2 00 02 00 ; ................
01B452  .dc.b C4 00 04 00 00 00 00 00 00 00 00 00 00 00 00 00 ; ................
01B462  .dc.b 00 00 00 00 00 00 00 00 00 00 00 00 00 00 00 00 ; ................
01B472  .dc.b 00 00 00 00 00 00 00 00 00 00 00 00 00 00 00 00 ; ................
01B482  .dc.b 00 00 00 00 00 00 00 04 00 00 00 04 00 00 00 04 ; ................
01B492  .dc.b FF FF FF F4 00 DF F0 A0 00 DF F0 B0 00 DF F0 C0 ; ................
01B4A2  .dc.b 00 DF F0 D0 00 00 00 00 00 00 00 00 00 00 00 00 ; ................
01B4B2  .dc.b 00 00 00 00 00 00 00 00 00 00 00 00 00 00 00 00 ; ................
01B4C2  .dc.b 00 00 00 00 00 00 00 00 00 00 00 00 00 00 00 00 ; ................
01B4D2  .dc.b 00 00 00 00 00 00 00 00 00 00 00 00 00 00 00 00 ; ................
01B4E2  .dc.b 00 00 00 00 00 00 00 00 00 00 00 00 00 00 00 00 ; ................
01B4F2  .dc.b 00 00 00 00 00 00 00 00 00 00 00 00 00 00 00 00 ; ................
01B502  .dc.b 00 00 00 00 00 00 00 00 00 00 00 00 00 00 00 00 ; ................
01B512  .dc.b 00 00 00 00 00 00 00 00 00 00 00 00 00 00 00 00 ; ................
01B522  .dc.b 00 00 00 00 00 00 00 00 00 00 00 00 00 00 00 00 ; ................
01B532  .dc.b 00 00 00 00 00 00 00 00 00 00 00 00 00 00 00 00 ; ................
01B542  .dc.b 00 00 00 00 00 00 00 00 00 00 00 00 00 00 00 00 ; ................
01B552  .dc.b 00 00 00 00 00 00 00 00 00 00 00 00 00 00 00 00 ; ................
01B562  .dc.b 00 00 00 00 00 00 00 00 00 00 00 00 00 00 00 00 ; ................
01B572  .dc.b 00 00 00 00 00 00 00 00 00 00 00 00 00 00 00 00 ; ................
01B582  .dc.b 00 00 00 00 00 00 00 00 00 00 00 00 00 00 00 00 ; ................
01B592  .dc.b 00 00 00 00 00 00 00 00 00 00 00 00 00 00 00 00 ; ................
01B5A2  .dc.b 00 00 00 00 00 00 00 00 00 00 00 00 00 00 00 00 ; ................
01B5B2  .dc.b 00 00 00 00 00 00 00 00 00 00 00 00 00 00 00 00 ; ................
01B5C2  .dc.b 00 00 00 00 00 00 00 00 00 00 00 00 00 00 00 00 ; ................
01B5D2  .dc.b 00 00 00 00 00 00 00 00 00 00 00 00 00 00 00 00 ; ................
01B5E2  .dc.b 00 00 00 00 00 00 00 00 00 00 00 00 00 00 00 02 ; ................
01B5F2  .dc.b 00 00 00 00 00 00 00 00 00 00 00 00 00 00 00 00 ; ................
01B602  .dc.b 00 00 F4 00 00 00 F0 00 00 00 0D 5C 0C 9C 0B E8 ; ...........\....
01B612  .dc.b 0B 3C 0A 9A 0A 02 09 72 08 EA 08 6A 07 F2 07 80 ; .<.....r...j....
01B622  .dc.b 07 18 06 AE 06 4E 05 F4 05 9E 05 4D 05 01 04 B9 ; .....N.....M....
01B632  .dc.b 04 75 04 35 03 F9 03 C0 03 8C 03 58 03 2A 02 FC ; .u.5.......X.*..
01B642  .dc.b 02 D0 02 A8 02 82 02 5E 02 3B 02 1B 01 FD 01 E0 ; .......^.;......
01B652  .dc.b 01 C6 01 AC 01 94 01 7D 01 68 01 54 01 40 01 2F ; .......}.h.T.@./
01B662  .dc.b 01 1E 01 0E 00 FE 00 F0 00 E3 00 D6 00 CA 00 BF ; ................
01B672  .dc.b 00 B4 00 AA 00 A0 00 97 00 8F 00 87 00 7F 00 78 ; ...............x
01B682  .dc.b 00 71 00 D6 00 CA 00 BF 00 B4 00 AA 00 A0 00 97 ; .q..............
01B692  .dc.b 00 8F 00 87 00 7F 00 78 00 71 00 D6 00 CA 00 BF ; .......x.q......
01B6A2  .dc.b 00 B4 00 00 03 F2 00 00 00 00 00 00 00 00 00 00 ; ................
01B6B2  .dc.b 00 00 00 00 00 00 00 00 00 00 00 00 00 00 00 00 ; ................
01B6C2  .dc.b 00 00 00 00 00 00 00 00 00 00 00 00 00 00 00 00 ; ................
01B6D2  .dc.b 00 00 00 00 00 00 00 00 00 00 00 00 00 00 00 00 ; ................
01B6E2  .dc.b 00 00 00 00 00 00 00 00 00 00 00 00 00 00 00 00 ; ................
01B6F2  .dc.b 00 00 00 00 00 00 00 00 00 00 00 00 00 00 00 00 ; ................
01B702  .dc.b 00 00 00 00 00 00 00 00 00 00 00 00 00 00 00 00 ; ................
01B712  .dc.b 00 00 00 00 00 00 00 00 00 00 00 00 00 00 00 00 ; ................
01B722  .dc.b 00 00 00 00 00 00 00 00 00 00 00 00 00 00 00 00 ; ................
01B732  .dc.b 00 00 00 00 00 00 00 00 00 00 00 00 00 00 00 00 ; ................
01B742  .dc.b 00 00 00 00 00 00 00 00 00 00 00 00 00 00 00 00 ; ................
01B752  .dc.b 00 00 00 00 00 00 00 00 00 00 00 00 00 00 00 00 ; ................
01B762  .dc.b 00 00 00 00 00 00 00 00 00 00 00 00 00 00 00 00 ; ................
01B772  .dc.b 00 00 00 00 00 00 00 00 00 00 00 00 00 00       ; ..............
