
; --- cpu_vectors  $000010 — 68000 exception vector table (runtime $0-$FF; reset SSP/PC at $0/$4 set by game_entry, the rest filled during init). Not code. (data) ---
000010  .dc.b 00 00 00 00 00 00 00 00 00 00 00 00 00 00 00 00 ; ................
000020  .dc.b 00 00 00 00 00 00 00 00 00 00 00 00 00 00 00 00 ; ................
000030  .dc.b 00 00 00 00 00 00 00 00 00 00 00 00 00 00 00 00 ; ................
000040  .dc.b 00 00 00 00 00 00 00 00 00 00 00 00 00 00 00 00 ; ................
000050  .dc.b 00 00 00 00 00 00 00 00 00 00 00 00 00 00 00 00 ; ................
000060  .dc.b 00 00 00 00 00 00 00 00 00 C7 63 CE 00 C7 65 0C ; ..........c...e.
000070  .dc.b 00 00 00 00 00 00 00 00 00 00 00 00 00 00 00 00 ; ................
000080  .dc.b 00 00 00 00 00 00 00 00 00 00 00 00 00 00 00 00 ; ................
000090  .dc.b 00 00 00 00 00 00 00 00 00 00 00 00 00 00 00 00 ; ................
0000A0  .dc.b 00 00 00 00 00 00 00 00 00 00 00 00 00 00 00 00 ; ................
0000B0  .dc.b 00 00 00 00 00 00 00 00 00 00 00 00 00 00 00 00 ; ................
0000C0  45 F9 00 02 00 9E             LEA $2009E.l,a2
0000C6  0C 52 67 0C                   CMPI.w #$670C,(a2)
0000CA  66 04                         BNE $0000D0
0000CC  14 BC 00 60                   MOVE.b #$60,(a2)
0000D0  58 8A                         ADDQ.l #4,a2
0000D2  0C 52 67 0C                   CMPI.w #$670C,(a2)
0000D6  66 04                         BNE $0000DC
0000D8  14 BC 00 60                   MOVE.b #$60,(a2)
0000DC  70 00                         MOVEQ #$0,d0
0000DE  60 16                         BRA $0000F6
0000E0  .dc.b 4E 71                                           ; Nq
0000E2  B1 FC 00 08 00 00             CMPA.l #$80000,a0
0000E8  64 00 06 FE                   BCC $0007E8
0000EC  0C 58 44 89                   CMPI.w #$4489,(a0)+
0000F0  66 F0                         BNE $0000E2
0000F2  60 00 07 3C                   BRA $000830
0000F6  4C DF                         .dc.w $4CDF
0000F8  .dc.b 0C 87 4E 75 00 00 00 00                         ; ..Nu....

; --- entry_table  $000100 — The engine's internal entry vectors — a table of BRA stubs. game_init's JMP $100 falls through slot 0 to game_start; other slots ($108..$138) are engine sub-entries ($1ABA/$1AEC/$1B14/$1B38/$35AE/$438C/$234C/$7728/$78CC/$7EFC). (data) ---
000100  .dc.b 60 00 0B B2 00 00 00 00                         ; `.......

; ==== sub_000108 (1 caller) ====
000108  60 00 19 B0                   BRA $001ABA

; ==== sub_00010C (1 caller) ====
00010C  60 00 19 DE                   BRA $001AEC
000110  .dc.b 60 00 1A 02 60 00 1A 22 60 00 34 94 60 00 42 6E ; `...`.."`.4.`.Bn
000120  .dc.b 00 00 00 00 00 00 00 00 60 00 22 22 60 00 75 FA ; ........`.""`.u.
000130  .dc.b 60 00 77 9A 00 00 09 66 60 00 7D C2 00 00 00 00 ; `.w....f`.}.....
000140  .dc.b 7E FC 00 00 80 E8 00 00 81 10 00 00 60 00 67 18 ; ~...........`.g.
000150  .dc.b 00 00 72 D4 00 00 19 CE 00 00 00 00 00 00 60 00 ; ..r...........`.
000160  .dc.b 22 A0 60 00 22 BC 00 00 00 00 00 00 00 00 00 00 ; ".`."...........
000170  .dc.b 00 00 00 00 00 00 00 00 00 00                   ; ..........

; --- screen_buffers  $00017A — The three display-buffer base pointers ($17A/$192/$1AA = $5BCE0/$67CE0/$73CE0) — triple-buffering for the scrolling playfield. (data) ---
00017A  .dc.b 00 05 BC E0 00 05 BC E0 00 01 80 00 00 00 00 00 ; ................
00018A  .dc.b 00 00 00 00 00 00 00 00 00 06 7C E0 00 06 7C E0 ; ..........|...|.
00019A  .dc.b 00 00 C0 00 00 00 00 00 00 00 00 00 00 00 00 00 ; ................
0001AA  .dc.b 00 07 3C E0 00 07 3C E0 00 00 00 00 00 00 00 00 ; ..<...<.........
0001BA  .dc.b 00 00 00 00 00 00 00 00                         ; ........

; --- draw_list_ptr  $0001C2 — Pointer to the blitter draw-list structure consumed by blit_playfield / blit_objects. (data) ---
0001C2  .dc.b 00 00 00 00 00 00 60 00 19 84 60 00 19 B0 60 00 ; ......`...`...`.
0001D2  .dc.b 52 8E 60 00 2C 68 60 00 2C 94 00 FC 00 D2 00    ; R.`.,h`.,......

; --- frame_sync_flag  $0001E1 — Set at the end of each game_loop iteration; cleared by the vblank path. game_loop spins on it to lock to 50/60 Hz. (data) ---
0001E1  .dc.b 00 00 00 00 00 00 00 00 00 00 00 00 00 00 00 00 ; ................
0001F1  .dc.b 00 60 00 75 5A 00 00 00 00 00 00 73 78 00 00 73 ; .`.uZ......sx..s
000201  .dc.b 84 00 00 73 A8 00 00 73 B4 00 00 A2 70 00 00 A0 ; ...s...s....p...
000211  .dc.b 70 00 00 00 00 00 00 60 00 26 56                ; p......`.&V

; ==== sub_00021C (1 caller) ====
00021C  60 00 16 C4                   BRA $0018E2

; ==== sub_000220 (1 caller) ====
000220  60 00 16 D0                   BRA $0018F2
000224  .dc.b 60 00 16 D8 00 00 00 00 00 00 00 00 AB 70 60 00 ; `............p`.
000234  .dc.b 61 7A 00 00 00 00 00 00 00 00 00 00 00 00 00 00 ; az..............
000244  .dc.b 00 00 00 00 00 00 60 00 30 0C 60 00 2B C6 00 00 ; ......`.0.`.+...
000254  .dc.b 00 00 00 00 00 00 00 00 00 00 00 00 00 00 00 00 ; ................
000264  .dc.b 00 00 00 00 00 00 00 00 00 00 7A C8 00 00 00 00 ; ..........z.....
000274  .dc.b 72 94 00 00 00 00 00 00 60 00 37 72 60 00 6E F2 ; r.......`.7r`.n.
000284  .dc.b 00 00 60 00 2B CE 00 00 00 00 00 00 00 00 00 00 ; ..`.+...........
000294  .dc.b 00 00 00 00 00 00 01 01 01 01 01 01 01 01 01 01 ; ................
0002A4  .dc.b 01 01 01 01 01 01 01 01 01 01 01 01 01 01 01 01 ; ................
0002B4  .dc.b 01 01 01 01 01 01 01 01 01 01 01 01 01 01 01 01 ; ................
0002C4  .dc.b 01 01 01 01 01 01 01 01 01 01 01 01 01 01 01 01 ; ................
0002D4  .dc.b 01 01 00 04 08 07 03 05 00 0D 08 00 01 48 41 4C ; .............HAL
0002E4  .dc.b 4C 20 4F 46 20 46 41 4D 45 FF 05 10 00 30 31 30 ; L OF FAME....010
0002F4  .dc.b 30 30 30 30 20 34 2D 32 20 4D 41 4E 46 52 45 44 ; 0000 4-2 MANFRED
000304  .dc.b 20 54 52 45 4E 5A 20 20 20 20 20 FF 05 18 00 30 ;  TRENZ     ....0
000314  .dc.b 30 39 30 30 30 30 20 34 2D 31 20 48 4F 4C 47 45 ; 090000 4-1 HOLGE
000324  .dc.b 52 20 53 43 48 4D 49 44 54 20 20 20 20 FF 05 20 ; R SCHMIDT    .. 
000334  .dc.b 00 30 30 38 30 30 30 30 20 33 2D 33 20 43 48 52 ; .0080000 3-3 CHR
000344  .dc.b 49 53 20 48 55 45 4C 53 42 45 43 4B 20 20 20 FF ; IS HUELSBECK   .
000354  .dc.b 05 28 00 30 30 37 30 30 30 30 20 33 2D 32 20 41 ; .(.0070000 3-2 A
000364  .dc.b 4E 44 52 45 41 53 20 45 53 43 48 45 52 20 20 20 ; NDREAS ESCHER   
000374  .dc.b 20 FF 05 30 00 30 30 36 30 30 30 30 20 33 2D 31 ;  ..0.0060000 3-1
000384  .dc.b 20 4A 55 4C 49 41 4E 20 45 47 47 45 42 52 45 43 ;  JULIAN EGGEBREC
000394  .dc.b 48 54 20 FF 05 38 00 30 30 35 30 30 30 30 20 32 ; HT ..8.0050000 2
0003A4  .dc.b 2D 32 20 4D 41 52 43 20 41 2E 20 55 4C 4C 52 49 ; -2 MARC A. ULLRI
0003B4  .dc.b 43 48 20 20 20 FF 05 40 00 30 30 34 30 30 30 30 ; CH   ..@.0040000
0003C4  .dc.b 20 32 2D 31 20 53 45 42 41 53 54 49 41 4E 20 44 ;  2-1 SEBASTIAN D
0003D4  .dc.b 4F 53 43 48 20 20 20 FF 05 48 00 30 30 33 30 30 ; OSCH   ..H.00300
0003E4  .dc.b 30 30 20 31 2D 33 20 41 43 48 49 4D 20 4D 4F 4C ; 00 1-3 ACHIM MOL
0003F4  .dc.b 4C 45 52 20 20 20 20 20 20 FF 05 50 00 30 30 32 ; LER      ..P.002
000404  .dc.b 30 30 30 30 20 31 2D 32 20 20 20 20 20 1D 20 31 ; 0000 1-2     . 1
000414  .dc.b 39 39 30 20 42 59 20 20 20 20 20 FF 05 58 00 30 ; 990 BY     ..X.0
000424  .dc.b 30 31 30 30 30 30 20 31 2D 31 20 21 21 20 52 41 ; 010000 1-1 !! RA
000434  .dc.b 49 4E 42 4F 57 20 41 52 54 53 20 21 21 FF D3 00 ; INBOW ARTS !!...
000444  .dc.b 00 00 00 00 00 00 00 00 00 00 00 00 00 00 00 00 ; ................
000454  .dc.b 00 00 00 00 00 00 00 00 00 00 00 00 00 00 60 00 ; ..............`.
000464  .dc.b 75 3C 60 00 05 EA 00 03 F0 00 00 01 EA AC 00 05 ; u<`.............
000474  .dc.b DC 00 00 01 FC B0 00 07 DA 00 00 01 BE A0 00 09 ; ................
000484  .dc.b 9A 00 00 02 45 04 00 0B E0 00 00 01 DE 2A 00 00 ; ....E........*..
000494  .dc.b 00 9E                                           ; ..

; ==== sub_000496 (1 caller) ====
000496  4A 38 02 52                   TST.b $252.w
00049A  67 04                         BEQ $0004A0
00049C  61 00 6C D6                   BSR $007174
0004A0  50 F8 19 4C                   ST $194C.w
0004A4  61 00 00 DC                   BSR $000582
0004A8  34 38 19 38                   MOVE.w $1938.w,d2
0004AC  E7 4A                         LSL.w #3,d2
0004AE  41 FA FF BA                   LEA $00046A(pc),a0
0004B2  4C F0                         .dc.w $4CF0
0004B4  .dc.b 00 03 20 00 24 3C 00 01 B7 80 2F 01 61 00 02 5A ; .. .$<..../.a..Z
0004C4  .dc.b 22 1F 41 F9 00 01 B7 80 43 F0 18 00 45 F9 00 01 ; ".A.....C...E...
0004D4  .dc.b B9 80 61 00 07 1C 6B CC 61 00 01 34 51 F8 19 4C ; ..a...k.a..4Q..L
0004E4  .dc.b 4E 75                                           ; Nu

; ==== sub_0004E6 (1 caller) ====
0004E6  21 FC 00 00 72 F4 02 3E       MOVE.l #$72F4,$23E.w
0004EE  21 FC 00 00 1A 0E 02 42       MOVE.l #$1A0E,$242.w
0004F6  31 FC 00 17 02 46             MOVE.w #$17,$246.w
0004FC  61 00 6A F8                   BSR $006FF6
000500  21 FC 00 00 73 E8 02 3E       MOVE.l #$73E8,$23E.w
000508  21 FC 00 00 1A 40 02 42       MOVE.l #$1A40,$242.w
000510  31 FC 00 0E 02 46             MOVE.w #$E,$246.w
000516  61 00 6A DE                   BSR $006FF6
00051A  21 FC 00 00 74 50 02 3E       MOVE.l #$7450,$23E.w
000522  21 FC 00 00 1A 5E 02 42       MOVE.l #$1A5E,$242.w
00052A  31 FC 00 00 02 46             MOVE.w #$0,$246.w
000530  60 00 6A C4                   BRA $006FF6

; ==== sub_000534 (1 caller) ====
000534  21 FC 00 00 72 F4 02 3E       MOVE.l #$72F4,$23E.w
00053C  21 FC 00 00 19 8E 02 42       MOVE.l #$198E,$242.w
000544  31 FC 00 17 02 46             MOVE.w #$17,$246.w
00054A  61 00 6A AA                   BSR $006FF6
00054E  21 FC 00 00 73 E8 02 3E       MOVE.l #$73E8,$23E.w
000556  21 FC 00 00 19 8E 02 42       MOVE.l #$198E,$242.w
00055E  31 FC 00 0E 02 46             MOVE.w #$E,$246.w
000564  61 00 6A 90                   BSR $006FF6
000568  21 FC 00 00 74 50 02 3E       MOVE.l #$7450,$23E.w
000570  21 FC 00 00 19 8E 02 42       MOVE.l #$198E,$242.w
000578  31 FC 00 00 02 46             MOVE.w #$0,$246.w
00057E  60 00 6A 76                   BRA $006FF6

; ==== sub_000582 (2 callers) ====
000582  70 30                         MOVEQ #$30,d0
000584  22 3C 00 00 14 78             MOVE.l #$1478,d1
00058A  24 3C 00 06 80 00             MOVE.l #$68000,d2
000590  61 00 01 8A                   BSR $00071C
000594  41 FA 6D E2                   LEA $007378(pc),a0
000598  20 3C 00 00 73 84             MOVE.l #$7384,d0
00059E  48 40                         SWAP d0
0005A0  31 40 00 02                   MOVE.w d0,$2(a0)
0005A4  48 40                         SWAP d0
0005A6  31 40 00 06                   MOVE.w d0,$6(a0)
0005AA  41 FA 6D FC                   LEA $0073A8(pc),a0
0005AE  20 3C 00 00 73 B4             MOVE.l #$73B4,d0
0005B4  48 40                         SWAP d0
0005B6  31 40 00 02                   MOVE.w d0,$2(a0)
0005BA  48 40                         SWAP d0
0005BC  31 40 00 06                   MOVE.w d0,$6(a0)
0005C0  4A 38 19 4B                   TST.b $194B.w
0005C4  66 00 00 22                   BNE $0005E8
0005C8  61 00 6F E8                   BSR $0075B2
0005CC  30 3C 00 0F                   MOVE.w #$F,d0
0005D0  3F 00                         MOVE.w d0,-(a7)
0005D2  42 78 70 68                   CLR.w $7068.w
0005D6  0C 78 00 02 70 68             CMPI.w #$2,$7068.w
0005DC  6D F8                         BLT $0005D6
0005DE  61 00 FF 06                   BSR $0004E6
0005E2  30 1F                         MOVE.w (a7)+,d0
0005E4  51 C8 FF EA                   DBRA d0,$0005D0
0005E8  50 F8 19 4B                   ST $194B.w
0005EC  20 3C 00 06 82 00             MOVE.l #$68200,d0
0005F2  22 3C 00 06 80 00             MOVE.l #$68000,d1
0005F8  4E B9 00 01 A2 B4             JSR $1A2B4.l
0005FE  4E B9 00 01 A2 A8             JSR $1A2A8.l
000604  50 F8 70 67                   ST $7067.w
000608  70 00                         MOVEQ #$0,d0
00060A  4E B9 00 01 A2 AC             JSR $1A2AC.l
000610  4E 75                         RTS

; ==== sub_000612 (1 caller) ====
000612  20 3C 00 02 00 00             MOVE.l #$20000,d0
000618  4E B9 00 01 A2 C8             JSR $1A2C8.l
00061E  4E B9 00 01 A2 CC             JSR $1A2CC.l
000624  4A 90                         TST.l (a0)
000626  66 F6                         BNE $00061E
000628  70 1F                         MOVEQ #$1F,d0
00062A  4E B9 00 01 A2 AC             JSR $1A2AC.l
000630  4A 38 19 4B                   TST.b $194B.w
000634  67 1C                         BEQ $000652
000636  41 F9 00 01 B9 80             LEA $1B980.l,a0
00063C  20 28 00 10                   MOVE.l $10(a0),d0
000640  22 28 00 0C                   MOVE.l $C(a0),d1
000644  4E B9 00 01 A2 B4             JSR $1A2B4.l
00064A  4E B9 00 01 A2 A8             JSR $1A2A8.l
000650  4E 75                         RTS
000652  70 0F                         MOVEQ #$F,d0
000654  3F 00                         MOVE.w d0,-(a7)
000656  42 78 70 68                   CLR.w $7068.w
00065A  0C 78 00 02 70 68             CMPI.w #$2,$7068.w
000660  6D F8                         BLT $00065A
000662  61 00 FE D0                   BSR $000534
000666  30 1F                         MOVE.w (a7)+,d0
000668  51 C8 FF EA                   DBRA d0,$000654
00066C  4E 75                         RTS

; ==== sub_00066E (1 caller) ====
00066E  3F 00                         MOVE.w d0,-(a7)
000670  50 F8 19 4C                   ST $194C.w
000674  61 00 FF 0C                   BSR $000582
000678  70 28                         MOVEQ #$28,d0
00067A  22 3C 00 00 B5 14             MOVE.l #$B514,d1
000680  24 3C 00 01 B7 80             MOVE.l #$1B780,d2
000686  61 00 00 94                   BSR $00071C
00068A  41 F9 00 01 B7 80             LEA $1B780.l,a0
000690  43 F9 00 02 6C 94             LEA $26C94.l,a1
000696  45 F9 00 03 00 00             LEA $30000.l,a2
00069C  61 00 05 56                   BSR $000BF4
0006A0  6B D6                         BMI $000678
0006A2  70 1C                         MOVEQ #$1C,d0
0006A4  22 3C 00 00 C2 68             MOVE.l #$C268,d1
0006AA  24 3C 00 01 BB 00             MOVE.l #$1BB00,d2
0006B0  61 00 00 6A                   BSR $00071C
0006B4  51 F8 19 4B                   SF $194B.w
0006B8  61 00 FF 58                   BSR $000612
0006BC  51 F9 00 00 19 4C             SF $194C.l
0006C2  3D 7C 7F FF 00 96             MOVE.w #$7FFF,$96(a6)
0006C8  3D 7C 7F FF 00 9A             MOVE.w #$7FFF,$9A(a6)
0006CE  3D 7C 7F FF 00 9C             MOVE.w #$7FFF,$9C(a6)
0006D4  41 F8 7A B2                   LEA $7AB2.w,a0
0006D8  43 F8 02 D6                   LEA $2D6.w,a1
0006DC  70 06                         MOVEQ #$6,d0
0006DE  12 D8                         MOVE.b (a0)+,(a1)+
0006E0  51 C8 FF FC                   DBRA d0,$0006DE
0006E4  41 F8 07 08                   LEA $708.w,a0
0006E8  30 38 19 38                   MOVE.w $1938.w,d0
0006EC  D0 40                         ADD.w d0,d0
0006EE  D0 40                         ADD.w d0,d0
0006F0  D0 78 19 3A                   ADD.w $193A.w,d0
0006F4  12 F0 00 00                   MOVE.b $0(a0,d0.w),(a1)+
0006F8  30 1F                         MOVE.w (a7)+,d0
0006FA  D0 40                         ADD.w d0,d0
0006FC  D0 40                         ADD.w d0,d0
0006FE  41 F9 00 03 00 00             LEA $30000.l,a0
000704  4E F0 00 00                   JMP $0(a0,d0.w)
000708  .dc.b 00 01 02 00 03 04 00 00 05 06 07 00 08 09 0A 00 ; ................
000718  .dc.b 0B 0C 0D 00                                     ; ....

; ==== sub_00071C (4 callers) ====
00071C  0C 80 00 00 00 1C             CMPI.l #$1C,d0
000722  66 2E                         BNE $000752
000724  20 3C 00 02 60 00             MOVE.l #$26000,d0
00072A  61 26                         BSR $000752
00072C  48 E7 60 B0                   MOVEM.l d1-d2/a0/a2-a3,-(a7)
000730  61 00 04 E0                   BSR $000C12
000734  4C DF                         .dc.w $4CDF
000736  .dc.b 00 06 20 42 26 42 2E 02 DE 81 24 7C 00 02 FA 00 ; .. B&B....$|....
000746  .dc.b 4E B9 00 07 40 00 4C DF 0D 00 4E 75             ; N...@.L...Nu

; ==== sub_000752 (1 caller) ====
000752  48 E7 FF FE                   MOVEM.l d0-d7/a0-a6,-(a7)
000756  0C 80 00 00 00 28             CMPI.l #$28,d0
00075C  66 06                         BNE $000764
00075E  20 3C 00 03 24 00             MOVE.l #$32400,d0
000764  0C 80 00 00 00 30             CMPI.l #$30,d0
00076A  66 06                         BNE $000772
00076C  20 3C 00 03 DA 00             MOVE.l #$3DA00,d0
000772  28 42                         MOVEA.l d2,a4
000774  4E B8 08 BE                   JSR $8BE.w
000778  80 FC 16 00                   DIVU.W #$1600,d0
00077C  2E 00                         MOVE.l d0,d7
00077E  48 47                         SWAP d7
000780  EE 4F                         LSR.w #7,d7
000782  61 00 04 E6                   BSR $000C6A
000786  67 12                         BEQ $00079A
000788  48 E7 C1 08                   MOVEM.l d0-d1/d7/a4,-(a7)
00078C  4E B8 09 10                   JSR $910.w
000790  61 38                         BSR $0007CA
000792  4C DF                         .dc.w $4CDF
000794  .dc.b 10 83 61 00 04 92                               ; ..a...
00079A  4D FA 00 F4                   LEA $000890(pc),a6
00079E  4D F6 70 00                   LEA $0(a6,d7.w),a6
0007A2  2A 5E                         MOVEA.l (a6)+,a5
0007A4  3C 3C 01 FF                   MOVE.w #$1FF,d6
0007A8  18 DD                         MOVE.b (a5)+,(a4)+
0007AA  53 81                         SUBQ.l #1,d1
0007AC  67 12                         BEQ $0007C0
0007AE  51 CE FF F8                   DBRA d6,$0007A8
0007B2  BD FC 00 00 08 BC             CMPA.l #$8BC,a6
0007B8  65 E8                         BCS $0007A2
0007BA  52 40                         ADDQ.w #1,d0
0007BC  7E 00                         MOVEQ #$0,d7
0007BE  60 C2                         BRA $000782
0007C0  4E B8 08 DE                   JSR $8DE.w
0007C4  4C DF                         .dc.w $4CDF
0007C6  .dc.b 7F FF 4E 75                                     ; ..Nu

; ==== sub_0007CA (1 caller) ====
0007CA  4D F9 00 DF F0 24             LEA $DFF024.l,a6
0007D0  3D 7C 82 10 00 72             MOVE.w #$8210,$72(a6)
0007D6  3D 7C 44 89 00 5A             MOVE.w #$4489,$5A(a6)
0007DC  3D 7C 7F 00 00 7A             MOVE.w #$7F00,$7A(a6)
0007E2  3D 7C 95 00 00 7A             MOVE.w #$9500,$7A(a6)
0007E8  2D 7C 00 07 40 00 FF FC       MOVE.l #$74000,-$4(a6)
0007F0  3C BC 40 00                   MOVE.w #$4000,(a6)
0007F4  3D 7C 10 02 00 78             MOVE.w #$1002,$78(a6)
0007FA  3C BC 99 E0                   MOVE.w #$99E0,(a6)
0007FE  3C BC 99 E0                   MOVE.w #$99E0,(a6)
000802  70 FF                         MOVEQ #$FF,d0
000804  08 2E 00 01 FF FB             BTST.b #$1,-$5(a6)
00080A  66 0E                         BNE $00081A
00080C  04 80 00 00 00 01             SUBI.l #$1,d0
000812  66 F0                         BNE $000804
000814  3C BC 40 00                   MOVE.w #$4000,(a6)
000818  60 CE                         BRA $0007E8
00081A  3C BC 40 00                   MOVE.w #$4000,(a6)
00081E  2E 3C 55 55 55 55             MOVE.l #$55555555,d7
000824  43 FA 00 6A                   LEA $000890(pc),a1
000828  7C 0B                         MOVEQ #$B,d6
00082A  20 7C 00 07 40 00             MOVEA.l #$74000,a0
000830  0C 50 44 89                   CMPI.w #$4489,(a0)
000834  66 04                         BNE $00083A
000836  54 88                         ADDQ.l #2,a0
000838  60 F6                         BRA $000830
00083A  61 46                         BSR $000882
00083C  38 00                         MOVE.w d0,d4
00083E  E0 4C                         LSR.w #8,d4
000840  E5 4C                         LSL.w #2,d4
000842  41 E8 00 28                   LEA $28(a0),a0
000846  61 3A                         BSR $000882
000848  2A 00                         MOVE.l d0,d5
00084A  41 E8 02 00                   LEA $200(a0),a0
00084E  24 48                         MOVEA.l a0,a2
000850  72 7F                         MOVEQ #$7F,d1
000852  24 28 FE 00                   MOVE.l -$200(a0),d2
000856  26 10                         MOVE.l (a0),d3
000858  C4 87                         AND.l d7,d2
00085A  C6 87                         AND.l d7,d3
00085C  B5 85                         EOR.l d2,d5
00085E  B7 85                         EOR.l d3,d5
000860  E3 8A                         LSL.l #1,d2
000862  84 83                         OR.l d3,d2
000864  20 C2                         MOVE.l d2,(a0)+
000866  51 C9 FF EA                   DBRA d1,$000852
00086A  4A 85                         TST.l d5
00086C  66 00 FF 7A                   BNE $0007E8
000870  23 8A 40 00                   MOVE.l a2,$0(a1,d4.w)
000874  53 06                         SUBQ.b #1,d6
000876  66 02                         BNE $00087A
000878  4E 75                         RTS
00087A  60 00 F8 66                   BRA $0000E2
00087E  .dc.b 66 FA 60 AE                                     ; f.`.

; ==== sub_000882 (2 callers) ====
000882  20 18                         MOVE.l (a0)+,d0
000884  22 18                         MOVE.l (a0)+,d1
000886  C0 87                         AND.l d7,d0
000888  C2 87                         AND.l d7,d1
00088A  E3 88                         LSL.l #1,d0
00088C  80 81                         OR.l d1,d0
00088E  4E 75                         RTS
000890  .dc.b 00 00 00 00 00 00 00 00 00 00 00 00 00 00 00 00 ; ................
0008A0  .dc.b 00 00 00 00 00 00 00 00 00 00 00 00 00 00 00 00 ; ................
0008B0  .dc.b 00 00 00 00 00 00 00 00 00 00 00 00 33 33       ; ............33

; ==== sub_0008BE (2 callers) ====
0008BE  08 F9 00 03 00 BF D1 00       BSET.b #$3,$BFD100.l
0008C6  08 B9 00 07 00 BF D1 00       BCLR.b #$7,$BFD100.l
0008CE  08 B9 00 03 00 BF D1 00       BCLR.b #$3,$BFD100.l
0008D6  61 00 00 EA                   BSR $0009C2
0008DA  61 28                         BSR $000904
0008DC  4E 75                         RTS

; ==== sub_0008DE (1 caller) ====
0008DE  08 F9 00 03 00 BF D1 00       BSET.b #$3,$BFD100.l
0008E6  08 F9 00 07 00 BF D1 00       BSET.b #$7,$BFD100.l
0008EE  08 B9 00 03 00 BF D1 00       BCLR.b #$3,$BFD100.l
0008F6  08 F9 00 03 00 BF D1 00       BSET.b #$3,$BFD100.l
0008FE  61 00 00 C2                   BSR $0009C2
000902  4E 75                         RTS

; ==== sub_000904 (4 callers) ====
000904  08 39 00 05 00 BF E0 01       BTST.b #$5,$BFE001.l
00090C  66 F6                         BNE $000904
00090E  4E 75                         RTS

; ==== sub_000910 (2 callers) ====
000910  48 E7 C0 00                   MOVEM.l d0-d1,-(a7)
000914  32 38 0C AA                   MOVE.w $CAA.w,d1
000918  6A 06                         BPL $000920
00091A  61 00 00 4E                   BSR $00096A
00091E  42 41                         CLR.w d1
000920  08 F9 00 02 00 BF D1 00       BSET.b #$2,$BFD100.l
000928  08 00 00 00                   BTST.l #$0,d0
00092C  67 0C                         BEQ $00093A
00092E  4E 71                         NOP
000930  4E 71                         NOP
000932  08 B9 00 02 00 BF D1 00       BCLR.b #$2,$BFD100.l
00093A  33 C0 00 00 0C AA             MOVE.w d0,$CAA.l
000940  E2 48                         LSR.w #1,d0
000942  E2 49                         LSR.w #1,d1
000944  B2 40                         CMP.w d0,d1
000946  67 1C                         BEQ $000964
000948  92 40                         SUB.w d0,d1
00094A  6B 0C                         BMI $000958
00094C  61 34                         BSR $000982
00094E  61 72                         BSR $0009C2
000950  61 B2                         BSR $000904
000952  53 41                         SUBQ.w #1,d1
000954  66 F6                         BNE $00094C
000956  60 0C                         BRA $000964
000958  44 41                         NEG.w d1
00095A  61 46                         BSR $0009A2
00095C  61 64                         BSR $0009C2
00095E  61 A4                         BSR $000904
000960  53 41                         SUBQ.w #1,d1
000962  66 F6                         BNE $00095A
000964  4C DF                         .dc.w $4CDF
000966  .dc.b 00 03 4E 75                                     ; ..Nu

; ==== sub_00096A (1 caller) ====
00096A  08 39 00 04 00 BF E0 01       BTST.b #$4,$BFE001.l
000972  67 08                         BEQ $00097C
000974  61 0C                         BSR $000982
000976  61 4A                         BSR $0009C2
000978  61 8A                         BSR $000904
00097A  60 EE                         BRA $00096A
00097C  42 78 0C AA                   CLR.w $CAA.w
000980  4E 75                         RTS

; ==== sub_000982 (2 callers) ====
000982  08 F9 00 01 00 BF D1 00       BSET.b #$1,$BFD100.l
00098A  08 B9 00 00 00 BF D1 00       BCLR.b #$0,$BFD100.l
000992  4E 71                         NOP
000994  4E 71                         NOP
000996  4E 71                         NOP
000998  08 F9 00 00 00 BF D1 00       BSET.b #$0,$BFD100.l
0009A0  4E 75                         RTS

; ==== sub_0009A2 (1 caller) ====
0009A2  08 B9 00 01 00 BF D1 00       BCLR.b #$1,$BFD100.l
0009AA  08 B9 00 00 00 BF D1 00       BCLR.b #$0,$BFD100.l
0009B2  4E 71                         NOP
0009B4  4E 71                         NOP
0009B6  4E 71                         NOP
0009B8  08 F9 00 00 00 BF D1 00       BSET.b #$0,$BFD100.l
0009C0  4E 75                         RTS

; ==== sub_0009C2 (5 callers) ====
0009C2  3F 00                         MOVE.w d0,-(a7)
0009C4  30 3C 40 00                   MOVE.w #$4000,d0
0009C8  51 C8 FF FE                   DBRA d0,$0009C8
0009CC  30 1F                         MOVE.w (a7)+,d0
0009CE  4E 75                         RTS

; ==== init_early  $0009D0  (1 caller) — Early init: BSR chain ($8BE, $910, $AF2) then reads packed/interleaved data from the streamed region ($74002+) and deinterleaves it (AND #$55555555 — even/odd bitplane split). ====
0009D0  61 00 FE EC                   BSR $0008BE
0009D4  70 01                         MOVEQ #$1,d0
0009D6  61 00 FF 38                   BSR $000910
0009DA  7E 05                         MOVEQ #$5,d7
0009DC  61 00 01 14                   BSR $000AF2
0009E0  41 F9 00 07 40 02             LEA $74002.l,a0
0009E6  20 18                         MOVE.l (a0)+,d0
0009E8  22 18                         MOVE.l (a0)+,d1
0009EA  C0 BC 55 55 55 55             AND.l #$55555555,d0
0009F0  C2 BC 55 55 55 55             AND.l #$55555555,d1
0009F6  E3 88                         LSL.l #1,d0
0009F8  80 81                         OR.l d1,d0
0009FA  0A 80 12 34 56 78             EORI.l #$12345678,d0
000A00  2C 00                         MOVE.l d0,d6
000A02  50 88                         ADDQ.l #8,a0
000A04  22 48                         MOVEA.l a0,a1
000A06  34 3C 00 C7                   MOVE.w #$C7,d2
000A0A  20 3C 00 00 00 00             MOVE.l #$0,d0
000A10  22 18                         MOVE.l (a0)+,d1
000A12  B3 80                         EOR.l d1,d0
000A14  51 CA FF FA                   DBRA d2,$000A10
000A18  C0 BC 55 55 55 55             AND.l #$55555555,d0
000A1E  B0 86                         CMP.l d6,d0
000A20  66 28                         BNE $000A4A
000A22  20 49                         MOVEA.l a1,a0
000A24  43 F8 02 D6                   LEA $2D6.w,a1
000A28  34 3C 00 60                   MOVE.w #$60,d2
000A2C  20 18                         MOVE.l (a0)+,d0
000A2E  22 18                         MOVE.l (a0)+,d1
000A30  C0 BC 55 55 55 55             AND.l #$55555555,d0
000A36  C2 BC 55 55 55 55             AND.l #$55555555,d1
000A3C  E3 88                         LSL.l #1,d0
000A3E  80 81                         OR.l d1,d0
000A40  22 C0                         MOVE.l d0,(a1)+
000A42  51 CA FF E8                   DBRA d2,$000A2C
000A46  60 00 FE 96                   BRA $0008DE
000A4A  51 CF FF 90                   DBRA d7,$0009DC
000A4E  60 00 FE 8E                   BRA $0008DE
000A52  .dc.b 61 00 7D 02 6A 02 4E 75 61 00 FE 62 08 39 00 03 ; a.}.j.Nua..b.9..
000A62  .dc.b 00 BF E0 01 67 00 00 86 70 01 61 00 FE A2 43 F9 ; ....g...p.a...C.
000A72  .dc.b 00 07 40 00 30 3C 0B B7 22 FC AA AA AA AA 51 C8 ; ..@.0<..".....Q.
000A82  .dc.b FF F8 43 F9 00 07 43 E8 22 FC 44 89 2A AA 22 FC ; ..C...C.".D.*.".
000A92  .dc.b AA AA AA AA 22 FC AA AA AA AA 22 FC AA AA AA AA ; ....".....".....
000AA2  .dc.b 22 FC AA AA AA AA 24 49 41 F8 02 D6 38 3C 00 63 ; ".....$IA...8<.c
000AB2  .dc.b 20 18 61 00 01 06 51 CC FF F8 20 4A 34 3C 00 C7 ;  .a...Q... J4<..
000AC2  .dc.b 20 3C 00 00 00 00 22 18 B3 80 51 CA FF FA 43 EA ;  <...."...Q...C.
000AD2  .dc.b FF F0 C0 BC 55 55 55 55 0A 80 12 34 56 78 61 00 ; ....UUUU...4Vxa.
000AE2  .dc.b 00 DA 70 00 61 00 00 D4 61 00 00 5E 60 00 FD EE ; ..p.a...a..^`...

; ==== sub_000AF2 (1 caller) ====
000AF2  4D F9 00 DF F0 00             LEA $DFF000.l,a6
000AF8  3D 7C 82 10 00 96             MOVE.w #$8210,$96(a6)
000AFE  3D 7C 7F FF 00 9E             MOVE.w #$7FFF,$9E(a6)
000B04  3D 7C 95 00 00 9E             MOVE.w #$9500,$9E(a6)
000B0A  3D 7C 44 89 00 7E             MOVE.w #$4489,$7E(a6)
000B10  3D 7C 40 00 00 24             MOVE.w #$4000,$24(a6)
000B16  2D 7C 00 07 40 00 00 20       MOVE.l #$74000,$20(a6)
000B1E  08 39 00 05 00 BF E0 01       BTST.b #$5,$BFE001.l
000B26  66 F6                         BNE $000B1E
000B28  3D 7C 83 00 00 24             MOVE.w #$8300,$24(a6)
000B2E  3D 7C 83 00 00 24             MOVE.w #$8300,$24(a6)
000B34  02 6E 00 02 00 1E             ANDI.w #$2,$1E(a6)
000B3A  67 F8                         BEQ $000B34
000B3C  3D 7C 00 02 00 9C             MOVE.w #$2,$9C(a6)
000B42  3D 7C 40 00 00 24             MOVE.w #$4000,$24(a6)
000B48  4E 75                         RTS
000B4A  .dc.b 4D F9 00 DF F0 00 3D 7C 82 10 00 96 3D 7C 7F FF ; M.....=|....=|..
000B5A  .dc.b 00 9E 3D 7C 91 00 00 9E 3D 7C 40 00 00 24 3D 7C ; ..=|....=|@..$=|
000B6A  .dc.b 00 02 00 9C 2D 7C 00 07 40 00 00 20 1E 39 00 BF ; ....-|..@.. .9..
000B7A  .dc.b DD 00 1E 39 00 BF DD 00 08 07 00 04 67 F4 3D 7C ; ...9........g.=|
000B8A  .dc.b D9 4E 00 24 3D 7C D9 4E 00 24 2E 3C 00 0F FF FF ; .N.$=|.N.$.<....
000B9A  .dc.b 02 6E 00 02 00 1E 66 0C 53 87 66 F4 3D 7C 40 00 ; .n....f.S.f.=|@.
000BAA  .dc.b 00 24 4E 75 3D 7C 40 00 00 24 3D 7C 00 02 00 9C ; .$Nu=|@..$=|....
000BBA  .dc.b 4E 75 26 00 E2 88 61 06 20 03 61 02 4E 75 C0 BC ; Nu&...a. .a.Nu..
000BCA  .dc.b 55 55 55 55 24 00 0A 82 55 55 55 55 22 02 E3 8A ; UUUU$...UUUU"...
000BDA  .dc.b E2 89 08 C1 00 1F C2 82 80 81 08 29 00 00 FF FF ; ...........)....
000BEA  .dc.b 67 04 08 80 00 1F 22 C0 4E 75                   ; g.....".Nu

; ==== sub_000BF4 (1 caller) ====
000BF4  48 E7 E1 30                   MOVEM.l d0-d2/d7/a2-a3,-(a7)
000BF8  61 18                         BSR $000C12
000BFA  2E 09                         MOVE.l a1,d7
000BFC  26 4A                         MOVEA.l a2,a3
000BFE  24 7C 00 05 C0 00             MOVEA.l #$5C000,a2
000C04  4E B9 00 07 40 00             JSR $74000.l
000C0A  70 00                         MOVEQ #$0,d0
000C0C  4E F8 00 C0                   JMP $C0.w
000C10  .dc.b 4E 75                                           ; Nu

; ==== sub_000C12 (2 callers) ====
000C12  20 3C 00 02 5C 00             MOVE.l #$25C00,d0
000C18  22 3C 00 00 04 00             MOVE.l #$400,d1
000C1E  24 3C 00 07 40 00             MOVE.l #$74000,d2
000C24  61 00 FA F6                   BSR $00071C
000C28  4E 75                         RTS
000C2A  .dc.b 4A B8 0C AC 67 38 2C 78 0C AC 4A 56 6B 0A B0 56 ; J...g8,x..JVk..V
000C3A  .dc.b 67 2C 4D EE 16 02 60 F2 76 FF BD F8 0C B0 66 06 ; g,M...`.v.....f.
000C4A  .dc.b 76 00 2C 78 0C AC 3C C0 4B FA FC 3C 7A 0A 78 7F ; v.,x..<.K..<z.x.
000C5A  .dc.b 26 5D 2C DB 51 CC FF FC 51 CD FF F4 87 56       ; &],.Q...Q....V
000C68  4E 75                         RTS

; ==== sub_000C6A (1 caller) ====
000C6A  4A B8 0C AC                   TST.l $CAC.w
000C6E  66 04                         BNE $000C74
000C70  7A FF                         MOVEQ #$FF,d5
000C72  4E 75                         RTS
000C74  2C 78 0C AC                   MOVEA.l $CAC.w,a6
000C78  4A 56                         TST.w (a6)
000C7A  6B EC                         BMI $000C68
000C7C  B0 5E                         CMP.w (a6)+,d0
000C7E  67 06                         BEQ $000C86
000C80  4D EE 16 00                   LEA $1600(a6),a6
000C84  60 F2                         BRA $000C78
000C86  7A 0A                         MOVEQ #$A,d5
000C88  4B FA FC 06                   LEA $000890(pc),a5
000C8C  2A CE                         MOVE.l a6,(a5)+
000C8E  DD FC 00 00 02 00             ADDA.l #$200,a6
000C94  51 CD FF F6                   DBRA d5,$000C8C
000C98  7A 00                         MOVEQ #$0,d5
000C9A  4E 75                         RTS
000C9C  .dc.b 00 00 00 00 00 00 00 00 00 00 00 00 00 00 00 00 ; ................
000CAC  .dc.b 00 00 00 00 00 00 00 00                         ; ........

; --- game_start  $000CB4 — Real game start (entry_table slot 0). Supervisor mode, stack $89DC, a6=$DFF000; stash the trainer-option regs ($CAA/$CAC); init_early; JSR $30000 (the PP20 graphics/engine module); init_object_table, init_map_grid, init_54BC, setup_irq_display; then fall into main_loop. ---
000CB4  46 FC 20 00                   MOVE #$2000,sr
000CB8  4F F9 00 00 89 DC             LEA $89DC.l,a7
000CBE  4D F9 00 DF F0 00             LEA $DFF000.l,a6
000CC4  48 F8 03 00 0C AC             MOVEM.l a0-a1,$CAC.w
000CCA  31 C0 0C AA                   MOVE.w d0,$CAA.w
000CCE  2F 0A                         MOVE.l a2,-(a7)
000CD0  61 00 FC FE                   BSR $0009D0
000CD4  24 5F                         MOVEA.l (a7)+,a2
000CD6  14 BC 00 0F                   MOVE.b #$F,(a2)
000CDA  4A 52                         TST.w (a2)
000CDC  66 FC                         BNE $000CDA
000CDE  4E B9 00 03 00 00             JSR $30000.l
000CE4  4F F9 00 00 89 DC             LEA $89DC.l,a7
000CEA  4D F9 00 DF F0 00             LEA $DFF000.l,a6
000CF0  61 00 67 98                   BSR $00748A
000CF4  61 00 67 CA                   BSR $0074C0
000CF8  61 00 47 C2                   BSR $0054BC
000CFC  61 00 00 16                   BSR $000D14
000D00  42 78 02 52                   CLR.w $252.w
000D04  60 00 00 46                   BRA $000D4C
000D08  70 01                         MOVEQ #$1,d0
000D0A  61 00 F9 62                   BSR $00066E
000D0E  60 D4                         BRA $000CE4
000D10  70 02                         MOVEQ #$2,d0
000D12  60 F6                         BRA $000D0A

; ==== setup_irq_display  $000D14  (1 caller) — Interrupt/display bring-up: INTENA/INTREQ/DMACON off, DMACON #$8240 (SET|DMAEN|BLTEN), BSR $6D4A/$706C/$712A (copper/sprite/playfield setup), INTENA #$C018 (SET|INTEN|VERTB|COPER). ====
000D14  4D F9 00 DF F0 00             LEA $DFF000.l,a6
000D1A  3D 7C 7F FF 00 9A             MOVE.w #$7FFF,$9A(a6)
000D20  3D 7C 7F FF 00 9C             MOVE.w #$7FFF,$9C(a6)
000D26  3D 7C 7F FF 00 96             MOVE.w #$7FFF,$96(a6)
000D2C  3D 7C 82 40 00 96             MOVE.w #$8240,$96(a6)
000D32  61 00 60 16                   BSR $006D4A
000D36  61 00 63 34                   BSR $00706C
000D3A  61 00 63 EE                   BSR $00712A
000D3E  3D 7C C0 18 00 9A             MOVE.w #$C018,$9A(a6)
000D44  3D 7C 87 E0 00 96             MOVE.w #$87E0,$96(a6)
000D4A  4E 75                         RTS

; --- level_setup  $000D4C — Per-level setup (entered from game_start and on level change). Clears the playfield via the blitter (writes BLTSIZE $58(a6), spins on BBUSY in DMACONR $2(a6)); installs the three display buffers ($17A/$192/$1AA = $5BCE0/$67CE0/$73CE0, triple-buffered); primes level/game state ($1938 level no., $193A, $7AAF, $194B …); and runs a long chain of subsystem-init BSRs ($3258, $6E9C, init_54BC, $78B0, $7968, $147E, $16DE, $1A68, $43D8 …) before falling into game_loop. ---
000D4C  3D 7C 01 F0 00 40             MOVE.w #$1F0,$40(a6)
000D52  42 6E 00 42                   CLR.w $42(a6)
000D56  42 6E 00 74                   CLR.w $74(a6)
000D5A  42 6E 00 66                   CLR.w $66(a6)
000D5E  2D 78 01 7A 00 54             MOVE.l $17A.w,$54(a6)
000D64  3D 7C 80 30 00 58             MOVE.w #$8030,$58(a6)
000D6A  08 2E 00 0E 00 02             BTST.b #$E,$2(a6)
000D70  66 F8                         BNE $000D6A
000D72  3D 7C 80 30 00 58             MOVE.w #$8030,$58(a6)
000D78  08 2E 00 0E 00 02             BTST.b #$E,$2(a6)
000D7E  66 F8                         BNE $000D78
000D80  3D 7C 80 30 00 58             MOVE.w #$8030,$58(a6)
000D86  08 2E 00 0E 00 02             BTST.b #$E,$2(a6)
000D8C  66 F8                         BNE $000D86
000D8E  42 78 19 38                   CLR.w $1938.w
000D92  42 78 19 3A                   CLR.w $193A.w
000D96  11 FC 00 03 7A AF             MOVE.b #$3,$7AAF.w
000D9C  51 F8 19 4B                   SF $194B.w
000DA0  51 F8 19 4C                   SF $194C.w
000DA4  50 F8 02 17                   ST $217.w
000DA8  42 78 02 84                   CLR.w $284.w
000DAC  41 F8 1A 0E                   LEA $1A0E.w,a0
000DB0  43 F9 00 00 19 DE             LEA $19DE.l,a1
000DB6  4C D0                         .dc.w $4CD0
000DB8  .dc.b 00 FF 48 D1 00 FF 4C A8 00 FF 00 20 48 A9 00 FF ; ..H...L.... H...
000DC8  .dc.b 00 20 41 F8 19 8E 61 00 64 8E 21 FC 00 05 BC E0 ; . A...a.d.!.....
000DD8  .dc.b 01 7A 21 FC 00 06 7C E0 01 92 21 FC 00 07 3C E0 ; .z!...|...!...<.
000DE8  .dc.b 01 AA 42 B8 01 72 31 FC FF E0 01 BE 42 78 01 C0 ; ..B..r1.....Bx..
000DF8  .dc.b 50 F8 70 6A 41 F8 01 76 61 00 24 56 61 00 60 96 ; P.pjA..va.$Va.`.
000E08  61 00 46 B2                   BSR $0054BC
000E0C  31 FC 00 03 7A B0             MOVE.w #$3,$7AB0.w
000E12  42 B8 7B 10                   CLR.l $7B10.w
000E16  61 00 6A 98                   BSR $0078B0
000E1A  61 00 6B 4C                   BSR $007968
000E1E  61 00 6B 9E                   BSR $0079BE
000E22  61 00 06 5A                   BSR $00147E
000E26  4E B9 00 01 A2 A8             JSR $1A2A8.l
000E2C  70 1F                         MOVEQ #$1F,d0
000E2E  4E B9 00 01 A2 AC             JSR $1A2AC.l
000E34  61 00 68 20                   BSR $007656
000E38  30 38 19 38                   MOVE.w $1938.w,d0
000E3C  61 00 F6 58                   BSR $000496
000E40  61 00 08 9C                   BSR $0016DE
000E44  61 00 0C 22                   BSR $001A68
000E48  61 00 07 C4                   BSR $00160E
000E4C  61 00 2A 42                   BSR $003890
000E50  61 00 46 7C                   BSR $0054CE
000E54  42 B8 01 04                   CLR.l $104.w
000E58  61 00 35 7E                   BSR $0043D8
000E5C  11 FC 00 0F 01 35             MOVE.b #$F,$135.w
000E62  21 FC 00 00 72 D4 02 3E       MOVE.l #$72D4,$23E.w
000E6A  21 FC 00 00 19 CE 02 42       MOVE.l #$19CE,$242.w
000E72  31 FC 00 1F 02 46             MOVE.w #$1F,$246.w
000E78  11 FC 00 01 02 48             MOVE.b #$1,$248.w
000E7E  4A 38 01 35                   TST.b $135.w
000E82  66 FA                         BNE $000E7E
000E84  61 00 06 36                   BSR $0014BC
000E88  30 38 19 3C                   MOVE.w $193C.w,d0
000E8C  4E B9 00 00 02 1C             JSR $21C.l
000E92  20 3C 00 02 00 40             MOVE.l #$20040,d0
000E98  4E B9 00 00 02 20             JSR $220.l
000E9E  21 F9 00 00 45 A4 01 04       MOVE.l $45A4.l,$104.w
000EA6  4A 38 02 53                   TST.b $253.w
000EAA  67 0C                         BEQ $000EB8
000EAC  31 FC 00 9A 01 04             MOVE.w #$9A,$104.w
000EB2  31 FC 00 84 01 06             MOVE.w #$84,$106.w
000EB8  61 00 35 1E                   BSR $0043D8

; --- game_loop  $000EBC — The per-frame game loop. Each frame it runs a fixed render/update pipeline — blit_playfield, blit_objects, $2F56, then JSR (a0) with a0 = the current mode handler ($1942), then $1710 (x2), $3A56, $5576, $68AC, $64B8, $1B94, $1C0C, $1850/$18BA/$189E — then raises the frame-sync flag $1E1 and spins until the vblank ISR clears it (wait for vertical blank), and loops. Exits on $26D/$15D (to $1404 or the $F22 variant used when $15C is set). ---
000EBC  4A 38 01 5C                   TST.b $15C.w
000EC0  66 00 00 60                   BNE $000F22
000EC4  61 00 0C EE                   BSR $001BB4
000EC8  61 00 4F 76                   BSR $005E40
000ECC  61 00 20 88                   BSR $002F56
000ED0  20 78 19 42                   MOVEA.l $1942.w,a0
000ED4  4E 90                         JSR (a0)
000ED6  61 00 08 38                   BSR $001710
000EDA  61 00 08 34                   BSR $001710
000EDE  61 00 2B 76                   BSR $003A56
000EE2  61 00 46 92                   BSR $005576
000EE6  61 00 59 C4                   BSR $0068AC
000EEA  61 00 55 CC                   BSR $0064B8
000EEE  61 00 0C A4                   BSR $001B94
000EF2  61 00 0D 18                   BSR $001C0C
000EF6  50 F9 00 00 01 E1             ST $1E1.l
000EFC  61 00 09 52                   BSR $001850
000F00  61 00 09 B8                   BSR $0018BA
000F04  61 00 09 98                   BSR $00189E
000F08  4A 39 00 00 01 E1             TST.b $1E1.l
000F0E  66 F8                         BNE $000F08
000F10  4A 38 02 6D                   TST.b $26D.w
000F14  66 00 00 62                   BNE $000F78
000F18  4A 38 01 5D                   TST.b $15D.w
000F1C  67 9E                         BEQ $000EBC
000F1E  60 00 04 E4                   BRA $001404
000F22  42 B8 01 20                   CLR.l $120.w
000F26  42 B8 01 24                   CLR.l $124.w
000F2A  61 00 0C 88                   BSR $001BB4
000F2E  61 00 4F 10                   BSR $005E40
000F32  61 00 20 22                   BSR $002F56
000F36  20 78 19 42                   MOVEA.l $1942.w,a0
000F3A  4E 90                         JSR (a0)
000F3C  61 00 2B 18                   BSR $003A56
000F40  61 00 0C 52                   BSR $001B94
000F44  61 00 15 32                   BSR $002478
000F48  61 00 46 2C                   BSR $005576
000F4C  61 00 55 6A                   BSR $0064B8
000F50  61 00 0C BA                   BSR $001C0C
000F54  50 F9 00 00 01 E1             ST $1E1.l
000F5A  61 00 08 F4                   BSR $001850
000F5E  61 00 09 5A                   BSR $0018BA
000F62  4A 39 00 00 01 E1             TST.b $1E1.l
000F68  66 F8                         BNE $000F62
000F6A  4A 38 01 5C                   TST.b $15C.w
000F6E  67 00 FF 4C                   BEQ $000EBC
000F72  4A 38 02 6D                   TST.b $26D.w
000F76  67 B2                         BEQ $000F2A
000F78  4A B8 7B 0C                   TST.l $7B0C.w
000F7C  66 04                         BNE $000F82
000F7E  61 00 00 8A                   BSR $00100A
000F82  4A 78 7A B0                   TST.w $7AB0.w
000F86  67 00 00 A8                   BEQ $001030
000F8A  61 00 6A 14                   BSR $0079A0
000F8E  4A 38 01 5C                   TST.b $15C.w
000F92  66 2E                         BNE $000FC2
000F94  4A 38 02 52                   TST.b $252.w
000F98  66 28                         BNE $000FC2
000F9A  61 00 05 62                   BSR $0014FE
000F9E  61 00 0A C8                   BSR $001A68
000FA2  61 00 06 6A                   BSR $00160E
000FA6  61 00 28 E8                   BSR $003890
000FAA  61 00 44 EA                   BSR $005496
000FAE  61 00 04 CE                   BSR $00147E
000FB2  42 B8 01 04                   CLR.l $104.w
000FB6  61 00 34 20                   BSR $0043D8
000FBA  61 00 05 00                   BSR $0014BC
000FBE  60 00 FE D2                   BRA $000E92
000FC2  53 38 54 51                   SUBQ.b #1,$5451.w
000FC6  6A 04                         BPL $000FCC
000FC8  42 38 54 51                   CLR.b $5451.w
000FCC  53 38 54 52                   SUBQ.b #1,$5452.w
000FD0  6A 0A                         BPL $000FDC
000FD2  42 38 54 52                   CLR.b $5452.w
000FD6  11 FC 00 01 54 4F             MOVE.b #$1,$544F.w
000FDC  53 38 59 4C                   SUBQ.b #1,$594C.w
000FE0  6A 04                         BPL $000FE6
000FE2  42 38 59 4C                   CLR.b $594C.w
000FE6  28 78 19 3E                   MOVEA.l $193E.w,a4
000FEA  21 EC 00 1C 7B 0C             MOVE.l $1C(a4),$7B0C.w
000FF0  70 00                         MOVEQ #$0,d0
000FF2  61 00 68 90                   BSR $007884
000FF6  21 F9 00 00 45 A4 01 04       MOVE.l $45A4.l,$104.w
000FFE  61 00 28 90                   BSR $003890
001002  61 00 04 7A                   BSR $00147E
001006  60 00 FE 8A                   BRA $000E92

; ==== sub_00100A (1 caller) ====
00100A  4E B8 01 08                   JSR $108.w
00100E  2B 7C 00 00 12 1E 00 22       MOVE.l #$121E,$22(a5)
001016  1B 7C 00 81 00 1E             MOVE.b #$81,$1E(a5)
00101C  4E B8 01 0C                   JSR $10C.w
001020  51 F8 10 90                   SF $1090.w
001024  61 00 01 94                   BSR $0011BA
001028  4A 38 10 90                   TST.b $1090.w
00102C  67 F6                         BEQ $001024
00102E  4E 75                         RTS
001030  61 00 0A 88                   BSR $001ABA
001034  2B 7C 00 00 12 1E 00 22       MOVE.l #$121E,$22(a5)
00103C  1B 7C 00 80 00 1E             MOVE.b #$80,$1E(a5)
001042  61 00 0A A8                   BSR $001AEC
001046  51 F8 10 90                   SF $1090.w
00104A  61 00 01 6E                   BSR $0011BA
00104E  4A 38 10 90                   TST.b $1090.w
001052  67 F6                         BEQ $00104A
001054  4A 38 7A AF                   TST.b $7AAF.w
001058  67 38                         BEQ $001092
00105A  61 00 0A 5E                   BSR $001ABA
00105E  2B 7C 00 00 12 1E 00 22       MOVE.l #$121E,$22(a5)
001066  1B 7C 00 82 00 1E             MOVE.b #$82,$1E(a5)
00106C  61 00 0A 7E                   BSR $001AEC
001070  51 F8 10 90                   SF $1090.w
001074  61 00 01 44                   BSR $0011BA
001078  4A 38 10 90                   TST.b $1090.w
00107C  67 F6                         BEQ $001074
00107E  6B 12                         BMI $001092
001080  61 00 68 D6                   BSR $007958
001084  42 78 19 3A                   CLR.w $193A.w
001088  61 00 00 10                   BSR $00109A
00108C  60 00 FD 7A                   BRA $000E08
001090  .dc.b 00 00                                           ; ..
001092  61 00 00 06                   BSR $00109A
001096  60 00 FC 70                   BRA $000D08

; ==== sub_00109A (2 callers) ====
00109A  4A 38 02 52                   TST.b $252.w
00109E  66 1C                         BNE $0010BC
0010A0  61 00 04 5C                   BSR $0014FE
0010A4  20 3C 00 02 00 00             MOVE.l #$20000,d0
0010AA  4E B9 00 01 A2 C8             JSR $1A2C8.l
0010B0  4E B9 00 01 A2 CC             JSR $1A2CC.l
0010B6  4A 50                         TST.w (a0)
0010B8  66 F6                         BNE $0010B0
0010BA  4E 75                         RTS
0010BC  41 F8 19 CE                   LEA $19CE.w,a0
0010C0  70 1F                         MOVEQ #$1F,d0
0010C2  42 58                         CLR.w (a0)+
0010C4  51 C8 FF FC                   DBRA d0,$0010C2
0010C8  11 FC 00 0F 01 35             MOVE.b #$F,$135.w
0010CE  21 FC 00 00 72 D4 02 3E       MOVE.l #$72D4,$23E.w
0010D6  21 FC 00 00 19 CE 02 42       MOVE.l #$19CE,$242.w
0010DE  31 FC 00 1F 02 46             MOVE.w #$1F,$246.w
0010E4  11 FC 00 01 02 48             MOVE.b #$1,$248.w
0010EA  20 3C 00 02 00 00             MOVE.l #$20000,d0
0010F0  4E B9 00 01 A2 C8             JSR $1A2C8.l
0010F6  4A 38 01 35                   TST.b $135.w
0010FA  66 FA                         BNE $0010F6
0010FC  70 1F                         MOVEQ #$1F,d0
0010FE  4E B9 00 01 A2 AC             JSR $1A2AC.l
001104  20 3C 00 01 00 40             MOVE.l #$10040,d0
00110A  4E B9 00 01 A2 C8             JSR $1A2C8.l
001110  61 00 60 62                   BSR $007174
001114  21 FC 00 05 BC E0 01 7A       MOVE.l #$5BCE0,$17A.w
00111C  21 FC 00 06 7C E0 01 92       MOVE.l #$67CE0,$192.w
001124  21 FC 00 07 3C E0 01 AA       MOVE.l #$73CE0,$1AA.w
00112C  42 B8 01 72                   CLR.l $172.w
001130  31 FC FF E0 01 BE             MOVE.w #$FFE0,$1BE.w
001136  42 78 01 C0                   CLR.w $1C0.w
00113A  50 F8 70 6A                   ST $706A.w
00113E  41 F8 01 76                   LEA $176.w,a0
001142  61 00 21 14                   BSR $003258
001146  61 00 5D 54                   BSR $006E9C
00114A  3D 7C 01 F0 00 40             MOVE.w #$1F0,$40(a6)
001150  42 6E 00 42                   CLR.w $42(a6)
001154  42 6E 00 74                   CLR.w $74(a6)
001158  42 6E 00 66                   CLR.w $66(a6)
00115C  2D 78 01 7A 00 54             MOVE.l $17A.w,$54(a6)
001162  3D 7C 80 30 00 58             MOVE.w #$8030,$58(a6)
001168  08 2E 00 0E 00 02             BTST.b #$E,$2(a6)
00116E  66 F8                         BNE $001168
001170  3D 7C 80 30 00 58             MOVE.w #$8030,$58(a6)
001176  08 2E 00 0E 00 02             BTST.b #$E,$2(a6)
00117C  66 F8                         BNE $001176
00117E  3D 7C 80 30 00 58             MOVE.w #$8030,$58(a6)
001184  08 2E 00 0E 00 02             BTST.b #$E,$2(a6)
00118A  66 F8                         BNE $001184
00118C  41 F8 1A 0E                   LEA $1A0E.w,a0
001190  43 F9 00 00 19 DE             LEA $19DE.l,a1
001196  4C D0                         .dc.w $4CD0
001198  .dc.b 00 FF 48 D1 00 FF 4C A8 00 FF 00 20 48 A9 00 FF ; ..H...L.... H...
0011A8  .dc.b 00 20 41 F8 19 CE 61 00 60 AE 61 00 03 4A 70 FF ; . A...a.`.a..Jp.
0011B8  .dc.b 4E 75                                           ; Nu

; ==== sub_0011BA (3 callers) ====
0011BA  4A 38 01 5C                   TST.b $15C.w
0011BE  66 3A                         BNE $0011FA
0011C0  61 00 09 F2                   BSR $001BB4
0011C4  61 00 4C 7A                   BSR $005E40
0011C8  42 B8 01 20                   CLR.l $120.w
0011CC  42 B8 01 24                   CLR.l $124.w
0011D0  61 00 1D 84                   BSR $002F56
0011D4  20 78 19 42                   MOVEA.l $1942.w,a0
0011D8  4E 90                         JSR (a0)
0011DA  61 00 56 D0                   BSR $0068AC
0011DE  61 00 52 D8                   BSR $0064B8
0011E2  61 00 09 B0                   BSR $001B94
0011E6  61 00 0A 24                   BSR $001C0C
0011EA  50 F9 00 00 01 E1             ST $1E1.l
0011F0  4A 39 00 00 01 E1             TST.b $1E1.l
0011F6  66 F8                         BNE $0011F0
0011F8  4E 75                         RTS
0011FA  61 00 09 B8                   BSR $001BB4
0011FE  61 00 4C 40                   BSR $005E40
001202  61 00 1D 52                   BSR $002F56
001206  20 78 19 42                   MOVEA.l $1942.w,a0
00120A  4E 90                         JSR (a0)
00120C  61 00 09 86                   BSR $001B94
001210  61 00 12 66                   BSR $002478
001214  61 00 52 A2                   BSR $0064B8
001218  61 00 09 F2                   BSR $001C0C
00121C  60 CC                         BRA $0011EA
00121E  .dc.b 10 2D 00 1E 6A 40 51 ED 00 1E C0 7C 00 7F 3B 40 ; .-..j@Q....|..;@
00122E  .dc.b 00 0C 2B 7C 00 00 13 8C 00 12 50 ED 00 1C 50 ED ; ..+|......P...P.
00123E  .dc.b 00 1F 42 6D 00 2E 42 6D 00 1A 3B 7C 00 70 00 18 ; ..Bm..Bm..;|.p..
00124E  .dc.b B0 7C 00 02 66 0E 04 6D 00 0C 00 1A 70 0C 72 0C ; .|..f..m....p.r.
00125E  .dc.b 60 00 00 DA 4E 75 4C AD 00 03 00 18 90 78 01 20 ; `...NuL......x. 
00126E  .dc.b 92 78 01 22 34 2D 00 2E 66 24 58 41 B2 7C 00 72 ; .x."4-..f$XA.|.r
00127E  .dc.b 6D 14 52 6D 00 2E 3B 7C 00 46 00 30 3B 7C 01 00 ; m.Rm..;|.F.0;|..
00128E  .dc.b 00 32 51 F8 01 E6 48 AD 00 03 00 18 4E 75 B4 7C ; .2Q...H.....Nu.|
00129E  .dc.b 00 01 66 22 48 AD 00 03 00 18 0C 6D 00 02 00 0C ; ..f"H......m....
0012AE  .dc.b 67 48 0C 6D 00 03 00 0C 67 0A 53 6D 00 30 6A 04 ; gH.m....g.Sm.0j.
0012BE  .dc.b 52 6D 00 2E 4E 75 B4 7C 00 02 66 2A 58 41 B2 7C ; Rm..Nu.|..f*XA.|
0012CE  .dc.b 00 D4 6F 1A 0C 6D 00 02 00 0C 66 0A 11 ED 00 32 ; ..o..m....f....2
0012DE  .dc.b 10 90 60 00 08 56 50 F8 10 90 60 00 08 4E 48 AD ; ..`..VP...`..NH.
0012EE  .dc.b 00 03 00 18 4E 75 60 00 08 42 2F 0D 61 00 31 D0 ; ....Nu`..B/.a.1.
0012FE  .dc.b 2A 5F 4A 40 67 16 6A 0C 1B 7C 00 01 00 32 42 2D ; *_J@g.j..|...2B-
00130E  .dc.b 00 33 60 08 50 ED 00 32 42 2D 00 33 52 2D 00 33 ; .3`.P..2B-.3R-.3
00131E  .dc.b 10 2D 00 33 C0 3C 00 10 67 06 70 0C 72 0C 60 0C ; .-.3.<..g.p.r.`.
00132E  .dc.b 70 0C 72 00 4A 2D 00 32 6B 02 C1 41 41 FA 00 98 ; p.r.J-.2k..AA...
00133E  .dc.b D0 C0 61 14 41 FA 00 A8 D0 C1 61 20 4A 38 01 E6 ; ..a.A.....a J8..
00134E  .dc.b 67 04 52 6D 00 2E 4E 75 3D 7C 09 F0 00 40 42 6E ; g.Rm..Nu=|...@Bn
00135E  .dc.b 00 42 74 FF 2D 42 00 44 42 6E 00 64 3D 68 00 02 ; .Bt.-B.DBn.d=h..
00136E  .dc.b 00 66 2D 68 00 04 00 50 22 68 00 08 2D 49 00 54 ; .f-h...P"h..-I.T
00137E  .dc.b 3D 50 00 58 08 2E 00 0E 00 02 66 F8 4E 75 00 00 ; =P.X......f.Nu..
00138E  .dc.b 13 9C 00 00 13 AA 00 00 13 B8 00 00 13 C6 00 01 ; ................
00139E  .dc.b 8E B8 00 01 93 C8 00 AC 06 0A 18 00 00 01 87 F8 ; ................
0013AE  .dc.b 00 01 8D 08 00 AC 06 0A 18 00 00 01 7C 28 00 01 ; ............|(..
0013BE  .dc.b 85 04 00 AC 0A 8A 2A 00 00 01 9B 98 00 01 A0 A8 ; ......*.........
0013CE  .dc.b 00 AC 06 0A 18 00 03 84 00 0A 00 01 96 58 00 01 ; .............X..
0013DE  .dc.b 84 0A 03 84 00 0A 00 01 98 18 00 01 84 0A 03 83 ; ................
0013EE  .dc.b 00 0C 00 01 99 A0 00 01 84 12 03 83 00 0C 00 01 ; ................
0013FE  .dc.b 9A F0 00 01 84 12                               ; ......
001404  52 78 19 3A                   ADDQ.w #1,$193A.w
001408  51 F8 01 5D                   SF $15D.w
00140C  4A 38 02 17                   TST.b $217.w
001410  67 0C                         BEQ $00141E
001412  42 78 70 68                   CLR.w $7068.w
001416  0C 78 00 64 70 68             CMPI.w #$64,$7068.w
00141C  6D F8                         BLT $001416
00141E  61 00 00 DE                   BSR $0014FE
001422  41 F9 00 01 B9 80             LEA $1B980.l,a0
001428  30 28 00 14                   MOVE.w $14(a0),d0
00142C  B0 78 19 3A                   CMP.w $193A.w,d0
001430  6F 28                         BLE $00145A
001432  51 F8 19 4A                   SF $194A.w
001436  61 00 06 30                   BSR $001A68
00143A  61 00 01 D2                   BSR $00160E
00143E  61 00 24 50                   BSR $003890
001442  61 00 40 8A                   BSR $0054CE
001446  61 00 62 0E                   BSR $007656
00144A  42 B8 01 04                   CLR.l $104.w
00144E  61 00 2F 88                   BSR $0043D8
001452  61 00 00 68                   BSR $0014BC
001456  60 00 FA 30                   BRA $000E88
00145A  52 78 19 38                   ADDQ.w #1,$1938.w
00145E  42 78 19 3A                   CLR.w $193A.w
001462  0C 78 00 05 19 38             CMPI.w #$5,$1938.w
001468  6D 10                         BLT $00147A
00146A  31 FC 00 04 19 38             MOVE.w #$4,$1938.w
001470  31 FC 00 02 19 3A             MOVE.w #$2,$193A.w
001476  60 00 F8 98                   BRA $000D10
00147A  60 00 F9 AA                   BRA $000E26

; ==== sub_00147E (3 callers) ====
00147E  21 FC 00 00 03 00 7B 1C       MOVE.l #$300,$7B1C.w
001486  21 FC 00 00 03 00 7B 18       MOVE.l #$300,$7B18.w
00148E  21 FC 00 00 03 00 7B 14       MOVE.l #$300,$7B14.w
001496  61 00 63 1C                   BSR $0077B4
00149A  61 00 61 BA                   BSR $007656
00149E  70 00                         MOVEQ #$0,d0
0014A0  61 00 63 E2                   BSR $007884
0014A4  70 01                         MOVEQ #$1,d0
0014A6  61 00 63 DC                   BSR $007884
0014AA  70 02                         MOVEQ #$2,d0
0014AC  61 00 63 D6                   BSR $007884
0014B0  70 03                         MOVEQ #$3,d0
0014B2  61 00 63 D0                   BSR $007884
0014B6  70 04                         MOVEQ #$4,d0
0014B8  60 00 63 CA                   BRA $007884

; ==== sub_0014BC (3 callers) ====
0014BC  20 38 01 C2                   MOVE.l $1C2.w,d0
0014C0  B0 BC 00 00 01 8E             CMP.l #$18E,d0
0014C6  67 0A                         BEQ $0014D2
0014C8  50 F8 01 E1                   ST $1E1.w
0014CC  4A 38 01 E1                   TST.b $1E1.w
0014D0  66 FA                         BNE $0014CC
0014D2  42 78 7B 2C                   CLR.w $7B2C.w
0014D6  42 78 7B 2A                   CLR.w $7B2A.w
0014DA  42 78 70 68                   CLR.w $7068.w
0014DE  4A 78 70 68                   TST.w $7068.w
0014E2  67 FA                         BEQ $0014DE
0014E4  30 38 7B 2A                   MOVE.w $7B2A.w,d0
0014E8  C0 7C 00 04                   AND.w #$4,d0
0014EC  66 08                         BNE $0014F6
0014EE  70 1C                         MOVEQ #$1C,d0
0014F0  4E B9 00 01 A2 DC             JSR $1A2DC.l
0014F6  61 00 5F FE                   BSR $0074F6
0014FA  6A DE                         BPL $0014DA
0014FC  4E 75                         RTS

; ==== sub_0014FE (3 callers) ====
0014FE  4A 38 19 4C                   TST.b $194C.w
001502  66 00 00 DA                   BNE $0015DE
001506  20 38 01 C2                   MOVE.l $1C2.w,d0
00150A  B0 BC 00 00 01 76             CMP.l #$176,d0
001510  67 0A                         BEQ $00151C
001512  50 F8 01 E1                   ST $1E1.w
001516  4A 38 01 E1                   TST.b $1E1.w
00151A  66 FA                         BNE $001516
00151C  3D 7C 09 F0 00 40             MOVE.w #$9F0,$40(a6)
001522  42 6E 00 42                   CLR.w $42(a6)
001526  42 AE 00 64                   CLR.l $64(a6)
00152A  70 FF                         MOVEQ #$FF,d0
00152C  2D 40 00 44                   MOVE.l d0,$44(a6)
001530  20 38 01 AA                   MOVE.l $1AA.w,d0
001534  22 38 01 7A                   MOVE.l $17A.w,d1
001538  20 78 02 0A                   MOVEA.l $20A.w,a0
00153C  38 38 01 C0                   MOVE.w $1C0.w,d4
001540  67 44                         BEQ $001586
001542  3A 04                         MOVE.w d4,d5
001544  9A 7C 01 00                   SUB.w #$100,d5
001548  44 45                         NEG.w d5
00154A  3C 05                         MOVE.w d5,d6
00154C  DC 46                         ADD.w d6,d6
00154E  DC 46                         ADD.w d6,d6
001550  24 00                         MOVE.l d0,d2
001552  D4 B0 60 00                   ADD.l $0(a0,d6.w),d2
001556  EF 4C                         LSL.w #7,d4
001558  88 7C 00 30                   OR.w #$30,d4
00155C  2D 42 00 50                   MOVE.l d2,$50(a6)
001560  2D 41 00 54                   MOVE.l d1,$54(a6)
001564  3D 44 00 58                   MOVE.w d4,$58(a6)
001568  08 2E 00 0E 00 02             BTST.b #$E,$2(a6)
00156E  66 F8                         BNE $001568
001570  EF 4D                         LSL.w #7,d5
001572  8A 7C 00 30                   OR.w #$30,d5
001576  2D 40 00 50                   MOVE.l d0,$50(a6)
00157A  3D 45 00 58                   MOVE.w d5,$58(a6)
00157E  08 2E 00 0E 00 02             BTST.b #$E,$2(a6)
001584  66 F8                         BNE $00157E
001586  42 B8 01 72                   CLR.l $172.w
00158A  31 FC FF E0 01 BE             MOVE.w #$FFE0,$1BE.w
001590  42 78 01 C0                   CLR.w $1C0.w
001594  51 F8 02 29                   SF $229.w
001598  20 3C 00 00 73 84             MOVE.l #$7384,d0
00159E  41 F8 73 78                   LEA $7378.w,a0
0015A2  48 40                         SWAP d0
0015A4  31 40 00 02                   MOVE.w d0,$2(a0)
0015A8  48 40                         SWAP d0
0015AA  31 40 00 06                   MOVE.w d0,$6(a0)
0015AE  20 3C 00 00 73 B4             MOVE.l #$73B4,d0
0015B4  41 F8 73 A8                   LEA $73A8.w,a0
0015B8  48 40                         SWAP d0
0015BA  31 40 00 02                   MOVE.w d0,$2(a0)
0015BE  48 40                         SWAP d0
0015C0  31 40 00 06                   MOVE.w d0,$6(a0)
0015C4  42 B8 74 58                   CLR.l $7458.w
0015C8  42 B8 74 60                   CLR.l $7460.w
0015CC  41 F8 01 76                   LEA $176.w,a0
0015D0  61 00 1C 86                   BSR $003258
0015D4  50 F8 01 E1                   ST $1E1.w
0015D8  4A 38 01 E1                   TST.b $1E1.w
0015DC  66 FA                         BNE $0015D8
0015DE  31 FC 00 01 7B 2C             MOVE.w #$1,$7B2C.w
0015E4  31 FC 00 76 7B 2A             MOVE.w #$76,$7B2A.w
0015EA  42 78 70 68                   CLR.w $7068.w
0015EE  4A 78 70 68                   TST.w $7068.w
0015F2  67 FA                         BEQ $0015EE
0015F4  30 38 7B 2A                   MOVE.w $7B2A.w,d0
0015F8  C0 7C 00 04                   AND.w #$4,d0
0015FC  66 08                         BNE $001606
0015FE  70 1C                         MOVEQ #$1C,d0
001600  4E B9 00 01 A2 DC             JSR $1A2DC.l
001606  61 00 5E EE                   BSR $0074F6
00160A  6A DE                         BPL $0015EA
00160C  4E 75                         RTS

; ==== select_scene  $00160E  (3 callers) — The state-machine core. Reads the scene id $193A, indexes the scene-descriptor pointer table at $1B980+$16 (a4 = table[id*4]), publishes it as the current descriptor $193E, and installs the descriptor's fields: +$8/+$C data ptrs -> $45AA/$45A4, +$10 -> $1932, +$1C -> $7B0C, +$18 -> mode_handler_ptr ($1942), +$2E -> mode_handler2_ptr ($1946). First entry per scene also runs the descriptor's setup ($194A guards it). Handlers default to null_handler when a field is 0. ====
00160E  42 78 19 36                   CLR.w $1936.w
001612  47 F9 00 01 B9 80             LEA $1B980.l,a3
001618  30 38 19 3A                   MOVE.w $193A.w,d0
00161C  D0 40                         ADD.w d0,d0
00161E  D0 40                         ADD.w d0,d0
001620  28 73 00 16                   MOVEA.l $16(a3,d0.w),a4
001624  21 CC 19 3E                   MOVE.l a4,$193E.w
001628  4A 38 19 4A                   TST.b $194A.w
00162C  66 2C                         BNE $00165A
00162E  21 EC 00 08 45 AA             MOVE.l $8(a4),$45AA.w
001634  21 EC 00 0C 45 A4             MOVE.l $C(a4),$45A4.w
00163A  50 F8 47 65                   ST $4765.w
00163E  50 F8 19 4A                   ST $194A.w
001642  41 F9 00 01 B9 80             LEA $1B980.l,a0
001648  20 28 00 10                   MOVE.l $10(a0),d0
00164C  22 28 00 0C                   MOVE.l $C(a0),d1
001650  4E B9 00 01 A2 B4             JSR $1A2B4.l
001656  50 F8 70 67                   ST $7067.w
00165A  31 EC 00 2C 19 3C             MOVE.w $2C(a4),$193C.w
001660  4C B8                         .dc.w $4CB8
001662  .dc.b 00 03 45 AA D0 40 D0 40 D2 41 D2 41 48 B8 00 03 ; ..E..@.@.A.AH...
001672  .dc.b 01 58 20 2C 00 14 67 0E 20 40 4E 90 47 F9 00 01 ; .X ,..g. @N.G...
001682  .dc.b B9 80 28 78 19 3E 20 2C 00 2E 66 06 20 3C 00 00 ; ..(x.> ,..f. <..
001692  .dc.b 16 DC 21 C0 19 46 4C B8 00 03 45 AA 4C AC 00 0C ; ..!..FL...E.L...
0016A2  .dc.b 00 04 20 6B 00 00 22 6C 00 00 24 6B 00 04 61 00 ; .. k.."l..$k..a.
0016B2  .dc.b 12 E2 28 78 19 3E 23 EC 00 10 00 00 19 32 21 EC ; ..(x.>#......2!.
0016C2  .dc.b 00 1C 7B 0C 20 2C 00 18 66 06 20 3C 00 00 16 DC ; ..{. ,..f. <....
0016D2  .dc.b 21 C0 19 42 70 00 60 00 61 AA                   ; !..Bp.`.a.

; --- null_handler  $0016DC — Empty per-frame handler (just RTS); the default mode when a scene descriptor leaves a handler slot 0. (data) ---
0016DC  .dc.b 4E 75                                           ; Nu

; ==== sub_0016DE (1 caller) ====
0016DE  47 F9 00 01 B9 80             LEA $1B980.l,a3
0016E4  20 6B 00 08                   MOVEA.l $8(a3),a0
0016E8  4C D0                         .dc.w $4CD0
0016EA  .dc.b 00 FF 48 F8 00 FF 19 CE 51 F8 19 4A 4A 38 02 52 ; ..H.....Q..JJ8.R
0016FA  .dc.b 67 04 60 00 5A 76 4E 75 58 78 19 36 B4 7C 00 20 ; g.`.ZvNuXx.6.|. 
00170A  .dc.b 6D 04 42 78 19 36                               ; m.Bx.6

; ==== sub_001710 (2 callers) ====
001710  4C B8                         .dc.w $4CB8
001712  .dc.b 00 03 01 F6 E6 48 E6 49 48 B8 00 03 19 2E 2A 78 ; .....H.IH.....*x
001722  .dc.b 19 3E 28 6D 00 24 2A 6D 00 28 34 38 19 36 41 F8 ; .>(m.$*m.(48.6A.
001732  .dc.b 19 0A D0 70 20 00 6B C8 D2 70 20 02 6B C2 4A 38 ; ...p .k..p .k.J8
001742  .dc.b 02 52 67 02 42 40 B0 78 19 32 6E B4 B2 78 19 34 ; .Rg.B@.x.2n..x.4
001752  .dc.b 6E AE 58 78 19 36 B4 7C 00 20 6D 04 42 78 19 36 ; n.Xx.6.|. m.Bx.6
001762  .dc.b D2 41 DA F4 10 00 D0 40 D0 40 DA C0 28 55 4C B8 ; .A.....@.@..(UL.
001772  .dc.b 00 03 01 F6 D0 40 D0 40 D2 41 D2 41 4C B8 00 0C ; .....@.@.A.AL...
001782  .dc.b 01 72 E6 4A E6 4B D0 42 D2 43 34 00 36 01 D4 7C ; .r.J.K.B.C4.6..|
001792  .dc.b 00 2C D6 7C 00 1C 59 41 6A 02 72 00 38 14 67 00 ; .,.|..YAj.r.8.g.
0017A2  .dc.b 00 A6 B8 7C 00 D3 67 00 00 A4 B0 6C 00 02 6E 00 ; ...|..g....l..n.
0017B2  .dc.b 00 96 B2 6C 00 04 6E 00 00 8E B4 6C 00 02 6D 00 ; ...l..n....l..m.
0017C2  .dc.b 00 86 B6 6C 00 04 6D 00 00 7E 18 14 48 84 B8 7C ; ...l..m..~..H..|
0017D2  .dc.b 00 03 6C 08 47 F8 1A 60 53 44 60 0A 26 78 19 3E ; ..l.G..`SD`.&x.>
0017E2  .dc.b 26 6B 00 20 57 44 C8 7C 00 0F D8 44 D8 44 D6 C4 ; &k. WD.|...D.D..
0017F2  .dc.b 2A 13 67 50 48 A7 F0 00 61 00 02 BE 4C AC 00 03 ; *.gPH...a...L...
001802  .dc.b 00 02 4C B8 00 0C 01 F6 52 42 D4 42 D4 42 D6 43 ; ..L.....RB.B.B.C
001812  .dc.b D6 43 90 42 92 43 E7 48 E7 49 4C B8 00 0C 01 72 ; .C.B.C.H.IL....r
001822  .dc.b D0 42 D2 43 48 AD 00 03 00 18 1B 6C 00 01 00 1E ; .B.CH......l....
001832  .dc.b 2B 53 00 22 61 00 02 B4 4C 9F 00 0F 3B 54 00 28 ; +S."a...L...;T.(
001842  .dc.b 2B 4C 00 2A 42 54 5C 4C 60 00 FF 52 4E 75       ; +L.*BT\L`..RNu

; ==== sub_001850 (2 callers) ====
001850  0C 38 00 63 02 16             CMPI.b #$63,$216.w
001856  67 0A                         BEQ $001862
001858  0C 38 00 19 02 16             CMPI.b #$19,$216.w
00185E  67 02                         BEQ $001862
001860  4E 75                         RTS
001862  42 38 02 16                   CLR.b $216.w
001866  42 38 01 E6                   CLR.b $1E6.w
00186A  42 38 01 E8                   CLR.b $1E8.w
00186E  70 20                         MOVEQ #$20,d0
001870  4E B9 00 01 A2 DC             JSR $1A2DC.l
001876  61 00 2C 54                   BSR $0044CC
00187A  10 38 02 16                   MOVE.b $216.w,d0
00187E  80 38 01 E6                   OR.b $1E6.w,d0
001882  80 38 01 E8                   OR.b $1E8.w,d0
001886  4A 00                         TST.b d0
001888  67 EC                         BEQ $001876
00188A  42 38 02 16                   CLR.b $216.w
00188E  4A 38 59 4A                   TST.b $594A.w
001892  67 08                         BEQ $00189C
001894  70 02                         MOVEQ #$2,d0
001896  4E B9 00 01 A2 DC             JSR $1A2DC.l
00189C  4E 75                         RTS

; ==== sub_00189E (1 caller) ====
00189E  0C 38 00 45 02 16             CMPI.b #$45,$216.w
0018A4  67 02                         BEQ $0018A8
0018A6  4E 75                         RTS
0018A8  51 F8 7A C8                   SF $7AC8.w
0018AC  51 F8 7A C9                   SF $7AC9.w
0018B0  42 78 7A B0                   CLR.w $7AB0.w
0018B4  42 38 7A AF                   CLR.b $7AAF.w
0018B8  4E 75                         RTS

; ==== sub_0018BA (2 callers) ====
0018BA  0C 38 00 21 02 16             CMPI.b #$21,$216.w
0018C0  67 02                         BEQ $0018C4
0018C2  4E 75                         RTS
0018C4  42 38 02 16                   CLR.b $216.w
0018C8  46 38 02 17                   NOT.b $217.w
0018CC  66 08                         BNE $0018D6
0018CE  70 1F                         MOVEQ #$1F,d0
0018D0  4E F9 00 01 A2 AC             JMP $1A2AC.l
0018D6  70 00                         MOVEQ #$0,d0
0018D8  30 38 19 3C                   MOVE.w $193C.w,d0
0018DC  4E F9 00 01 A2 AC             JMP $1A2AC.l
0018E2  4A 38 02 17                   TST.b $217.w
0018E6  66 02                         BNE $0018EA
0018E8  70 1F                         MOVEQ #$1F,d0
0018EA  4E F9 00 01 A2 AC             JMP $1A2AC.l
0018F0  4E 75                         RTS
0018F2  4A 38 02 17                   TST.b $217.w
0018F6  67 F8                         BEQ $0018F0
0018F8  4E F9 00 01 A2 C8             JMP $1A2C8.l
0018FE  .dc.b 4A 38 02 17 67 EC 4E F9 00 01 A2 E0 FF FF FF FF ; J8..g.N.........
00190E  .dc.b 00 00 FF FF 00 01 FF FF FF FF 00 00 00 00 00 00 ; ................
00191E  .dc.b 00 01 00 00 FF FF 00 01 00 00 00 01 00 01 00 01 ; ................
00192E  .dc.b 00 00 00 00 00 00 00 00 00 00                   ; ..........

; --- level_number  $001938 — Current level/world number (read during level_setup and by mode handlers). (data) ---
001938  .dc.b 00 00                                           ; ..

; --- scene_id  $00193A — Current scene/state index; select_scene maps it through the descriptor table to pick the active state. (data) ---
00193A  .dc.b 00 00 00 00                                     ; ....

; --- scene_descriptor  $00193E — Pointer to the active scene descriptor (set by select_scene). Descriptor layout: +$8/+$C data, +$10 field, +$18 primary handler, +$1C field, +$2E secondary handler. (data) ---
00193E  .dc.b 00 00 00 00                                     ; ....

; --- mode_handler_ptr  $001942 — Pointer to the current game-mode/state handler, called every frame by game_loop via JSR (a0). Swapping it changes state (title / play / etc.); installed by select_scene from the active scene descriptor's +$18 field. (data) ---
001942  .dc.b 00 00 00 00                                     ; ....

; --- mode_handler2_ptr  $001946 — Secondary per-frame handler, installed by select_scene from the descriptor's +$2E field (defaults to null_handler). (data) ---
001946  .dc.b 00 00 00 00 00 00 00 00 0F FF 0F FF 0F FF 0F FF ; ................
001956  .dc.b 0F FF 0F FF 0F FF 0F FF 0F FF 0F FF 0F FF 0F FF ; ................
001966  .dc.b 0F FF 0F FF 0F FF 0F FF 0F FF 0F FF 0F FF 0F FF ; ................
001976  .dc.b 0F FF 0F FF 0F FF 0F FF 0F FF 0F FF 0F FF 0F FF ; ................
001986  .dc.b 0F FF 0F FF 0F FF 0F FF 00 00 00 00 00 00 00 00 ; ................
001996  .dc.b 00 00 00 00 00 00 00 00 00 00 00 00 00 00 00 00 ; ................
0019A6  .dc.b 00 00 00 00 00 00 00 00 00 00 00 00 00 00 00 00 ; ................
0019B6  .dc.b 00 00 00 00 00 00 00 00 00 00 00 00 00 00 00 00 ; ................
0019C6  .dc.b 00 00 00 00 00 00 00 00 00 00 00 00 00 00 00 00 ; ................
0019D6  .dc.b 00 00 00 00 00 0F 00 00 02 23 04 45 07 78 0A AB ; .........#.E.x..
0019E6  .dc.b 0C 00 0F 60 0F F0 0F FF 00 00 09 00 0B BE 08 8B ; ...`............
0019F6  .dc.b 04 47 02 25 0B BB 08 88 05 55 02 22 00 5F 00 3A ; .G.%.....U."._.:
001A06  .dc.b 0F 33 0F FF 08 AF 00 3F 02 23 04 45 07 78 0A AB ; .3.....?.#.E.x..
001A16  .dc.b 0C 00 0F 60 0F F0 0F FF 00 00 09 00 0B BE 08 8B ; ...`............
001A26  .dc.b 04 47 02 25 0B BB 08 88 05 55 02 22 00 5F 00 3A ; .G.%.....U."._.:
001A36  .dc.b 0F 33 0F FF 08 AF 00 3F 00 00 0F FF 0B BB 08 88 ; .3.....?........
001A46  .dc.b 05 55 02 22 0F D0 00 0F 01 D2 0B 00 0F 40 0B BF ; .U.".........@..
001A56  .dc.b 08 8F 06 6B 04 49 02 26 01 D2 00 00 7D 0E 00 00 ; ...k.I.&....}...
001A66  .dc.b 7E FC                                           ; ~.

; ==== sub_001A68 (3 callers) ====
001A68  4B F9 00 00 91 84             LEA $9184.l,a5
001A6E  21 CD 02 3A                   MOVE.l a5,$23A.w
001A72  42 B8 02 36                   CLR.l $236.w
001A76  42 AD 00 04                   CLR.l $4(a5)
001A7A  70 26                         MOVEQ #$26,d0
001A7C  22 4D                         MOVEA.l a5,a1
001A7E  DB FC 00 00 00 3A             ADDA.l #$3A,a5
001A84  23 4D 00 00                   MOVE.l a5,$0(a1)
001A88  2B 49 00 04                   MOVE.l a1,$4(a5)
001A8C  51 C8 FF EE                   DBRA d0,$001A7C
001A90  21 FC 00 00 8F A4 01 76       MOVE.l #$8FA4,$176.w
001A98  21 FC 00 00 8D C4 01 8E       MOVE.l #$8DC4,$18E.w
001AA0  42 B9 00 00 8F A8             CLR.l $8FA8.l
001AA6  42 B9 00 00 8D C8             CLR.l $8DC8.l
001AAC  42 78 01 4A                   CLR.w $14A.w
001AB0  42 38 01 5C                   CLR.b $15C.w
001AB4  42 38 28 F0                   CLR.b $28F0.w
001AB8  4E 75                         RTS

; ==== sub_001ABA (3 callers) ====
001ABA  0C 78 00 26 01 4A             CMPI.w #$26,$14A.w
001AC0  6F 06                         BLE $001AC8
001AC2  4B F8 23 C6                   LEA $23C6.w,a5
001AC6  4E 75                         RTS
001AC8  2A 78 02 3A                   MOVEA.l $23A.w,a5
001ACC  21 ED 00 00 02 3A             MOVE.l $0(a5),$23A.w
001AD2  51 ED 00 1D                   SF $1D(a5)
001AD6  51 ED 00 1F                   SF $1F(a5)
001ADA  51 ED 00 1C                   SF $1C(a5)
001ADE  51 ED 00 20                   SF $20(a5)
001AE2  42 6D 00 0C                   CLR.w $C(a5)
001AE6  42 6D 00 28                   CLR.w $28(a5)
001AEA  4E 75                         RTS

; ==== sub_001AEC (2 callers) ====
001AEC  43 F8 23 C6                   LEA $23C6.w,a1
001AF0  BB C9                         CMPA.l a1,a5
001AF2  66 02                         BNE $001AF6
001AF4  4E 75                         RTS
001AF6  22 78 02 36                   MOVEA.l $236.w,a1
001AFA  21 CD 02 36                   MOVE.l a5,$236.w
001AFE  2B 7C 00 00 02 36 00 04       MOVE.l #$236,$4(a5)
001B06  2B 49 00 00                   MOVE.l a1,$0(a5)
001B0A  23 4D 00 04                   MOVE.l a5,$4(a1)
001B0E  52 78 01 4A                   ADDQ.w #1,$14A.w
001B12  4E 75                         RTS

; ==== sub_001B14 (1 caller) ====
001B14  22 6D 00 04                   MOVEA.l $4(a5),a1
001B18  24 6D 00 00                   MOVEA.l $0(a5),a2
001B1C  23 4A 00 00                   MOVE.l a2,$0(a1)
001B20  25 49 00 04                   MOVE.l a1,$4(a2)
001B24  2B 78 02 3A 00 00             MOVE.l $23A.w,$0(a5)
001B2A  42 AD 00 04                   CLR.l $4(a5)
001B2E  21 CD 02 3A                   MOVE.l a5,$23A.w
001B32  53 78 01 4A                   SUBQ.w #1,$14A.w
001B36  4E 75                         RTS
001B38  41 F8 23 C6                   LEA $23C6.w,a0
001B3C  21 6D 00 00 00 00             MOVE.l $0(a5),$0(a0)
001B42  61 D0                         BSR $001B14
001B44  4B F8 23 C6                   LEA $23C6.w,a5
001B48  51 ED 00 1C                   SF $1C(a5)
001B4C  4E 75                         RTS
001B4E  .dc.b 22 6D 00 04 24 6D 00 00 23 4A 00 00 25 49 00 04 ; "m..$m..#J..%I..
001B5E  .dc.b 2B 78 02 3A 00 00 42 AD 00 04 21 CD 02 3A 53 78 ; +x.:..B...!..:Sx
001B6E  .dc.b 01 4A 30 2D 00 28 67 06 22 6D 00 2A 32 80 4E 75 ; .J0-.(g."m.*2.Nu
001B7E  .dc.b 41 F8 23 C6 21 6D 00 00 00 00 61 C4 4B F8 23 C6 ; A.#.!m....a.K.#.
001B8E  .dc.b 51 ED 00 1C 4E 75                               ; Q...Nu

; ==== sub_001B94 (4 callers) ====
001B94  4A B8 02 36                   TST.l $236.w
001B98  66 02                         BNE $001B9C
001B9A  4E 75                         RTS
001B9C  2A 78 02 36                   MOVEA.l $236.w,a5
001BA0  20 6D 00 22                   MOVEA.l $22(a5),a0
001BA4  4E 90                         JSR (a0)
001BA6  4A AD 00 00                   TST.l $0(a5)
001BAA  67 06                         BEQ $001BB2
001BAC  2A 6D 00 00                   MOVEA.l $0(a5),a5
001BB0  60 EE                         BRA $001BA0
001BB2  4E 75                         RTS

; ==== blit_playfield  $001BB4  (4 callers) — Blitter copy into a screen buffer: sets BLTCON0 $40(a6)=$9F0 (D = A, copy) and BLTAFWM/ALWM $44(a6)=-1, then blits the spans described by the draw-list at $1C2. One of the per-frame render steps. ====
001BB4  3D 7C 09 F0 00 40             MOVE.w #$9F0,$40(a6)
001BBA  42 6E 00 42                   CLR.w $42(a6)
001BBE  2D 7C FF FF FF FF 00 44       MOVE.l #$FFFFFFFF,$44(a6)
001BC6  22 78 01 C2                   MOVEA.l $1C2.w,a1
001BCA  24 69 00 00                   MOVEA.l $0(a1),a2
001BCE  20 29 00 0C                   MOVE.l $C(a1),d0
001BD2  32 3C 00 90                   MOVE.w #$90,d1
001BD6  4A 6A 00 04                   TST.w $4(a2)
001BDA  67 26                         BEQ $001C02
001BDC  24 1A                         MOVE.l (a2)+,d2
001BDE  2D 42 00 54                   MOVE.l d2,$54(a6)
001BE2  D4 80                         ADD.l d0,d2
001BE4  2D 42 00 50                   MOVE.l d2,$50(a6)
001BE8  4C 9A                         .dc.w $4C9A
001BEA  .dc.b 00 0C 94 41 3D 42 00 64 3D 42 00 66 D6 43 D6 43 ; ...A=B.d=B.f.C.C
001BFA  .dc.b E4 0B 3D 43 00 58 60 D4                         ; ..=C.X`.
001C02  24 69 00 00                   MOVEA.l $0(a1),a2
001C06  42 6A 00 04                   CLR.w $4(a2)
001C0A  4E 75                         RTS

; ==== sub_001C0C (4 callers) ====
001C0C  4A B8 02 36                   TST.l $236.w
001C10  66 02                         BNE $001C14
001C12  4E 75                         RTS
001C14  2D 7C FF FE FF FE 00 62       MOVE.l #$FFFEFFFE,$62(a6)
001C1C  2D 7C FF FF 00 00 00 44       MOVE.l #$FFFF0000,$44(a6)
001C24  22 78 02 0E                   MOVEA.l $20E.w,a1
001C28  24 78 01 C2                   MOVEA.l $1C2.w,a2
001C2C  26 6A 00 00                   MOVEA.l $0(a2),a3
001C30  28 78 74 F2                   MOVEA.l $74F2.w,a4
001C34  7A 30                         MOVEQ #$30,d5
001C36  3C 38 01 72                   MOVE.w $172.w,d6
001C3A  3E 38 01 74                   MOVE.w $174.w,d7
001C3E  2A 78 02 36                   MOVEA.l $236.w,a5
001C42  4A 2D 00 1C                   TST.b $1C(a5)
001C46  67 00 00 20                   BEQ $001C68
001C4A  70 00                         MOVEQ #$0,d0
001C4C  30 2D 00 18                   MOVE.w $18(a5),d0
001C50  32 2D 00 1A                   MOVE.w $1A(a5),d1
001C54  34 2D 00 0C                   MOVE.w $C(a5),d2
001C58  20 6D 00 12                   MOVEA.l $12(a5),a0
001C5C  D4 42                         ADD.w d2,d2
001C5E  D4 42                         ADD.w d2,d2
001C60  20 70 20 00                   MOVEA.l $0(a0,d2.w),a0
001C64  61 00 00 14                   BSR $001C7A
001C68  4A AD 00 00                   TST.l $0(a5)
001C6C  67 06                         BEQ $001C74
001C6E  2A 6D 00 00                   MOVEA.l $0(a5),a5
001C72  60 CE                         BRA $001C42
001C74  42 6B 00 04                   CLR.w $4(a3)
001C78  4E 75                         RTS

; ==== sub_001C7A (1 caller) ====
001C7A  D0 7C 00 40                   ADD.w #$40,d0
001C7E  90 46                         SUB.w d6,d0
001C80  6B 00 00 D2                   BMI $001D54
001C84  B0 7C 01 90                   CMP.w #$190,d0
001C88  6C 00 00 CA                   BGE $001D54
001C8C  B2 7C 00 D4                   CMP.w #$D4,d1
001C90  6C 00 00 C2                   BGE $001D54
001C94  92 47                         SUB.w d7,d1
001C96  92 78 01 C0                   SUB.w $1C0.w,d1
001C9A  C2 7C 00 FF                   AND.w #$FF,d1
001C9E  E8 98                         ROR.l #4,d0
001CA0  34 01                         MOVE.w d1,d2
001CA2  D4 42                         ADD.w d2,d2
001CA4  48 40                         SWAP d0
001CA6  3D 40 00 42                   MOVE.w d0,$42(a6)
001CAA  80 7C 0F CA                   OR.w #$FCA,d0
001CAE  3D 40 00 40                   MOVE.w d0,$40(a6)
001CB2  42 40                         CLR.w d0
001CB4  48 40                         SWAP d0
001CB6  D0 71 20 00                   ADD.w $0(a1,d2.w),d0
001CBA  59 40                         SUBQ.w #4,d0
001CBC  6B 00 00 96                   BMI $001D54
001CC0  38 02                         MOVE.w d2,d4
001CC2  D0 40                         ADD.w d0,d0
001CC4  D0 AA 00 04                   ADD.l $4(a2),d0
001CC8  4A 2D 00 20                   TST.b $20(a5)
001CCC  66 00 03 28                   BNE $001FF6
001CD0  4A 28 00 0D                   TST.b $D(a0)
001CD4  66 00 01 6E                   BNE $001E44
001CD8  34 28 00 08                   MOVE.w $8(a0),d2
001CDC  3D 42 00 60                   MOVE.w d2,$60(a6)
001CE0  3D 42 00 66                   MOVE.w d2,$66(a6)
001CE4  36 28 00 0A                   MOVE.w $A(a0),d3
001CE8  D2 28 00 0C                   ADD.b $C(a0),d1
001CEC  65 68                         BCS $001D56
001CEE  26 C0                         MOVE.l d0,(a3)+
001CF0  36 C2                         MOVE.w d2,(a3)+
001CF2  36 C3                         MOVE.w d3,(a3)+
001CF4  24 00                         MOVE.l d0,d2
001CF6  2D 50 00 4C                   MOVE.l (a0),$4C(a6)
001CFA  22 28 00 04                   MOVE.l $4(a0),d1
001CFE  48 EE 00 06 00 50             MOVEM.l d1-d2,$50(a6)
001D04  2D 42 00 48                   MOVE.l d2,$48(a6)
001D08  3D 43 00 58                   MOVE.w d3,$58(a6)
001D0C  08 2E 00 0E 00 02             BTST.b #$E,$2(a6)
001D12  66 F8                         BNE $001D0C
001D14  D4 85                         ADD.l d5,d2
001D16  48 EE 00 06 00 50             MOVEM.l d1-d2,$50(a6)
001D1C  2D 42 00 48                   MOVE.l d2,$48(a6)
001D20  3D 43 00 58                   MOVE.w d3,$58(a6)
001D24  08 2E 00 0E 00 02             BTST.b #$E,$2(a6)
001D2A  66 F8                         BNE $001D24
001D2C  D4 85                         ADD.l d5,d2
001D2E  48 EE 00 06 00 50             MOVEM.l d1-d2,$50(a6)
001D34  2D 42 00 48                   MOVE.l d2,$48(a6)
001D38  3D 43 00 58                   MOVE.w d3,$58(a6)
001D3C  08 2E 00 0E 00 02             BTST.b #$E,$2(a6)
001D42  66 F8                         BNE $001D3C
001D44  D4 85                         ADD.l d5,d2
001D46  48 EE 00 06 00 50             MOVEM.l d1-d2,$50(a6)
001D4C  2D 42 00 48                   MOVE.l d2,$48(a6)
001D50  3D 43 00 58                   MOVE.w d3,$58(a6)
001D54  4E 75                         RTS
001D56  67 96                         BEQ $001CEE
001D58  37 42 00 04                   MOVE.w d2,$4(a3)
001D5C  37 42 00 0C                   MOVE.w d2,$C(a3)
001D60  48 C4                         EXT.L d4
001D62  38 31 40 00                   MOVE.w $0(a1,d4.w),d4
001D66  D8 44                         ADD.w d4,d4
001D68  24 00                         MOVE.l d0,d2
001D6A  90 84                         SUB.l d4,d0
001D6C  D2 41                         ADD.w d1,d1
001D6E  32 34 10 00                   MOVE.w $0(a4,d1.w),d1
001D72  96 41                         SUB.w d1,d3
001D74  38 03                         MOVE.w d3,d4
001D76  C8 7C 00 3F                   AND.w #$3F,d4
001D7A  88 41                         OR.w d1,d4
001D7C  26 82                         MOVE.l d2,(a3)
001D7E  37 43 00 06                   MOVE.w d3,$6(a3)
001D82  27 40 00 08                   MOVE.l d0,$8(a3)
001D86  37 44 00 0E                   MOVE.w d4,$E(a3)
001D8A  D6 FC 00 10                   ADDA.w #$10,a3
001D8E  2D 50 00 4C                   MOVE.l (a0),$4C(a6)
001D92  22 28 00 04                   MOVE.l $4(a0),d1
001D96  48 EE 00 06 00 50             MOVEM.l d1-d2,$50(a6)
001D9C  2D 42 00 48                   MOVE.l d2,$48(a6)
001DA0  3D 43 00 58                   MOVE.w d3,$58(a6)
001DA4  08 2E 00 0E 00 02             BTST.b #$E,$2(a6)
001DAA  66 F8                         BNE $001DA4
001DAC  2D 40 00 48                   MOVE.l d0,$48(a6)
001DB0  2D 40 00 54                   MOVE.l d0,$54(a6)
001DB4  3D 44 00 58                   MOVE.w d4,$58(a6)
001DB8  08 2E 00 0E 00 02             BTST.b #$E,$2(a6)
001DBE  66 F8                         BNE $001DB8
001DC0  D0 85                         ADD.l d5,d0
001DC2  D4 85                         ADD.l d5,d2
001DC4  48 EE 00 06 00 50             MOVEM.l d1-d2,$50(a6)
001DCA  2D 42 00 48                   MOVE.l d2,$48(a6)
001DCE  3D 43 00 58                   MOVE.w d3,$58(a6)
001DD2  08 2E 00 0E 00 02             BTST.b #$E,$2(a6)
001DD8  66 F8                         BNE $001DD2
001DDA  2D 40 00 48                   MOVE.l d0,$48(a6)
001DDE  2D 40 00 54                   MOVE.l d0,$54(a6)
001DE2  3D 44 00 58                   MOVE.w d4,$58(a6)
001DE6  08 2E 00 0E 00 02             BTST.b #$E,$2(a6)
001DEC  66 F8                         BNE $001DE6
001DEE  D0 85                         ADD.l d5,d0
001DF0  D4 85                         ADD.l d5,d2
001DF2  48 EE 00 06 00 50             MOVEM.l d1-d2,$50(a6)
001DF8  2D 42 00 48                   MOVE.l d2,$48(a6)
001DFC  3D 43 00 58                   MOVE.w d3,$58(a6)
001E00  08 2E 00 0E 00 02             BTST.b #$E,$2(a6)
001E06  66 F8                         BNE $001E00
001E08  2D 40 00 48                   MOVE.l d0,$48(a6)
001E0C  2D 40 00 54                   MOVE.l d0,$54(a6)
001E10  3D 44 00 58                   MOVE.w d4,$58(a6)
001E14  08 2E 00 0E 00 02             BTST.b #$E,$2(a6)
001E1A  66 F8                         BNE $001E14
001E1C  D0 85                         ADD.l d5,d0
001E1E  D4 85                         ADD.l d5,d2
001E20  48 EE 00 06 00 50             MOVEM.l d1-d2,$50(a6)
001E26  2D 42 00 48                   MOVE.l d2,$48(a6)
001E2A  3D 43 00 58                   MOVE.w d3,$58(a6)
001E2E  08 2E 00 0E 00 02             BTST.b #$E,$2(a6)
001E34  66 F8                         BNE $001E2E
001E36  2D 40 00 48                   MOVE.l d0,$48(a6)
001E3A  2D 40 00 54                   MOVE.l d0,$54(a6)
001E3E  3D 44 00 58                   MOVE.w d4,$58(a6)
001E42  4E 75                         RTS
001E44  34 28 00 08                   MOVE.w $8(a0),d2
001E48  3D 42 00 60                   MOVE.w d2,$60(a6)
001E4C  3D 42 00 66                   MOVE.w d2,$66(a6)
001E50  36 28 00 0E                   MOVE.w $E(a0),d3
001E54  3D 43 00 62                   MOVE.w d3,$62(a6)
001E58  3D 43 00 64                   MOVE.w d3,$64(a6)
001E5C  36 28 00 0A                   MOVE.w $A(a0),d3
001E60  D2 28 00 0C                   ADD.b $C(a0),d1
001E64  65 00 00 82                   BCS $001EE8
001E68  26 C0                         MOVE.l d0,(a3)+
001E6A  36 C2                         MOVE.w d2,(a3)+
001E6C  36 C3                         MOVE.w d3,(a3)+
001E6E  D0 BC 00 00 00 90             ADD.l #$90,d0
001E74  24 00                         MOVE.l d0,d2
001E76  2D 68 00 10 00 4C             MOVE.l $10(a0),$4C(a6)
001E7C  22 28 00 14                   MOVE.l $14(a0),d1
001E80  48 EE 00 06 00 50             MOVEM.l d1-d2,$50(a6)
001E86  2D 42 00 48                   MOVE.l d2,$48(a6)
001E8A  3D 43 00 58                   MOVE.w d3,$58(a6)
001E8E  08 2E 00 0E 00 02             BTST.b #$E,$2(a6)
001E94  66 F8                         BNE $001E8E
001E96  94 85                         SUB.l d5,d2
001E98  48 EE 00 06 00 50             MOVEM.l d1-d2,$50(a6)
001E9E  2D 42 00 48                   MOVE.l d2,$48(a6)
001EA2  3D 43 00 58                   MOVE.w d3,$58(a6)
001EA6  08 2E 00 0E 00 02             BTST.b #$E,$2(a6)
001EAC  66 F8                         BNE $001EA6
001EAE  94 85                         SUB.l d5,d2
001EB0  48 EE 00 06 00 50             MOVEM.l d1-d2,$50(a6)
001EB6  2D 42 00 48                   MOVE.l d2,$48(a6)
001EBA  3D 43 00 58                   MOVE.w d3,$58(a6)
001EBE  08 2E 00 0E 00 02             BTST.b #$E,$2(a6)
001EC4  66 F8                         BNE $001EBE
001EC6  94 85                         SUB.l d5,d2
001EC8  48 EE 00 06 00 50             MOVEM.l d1-d2,$50(a6)
001ECE  2D 42 00 48                   MOVE.l d2,$48(a6)
001ED2  3D 43 00 58                   MOVE.w d3,$58(a6)
001ED6  25 4B 00 14                   MOVE.l a3,$14(a2)
001EDA  42 6B 00 04                   CLR.w $4(a3)
001EDE  2D 7C FF FE FF FE 00 62       MOVE.l #$FFFEFFFE,$62(a6)
001EE6  4E 75                         RTS
001EE8  67 00 FF 7E                   BEQ $001E68
001EEC  37 42 00 04                   MOVE.w d2,$4(a3)
001EF0  37 42 00 0C                   MOVE.w d2,$C(a3)
001EF4  48 C4                         EXT.L d4
001EF6  38 31 40 00                   MOVE.w $0(a1,d4.w),d4
001EFA  D8 44                         ADD.w d4,d4
001EFC  24 00                         MOVE.l d0,d2
001EFE  90 84                         SUB.l d4,d0
001F00  D2 41                         ADD.w d1,d1
001F02  32 34 10 00                   MOVE.w $0(a4,d1.w),d1
001F06  96 41                         SUB.w d1,d3
001F08  38 03                         MOVE.w d3,d4
001F0A  C8 7C 00 3F                   AND.w #$3F,d4
001F0E  88 41                         OR.w d1,d4
001F10  26 82                         MOVE.l d2,(a3)
001F12  37 43 00 06                   MOVE.w d3,$6(a3)
001F16  27 40 00 08                   MOVE.l d0,$8(a3)
001F1A  37 44 00 0E                   MOVE.w d4,$E(a3)
001F1E  D6 FC 00 10                   ADDA.w #$10,a3
001F22  D0 BC 00 00 00 90             ADD.l #$90,d0
001F28  D4 BC 00 00 00 90             ADD.l #$90,d2
001F2E  2D 68 00 10 00 4C             MOVE.l $10(a0),$4C(a6)
001F34  22 28 00 14                   MOVE.l $14(a0),d1
001F38  48 EE 00 06 00 50             MOVEM.l d1-d2,$50(a6)
001F3E  2D 42 00 48                   MOVE.l d2,$48(a6)
001F42  3D 43 00 58                   MOVE.w d3,$58(a6)
001F46  08 2E 00 0E 00 02             BTST.b #$E,$2(a6)
001F4C  66 F8                         BNE $001F46
001F4E  2D 40 00 48                   MOVE.l d0,$48(a6)
001F52  2D 40 00 54                   MOVE.l d0,$54(a6)
001F56  3D 44 00 58                   MOVE.w d4,$58(a6)
001F5A  08 2E 00 0E 00 02             BTST.b #$E,$2(a6)
001F60  66 F8                         BNE $001F5A
001F62  90 85                         SUB.l d5,d0
001F64  94 85                         SUB.l d5,d2
001F66  48 EE 00 06 00 50             MOVEM.l d1-d2,$50(a6)
001F6C  2D 42 00 48                   MOVE.l d2,$48(a6)
001F70  3D 43 00 58                   MOVE.w d3,$58(a6)
001F74  08 2E 00 0E 00 02             BTST.b #$E,$2(a6)
001F7A  66 F8                         BNE $001F74
001F7C  2D 40 00 48                   MOVE.l d0,$48(a6)
001F80  2D 40 00 54                   MOVE.l d0,$54(a6)
001F84  3D 44 00 58                   MOVE.w d4,$58(a6)
001F88  08 2E 00 0E 00 02             BTST.b #$E,$2(a6)
001F8E  66 F8                         BNE $001F88
001F90  90 85                         SUB.l d5,d0
001F92  94 85                         SUB.l d5,d2
001F94  48 EE 00 06 00 50             MOVEM.l d1-d2,$50(a6)
001F9A  2D 42 00 48                   MOVE.l d2,$48(a6)
001F9E  3D 43 00 58                   MOVE.w d3,$58(a6)
001FA2  08 2E 00 0E 00 02             BTST.b #$E,$2(a6)
001FA8  66 F8                         BNE $001FA2
001FAA  2D 40 00 48                   MOVE.l d0,$48(a6)
001FAE  2D 40 00 54                   MOVE.l d0,$54(a6)
001FB2  3D 44 00 58                   MOVE.w d4,$58(a6)
001FB6  08 2E 00 0E 00 02             BTST.b #$E,$2(a6)
001FBC  66 F8                         BNE $001FB6
001FBE  90 85                         SUB.l d5,d0
001FC0  94 85                         SUB.l d5,d2
001FC2  48 EE 00 06 00 50             MOVEM.l d1-d2,$50(a6)
001FC8  2D 42 00 48                   MOVE.l d2,$48(a6)
001FCC  3D 43 00 58                   MOVE.w d3,$58(a6)
001FD0  08 2E 00 0E 00 02             BTST.b #$E,$2(a6)
001FD6  66 F8                         BNE $001FD0
001FD8  2D 40 00 48                   MOVE.l d0,$48(a6)
001FDC  2D 40 00 54                   MOVE.l d0,$54(a6)
001FE0  3D 44 00 58                   MOVE.w d4,$58(a6)
001FE4  25 4B 00 14                   MOVE.l a3,$14(a2)
001FE8  42 6B 00 04                   CLR.w $4(a3)
001FEC  2D 7C FF FE FF FE 00 62       MOVE.l #$FFFEFFFE,$62(a6)
001FF4  4E 75                         RTS
001FF6  53 2D 00 20                   SUBQ.b #1,$20(a5)
001FFA  67 00 FC D4                   BEQ $001CD0
001FFE  4A 28 00 0D                   TST.b $D(a0)
002002  66 00 01 7E                   BNE $002182
002006  34 28 00 08                   MOVE.w $8(a0),d2
00200A  3D 42 00 60                   MOVE.w d2,$60(a6)
00200E  3D 42 00 66                   MOVE.w d2,$66(a6)
002012  36 28 00 0A                   MOVE.w $A(a0),d3
002016  D2 28 00 0C                   ADD.b $C(a0),d1
00201A  65 70                         BCS $00208C
00201C  26 C0                         MOVE.l d0,(a3)+
00201E  36 C2                         MOVE.w d2,(a3)+
002020  36 C3                         MOVE.w d3,(a3)+
002022  24 00                         MOVE.l d0,d2
002024  2D 50 00 4C                   MOVE.l (a0),$4C(a6)
002028  22 28 00 04                   MOVE.l $4(a0),d1
00202C  48 EE 00 06 00 50             MOVEM.l d1-d2,$50(a6)
002032  2D 42 00 48                   MOVE.l d2,$48(a6)
002036  3D 43 00 58                   MOVE.w d3,$58(a6)
00203A  08 2E 00 0E 00 02             BTST.b #$E,$2(a6)
002040  66 F8                         BNE $00203A
002042  D4 85                         ADD.l d5,d2
002044  48 EE 00 06 00 50             MOVEM.l d1-d2,$50(a6)
00204A  2D 42 00 48                   MOVE.l d2,$48(a6)
00204E  3D 43 00 58                   MOVE.w d3,$58(a6)
002052  08 2E 00 0E 00 02             BTST.b #$E,$2(a6)
002058  66 F8                         BNE $002052
00205A  D4 85                         ADD.l d5,d2
00205C  2D 41 00 4C                   MOVE.l d1,$4C(a6)
002060  48 EE 00 06 00 50             MOVEM.l d1-d2,$50(a6)
002066  2D 42 00 48                   MOVE.l d2,$48(a6)
00206A  3D 43 00 58                   MOVE.w d3,$58(a6)
00206E  08 2E 00 0E 00 02             BTST.b #$E,$2(a6)
002074  66 F8                         BNE $00206E
002076  D4 85                         ADD.l d5,d2
002078  2D 41 00 4C                   MOVE.l d1,$4C(a6)
00207C  48 EE 00 06 00 50             MOVEM.l d1-d2,$50(a6)
002082  2D 42 00 48                   MOVE.l d2,$48(a6)
002086  3D 43 00 58                   MOVE.w d3,$58(a6)
00208A  4E 75                         RTS
00208C  67 8E                         BEQ $00201C
00208E  37 42 00 04                   MOVE.w d2,$4(a3)
002092  37 42 00 0C                   MOVE.w d2,$C(a3)
002096  48 C4                         EXT.L d4
002098  38 31 40 00                   MOVE.w $0(a1,d4.w),d4
00209C  D8 44                         ADD.w d4,d4
00209E  24 00                         MOVE.l d0,d2
0020A0  90 84                         SUB.l d4,d0
0020A2  D2 41                         ADD.w d1,d1
0020A4  32 34 10 00                   MOVE.w $0(a4,d1.w),d1
0020A8  96 41                         SUB.w d1,d3
0020AA  38 03                         MOVE.w d3,d4
0020AC  C8 7C 00 3F                   AND.w #$3F,d4
0020B0  88 41                         OR.w d1,d4
0020B2  26 82                         MOVE.l d2,(a3)
0020B4  37 43 00 06                   MOVE.w d3,$6(a3)
0020B8  27 40 00 08                   MOVE.l d0,$8(a3)
0020BC  37 44 00 0E                   MOVE.w d4,$E(a3)
0020C0  D6 FC 00 10                   ADDA.w #$10,a3
0020C4  2D 50 00 4C                   MOVE.l (a0),$4C(a6)
0020C8  22 28 00 04                   MOVE.l $4(a0),d1
0020CC  48 EE 00 06 00 50             MOVEM.l d1-d2,$50(a6)
0020D2  2D 42 00 48                   MOVE.l d2,$48(a6)
0020D6  3D 43 00 58                   MOVE.w d3,$58(a6)
0020DA  08 2E 00 0E 00 02             BTST.b #$E,$2(a6)
0020E0  66 F8                         BNE $0020DA
0020E2  2D 40 00 48                   MOVE.l d0,$48(a6)
0020E6  2D 40 00 54                   MOVE.l d0,$54(a6)
0020EA  3D 44 00 58                   MOVE.w d4,$58(a6)
0020EE  08 2E 00 0E 00 02             BTST.b #$E,$2(a6)
0020F4  66 F8                         BNE $0020EE
0020F6  D0 85                         ADD.l d5,d0
0020F8  D4 85                         ADD.l d5,d2
0020FA  48 EE 00 06 00 50             MOVEM.l d1-d2,$50(a6)
002100  2D 42 00 48                   MOVE.l d2,$48(a6)
002104  3D 43 00 58                   MOVE.w d3,$58(a6)
002108  08 2E 00 0E 00 02             BTST.b #$E,$2(a6)
00210E  66 F8                         BNE $002108
002110  2D 40 00 48                   MOVE.l d0,$48(a6)
002114  2D 40 00 54                   MOVE.l d0,$54(a6)
002118  3D 44 00 58                   MOVE.w d4,$58(a6)
00211C  08 2E 00 0E 00 02             BTST.b #$E,$2(a6)
002122  66 F8                         BNE $00211C
002124  D0 85                         ADD.l d5,d0
002126  D4 85                         ADD.l d5,d2
002128  2D 41 00 4C                   MOVE.l d1,$4C(a6)
00212C  48 EE 00 06 00 50             MOVEM.l d1-d2,$50(a6)
002132  2D 42 00 48                   MOVE.l d2,$48(a6)
002136  3D 43 00 58                   MOVE.w d3,$58(a6)
00213A  08 2E 00 0E 00 02             BTST.b #$E,$2(a6)
002140  66 F8                         BNE $00213A
002142  2D 40 00 48                   MOVE.l d0,$48(a6)
002146  2D 40 00 54                   MOVE.l d0,$54(a6)
00214A  3D 44 00 58                   MOVE.w d4,$58(a6)
00214E  08 2E 00 0E 00 02             BTST.b #$E,$2(a6)
002154  66 F8                         BNE $00214E
002156  D0 85                         ADD.l d5,d0
002158  D4 85                         ADD.l d5,d2
00215A  2D 41 00 4C                   MOVE.l d1,$4C(a6)
00215E  48 EE 00 06 00 50             MOVEM.l d1-d2,$50(a6)
002164  2D 42 00 48                   MOVE.l d2,$48(a6)
002168  3D 43 00 58                   MOVE.w d3,$58(a6)
00216C  08 2E 00 0E 00 02             BTST.b #$E,$2(a6)
002172  66 F8                         BNE $00216C
002174  2D 40 00 48                   MOVE.l d0,$48(a6)
002178  2D 40 00 54                   MOVE.l d0,$54(a6)
00217C  3D 44 00 58                   MOVE.w d4,$58(a6)
002180  4E 75                         RTS
002182  34 28 00 08                   MOVE.w $8(a0),d2
002186  3D 42 00 60                   MOVE.w d2,$60(a6)
00218A  3D 42 00 66                   MOVE.w d2,$66(a6)
00218E  36 28 00 0E                   MOVE.w $E(a0),d3
002192  3D 43 00 62                   MOVE.w d3,$62(a6)
002196  3D 43 00 64                   MOVE.w d3,$64(a6)
00219A  36 28 00 0A                   MOVE.w $A(a0),d3
00219E  D2 28 00 0C                   ADD.b $C(a0),d1
0021A2  65 00 00 8E                   BCS $002232
0021A6  26 C0                         MOVE.l d0,(a3)+
0021A8  36 C2                         MOVE.w d2,(a3)+
0021AA  36 C3                         MOVE.w d3,(a3)+
0021AC  D0 BC 00 00 00 90             ADD.l #$90,d0
0021B2  24 00                         MOVE.l d0,d2
0021B4  2D 68 00 10 00 4C             MOVE.l $10(a0),$4C(a6)
0021BA  22 28 00 14                   MOVE.l $14(a0),d1
0021BE  48 EE 00 06 00 50             MOVEM.l d1-d2,$50(a6)
0021C4  2D 42 00 48                   MOVE.l d2,$48(a6)
0021C8  3D 43 00 58                   MOVE.w d3,$58(a6)
0021CC  08 2E 00 0E 00 02             BTST.b #$E,$2(a6)
0021D2  66 F8                         BNE $0021CC
0021D4  94 85                         SUB.l d5,d2
0021D6  2D 41 00 4C                   MOVE.l d1,$4C(a6)
0021DA  48 EE 00 06 00 50             MOVEM.l d1-d2,$50(a6)
0021E0  2D 42 00 48                   MOVE.l d2,$48(a6)
0021E4  3D 43 00 58                   MOVE.w d3,$58(a6)
0021E8  08 2E 00 0E 00 02             BTST.b #$E,$2(a6)
0021EE  66 F8                         BNE $0021E8
0021F0  94 85                         SUB.l d5,d2
0021F2  2D 41 00 4C                   MOVE.l d1,$4C(a6)
0021F6  48 EE 00 06 00 50             MOVEM.l d1-d2,$50(a6)
0021FC  2D 42 00 48                   MOVE.l d2,$48(a6)
002200  3D 43 00 58                   MOVE.w d3,$58(a6)
002204  08 2E 00 0E 00 02             BTST.b #$E,$2(a6)
00220A  66 F8                         BNE $002204
00220C  94 85                         SUB.l d5,d2
00220E  2D 41 00 4C                   MOVE.l d1,$4C(a6)
002212  48 EE 00 06 00 50             MOVEM.l d1-d2,$50(a6)
002218  2D 42 00 48                   MOVE.l d2,$48(a6)
00221C  3D 43 00 58                   MOVE.w d3,$58(a6)
002220  25 4B 00 14                   MOVE.l a3,$14(a2)
002224  42 6B 00 04                   CLR.w $4(a3)
002228  2D 7C FF FE FF FE 00 62       MOVE.l #$FFFEFFFE,$62(a6)
002230  4E 75                         RTS
002232  67 00 FF 72                   BEQ $0021A6
002236  37 42 00 04                   MOVE.w d2,$4(a3)
00223A  37 42 00 0C                   MOVE.w d2,$C(a3)
00223E  48 C4                         EXT.L d4
002240  38 31 40 00                   MOVE.w $0(a1,d4.w),d4
002244  D8 44                         ADD.w d4,d4
002246  24 00                         MOVE.l d0,d2
002248  90 84                         SUB.l d4,d0
00224A  D2 41                         ADD.w d1,d1
00224C  32 34 10 00                   MOVE.w $0(a4,d1.w),d1
002250  96 41                         SUB.w d1,d3
002252  38 03                         MOVE.w d3,d4
002254  C8 7C 00 3F                   AND.w #$3F,d4
002258  88 41                         OR.w d1,d4
00225A  26 82                         MOVE.l d2,(a3)
00225C  37 43 00 06                   MOVE.w d3,$6(a3)
002260  27 40 00 08                   MOVE.l d0,$8(a3)
002264  37 44 00 0E                   MOVE.w d4,$E(a3)
002268  D6 FC 00 10                   ADDA.w #$10,a3
00226C  D0 BC 00 00 00 90             ADD.l #$90,d0
002272  D4 BC 00 00 00 90             ADD.l #$90,d2
002278  2D 68 00 10 00 4C             MOVE.l $10(a0),$4C(a6)
00227E  22 28 00 14                   MOVE.l $14(a0),d1
002282  48 EE 00 06 00 50             MOVEM.l d1-d2,$50(a6)
002288  2D 42 00 48                   MOVE.l d2,$48(a6)
00228C  3D 43 00 58                   MOVE.w d3,$58(a6)
002290  08 2E 00 0E 00 02             BTST.b #$E,$2(a6)
002296  66 F8                         BNE $002290
002298  2D 40 00 48                   MOVE.l d0,$48(a6)
00229C  2D 40 00 54                   MOVE.l d0,$54(a6)
0022A0  3D 44 00 58                   MOVE.w d4,$58(a6)
0022A4  08 2E 00 0E 00 02             BTST.b #$E,$2(a6)
0022AA  66 F8                         BNE $0022A4
0022AC  90 85                         SUB.l d5,d0
0022AE  94 85                         SUB.l d5,d2
0022B0  2D 41 00 4C                   MOVE.l d1,$4C(a6)
0022B4  48 EE 00 06 00 50             MOVEM.l d1-d2,$50(a6)
0022BA  2D 42 00 48                   MOVE.l d2,$48(a6)
0022BE  3D 43 00 58                   MOVE.w d3,$58(a6)
0022C2  08 2E 00 0E 00 02             BTST.b #$E,$2(a6)
0022C8  66 F8                         BNE $0022C2
0022CA  2D 40 00 48                   MOVE.l d0,$48(a6)
0022CE  2D 40 00 54                   MOVE.l d0,$54(a6)
0022D2  3D 44 00 58                   MOVE.w d4,$58(a6)
0022D6  08 2E 00 0E 00 02             BTST.b #$E,$2(a6)
0022DC  66 F8                         BNE $0022D6
0022DE  90 85                         SUB.l d5,d0
0022E0  94 85                         SUB.l d5,d2
0022E2  2D 41 00 4C                   MOVE.l d1,$4C(a6)
0022E6  48 EE 00 06 00 50             MOVEM.l d1-d2,$50(a6)
0022EC  2D 42 00 48                   MOVE.l d2,$48(a6)
0022F0  3D 43 00 58                   MOVE.w d3,$58(a6)
0022F4  08 2E 00 0E 00 02             BTST.b #$E,$2(a6)
0022FA  66 F8                         BNE $0022F4
0022FC  2D 40 00 48                   MOVE.l d0,$48(a6)
002300  2D 40 00 54                   MOVE.l d0,$54(a6)
002304  3D 44 00 58                   MOVE.w d4,$58(a6)
002308  08 2E 00 0E 00 02             BTST.b #$E,$2(a6)
00230E  66 F8                         BNE $002308
002310  90 85                         SUB.l d5,d0
002312  94 85                         SUB.l d5,d2
002314  2D 41 00 4C                   MOVE.l d1,$4C(a6)
002318  48 EE 00 06 00 50             MOVEM.l d1-d2,$50(a6)
00231E  2D 42 00 48                   MOVE.l d2,$48(a6)
002322  3D 43 00 58                   MOVE.w d3,$58(a6)
002326  08 2E 00 0E 00 02             BTST.b #$E,$2(a6)
00232C  66 F8                         BNE $002326
00232E  2D 40 00 48                   MOVE.l d0,$48(a6)
002332  2D 40 00 54                   MOVE.l d0,$54(a6)
002336  3D 44 00 58                   MOVE.w d4,$58(a6)
00233A  25 4B 00 14                   MOVE.l a3,$14(a2)
00233E  42 6B 00 04                   CLR.w $4(a3)
002342  2D 7C FF FE FF FE 00 62       MOVE.l #$FFFEFFFE,$62(a6)
00234A  4E 75                         RTS
00234C  4C AD                         .dc.w $4CAD
00234E  .dc.b 00 0C 00 18 D4 40 D6 41 94 78 01 20 96 78 01 22 ; .....@.A.x. .x."
00235E  .dc.b 48 AD 00 0C 00 18 3B 7C 00 07 00 0C 50 ED 00 1F ; H.....;|....P...
00236E  .dc.b 2B 7C 00 00 23 84 00 22 2B 7C 00 00 29 04 00 12 ; +|..#.."+|..)...
00237E  .dc.b 50 ED 00 1C 4E 75 4C AD 00 03 00 18 90 78 01 20 ; P...NuL......x. 
00238E  .dc.b 6B 00 F7 A8 92 78 01 22 6B 00 F7 A0 B0 7C 01 50 ; k....x."k....|.P
00239E  .dc.b 6C 00 F7 98 B2 7C 00 D4 6C 00 F7 90 48 AD 00 03 ; l....|..l...H...
0023AE  .dc.b 00 18 10 2D 00 1F C0 7C 00 01 91 6D 00 0C 6B 00 ; ...-...|...m..k.
0023BE  .dc.b F7 7A 53 2D 00 1F 4E 75 00 00 00 00 00 00 00 00 ; .zS-..Nu........
0023CE  .dc.b 00 00 00 00 00 00 00 00 00 00 00 00 00 00 00 00 ; ................
0023DE  .dc.b 00 00 00 00 00 00 00 00 00 00 00 00 00 00 00 00 ; ................
0023EE  .dc.b 00 00 00 00 00 00 00 00 00 00 00 00 00 00 00 00 ; ................
0023FE  .dc.b 00 00 50 F8 01 5C 21 C8 28 5E 48 B8 00 03 01 66 ; ..P..\!.(^H....f
00240E  .dc.b 42 B8 28 64 42 B8 28 68 51 F8 28 62 42 38 01 C6 ; B.(dB.(hQ.(bB8..
00241E  .dc.b 4E 75 50 F8 28 62 4E 75                         ; NuP.(bNu
002426  51 F8 01 5C                   SF $15C.w
00242A  3D 7C 09 F0 00 40             MOVE.w #$9F0,$40(a6)
002430  42 6E 00 42                   CLR.w $42(a6)
002434  70 FF                         MOVEQ #$FF,d0
002436  2D 40 00 44                   MOVE.l d0,$44(a6)
00243A  42 AE 00 64                   CLR.l $64(a6)
00243E  20 38 01 7A                   MOVE.l $17A.w,d0
002442  22 38 01 92                   MOVE.l $192.w,d1
002446  24 38 01 AA                   MOVE.l $1AA.w,d2
00244A  36 3C 80 30                   MOVE.w #$8030,d3
00244E  2D 42 00 50                   MOVE.l d2,$50(a6)
002452  2D 40 00 54                   MOVE.l d0,$54(a6)
002456  3D 43 00 58                   MOVE.w d3,$58(a6)
00245A  08 2E 00 0E 00 02             BTST.b #$E,$2(a6)
002460  66 F8                         BNE $00245A
002462  2D 42 00 50                   MOVE.l d2,$50(a6)
002466  2D 41 00 54                   MOVE.l d1,$54(a6)
00246A  3D 43 00 58                   MOVE.w d3,$58(a6)
00246E  08 2E 00 0E 00 02             BTST.b #$E,$2(a6)
002474  66 F8                         BNE $00246E
002476  4E 75                         RTS

; ==== sub_002478 (2 callers) ====
002478  4A 38 01 5C                   TST.b $15C.w
00247C  6B 02                         BMI $002480
00247E  4E 75                         RTS
002480  4A 38 28 62                   TST.b $2862.w
002484  66 A0                         BNE $002426
002486  20 78 28 5E                   MOVEA.l $285E.w,a0
00248A  2A 78 02 0E                   MOVEA.l $20E.w,a5
00248E  28 78 01 C2                   MOVEA.l $1C2.w,a4
002492  26 78 74 F2                   MOVEA.l $74F2.w,a3
002496  3E 28 00 0A                   MOVE.w $A(a0),d7
00249A  3C 28 00 08                   MOVE.w $8(a0),d6
00249E  22 68 00 00                   MOVEA.l $0(a0),a1
0024A2  24 68 00 04                   MOVEA.l $4(a0),a2
0024A6  42 AE 00 44                   CLR.l $44(a6)
0024AA  7A FC                         MOVEQ #$FC,d5
0024AC  30 38 01 66                   MOVE.w $166.w,d0
0024B0  D0 7C 00 20                   ADD.w #$20,d0
0024B4  90 78 01 72                   SUB.w $172.w,d0
0024B8  48 C0                         EXT.L d0
0024BA  E8 98                         ROR.l #4,d0
0024BC  4A 40                         TST.w d0
0024BE  6A 18                         BPL $0024D8
0024C0  B0 7C FF F5                   CMP.w #$FFF5,d0
0024C4  6E 02                         BGT $0024C8
0024C6  4E 75                         RTS
0024C8  DE 40                         ADD.w d0,d7
0024CA  D0 40                         ADD.w d0,d0
0024CC  92 C0                         SUBA.w d0,a1
0024CE  94 C0                         SUBA.w d0,a2
0024D0  9C 40                         SUB.w d0,d6
0024D2  9A 40                         SUB.w d0,d5
0024D4  42 40                         CLR.w d0
0024D6  60 16                         BRA $0024EE
0024D8  72 0D                         MOVEQ #$D,d1
0024DA  92 40                         SUB.w d0,d1
0024DC  6A 10                         BPL $0024EE
0024DE  B0 7C 00 18                   CMP.w #$18,d0
0024E2  6D 02                         BLT $0024E6
0024E4  4E 75                         RTS
0024E6  DE 41                         ADD.w d1,d7
0024E8  D2 41                         ADD.w d1,d1
0024EA  9C 41                         SUB.w d1,d6
0024EC  9A 41                         SUB.w d1,d5
0024EE  48 40                         SWAP d0
0024F0  C0 7C F0 00                   AND.w #$F000,d0
0024F4  3D 40 00 42                   MOVE.w d0,$42(a6)
0024F8  80 7C 0F CA                   OR.w #$FCA,d0
0024FC  3D 40 00 40                   MOVE.w d0,$40(a6)
002500  42 40                         CLR.w d0
002502  48 40                         SWAP d0
002504  32 38 01 68                   MOVE.w $168.w,d1
002508  76 00                         MOVEQ #$0,d3
00250A  16 28 00 0C                   MOVE.b $C(a0),d3
00250E  4A 41                         TST.w d1
002510  6A 20                         BPL $002532
002512  D6 41                         ADD.w d1,d3
002514  6A 02                         BPL $002518
002516  4E 75                         RTS
002518  66 02                         BNE $00251C
00251A  4E 75                         RTS
00251C  44 41                         NEG.w d1
00251E  D2 41                         ADD.w d1,d1
002520  34 01                         MOVE.w d1,d2
002522  38 02                         MOVE.w d2,d4
002524  E7 4A                         LSL.w #3,d2
002526  D4 41                         ADD.w d1,d2
002528  D2 C2                         ADDA.w d2,a1
00252A  D4 C2                         ADDA.w d2,a2
00252C  9E 73 10 00                   SUB.w $0(a3,d1.w),d7
002530  72 00                         MOVEQ #$0,d1
002532  92 78 01 74                   SUB.w $174.w,d1
002536  92 78 01 C0                   SUB.w $1C0.w,d1
00253A  C2 7C 00 FF                   AND.w #$FF,d1
00253E  28 00                         MOVE.l d0,d4
002540  D8 80                         ADD.l d0,d4
002542  34 01                         MOVE.w d1,d2
002544  D4 42                         ADD.w d2,d2
002546  D0 75 20 00                   ADD.w $0(a5,d2.w),d0
00254A  D0 80                         ADD.l d0,d0
00254C  3D 45 00 64                   MOVE.w d5,$64(a6)
002550  3D 45 00 62                   MOVE.w d5,$62(a6)
002554  3D 46 00 60                   MOVE.w d6,$60(a6)
002558  3D 46 00 66                   MOVE.w d6,$66(a6)
00255C  3C 28 00 0E                   MOVE.w $E(a0),d6
002560  4A 38 01 C6                   TST.b $1C6.w
002564  66 00 01 6C                   BNE $0026D2
002568  D2 03                         ADD.b d3,d1
00256A  65 00 00 56                   BCS $0025C2
00256E  D0 AC 00 04                   ADD.l $4(a4),d0
002572  59 80                         SUBQ.l #4,d0
002574  22 00                         MOVE.l d0,d1
002576  D2 AC 00 0C                   ADD.l $C(a4),d1
00257A  2D 4A 00 50                   MOVE.l a2,$50(a6)
00257E  2D 49 00 4C                   MOVE.l a1,$4C(a6)
002582  2D 41 00 48                   MOVE.l d1,$48(a6)
002586  2D 40 00 54                   MOVE.l d0,$54(a6)
00258A  3D 47 00 58                   MOVE.w d7,$58(a6)
00258E  08 2E 00 0E 00 02             BTST.b #$E,$2(a6)
002594  66 F8                         BNE $00258E
002596  78 30                         MOVEQ #$30,d4
002598  7A 02                         MOVEQ #$2,d5
00259A  D0 84                         ADD.l d4,d0
00259C  D2 84                         ADD.l d4,d1
00259E  D2 C6                         ADDA.w d6,a1
0025A0  2D 4A 00 50                   MOVE.l a2,$50(a6)
0025A4  2D 49 00 4C                   MOVE.l a1,$4C(a6)
0025A8  2D 41 00 48                   MOVE.l d1,$48(a6)
0025AC  2D 40 00 54                   MOVE.l d0,$54(a6)
0025B0  3D 47 00 58                   MOVE.w d7,$58(a6)
0025B4  08 2E 00 0E 00 02             BTST.b #$E,$2(a6)
0025BA  66 F8                         BNE $0025B4
0025BC  51 CD FF DC                   DBRA d5,$00259A
0025C0  4E 75                         RTS
0025C2  67 AA                         BEQ $00256E
0025C4  3A 01                         MOVE.w d1,d5
0025C6  D0 AC 00 04                   ADD.l $4(a4),d0
0025CA  59 80                         SUBQ.l #4,d0
0025CC  22 00                         MOVE.l d0,d1
0025CE  D2 AC 00 0C                   ADD.l $C(a4),d1
0025D2  24 04                         MOVE.l d4,d2
0025D4  D4 AC 00 04                   ADD.l $4(a4),d2
0025D8  59 82                         SUBQ.l #4,d2
0025DA  26 02                         MOVE.l d2,d3
0025DC  D6 AC 00 0C                   ADD.l $C(a4),d3
0025E0  DA 45                         ADD.w d5,d5
0025E2  38 33 50 00                   MOVE.w $0(a3,d5.w),d4
0025E6  9E 44                         SUB.w d4,d7
0025E8  3A 07                         MOVE.w d7,d5
0025EA  CA 7C 00 3F                   AND.w #$3F,d5
0025EE  8A 44                         OR.w d4,d5
0025F0  2D 4A 00 50                   MOVE.l a2,$50(a6)
0025F4  2D 49 00 4C                   MOVE.l a1,$4C(a6)
0025F8  2D 41 00 48                   MOVE.l d1,$48(a6)
0025FC  2D 40 00 54                   MOVE.l d0,$54(a6)
002600  3D 47 00 58                   MOVE.w d7,$58(a6)
002604  08 2E 00 0E 00 02             BTST.b #$E,$2(a6)
00260A  66 F8                         BNE $002604
00260C  2D 43 00 48                   MOVE.l d3,$48(a6)
002610  2D 42 00 54                   MOVE.l d2,$54(a6)
002614  3D 45 00 58                   MOVE.w d5,$58(a6)
002618  08 2E 00 0E 00 02             BTST.b #$E,$2(a6)
00261E  66 F8                         BNE $002618
002620  78 30                         MOVEQ #$30,d4
002622  D0 84                         ADD.l d4,d0
002624  D4 84                         ADD.l d4,d2
002626  D2 84                         ADD.l d4,d1
002628  D6 84                         ADD.l d4,d3
00262A  D2 C6                         ADDA.w d6,a1
00262C  2D 4A 00 50                   MOVE.l a2,$50(a6)
002630  2D 49 00 4C                   MOVE.l a1,$4C(a6)
002634  2D 41 00 48                   MOVE.l d1,$48(a6)
002638  2D 40 00 54                   MOVE.l d0,$54(a6)
00263C  3D 47 00 58                   MOVE.w d7,$58(a6)
002640  08 2E 00 0E 00 02             BTST.b #$E,$2(a6)
002646  66 F8                         BNE $002640
002648  2D 43 00 48                   MOVE.l d3,$48(a6)
00264C  2D 42 00 54                   MOVE.l d2,$54(a6)
002650  3D 45 00 58                   MOVE.w d5,$58(a6)
002654  08 2E 00 0E 00 02             BTST.b #$E,$2(a6)
00265A  66 F8                         BNE $002654
00265C  D0 84                         ADD.l d4,d0
00265E  D4 84                         ADD.l d4,d2
002660  D2 84                         ADD.l d4,d1
002662  D6 84                         ADD.l d4,d3
002664  D2 C6                         ADDA.w d6,a1
002666  2D 4A 00 50                   MOVE.l a2,$50(a6)
00266A  2D 49 00 4C                   MOVE.l a1,$4C(a6)
00266E  2D 41 00 48                   MOVE.l d1,$48(a6)
002672  2D 40 00 54                   MOVE.l d0,$54(a6)
002676  3D 47 00 58                   MOVE.w d7,$58(a6)
00267A  08 2E 00 0E 00 02             BTST.b #$E,$2(a6)
002680  66 F8                         BNE $00267A
002682  2D 43 00 48                   MOVE.l d3,$48(a6)
002686  2D 42 00 54                   MOVE.l d2,$54(a6)
00268A  3D 45 00 58                   MOVE.w d5,$58(a6)
00268E  08 2E 00 0E 00 02             BTST.b #$E,$2(a6)
002694  66 F8                         BNE $00268E
002696  D0 84                         ADD.l d4,d0
002698  D4 84                         ADD.l d4,d2
00269A  D2 84                         ADD.l d4,d1
00269C  D6 84                         ADD.l d4,d3
00269E  D2 C6                         ADDA.w d6,a1
0026A0  2D 4A 00 50                   MOVE.l a2,$50(a6)
0026A4  2D 49 00 4C                   MOVE.l a1,$4C(a6)
0026A8  2D 41 00 48                   MOVE.l d1,$48(a6)
0026AC  2D 40 00 54                   MOVE.l d0,$54(a6)
0026B0  3D 47 00 58                   MOVE.w d7,$58(a6)
0026B4  08 2E 00 0E 00 02             BTST.b #$E,$2(a6)
0026BA  66 F8                         BNE $0026B4
0026BC  2D 43 00 48                   MOVE.l d3,$48(a6)
0026C0  2D 42 00 54                   MOVE.l d2,$54(a6)
0026C4  3D 45 00 58                   MOVE.w d5,$58(a6)
0026C8  08 2E 00 0E 00 02             BTST.b #$E,$2(a6)
0026CE  66 F8                         BNE $0026C8
0026D0  4E 75                         RTS
0026D2  53 38 01 C6                   SUBQ.b #1,$1C6.w
0026D6  67 00 FE 90                   BEQ $002568
0026DA  D2 03                         ADD.b d3,d1
0026DC  65 00 00 80                   BCS $00275E
0026E0  D0 AC 00 04                   ADD.l $4(a4),d0
0026E4  59 80                         SUBQ.l #4,d0
0026E6  22 00                         MOVE.l d0,d1
0026E8  D2 AC 00 0C                   ADD.l $C(a4),d1
0026EC  2D 4A 00 50                   MOVE.l a2,$50(a6)
0026F0  2D 49 00 4C                   MOVE.l a1,$4C(a6)
0026F4  2D 41 00 48                   MOVE.l d1,$48(a6)
0026F8  2D 40 00 54                   MOVE.l d0,$54(a6)
0026FC  3D 47 00 58                   MOVE.w d7,$58(a6)
002700  08 2E 00 0E 00 02             BTST.b #$E,$2(a6)
002706  66 F8                         BNE $002700
002708  D0 BC 00 00 00 30             ADD.l #$30,d0
00270E  D2 BC 00 00 00 30             ADD.l #$30,d1
002714  D2 C6                         ADDA.w d6,a1
002716  2D 4A 00 50                   MOVE.l a2,$50(a6)
00271A  2D 49 00 4C                   MOVE.l a1,$4C(a6)
00271E  2D 41 00 48                   MOVE.l d1,$48(a6)
002722  2D 40 00 54                   MOVE.l d0,$54(a6)
002726  3D 47 00 58                   MOVE.w d7,$58(a6)
00272A  08 2E 00 0E 00 02             BTST.b #$E,$2(a6)
002730  66 F8                         BNE $00272A
002732  78 30                         MOVEQ #$30,d4
002734  7A 01                         MOVEQ #$1,d5
002736  D0 84                         ADD.l d4,d0
002738  D2 84                         ADD.l d4,d1
00273A  D2 C6                         ADDA.w d6,a1
00273C  2D 4A 00 50                   MOVE.l a2,$50(a6)
002740  2D 4A 00 4C                   MOVE.l a2,$4C(a6)
002744  2D 41 00 48                   MOVE.l d1,$48(a6)
002748  2D 40 00 54                   MOVE.l d0,$54(a6)
00274C  3D 47 00 58                   MOVE.w d7,$58(a6)
002750  08 2E 00 0E 00 02             BTST.b #$E,$2(a6)
002756  66 F8                         BNE $002750
002758  51 CD FF DC                   DBRA d5,$002736
00275C  4E 75                         RTS
00275E  67 80                         BEQ $0026E0
002760  3A 01                         MOVE.w d1,d5
002762  D0 AC 00 04                   ADD.l $4(a4),d0
002766  59 80                         SUBQ.l #4,d0
002768  22 00                         MOVE.l d0,d1
00276A  D2 AC 00 0C                   ADD.l $C(a4),d1
00276E  24 04                         MOVE.l d4,d2
002770  D4 AC 00 04                   ADD.l $4(a4),d2
002774  59 82                         SUBQ.l #4,d2
002776  26 02                         MOVE.l d2,d3
002778  D6 AC 00 0C                   ADD.l $C(a4),d3
00277C  DA 45                         ADD.w d5,d5
00277E  38 33 50 00                   MOVE.w $0(a3,d5.w),d4
002782  9E 44                         SUB.w d4,d7
002784  3A 07                         MOVE.w d7,d5
002786  CA 7C 00 3F                   AND.w #$3F,d5
00278A  8A 44                         OR.w d4,d5
00278C  2D 4A 00 50                   MOVE.l a2,$50(a6)
002790  2D 49 00 4C                   MOVE.l a1,$4C(a6)
002794  2D 41 00 48                   MOVE.l d1,$48(a6)
002798  2D 40 00 54                   MOVE.l d0,$54(a6)
00279C  3D 47 00 58                   MOVE.w d7,$58(a6)
0027A0  08 2E 00 0E 00 02             BTST.b #$E,$2(a6)
0027A6  66 F8                         BNE $0027A0
0027A8  2D 43 00 48                   MOVE.l d3,$48(a6)
0027AC  2D 42 00 54                   MOVE.l d2,$54(a6)
0027B0  3D 45 00 58                   MOVE.w d5,$58(a6)
0027B4  08 2E 00 0E 00 02             BTST.b #$E,$2(a6)
0027BA  66 F8                         BNE $0027B4
0027BC  78 30                         MOVEQ #$30,d4
0027BE  D0 84                         ADD.l d4,d0
0027C0  D4 84                         ADD.l d4,d2
0027C2  D2 84                         ADD.l d4,d1
0027C4  D6 84                         ADD.l d4,d3
0027C6  D2 C6                         ADDA.w d6,a1
0027C8  2D 4A 00 50                   MOVE.l a2,$50(a6)
0027CC  2D 49 00 4C                   MOVE.l a1,$4C(a6)
0027D0  2D 41 00 48                   MOVE.l d1,$48(a6)
0027D4  2D 40 00 54                   MOVE.l d0,$54(a6)
0027D8  3D 47 00 58                   MOVE.w d7,$58(a6)
0027DC  08 2E 00 0E 00 02             BTST.b #$E,$2(a6)
0027E2  66 F8                         BNE $0027DC
0027E4  2D 43 00 48                   MOVE.l d3,$48(a6)
0027E8  2D 42 00 54                   MOVE.l d2,$54(a6)
0027EC  3D 45 00 58                   MOVE.w d5,$58(a6)
0027F0  08 2E 00 0E 00 02             BTST.b #$E,$2(a6)
0027F6  66 F8                         BNE $0027F0
0027F8  D0 84                         ADD.l d4,d0
0027FA  D4 84                         ADD.l d4,d2
0027FC  D2 84                         ADD.l d4,d1
0027FE  D6 84                         ADD.l d4,d3
002800  D2 C6                         ADDA.w d6,a1
002802  2D 4A 00 50                   MOVE.l a2,$50(a6)
002806  2D 4A 00 4C                   MOVE.l a2,$4C(a6)
00280A  2D 41 00 48                   MOVE.l d1,$48(a6)
00280E  2D 40 00 54                   MOVE.l d0,$54(a6)
002812  3D 47 00 58                   MOVE.w d7,$58(a6)
002816  08 2E 00 0E 00 02             BTST.b #$E,$2(a6)
00281C  66 F8                         BNE $002816
00281E  2D 43 00 48                   MOVE.l d3,$48(a6)
002822  2D 42 00 54                   MOVE.l d2,$54(a6)
002826  3D 45 00 58                   MOVE.w d5,$58(a6)
00282A  D0 84                         ADD.l d4,d0
00282C  D4 84                         ADD.l d4,d2
00282E  D2 84                         ADD.l d4,d1
002830  D6 84                         ADD.l d4,d3
002832  D2 C6                         ADDA.w d6,a1
002834  2D 4A 00 50                   MOVE.l a2,$50(a6)
002838  2D 4A 00 4C                   MOVE.l a2,$4C(a6)
00283C  2D 41 00 48                   MOVE.l d1,$48(a6)
002840  2D 40 00 54                   MOVE.l d0,$54(a6)
002844  3D 47 00 58                   MOVE.w d7,$58(a6)
002848  08 2E 00 0E 00 02             BTST.b #$E,$2(a6)
00284E  66 F8                         BNE $002848
002850  2D 43 00 48                   MOVE.l d3,$48(a6)
002854  2D 42 00 54                   MOVE.l d2,$54(a6)
002858  3D 45 00 58                   MOVE.w d5,$58(a6)
00285C  4E 75                         RTS
00285E  .dc.b 00 00 00 00 00 00 00 00 00 00 00 00 00 00 00 00 ; ................
00286E  .dc.b 00 00 4A 2D 00 1E 6A 2C 4A 38 28 F0 67 04 60 00 ; ..J-..j,J8(.g.`.
00287E  .dc.b F3 00 50 F8 28 F0 2B 7C 00 00 28 F2 00 12 51 ED ; ..P.(.+|..(...Q.
00288E  .dc.b 00 1E 51 ED 00 1C 50 ED 00 1F 42 6D 00 0C 42 6D ; ..Q...P...Bm..Bm
00289E  .dc.b 00 2E 4E 75 4C AD 00 03 00 18 90 78 01 20 92 78 ; ..NuL......x. .x
0028AE  .dc.b 01 22 48 AD 00 03 00 18 B0 7C FF E0 6D 00 00 2C ; ."H......|..m..,
0028BE  .dc.b B0 7C FF E0 6D 00 00 24 B0 7C 01 70 6E 00 00 1C ; .|..m..$.|.pn...
0028CE  .dc.b B2 7C 00 F4 6E 00 00 14 53 6D 00 2E 6A 0A 70 14 ; .|..n...Sm..j.p.
0028DE  .dc.b 46 2D 00 1C 3B 40 00 2E 4E 75 51 F8 28 F0 60 00 ; F-..;@..NuQ.(.`.
0028EE  .dc.b F2 90 00 00 00 00 28 F6 00 01 7B 68 00 01 7B F8 ; ......(...{h..{.
0028FE  .dc.b 00 BA 03 03 0C 00 00 00 29 86 00 00 29 78 00 00 ; ........)...)x..
00290E  .dc.b 29 6A 00 00 29 5C 00 00 29 4E 00 00 29 40 00 00 ; )j..)\..)N..)@..
00291E  .dc.b 29 32 00 00 29 24 00 01 17 E8 00 01 19 68 00 BA ; )2..)$.......h..
00292E  .dc.b 08 03 20 00 00 01 19 E8 00 01 1B 68 00 BA 08 03 ; .. ........h....
00293E  .dc.b 20 00 00 01 1B E8 00 01 1D 68 00 BA 08 03 20 00 ;  ........h.... .
00294E  .dc.b 00 01 1D E8 00 01 1F 68 00 BA 08 03 20 00 00 01 ; .......h.... ...
00295E  .dc.b 1F E8 00 01 21 68 00 BA 08 03 20 00 00 01 21 E8 ; ....!h.... ...!.
00296E  .dc.b 00 01 23 68 00 BA 08 03 20 00 00 01 23 E8 00 01 ; ..#h.... ...#...
00297E  .dc.b 25 68 00 BA 08 03 20 00 00 01 25 E8 00 01 27 68 ; %h.... ...%...'h
00298E  .dc.b 00 BA 08 03 20 00 21 C8 35 D8 21 C9 02 2A 21 CA ; .... .!.5.!..*!.
00299E  .dc.b 35 DC 48 B8 00 03 01 F6 48 B8 00 0C 35 E0 4A 50 ; 5.H.....H...5.JP
0029AE  .dc.b 66 04 61 00 4A C6 24 78 02 2E 78 00 3A 02 54 45 ; f.a.J.$x..x.:.TE
0029BE  .dc.b 34 C4 D8 43 51 CD FF FA 42 9A 42 9A 28 00 E5 4C ; 4..CQ...B.B.(..L
0029CE  .dc.b 2A 04 DA BC 00 05 B6 C0 21 C5 02 12 D8 BC 00 05 ; *.......!.......
0029DE  .dc.b BC E0 21 C4 01 7A 21 C4 01 7E D8 BC 00 00 C0 00 ; ..!..z!..~......
0029EE  .dc.b 21 C4 01 92 21 C4 01 96 D8 BC 00 00 C0 00 21 C4 ; !...!.........!.
0029FE  .dc.b 01 AA 21 C4 01 AE 3D 7C 09 F0 00 40 42 6E 00 42 ; ..!...=|...@Bn.B
002A0E  .dc.b 2D 7C FF FF FF FF 00 44 42 6E 00 64 3D 7C 00 2C ; -|.....DBn.d=|.,
002A1E  .dc.b 00 66 24 78 02 2E D0 40 D2 72 00 00 D2 C1 20 38 ; .f$x...@.r.... 8
002A2E  .dc.b 01 AA 32 3C 20 02 34 03 51 42 24 79 00 00 02 12 ; ..2< .4.QB$y....
002A3E  .dc.b 26 79 00 00 35 DC 78 0B 7A 07 28 4A 2D 40 00 54 ; &y..5.x.z.(J-@.T
002A4E  .dc.b 76 00 16 19 D6 43 D6 43 2D 70 30 00 00 50 3D 41 ; v....C.C-p0..P=A
002A5E  .dc.b 00 58 D6 43 D6 43 4B F3 30 00 28 9D 29 5D 00 30 ; .X.C.CK.0.(.)].0
002A6E  .dc.b 29 5D 00 60 29 5D 00 90 D8 FC 00 C0 08 2E 00 0E ; )].`)]..........
002A7E  .dc.b 00 02 66 F8 51 CD FF CA D2 C2 58 80 58 8A 51 CC ; ..f.Q.....X.X.Q.
002A8E  .dc.b FF B8 42 38 02 77 42 38 02 28 31 FC 00 00 01 72 ; ..B8.wB8.(1....r
002A9E  .dc.b 31 FC 00 00 01 74 31 FC FF E0 01 BE 42 78 01 20 ; 1....t1.....Bx. 
002AAE  .dc.b 42 78 01 22 42 78 35 EC 42 78 35 EE 42 78 35 F2 ; Bx."Bx5.Bx5.Bx5.
002ABE  .dc.b 4C B8 00 03 01 F6 52 40 52 41 4C B8 00 0C 01 72 ; L.....R@RAL....r
002ACE  .dc.b E6 4A E6 4B D0 40 D0 40 D2 41 D2 41 90 42 92 43 ; .J.K.@.@.A.A.B.C
002ADE  .dc.b 48 B8 00 03 01 58 61 00 4B 1E 41 F8 01 76 61 00 ; H....Xa.K.A..va.
002AEE  .dc.b 07 6A 41 F8 01 8E 61 00 07 62 51 F8 70 6A 61 00 ; .jA...a..bQ.pja.
002AFE  .dc.b 43 7E 61 00 4A B0 61 00 43 76 42 6E 00 66 2D 78 ; C~a.J.a.CvBn.f-x
002B0E  .dc.b 01 AA 00 50 2D 78 01 92 00 54 3D 7C 80 30 00 58 ; ...P-x...T=|.0.X
002B1E  .dc.b 08 2E 00 0E 00 02 66 F8 20 38 01 AA 22 38 01 7A ; ......f. 8.."8.z
002B2E  .dc.b 48 EE 00 03 00 50 3D 7C 10 30 00 58 08 2E 00 0E ; H....P=|.0.X....
002B3E  .dc.b 00 02 66 F8 24 00 26 01 D4 BC 00 00 9F 00 D6 BC ; ..f.$.&.........
002B4E  .dc.b 00 00 9F 00 48 EE 00 0C 00 50 3D 7C 16 30 00 58 ; ....H....P=|.0.X
002B5E  .dc.b 08 2E 00 0E 00 02 66 F8 D0 BC 00 00 17 FC D2 BC ; ......f.........
002B6E  .dc.b 00 00 17 FC 48 EE 00 03 00 50 3D 7C 00 28 00 64 ; ....H....P=|.(.d
002B7E  .dc.b 3D 7C 00 28 00 66 3D 7C B5 04 00 58 41 F8 35 F8 ; =|.(.f=|...XA.5.
002B8E  .dc.b 42 68 00 00 41 F8 36 0E 42 68 00 00 41 F8 37 80 ; Bh..A.6.Bh..A.7.
002B9E  .dc.b 43 F8 37 B4 70 00 72 0B 30 18 C0 F8 35 E2 30 C0 ; C.7.p.r.0...5.0.
002BAE  .dc.b 30 19 C0 F8 35 E2 32 C0 51 C9 FF EE 4C B8 00 03 ; 0...5.2.Q...L...
002BBE  .dc.b 35 E0 90 7C 00 0B 92 7C 00 08 48 B8 00 03 35 E4 ; 5..|...|..H...5.
002BCE  .dc.b 4C B8 00 03 01 F6 EB 48 EB 49 48 B8 00 03 35 E8 ; L......H.IH...5.
002BDE  .dc.b 70 0A 2F 38 01 F6 2F 38 01 AA 2F 38 02 12 06 78 ; p./8../8../8...x
002BEE  .dc.b 00 0A 01 F6 06 B8 00 00 00 28 01 AA 06 B8 00 00 ; .........(......
002BFE  .dc.b 00 28 02 12 3F 00 4C B8 00 03 01 F6 4C B8 00 0C ; .(..?.L.....L...
002C0E  .dc.b 01 F6 90 7C 00 0A 5D 41 78 00 7A 00 7C 01 4C B8 ; ...|..]Ax.z.|.L.
002C1E  .dc.b 01 80 01 F6 DE 44 DE 47 22 78 02 2E D0 F1 70 00 ; .....D.G"x....p.
002C2E  .dc.b D1 F8 02 2A 7E 06 24 78 19 46 4E 92 30 1F 53 78 ; ...*~.$x.FN.0.Sx
002C3E  .dc.b 01 F6 59 B8 01 AA 59 B8 02 12 51 C8 FF B8 21 DF ; ..Y...Y...Q...!.
002C4E  .dc.b 02 12 21 DF 01 AA 21 DF 01 F6 4E 75             ; ..!...!...Nu

; ==== sub_002C5A (1 caller) ====
002C5A  74 00                         MOVEQ #$0,d2
002C5C  76 00                         MOVEQ #$0,d3
002C5E  4A 40                         TST.w d0
002C60  66 0A                         BNE $002C6C
002C62  34 38 35 F2                   MOVE.w $35F2.w,d2
002C66  C4 7C 00 02                   AND.w #$2,d2
002C6A  60 04                         BRA $002C70
002C6C  6A 02                         BPL $002C70
002C6E  74 02                         MOVEQ #$2,d2
002C70  4A 41                         TST.w d1
002C72  66 0A                         BNE $002C7E
002C74  36 38 35 F2                   MOVE.w $35F2.w,d3
002C78  C6 7C 00 01                   AND.w #$1,d3
002C7C  60 04                         BRA $002C82
002C7E  6A 02                         BPL $002C82
002C80  76 01                         MOVEQ #$1,d3
002C82  D4 43                         ADD.w d3,d2
002C84  36 38 35 F2                   MOVE.w $35F2.w,d3
002C88  48 B8 00 03 01 20             MOVEM.w d0-d1,$120.w
002C8E  31 C2 35 F2                   MOVE.w d2,$35F2.w
002C92  B4 43                         CMP.w d3,d2
002C94  67 1A                         BEQ $002CB0
002C96  E5 4B                         LSL.w #2,d3
002C98  86 42                         OR.w d2,d3
002C9A  D6 43                         ADD.w d3,d3
002C9C  D6 43                         ADD.w d3,d3
002C9E  41 F8 2C B2                   LEA $2CB2.w,a0
002CA2  20 70 30 00                   MOVEA.l $0(a0,d3.w),a0
002CA6  48 A7 E0 00                   MOVEM.w d0-d2,-(a7)
002CAA  4E 90                         JSR (a0)
002CAC  4C 9F                         .dc.w $4C9F
002CAE  .dc.b 00 07                                           ; ..
002CB0  4E 75                         RTS
002CB2  .dc.b 00 00 2C F2 00 00 2C F4 00 00 2D 00 00 00 2C FA ; ..,...,...-...,.
002CC2  .dc.b 00 00 2D 06 00 00 2C F2 00 00 2D 0C 00 00 2D 12 ; ..-...,...-...-.
002CD2  .dc.b 00 00 2D 18 00 00 2D 1E 00 00 2C F2 00 00 2D 24 ; ..-...-...,...-$
002CE2  .dc.b 00 00 2D 2A 00 00 2D 30 00 00 2D 36 00 00 2C F2 ; ..-*..-0..-6..,.
002CF2  .dc.b 4E 75 70 00 60 00 00 B0 70 00 61 00 00 AA 70 00 ; Nup.`...p.a...p.
002D02  .dc.b 60 00 00 38 70 01 60 00 00 9E 70 01 61 00 00 98 ; `..8p.`...p.a...
002D12  .dc.b 70 00 60 00 00 26 70 01 60 00 00 20 70 01 61 00 ; p.`..&p.`.. p.a.
002D22  .dc.b 00 1A 70 00 60 00 00 80 70 01 61 00 00 7A 70 01 ; ..p.`...p.a..zp.
002D32  .dc.b 60 00 00 08 70 01 60 00 00 6E 41 F8 35 F8 3E 00 ; `...p.`..nA.5.>.
002D42  .dc.b 70 00 72 00 4C B8 00 03 01 F6 4A 47 67 0C D0 7C ; p.r.L.....JGg..|
002D52  .dc.b 00 0B 24 3C 00 00 36 80 60 14 53 40 6A 0A 42 68 ; ..$<..6.`.S@j.Bh
002D62  .dc.b 00 00 30 07 60 00 00 1C 24 3C 00 00 37 00 76 08 ; ..0.`...$<..7.v.
002D72  .dc.b 61 00 03 5E 30 07 66 06 52 78 35 EC 60 04 53 78 ; a..^0.f.Rx5.`.Sx
002D82  .dc.b 35 EC 45 F8 36 0E 4A 6A 00 00 67 18 4A 40 66 06 ; 5.E.6.Jj..g.J@f.
002D92  .dc.b 43 F8 37 80 60 04 43 F8 37 B4 25 49 00 02 35 7C ; C.7.`.C.7.%I..5|
002DA2  .dc.b 00 0C 00 00 4E 75 41 F8 36 0E 3E 00 70 00 72 00 ; ....NuA.6.>.p.r.
002DB2  .dc.b 4C B8 00 03 01 F6 4A 47 67 04 5E 41 60 0E 53 41 ; L.....JGg.^A`.SA
002DC2  .dc.b 6A 0A 42 78 36 0E 30 07 60 00 00 26 34 38 01 BE ; j.Bx6.0.`..&48..
002DD2  .dc.b C4 7C FF E0 76 0C 61 00 04 C2 30 38 01 74 D1 78 ; .|..v.a...08.t.x
002DE2  .dc.b 01 BE 30 07 66 06 52 78 35 EE 60 04 53 78 35 EE ; ..0.f.Rx5.`.Sx5.
002DF2  .dc.b 45 F8 35 F8 4A 6A 00 00 67 18 4A 40 66 06 43 F8 ; E.5.Jj..g.J@f.C.
002E02  .dc.b 36 38 60 04 43 F8 36 5C 25 49 00 02 35 7C 00 08 ; 68`.C.6\%I..5|..
002E12  .dc.b 00 00 4E 75 70 01 72 01 61 00 FE 3E 70 FF 72 FF ; ..Nup.r.a..>p.r.
002E22  .dc.b 61 00 FE 36 70 00 72 00 60 00 FE 2E 21 F8 01 72 ; a..6p.r.`...!..r
002E32  .dc.b 2E A4 42 B8 01 20 50 F8 02 77 4E 75 21 F8 01 72 ; ..B.. P..wNu!..r
002E42  .dc.b 2E A4 21 F8 01 20 2E A8 11 FC 00 02 02 77 42 78 ; ..!.. .......wBx
002E52  .dc.b 01 20 4E 75 21 F8 01 72 2E A4 21 F8 01 20 2E A8 ; . Nu!..r..!.. ..
002E62  .dc.b 11 FC 00 01 02 77 42 78 01 22 4E 75             ; .....wBx."Nu
002E6E  11 FC 00 03 02 77             MOVE.b #$3,$277.w
002E74  4E 75                         RTS
002E76  11 FC 00 04 02 77             MOVE.b #$4,$277.w
002E7C  4C B9                         .dc.w $4CB9
002E7E  .dc.b 00 03 00 00 01 72 90 78 2E A4 92 78 2E A6 48 B8 ; .....r.x...x..H.
002E8E  .dc.b 00 03 01 20 21 F8 2E A4 01 72 4E 75             ; ... !....rNu
002E9A  51 F8 02 77                   SF $277.w
002E9E  42 B8 01 20                   CLR.l $120.w
002EA2  4E 75                         RTS
002EA4  .dc.b 00 00 00 00 00 00 00 00                         ; ........
002EAC  30 2E 00 06                   MOVE.w $6(a6),d0
002EB0  D0 78 01 36                   ADD.w $136.w,d0
002EB4  E2 58                         ROR.w #1,d0
002EB6  31 C0 01 36                   MOVE.w d0,$136.w
002EBA  10 38 02 77                   MOVE.b $277.w,d0
002EBE  B0 3C 00 02                   CMP.b #$2,d0
002EC2  67 34                         BEQ $002EF8
002EC4  B0 3C 00 03                   CMP.b #$3,d0
002EC8  67 AC                         BEQ $002E76
002ECA  B0 3C 00 04                   CMP.b #$4,d0
002ECE  67 CA                         BEQ $002E9A
002ED0  10 38 01 36                   MOVE.b $136.w,d0
002ED4  C0 7C 00 07                   AND.w #$7,d0
002ED8  32 38 01 72                   MOVE.w $172.w,d1
002EDC  34 01                         MOVE.w d1,d2
002EDE  C2 7C 00 18                   AND.w #$18,d1
002EE2  82 40                         OR.w d0,d1
002EE4  31 C1 01 72                   MOVE.w d1,$172.w
002EE8  94 41                         SUB.w d1,d2
002EEA  31 C2 01 20                   MOVE.w d2,$120.w
002EEE  0C 38 00 01 02 77             CMPI.b #$1,$277.w
002EF4  67 00 03 5E                   BEQ $003254
002EF8  10 38 01 37                   MOVE.b $137.w,d0
002EFC  C0 7C 00 07                   AND.w #$7,d0
002F00  32 38 01 74                   MOVE.w $174.w,d1
002F04  34 01                         MOVE.w d1,d2
002F06  C2 7C 00 18                   AND.w #$18,d1
002F0A  82 40                         OR.w d0,d1
002F0C  31 C1 01 74                   MOVE.w d1,$174.w
002F10  94 41                         SUB.w d1,d2
002F12  31 C2 01 22                   MOVE.w d2,$122.w
002F16  60 00 03 3C                   BRA $003254
002F1A  42 78 01 24                   CLR.w $124.w
002F1E  4A 78 01 72                   TST.w $172.w
002F22  67 10                         BEQ $002F34
002F24  70 01                         MOVEQ #$1,d0
002F26  0C 78 00 10 01 72             CMPI.w #$10,$172.w
002F2C  6D 02                         BLT $002F30
002F2E  44 40                         NEG.w d0
002F30  31 C0 01 24                   MOVE.w d0,$124.w
002F34  42 78 01 26                   CLR.w $126.w
002F38  4A 78 01 74                   TST.w $174.w
002F3C  67 16                         BEQ $002F54
002F3E  70 01                         MOVEQ #$1,d0
002F40  4A 78 01 F8                   TST.w $1F8.w
002F44  67 0A                         BEQ $002F50
002F46  0C 78 00 10 01 74             CMPI.w #$10,$174.w
002F4C  6D 02                         BLT $002F50
002F4E  44 40                         NEG.w d0
002F50  31 C0 01 26                   MOVE.w d0,$126.w
002F54  60 18                         BRA $002F6E

; ==== sub_002F56 (4 callers) ====
002F56  4A 38 02 77                   TST.b $277.w
002F5A  66 00 FF 50                   BNE $002EAC
002F5E  4A 38 02 28                   TST.b $228.w
002F62  66 B6                         BNE $002F1A
002F64  4A 38 01 5C                   TST.b $15C.w
002F68  67 04                         BEQ $002F6E
002F6A  60 00 02 E8                   BRA $003254
002F6E  30 38 01 24                   MOVE.w $124.w,d0
002F72  32 38 01 26                   MOVE.w $126.w,d1
002F76  61 00 FC E2                   BSR $002C5A
002F7A  61 00 01 D6                   BSR $003152
002F7E  61 28                         BSR $002FA8
002F80  4C B8                         .dc.w $4CB8
002F82  .dc.b 00 03 01 F6 52 40 52 41 4C B8 00 0C 01 72 E6 4A ; ....R@RAL....r.J
002F92  .dc.b E6 4B D0 40 D0 40 D2 41 D2 41 90 42 92 43 48 B8 ; .K.@.@.A.A.B.CH.
002FA2  .dc.b 00 03 01 58 4E 75                               ; ...XNu

; ==== sub_002FA8 (1 caller) ====
002FA8  42 78 35 F0                   CLR.w $35F0.w
002FAC  4A 78 01 20                   TST.w $120.w
002FB0  66 02                         BNE $002FB4
002FB2  4E 75                         RTS
002FB4  61 00 04 AE                   BSR $003464
002FB8  30 38 01 20                   MOVE.w $120.w,d0
002FBC  91 79 00 00 01 72             SUB.w d0,$172.l
002FC2  6A 00 00 96                   BPL $00305A
002FC6  70 00                         MOVEQ #$0,d0
002FC8  72 00                         MOVEQ #$0,d1
002FCA  4C B8                         .dc.w $4CB8
002FCC  .dc.b 00 03 01 F6 52 40 B0 78 35 E4 63 10 42 78 01 20 ; ....R@.x5.c.Bx. 
002FDC  .dc.b 42 78 01 24 31 FC 00 00 01 72 4E 75 48 B8 00 03 ; Bx.$1....rNuH...
002FEC  .dc.b 01 F6 58 B8 01 7A 58 B8 01 7E 58 B8 01 92 58 B8 ; ..X..zX..~X...X.
002FFC  .dc.b 01 96 58 B8 01 AA 58 B8 01 AE 06 78 00 20 01 72 ; ..X...X....x. .r
00300C  .dc.b 58 B8 02 12 D0 7C 00 0B 24 3C 00 00 36 80 76 08 ; X....|..$<..6.v.
00301C  .dc.b 61 00 00 B4 4C B8 00 03 01 F6 4C B8 00 0C 01 F6 ; a...L.....L.....
00302C  .dc.b 90 7C 00 0A 92 7C 00 06 78 0A 7A 00 7C 01 4C B8 ; .|...|..x.z.|.L.
00303C  .dc.b 01 80 01 F6 DE 44 D0 C5 DE 47 22 78 02 2E D0 F1 ; .....D...G"x....
00304C  .dc.b 70 00 D1 F8 02 2A 7E 06 24 78 19 46 4E D2       ; p....*~.$x.FN.
00305A  0C 78 00 20 01 72             CMPI.w #$20,$172.w
003060  6D 6E                         BLT $0030D0
003062  70 00                         MOVEQ #$0,d0
003064  72 00                         MOVEQ #$0,d1
003066  4C B8                         .dc.w $4CB8
003068  .dc.b 00 03 01 F6 53 40 6A 10 42 78 01 20 42 78 01 24 ; ....S@j.Bx. Bx.$
003078  .dc.b 31 FC 00 1F 01 72 4E 75 48 B8 00 03 01 F6 59 B8 ; 1....rNuH.....Y.
003088  .dc.b 01 7A 59 B8 01 7E 59 B8 01 92 59 B8 01 96 59 B8 ; .zY..~Y...Y...Y.
003098  .dc.b 01 AA 59 B8 01 AE 04 78 00 20 01 72 59 B8 02 12 ; ..Y....x. .rY...
0030A8  .dc.b 53 40 24 3C 00 00 37 00 76 08 61 1E 4C B8 00 03 ; S@$<..7.v.a.L...
0030B8  .dc.b 01 F6 4C B8 00 0C 01 F6 90 7C 00 0A 5D 41 78 00 ; ..L......|..]Ax.
0030C8  .dc.b 7A 00 7C 01 60 00 FF 6C                         ; z.|.`..l
0030D0  4E 75                         RTS
0030D2  .dc.b 41 F8 35 F8 31 43 00 00 67 60 4A 40 6A 08 42 68 ; A.5.1C..g`J@j.Bh
0030E2  .dc.b 00 00 60 00 00 4A 22 78 02 2E D0 40 D2 71 00 00 ; ..`..J"x...@.q..
0030F2  .dc.b D2 B8 02 2A 21 41 00 0A 21 79 00 00 02 12 00 12 ; ...*!A..!y......
003102  .dc.b 30 38 35 F2 C0 7C 00 01 67 06 43 F8 36 38 60 04 ; 085..|..g.C.68`.
003112  .dc.b 43 F8 36 5C 21 49 00 02 30 38 01 BE C0 7C FF E0 ; C.6\!I..08...|..
003122  .dc.b 90 7C 00 E0 44 40 E4 48 D0 82 21 40 00 06 45 F8 ; .|..D@.H..!@..E.
003132  .dc.b 36 24 76 07 42 1A 51 CB FF FC 42 78 35 EE 4A 78 ; 6$v.B.Q...Bx5.Jx
003142  .dc.b 01 20 6B 06 52 78 35 EC 60 04 53 78 35 EC 4E 75 ; . k.Rx5.`.Sx5.Nu

; ==== sub_003152 (1 caller) ====
003152  4A 78 01 22                   TST.w $122.w
003156  67 00 00 FC                   BEQ $003254
00315A  61 00 03 40                   BSR $00349C
00315E  30 38 01 22                   MOVE.w $122.w,d0
003162  91 79 00 00 01 74             SUB.w d0,$174.l
003168  6A 00 00 82                   BPL $0031EC
00316C  34 38 01 BE                   MOVE.w $1BE.w,d2
003170  C4 7C FF E0                   AND.w #$FFE0,d2
003174  94 7C 00 20                   SUB.w #$20,d2
003178  06 78 00 20 01 74             ADDI.w #$20,$174.w
00317E  70 00                         MOVEQ #$0,d0
003180  72 00                         MOVEQ #$0,d1
003182  4C B8                         .dc.w $4CB8
003184  .dc.b 00 03 01 F6 52 41 B2 78 35 E6 63 10 42 78 01 22 ; ....RA.x5.c.Bx."
003194  .dc.b 42 78 01 26 42 78 01 74 60 00 00 B6 48 B8 00 03 ; Bx.&Bx.t`...H...
0031A4  .dc.b 01 F6 5E 41 76 0C 61 00 00 F0 61 00 00 A4 4C B8 ; ..^Av.a...a...L.
0031B4  .dc.b 00 03 01 F6 4C B8 00 0C 01 F6 90 7C 00 0A 5D 41 ; ....L......|..]A
0031C4  .dc.b 78 00 7A 06 4C B8 01 80 01 F6 DE 44 D0 C5 DE 47 ; x.z.L......D...G
0031D4  .dc.b 22 78 02 2E D0 F1 70 00 D1 F8 02 2A 3C 38 35 E2 ; "x....p....*<85.
0031E4  .dc.b 7E 0A 24 78 19 46 4E D2                         ; ~.$x.FN.
0031EC  0C 78 00 20 01 74             CMPI.w #$20,$174.w
0031F2  6D 00 00 60                   BLT $003254
0031F6  34 38 01 BE                   MOVE.w $1BE.w,d2
0031FA  C4 7C FF E0                   AND.w #$FFE0,d2
0031FE  D4 7C 00 20                   ADD.w #$20,d2
003202  04 78 00 20 01 74             SUBI.w #$20,$174.w
003208  70 00                         MOVEQ #$0,d0
00320A  72 00                         MOVEQ #$0,d1
00320C  4C B8                         .dc.w $4CB8
00320E  .dc.b 00 03 01 F6 53 41 6A 12 42 78 01 22 42 78 01 26 ; ....SAj.Bx."Bx.&
00321E  .dc.b 31 FC 00 1F 01 74 60 00 00 2E 48 B8 00 03 01 F6 ; 1....t`...H.....
00322E  .dc.b 53 41 76 0C 61 00 00 68 61 00 00 1C 4C B8 00 03 ; SAv.a..ha...L...
00323E  .dc.b 01 F6 4C B8 00 0C 01 F6 90 7C 00 0A 5D 41 78 00 ; ..L......|..]Ax.
00324E  .dc.b 7A 00 60 00 FF 76                               ; z.`..v
003254  20 78 01 C2                   MOVEA.l $1C2.w,a0

; ==== sub_003258 (2 callers) ====
003258  32 38 01 BE                   MOVE.w $1BE.w,d1
00325C  C2 7C FF E0                   AND.w #$FFE0,d1
003260  34 01                         MOVE.w d1,d2
003262  D4 7C 00 20                   ADD.w #$20,d2
003266  33 C2 00 00 01 C0             MOVE.w d2,$1C0.l
00326C  D2 78 01 74                   ADD.w $174.w,d1
003270  22 78 02 0A                   MOVEA.l $20A.w,a1
003274  24 28 00 04                   MOVE.l $4(a0),d2
003278  26 02                         MOVE.l d2,d3
00327A  31 C1 01 BE                   MOVE.w d1,$1BE.w
00327E  6B 00 00 0A                   BMI $00328A
003282  67 00 00 10                   BEQ $003294
003286  92 7C 01 00                   SUB.w #$100,d1
00328A  44 41                         NEG.w d1
00328C  D2 41                         ADD.w d1,d1
00328E  D2 41                         ADD.w d1,d1
003290  D6 B1 10 00                   ADD.l $0(a1,d1.w),d3
003294  48 E8 00 0C 00 04             MOVEM.l d2-d3,$4(a0)
00329A  4E 75                         RTS
00329C  .dc.b 41 F8 36 0E 31 43 00 00 67 00 00 9C B4 7C FF C0 ; A.6.1C..g....|..
0032AC  .dc.b 6E 04 34 3C 00 C0 B4 7C 00 E0 6D 02 74 E0 31 C2 ; n.4<...|..m.t.1.
0032BC  .dc.b 01 BE 4A 41 6A 08 42 68 00 00 60 00 00 6E 22 78 ; ..JAj.Bh..`..n"x
0032CC  .dc.b 02 2E D0 40 D2 71 00 00 D2 B8 02 2A 21 41 00 0A ; ...@.q.....*!A..
0032DC  .dc.b 36 02 96 7C 00 C0 44 43 C6 7C 00 FF 22 78 02 0A ; 6..|..DC.|.."x..
0032EC  .dc.b E6 4B 26 31 30 00 D6 B8 02 12 21 43 00 12 30 38 ; .K&10.....!C..08
0032FC  .dc.b 35 F2 C0 7C 00 02 67 06 43 F8 37 80 60 04 43 F8 ; 5..|..g.C.7.`.C.
00330C  .dc.b 37 B4 21 49 00 02 21 7C 00 00 38 28 00 06 30 02 ; 7.!I..!|..8(..0.
00331C  .dc.b 90 7C 00 C0 44 40 D0 40 D0 40 24 78 02 0A 20 32 ; .|..D@.@.@$x.. 2
00332C  .dc.b 00 00 D0 B8 01 7A 21 40 00 0E 45 F8 36 2C 76 0B ; .....z!@..E.6,v.
00333C  .dc.b 42 1A 51 CB FF FC 42 78 35 EC 4A 78 01 22 6B 06 ; B.Q...Bx5.Jx."k.
00334C  .dc.b 52 78 35 EE 60 04 53 78 35 EE 4E 75 48 E7 00 04 ; Rx5.`.Sx5.NuH...
00335C  .dc.b 4B F8 36 24 3C 02 3E 38 35 EE 08 38 00 00 35 F3 ; K.6$<.>85..8..5.
00336C  .dc.b 67 02 53 47 4A 47 67 18 6A 0C 5E 47 B4 47 63 10 ; g.SGJGg.j.^G.Gc.
00337C  .dc.b 51 44 60 08 60 06 B4 47 64 06 50 44 51 F5 60 00 ; QD`.`..Gd.PDQ.`.
00338C  .dc.b 4A 35 60 00 66 32 50 F5 60 00 72 00 12 31 40 00 ; J5`.f2P.`.r..1@.
00339C  .dc.b E7 4A 2A 73 20 04 DB E8 00 12 20 78 35 DC 3E 01 ; .J*s ..... x5.>.
0033AC  .dc.b E9 4F D0 C7 2A 98 2B 58 00 30 2B 58 00 60 2B 58 ; .O..*.+X.0+X.`+X
0033BC  .dc.b 00 90 41 F8 35 F8 7E 00 4C DF 20 00 4E 75 48 E7 ; ..A.5.~.L. .NuH.
0033CC  .dc.b 00 04 3C 02 3E 38 35 EC 08 38 00 01 35 F3 67 02 ; ..<.>85..8..5.g.
0033DC  .dc.b 53 47 4A 47 67 3E 6A 20 DE 7C 00 0B B4 47 63 34 ; SGJGg>j .|...Gc4
0033EC  .dc.b 94 7C 00 0C 38 02 44 44 2A 78 02 2E D8 44 38 35 ; .|..8.DD*x...D85
0033FC  .dc.b 40 00 44 44 60 16 60 14 B4 47 64 18 D4 7C 00 0C ; @.DD`.`..Gd..|..
00340C  .dc.b 38 02 2A 78 02 2E D8 44 38 35 40 00 4B F8 36 2C ; 8.*x...D85@.K.6,
00341C  .dc.b 51 F5 60 00 4B F8 36 2C 4A 35 60 00 66 34 50 F5 ; Q.`.K.6,J5`.f4P.
00342C  .dc.b 60 00 72 00 12 31 40 00 D4 42 D4 42 2A 73 20 00 ; `.r..1@..B.B*s .
00343C  .dc.b DB E8 00 12 20 78 35 DC 3E 01 E9 4F D0 C7 2A 98 ; .... x5.>..O..*.
00344C  .dc.b 2B 58 00 30 2B 58 00 60 2B 58 00 90 41 F8 36 0E ; +X.0+X.`+X..A.6.
00345C  .dc.b 7E 00 4C DF 20 00 4E 75                         ; ~.L. .Nu

; ==== sub_003464 (1 caller) ====
003464  41 F8 35 F8                   LEA $35F8.w,a0
003468  4A 38 02 52                   TST.b $252.w
00346C  67 02                         BEQ $003470
00346E  4E 75                         RTS
003470  30 38 01 72                   MOVE.w $172.w,d0
003474  32 38 01 20                   MOVE.w $120.w,d1
003478  26 38 01 7A                   MOVE.l $17A.w,d3
00347C  4B F8 33 58                   LEA $3358.w,a5
003480  42 78 35 F0                   CLR.w $35F0.w
003484  34 38 35 EE                   MOVE.w $35EE.w,d2
003488  B4 7C 00 07                   CMP.w #$7,d2
00348C  6D 06                         BLT $003494
00348E  42 68 00 00                   CLR.w $0(a0)
003492  4E 75                         RTS
003494  B4 7C FF F9                   CMP.w #$FFF9,d2
003498  6F F4                         BLE $00348E
00349A  60 2A                         BRA $0034C6

; ==== sub_00349C (1 caller) ====
00349C  41 F8 36 0E                   LEA $360E.w,a0
0034A0  30 38 01 74                   MOVE.w $174.w,d0
0034A4  32 38 01 22                   MOVE.w $122.w,d1
0034A8  26 28 00 0E                   MOVE.l $E(a0),d3
0034AC  4B F8 33 CA                   LEA $33CA.w,a5
0034B0  34 38 35 EC                   MOVE.w $35EC.w,d2
0034B4  B4 7C 00 0B                   CMP.w #$B,d2
0034B8  6D 06                         BLT $0034C0
0034BA  42 68 00 00                   CLR.w $0(a0)
0034BE  4E 75                         RTS
0034C0  B4 7C FF F5                   CMP.w #$FFF5,d2
0034C4  6F F4                         BLE $0034BA
0034C6  4A 68 00 00                   TST.w $0(a0)
0034CA  66 02                         BNE $0034CE
0034CC  4E 75                         RTS
0034CE  22 68 00 0A                   MOVEA.l $A(a0),a1
0034D2  28 78 35 D8                   MOVEA.l $35D8.w,a4
0034D6  4A 38 02 52                   TST.b $252.w
0034DA  67 04                         BEQ $0034E0
0034DC  70 01                         MOVEQ #$1,d0
0034DE  60 32                         BRA $003512
0034E0  24 78 35 F4                   MOVEA.l $35F4.w,a2
0034E4  4A 41                         TST.w d1
0034E6  6A 08                         BPL $0034F0
0034E8  90 7C 00 1F                   SUB.w #$1F,d0
0034EC  44 40                         NEG.w d0
0034EE  44 41                         NEG.w d1
0034F0  52 40                         ADDQ.w #1,d0
0034F2  53 41                         SUBQ.w #1,d1
0034F4  EB 48                         LSL.w #5,d0
0034F6  D0 41                         ADD.w d1,d0
0034F8  12 32 00 00                   MOVE.b $0(a2,d0.w),d1
0034FC  53 41                         SUBQ.w #1,d1
0034FE  3A 01                         MOVE.w d1,d5
003500  48 45                         SWAP d5
003502  30 28 00 00                   MOVE.w $0(a0),d0
003506  3A 00                         MOVE.w d0,d5
003508  EB 48                         LSL.w #5,d0
00350A  D2 40                         ADD.w d0,d1
00350C  10 32 10 00                   MOVE.b $0(a2,d1.w),d0
003510  48 80                         EXT.W d0
003512  91 68 00 00                   SUB.w d0,$0(a0)
003516  53 40                         SUBQ.w #1,d0
003518  3D 7C 09 F0 00 40             MOVE.w #$9F0,$40(a6)
00351E  42 6E 00 42                   CLR.w $42(a6)
003522  2D 7C FF FF FF FF 00 44       MOVE.l #$FFFFFFFF,$44(a6)
00352A  42 6E 00 64                   CLR.w $64(a6)
00352E  3D 7C 00 2C 00 66             MOVE.w #$2C,$66(a6)
003534  24 68 00 02                   MOVEA.l $2(a0),a2
003538  26 68 00 06                   MOVEA.l $6(a0),a3
00353C  34 1A                         MOVE.w (a2)+,d2
00353E  38 1A                         MOVE.w (a2)+,d4
003540  4E 95                         JSR (a5)
003542  66 60                         BNE $0035A4
003544  52 78 35 F0                   ADDQ.w #1,$35F0.w
003548  D2 41                         ADD.w d1,d1
00354A  D2 41                         ADD.w d1,d1
00354C  22 34 10 00                   MOVE.l $0(a4,d1.w),d1
003550  24 33 20 00                   MOVE.l $0(a3,d2.w),d2
003554  D4 83                         ADD.l d3,d2
003556  2D 41 00 50                   MOVE.l d1,$50(a6)
00355A  2D 42 00 54                   MOVE.l d2,$54(a6)
00355E  3D 7C 20 02 00 58             MOVE.w #$2002,$58(a6)
003564  08 2E 00 0E 00 02             BTST.b #$E,$2(a6)
00356A  66 F8                         BNE $003564
00356C  D4 BC 00 00 C0 00             ADD.l #$C000,d2
003572  2D 41 00 50                   MOVE.l d1,$50(a6)
003576  2D 42 00 54                   MOVE.l d2,$54(a6)
00357A  3D 7C 20 02 00 58             MOVE.w #$2002,$58(a6)
003580  08 2E 00 0E 00 02             BTST.b #$E,$2(a6)
003586  66 F8                         BNE $003580
003588  D4 BC 00 00 C0 00             ADD.l #$C000,d2
00358E  2D 41 00 50                   MOVE.l d1,$50(a6)
003592  2D 42 00 54                   MOVE.l d2,$54(a6)
003596  3D 7C 20 02 00 58             MOVE.w #$2002,$58(a6)
00359C  08 2E 00 0E 00 02             BTST.b #$E,$2(a6)
0035A2  66 F8                         BNE $00359C
0035A4  51 C8 FF 96                   DBRA d0,$00353C
0035A8  21 4A 00 02                   MOVE.l a2,$2(a0)
0035AC  4E 75                         RTS

; ==== sub_0035AE (4 callers) ====
0035AE  90 78 01 72                   SUB.w $172.w,d0
0035B2  92 78 01 74                   SUB.w $174.w,d1
0035B6  24 78 02 12                   MOVEA.l $212.w,a2
0035BA  92 78 01 C0                   SUB.w $1C0.w,d1
0035BE  C2 7C 00 F8                   AND.w #$F8,d1
0035C2  D2 41                         ADD.w d1,d1
0035C4  34 01                         MOVE.w d1,d2
0035C6  D4 42                         ADD.w d2,d2
0035C8  D2 42                         ADD.w d2,d1
0035CA  4A 40                         TST.w d0
0035CC  6B 04                         BMI $0035D2
0035CE  E6 48                         LSR.w #3,d0
0035D0  D2 40                         ADD.w d0,d1
0035D2  10 32 10 00                   MOVE.b $0(a2,d1.w),d0
0035D6  4E 75                         RTS
0035D8  .dc.b 00 00 00 00 00 00 00 00 00 00 00 00 00 00 00 00 ; ................
0035E8  .dc.b 00 00 00 00 00 00 00 00 00 00 00 00 00 00 A6 70 ; ...............p
0035F8  .dc.b 00 00 00 00 00 00 00 00 00 00 00 00 00 00 00 00 ; ................
003608  .dc.b 00 00 00 00 00 00 00 00 00 00 00 00 00 00 00 00 ; ................
003618  .dc.b 00 00 00 00 00 00 00 00 00 00 00 00 00 00 00 00 ; ................
003628  .dc.b 00 00 00 00 00 00 00 00 00 00 00 00 00 00 00 00 ; ................
003638  .dc.b 00 00 00 00 00 01 00 01 00 02 00 02 00 03 00 03 ; ................
003648  .dc.b 00 04 00 04 00 05 00 05 00 06 00 06 00 07 00 07 ; ................
003658  .dc.b FF FF FF FF 00 07 00 07 00 06 00 06 00 05 00 05 ; ................
003668  .dc.b 00 04 00 04 00 03 00 03 00 02 00 02 00 01 00 01 ; ................
003678  .dc.b 00 00 00 00 FF FF FF FF 00 00 00 2C 00 00 00 2C ; ...........,...,
003688  .dc.b 00 00 18 2C 00 00 00 EC 00 00 30 2C 00 00 01 AC ; ...,......0,....
003698  .dc.b 00 00 48 2C 00 00 02 6C 00 00 60 2C 00 00 03 2C ; ..H,...l..`,...,
0036A8  .dc.b 00 00 78 2C 00 00 03 EC 00 00 90 2C 00 00 04 AC ; ..x,.......,....
0036B8  .dc.b 00 00 A8 2C 00 00 05 6C 00 00 00 2C 00 00 00 2C ; ...,...l...,...,
0036C8  .dc.b 00 00 18 2C 00 00 00 EC 00 00 30 2C 00 00 01 AC ; ...,......0,....
0036D8  .dc.b 00 00 48 2C 00 00 02 6C 00 00 60 2C 00 00 03 2C ; ..H,...l..`,...,
0036E8  .dc.b 00 00 78 2C 00 00 03 EC 00 00 90 2C 00 00 04 AC ; ..x,.......,....
0036F8  .dc.b 00 00 A8 2C 00 00 05 6C FF FF FF FC FF FF FF FC ; ...,...l........
003708  .dc.b 00 00 17 FC 00 00 00 BC 00 00 2F FC 00 00 01 7C ; ........../....|
003718  .dc.b 00 00 47 FC 00 00 02 3C 00 00 5F FC 00 00 02 FC ; ..G....<.._.....
003728  .dc.b 00 00 77 FC 00 00 03 BC 00 00 8F FC 00 00 04 7C ; ..w............|
003738  .dc.b 00 00 A7 FC 00 00 05 3C FF FF FF FC FF FF FF FC ; .......<........
003748  .dc.b 00 00 17 FC 00 00 00 BC 00 00 2F FC 00 00 01 7C ; ........../....|
003758  .dc.b 00 00 47 FC 00 00 02 3C 00 00 5F FC 00 00 02 FC ; ..G....<.._.....
003768  .dc.b 00 00 77 FC 00 00 03 BC 00 00 8F FC 00 00 04 7C ; ..w............|
003778  .dc.b 00 00 A7 FC 00 00 05 3C 00 00 00 00 00 01 00 00 ; .......<........
003788  .dc.b 00 02 00 00 00 03 00 00 00 04 00 00 00 05 00 00 ; ................
003798  .dc.b 00 06 00 00 00 07 00 00 00 08 00 00 00 09 00 00 ; ................
0037A8  .dc.b 00 0A 00 00 00 0B 00 00 FF FF FF FF 00 0B 00 00 ; ................
0037B8  .dc.b 00 0A 00 00 00 09 00 00 00 08 00 00 00 07 00 00 ; ................
0037C8  .dc.b 00 06 00 00 00 05 00 00 00 04 00 00 00 03 00 00 ; ................
0037D8  .dc.b 00 02 00 00 00 01 00 00 00 00 00 00 FF FF FF FF ; ................
0037E8  .dc.b FF FF FF C0 FF FF FF C4 FF FF FF C8 FF FF FF CC ; ................
0037F8  .dc.b FF FF FF D0 FF FF FF D4 FF FF FF D8 FF FF FF DC ; ................
003808  .dc.b FF FF FF E0 FF FF FF E4 FF FF FF E8 FF FF FF EC ; ................
003818  .dc.b FF FF FF F0 FF FF FF F4 FF FF FF F8 FF FF FF FC ; ................
003828  .dc.b 00 00 00 00 00 00 00 04 00 00 00 08 00 00 00 0C ; ................
003838  .dc.b 00 00 00 10 00 00 00 14 00 00 00 18 00 00 00 1C ; ................
003848  .dc.b 00 00 00 20 00 00 00 24 00 00 00 28 00 00 00 2C ; ... ...$...(...,
003858  .dc.b 00 00 00 30 00 00 00 34 00 00 00 38 00 00 00 3C ; ...0...4...8...<
003868  .dc.b 00 00 00 40 00 00 00 44 00 00 00 48 00 00 00 4C ; ...@...D...H...L
003878  .dc.b 00 00 00 50 00 00 00 54 00 00 00 58 00 00 00 5C ; ...P...T...X...\
003888  .dc.b 00 00 00 60 00 00 00 64                         ; ...`...d

; ==== sub_003890 (4 callers) ====
003890  42 38 02 6D                   CLR.b $26D.w
003894  42 38 02 76                   CLR.b $276.w
003898  42 78 02 5C                   CLR.w $25C.w
00389C  42 38 38 E8                   CLR.b $38E8.w
0038A0  42 78 02 62                   CLR.w $262.w
0038A4  42 38 38 E9                   CLR.b $38E9.w
0038A8  42 38 38 EA                   CLR.b $38EA.w
0038AC  31 FC 00 21 02 5C             MOVE.w #$21,$25C.w
0038B2  11 F8 47 65 02 6C             MOVE.b $4765.w,$26C.w
0038B8  21 F9 00 00 45 A4 01 04       MOVE.l $45A4.l,$104.w
0038C0  61 00 0B 16                   BSR $0043D8
0038C4  51 F8 01 E0                   SF $1E0.w
0038C8  4A 38 02 52                   TST.b $252.w
0038CC  67 0A                         BEQ $0038D8
0038CE  20 38 02 78                   MOVE.l $278.w,d0
0038D2  67 04                         BEQ $0038D8
0038D4  20 40                         MOVEA.l d0,a0
0038D6  4E D0                         JMP (a0)
0038D8  4A 38 02 53                   TST.b $253.w
0038DC  67 06                         BEQ $0038E4
0038DE  31 FC 00 9C 01 04             MOVE.w #$9C,$104.w
0038E4  4E 75                         RTS
0038E6  .dc.b 00 00 00 00 00 00 00 00 00 00 00 00 00 00 00 00 ; ................
0038F6  .dc.b 00 00 00 00 00 00 00 00 00 00 00 08 00 04 FF FE ; ................
003906  .dc.b 00 08 00 10 FF FC 00 00 00 0A 00 08 FF F8 00 0A ; ................
003916  .dc.b 00 0E 00 18 FF FD FF F8 00 18 00 10 00 10 00 06 ; ................
003926  .dc.b FF FE 00 12 00 08 00 00 00 0A 00 08 FF F8 00 0A ; ................
003936  .dc.b 00 0E 00 18 FF FD FF F8 00 18 00 10 00 10 00 06 ; ................
003946  .dc.b FF FE 00 12 00 08 00 00 00 00 00 08 00 04 FF FE ; ................
003956  .dc.b 00 08 00 10 FF FC                               ; ......
00395C  61 00 3D 36                   BSR $007694
003960  53 78 38 F6                   SUBQ.w #1,$38F6.w
003964  6B 38                         BMI $00399E
003966  4A 78 38 F4                   TST.w $38F4.w
00396A  67 30                         BEQ $00399C
00396C  53 78 38 FA                   SUBQ.w #1,$38FA.w
003970  6A 2A                         BPL $00399C
003972  20 78 01 DC                   MOVEA.l $1DC.w,a0
003976  30 10                         MOVE.w (a0),d0
003978  54 B8 01 DC                   ADDQ.l #2,$1DC.w
00397C  B1 FC 00 FF FF DE             CMPA.l #$FFFFDE,a0
003982  6D 08                         BLT $00398C
003984  21 FC 00 FC 00 D2 01 DC       MOVE.l #$FC00D2,$1DC.w
00398C  C0 7C 00 07                   AND.w #$7,d0
003990  31 C0 38 FA                   MOVE.w d0,$38FA.w
003994  70 1F                         MOVEQ #$1F,d0
003996  4E B9 00 01 A2 DC             JSR $1A2DC.l
00399C  4E 75                         RTS
00399E  4A 78 38 F4                   TST.w $38F4.w
0039A2  66 0A                         BNE $0039AE
0039A4  50 F8 02 6D                   ST $26D.w
0039A8  51 F8 02 28                   SF $228.w
0039AC  4E 75                         RTS
0039AE  31 FC 00 02 38 F6             MOVE.w #$2,$38F6.w
0039B4  53 78 38 F4                   SUBQ.w #1,$38F4.w
0039B8  66 0E                         BNE $0039C8
0039BA  31 FC 00 14 38 F6             MOVE.w #$14,$38F6.w
0039C0  70 06                         MOVEQ #$6,d0
0039C2  4E F9 00 01 A2 DC             JMP $1A2DC.l
0039C8  3E 38 38 F8                   MOVE.w $38F8.w,d7
0039CC  47 F8 38 FC                   LEA $38FC.w,a3
0039D0  61 00 E0 E8                   BSR $001ABA
0039D4  2B 78 38 F0 00 18             MOVE.l $38F0.w,$18(a5)
0039DA  4C B3                         .dc.w $4CB3
0039DC  .dc.b 00 03 70 00 58 78 38 F8 51 ED 00 1E 61 00 E1 02 ; ..p.Xx8.Q...a...
0039EC  .dc.b 60 00 E9 5E                                     ; `..^
0039F0  21 F8 01 04 38 F0             MOVE.l $104.w,$38F0.w
0039F6  42 B8 01 04                   CLR.l $104.w
0039FA  42 B8 01 24                   CLR.l $124.w
0039FE  4A 38 01 5C                   TST.b $15C.w
003A02  57 F8 02 28                   SEQ $228.w
003A06  42 78 38 FA                   CLR.w $38FA.w
003A0A  50 F8 02 76                   ST $276.w
003A0E  70 20                         MOVEQ #$20,d0
003A10  4E B9 00 01 A2 DC             JSR $1A2DC.l
003A16  4A 38 02 52                   TST.b $252.w
003A1A  67 0A                         BEQ $003A26
003A1C  51 F8 02 28                   SF $228.w
003A20  20 78 02 54                   MOVEA.l $254.w,a0
003A24  4E 90                         JSR (a0)
003A26  4C B8                         .dc.w $4CB8
003A28  .dc.b 00 03 38 F0 B2 7C 00 D4 6D 12 42 78 38 F4 31 FC ; ..8..|..m.Bx8.1.
003A38  .dc.b 00 14 38 F6 70 21 4E F9 00 01 A2 DC 31 FC 00 17 ; ..8.p!N.....1...
003A48  .dc.b 38 F4 42 78 38 F8 61 00 FF 5E 60 00 FF 5A       ; 8.Bx8.a..^`..Z

; ==== sub_003A56 (2 callers) ====
003A56  4A 38 02 76                   TST.b $276.w
003A5A  66 00 FF 00                   BNE $00395C
003A5E  42 38 02 85                   CLR.b $285.w
003A62  4A 38 7A C8                   TST.b $7AC8.w
003A66  66 06                         BNE $003A6E
003A68  4A 38 7A C9                   TST.b $7AC9.w
003A6C  67 82                         BEQ $0039F0
003A6E  4A 38 01 E0                   TST.b $1E0.w
003A72  66 08                         BNE $003A7C
003A74  4A B8 7B 0C                   TST.l $7B0C.w
003A78  67 00 FF 76                   BEQ $0039F0
003A7C  4A 38 02 52                   TST.b $252.w
003A80  67 14                         BEQ $003A96
003A82  61 00 0A 48                   BSR $0044CC
003A86  48 B8 00 03 01 EE             MOVEM.w d0-d1,$1EE.w
003A8C  20 78 02 54                   MOVEA.l $254.w,a0
003A90  4E 90                         JSR (a0)
003A92  60 00 08 64                   BRA $0042F8
003A96  4A 38 01 5C                   TST.b $15C.w
003A9A  66 1C                         BNE $003AB8
003A9C  4A 38 02 77                   TST.b $277.w
003AA0  67 16                         BEQ $003AB8
003AA2  4C B8                         .dc.w $4CB8
003AA4  .dc.b 00 C0 01 04 9C 78 01 20 9E 78 01 22 48 B8 00 C0 ; .....x. .x."H...
003AB4  .dc.b 01 04 4E 75                                     ; ..Nu
003AB8  61 00 0A 12                   BSR $0044CC
003ABC  48 B8 00 03 01 EE             MOVEM.w d0-d1,$1EE.w
003AC2  4C B8                         .dc.w $4CB8
003AC4  .dc.b 00 C0 01 04 9C 78 01 20 9E 78 01 22 BE 7C 00 D4 ; .....x. .x.".|..
003AD4  .dc.b 6E 00 FF 1A 4A 38 59 4A 66 00 06 CE 4A 38 38 E9 ; n...J8YJf...J88.
003AE4  .dc.b 66 00 06 3A 4A 38 38 EB 66 00 04 BE 61 00 01 38 ; f..:J88.f...a..8
003AF4  .dc.b 6B 00 05 56 66 00 00 C6 30 06 32 07 58 40 D2 7C ; k..Vf...0.2.X@.|
003B04  .dc.b 00 25 4A 38 02 6C 66 02 5C 40 4A 38 38 E8 67 04 ; .%J8.lf.\@J88.g.
003B14  .dc.b 30 06 5C 40 51 F8 02 49 38 00 3A 01 61 00 FA 8C ; 0.\@Q..I8.:.a...
003B24  .dc.b 67 18 6A 12 48 E7 40 20 32 04 34 05 61 00 02 10 ; g.j.H.@ 2.4.a...
003B34  .dc.b 4C DF 04 02 60 04 50 F8 02 49 52 41 50 44 10 32 ; L...`.P..IRAPD.2
003B44  .dc.b 10 00 67 18 6A 12 48 E7 40 20 32 04 34 05 61 00 ; ..g.j.H.@ 2.4.a.
003B54  .dc.b 01 EE 4C DF 04 02 60 04 50 F8 02 49 52 41 50 44 ; ..L...`.P..IRAPD
003B64  .dc.b 10 32 10 00 67 18 6A 12 48 E7 40 20 32 04 34 05 ; .2..g.j.H.@ 2.4.
003B74  .dc.b 61 00 01 CC 4C DF 04 02 60 04 50 F8 02 49 4A 38 ; a...L...`.P..IJ8
003B84  .dc.b 02 49 67 00 04 C4 4A 38 38 E8 66 12 4A 38 38 EE ; .Ig...J88.f.J88.
003B94  .dc.b 67 0C 51 F8 38 EE 70 0A 4E B9 00 01 A2 DC 4A 38 ; g.Q.8.p.N.....J8
003BA4  .dc.b 01 3C 66 18 30 07 D0 7C 00 25 90 78 01 74 C0 7C ; .<f.0..|.%.x.t.|
003BB4  .dc.b FF F8 D0 78 01 74 90 7C 00 24 3E 00 42 78 47 6A ; ...x.t.|.$>.BxGj
003BC4  .dc.b 4A 78 01 F0 6A 1A 4A 38 38 ED 66 4A 50 F8 38 ED ; Jx..j.J88.fJP.8.
003BD4  .dc.b 50 F8 38 EB 42 78 47 6C 42 38 38 EC 60 00 03 CA ; P.8.BxGlB88.`...
003BE4  .dc.b 42 38 38 ED 4A 38 38 EA 67 1E 51 F8 38 EA 11 FC ; B88.J88.g.Q.8...
003BF4  .dc.b 00 04 38 E9 42 78 47 C8 42 78 47 C6 70 0B 4E B9 ; ..8.BxG.BxG.p.N.
003C04  .dc.b 00 01 A2 DC 60 00 05 16 4A 38 38 E8 66 08 4A 78 ; ....`...J88.f.Jx
003C14  .dc.b 01 F0 66 00 04 BE 4A 78 01 EE 6B 00 02 94 66 00 ; ..f...Jx..k...f.
003C24  .dc.b 01 98 60 00 01 46 4A 38 02 84 66 02 4E 75 30 06 ; ..`..FJ8..f.Nu0.
003C34  .dc.b 32 07 D0 7C 00 10 D2 7C 00 26 90 78 01 72 92 78 ; 2..|...|.&.x.r.x
003C44  .dc.b 01 74 34 00 36 01 EA 48 EA 49 D0 78 01 F6 D2 78 ; .t4.6..H.I.x...x
003C54  .dc.b 01 F8 24 78 02 2E D0 40 D2 72 00 00 24 78 02 2A ; ..$x...@.r..$x.*
003C64  .dc.b 10 32 10 00 B0 3C 00 08 66 10 30 02 C0 7C 00 1F ; .2...<..f.0..|..
003C74  .dc.b E2 48 50 F8 02 85 60 00 00 82 B0 3C 00 09 66 12 ; .HP...`....<..f.
003C84  .dc.b 30 02 C0 7C 00 1F E2 48 D0 7C 00 10 50 F8 02 85 ; 0..|...H.|..P...
003C94  .dc.b 60 68 B0 3C 00 16 67 E8 B0 3C 00 10 66 12 70 0F ; `h.<..g..<..f.p.
003CA4  .dc.b C4 7C 00 1F E2 4A 90 42 11 FC 00 01 02 85 60 4A ; .|...J.B......`J
003CB4  .dc.b B0 3C 00 0F 66 12 70 1F C4 7C 00 1F E2 4A 90 42 ; .<..f.p..|...J.B
003CC4  .dc.b 11 FC 00 01 02 85 60 32 B0 3C 00 17 67 E8 30 03 ; ......`2.<..g.0.
003CD4  .dc.b C0 7C 00 1F 90 7C 00 1C 6B 1C 0C 32 00 08 10 01 ; .|...|..k..2....
003CE4  .dc.b 66 06 D6 7C 00 20 60 82 0C 32 00 10 10 01 66 06 ; f..|. `..2....f.
003CF4  .dc.b D6 7C 00 20 60 A8 70 00 4E 75 32 03 C2 7C FF E0 ; .|. `.p.Nu2..|..
003D04  .dc.b D2 40 D2 78 01 74 92 7C 00 26 BE 41 6C 08 42 38 ; .@.x.t.|.&.Al.B8
003D14  .dc.b 02 85 70 FF 4E 75 3E 01 70 01 4E 75 4A 78 02 62 ; ..p.Nu>.p.NuJx.b
003D24  .dc.b 66 1A 4A 38 38 E8 66 14 B0 3C 00 D3 66 0E 48 E7 ; f.J88.f..<..f.H.
003D34  .dc.b 40 20 61 00 39 F0 4C DF 04 02 70 00 4E 75 B0 3C ; @ a.9.L...p.Nu.<
003D44  .dc.b 00 80 66 24 48 E7 FF FC 61 00 26 60 70 13 4E B9 ; ..f$H...a.&`p.N.
003D54  .dc.b 00 01 A2 DC 70 01 61 00 3A 9A 70 03 72 04 61 00 ; ....p.a.:.p.r.a.
003D64  .dc.b 3B 68 4C DF 3F FF 70 00 4E 75 4A 38 38 E8 66 00 ; ;hL.?.p.NuJ88.f.
003D74  .dc.b 00 40 4A 38 01 3C 66 1E 21 F8 01 F6 45 AA 30 06 ; .@J8.<f.!...E.0.
003D84  .dc.b 32 07 90 78 01 72 92 78 01 74 48 B8 00 03 45 A4 ; 2..x.r.x.tH...E.
003D94  .dc.b 11 F8 02 6C 47 65 48 B8 00 C0 01 04 42 78 47 6A ; ...lGeH.....BxGj
003DA4  .dc.b 10 38 02 6C C0 7C 00 01 31 C0 02 5C 60 00 04 36 ; .8.l.|..1..\`..6
003DB4  .dc.b 4A 38 02 6C 67 00 00 FA 50 F8 02 6C 4A 38 38 E8 ; J8.lg...P..lJ88.
003DC4  .dc.b 67 06 41 F8 47 5D 60 04 41 F8 47 3B 30 38 47 62 ; g.A.G]`.A.G;08Gb
003DD4  .dc.b 10 30 00 00 6A 06 42 78 47 62 10 10 52 78 47 62 ; .0..j.BxGb..RxGb
003DE4  .dc.b 48 80 31 C0 02 5C 30 06 32 07 D0 7C 00 1C D2 7C ; H.1..\0.2..|...|
003DF4  .dc.b 00 20 38 00 3A 01 4A 38 02 85 6B 12 67 10 92 7C ; . 8.:.J8..k.g..|
003E04  .dc.b 00 10 9A 7C 00 10 61 00 F7 A2 66 46 60 60 61 00 ; ...|..a...fF``a.
003E14  .dc.b F7 9A 66 3E 51 45 92 7C 00 30 6A 04 D2 7C 06 00 ; ..f>QE.|.0j..|..
003E24  .dc.b 10 32 10 00 66 2C 4A 38 38 E8 66 42 51 45 92 7C ; .2..f,J88.fBQE.|
003E34  .dc.b 00 30 6A 04 D2 7C 06 00 10 32 10 00 66 14 51 45 ; .0j..|...2..f.QE
003E44  .dc.b 92 7C 00 30 6A 04 D2 7C 06 00 10 32 10 00 67 00 ; .|.0j..|...2..g.
003E54  .dc.b 00 1E 6A 0A 32 04 34 05 61 00 FE E4 60 10 4A 38 ; ..j.2.4.a...`.J8
003E64  .dc.b 38 E8 67 00 03 76 51 F8 02 6C 60 00 03 6E 10 38 ; 8.g..vQ..l`..n.8
003E74  .dc.b 01 E0 67 08 B0 3C 00 D3 66 00 00 08 BC 7C 01 30 ; ..g..<..f....|.0
003E84  .dc.b 6C 2A 10 38 38 E8 C0 7C 00 02 54 40 DC 40 31 C0 ; l*.88..|..T@.@1.
003E94  .dc.b 47 68 4A 38 02 85 67 14 6B 0A E2 48 9E 40 31 C0 ; GhJ8..g.k..H.@1.
003EA4  .dc.b 47 6A 60 08 E2 48 DE 40 31 C0 47 6A 60 00 03 2C ; Gj`..H.@1.Gj`..,
003EB4  .dc.b 51 F8 02 6C 4A 38 38 E8 67 06 41 F8 47 58 60 04 ; Q..lJ88.g.A.GX`.
003EC4  .dc.b 41 F8 47 1E 30 38 47 62 10 30 00 00 6A 06 42 78 ; A.G.08Gb.0..j.Bx
003ED4  .dc.b 47 62 10 10 52 78 47 62 48 80 31 C0 02 5C 30 06 ; Gb..RxGbH.1..\0.
003EE4  .dc.b 32 07 54 40 D2 7C 00 20 38 00 3A 01 4A 38 02 85 ; 2.T@.|. 8.:.J8..
003EF4  .dc.b 6A 10 92 7C 00 10 9A 7C 00 10 61 00 F6 AE 66 46 ; j..|...|..a...fF
003F04  .dc.b 60 60 61 00 F6 A6 66 3E 51 45 92 7C 00 30 6A 04 ; ``a...f>QE.|.0j.
003F14  .dc.b D2 7C 06 00 10 32 10 00 66 2C 4A 38 38 E8 66 42 ; .|...2..f,J88.fB
003F24  .dc.b 51 45 92 7C 00 30 6A 04 D2 7C 06 00 10 32 10 00 ; QE.|.0j..|...2..
003F34  .dc.b 66 14 51 45 92 7C 00 30 6A 04 D2 7C 06 00 10 32 ; f.QE.|.0j..|...2
003F44  .dc.b 10 00 67 00 00 1E 6A 0A 32 04 34 05 61 00 FD F0 ; ..g...j.2.4.a...
003F54  .dc.b 60 10 4A 38 38 E8 67 00 02 82 50 F8 02 6C 60 00 ; `.J88.g...P..l`.
003F64  .dc.b 02 7A 10 38 01 E0 67 06 B0 3C 00 D3 66 06 BC 7C ; .z.8..g..<..f..|
003F74  .dc.b 00 20 6F 30 10 38 38 E8 C0 7C 00 02 54 40 9C 40 ; . o0.88..|..T@.@
003F84  .dc.b 44 40 31 C0 47 68 4A 38 02 85 67 18 6A 0C 44 40 ; D@1.GhJ8..g.j.D@
003F94  .dc.b E2 48 9E 40 31 C0 47 6A 60 0A 44 40 E2 48 DE 40 ; .H.@1.Gj`.D@.H.@
003FA4  .dc.b 31 C0 47 6A 60 00 02 34 4A 39 00 00 38 E8 67 08 ; 1.Gj`..4J9..8.g.
003FB4  .dc.b 51 F8 38 E8 42 78 47 62 4A 78 01 F0 6A 00 00 5A ; Q.8.BxGbJx..j..Z
003FC4  .dc.b 4A 38 01 3D 66 00 00 52 30 06 32 07 58 41 4A 38 ; J8.=f..R0.2.XAJ8
003FD4  .dc.b 02 6C 66 02 5C 40 D0 7C 00 0C 38 00 3A 01 61 00 ; .lf.\@.|..8.:.a.
003FE4  .dc.b F5 CA 66 26 51 44 50 45 53 41 D2 7C 00 30 B2 7C ; ..f&QDPESA.|.0.|
003FF4  .dc.b 06 00 6D 04 92 7C 06 00 10 32 10 00 66 0C D8 7C ; ..m..|...2..f..|
004004  .dc.b 00 10 54 41 10 32 10 00 67 16 6A 0C 32 04 34 05 ; ..TA.2..g.j.2.4.
004014  .dc.b 61 00 FD 2C 60 00 00 0A 31 FC 00 40 47 6C 60 06 ; a..,`...1..@Gl`.
004024  .dc.b BE 7C 00 20 6D F2 41 F8 47 6E 30 28 FF FE 30 30 ; .|. m.A.Gn0(..00
004034  .dc.b 00 00 DE 40 44 40 33 C0 00 00 47 6A 66 04 51 F8 ; ...@D@3...Gjf.Q.
004044  .dc.b 38 EB 54 68 FF FE 60 4E 4A 39 00 00 01 3C 66 00 ; 8.Th..`NJ9...<f.
004054  .dc.b FB 36 50 F8 38 EE 41 F8 47 6E 30 28 FF FE 67 1E ; .6P.8.A.Gn0(..g.
004064  .dc.b 0C 70 80 00 00 00 66 06 42 68 FF FE 60 18 54 68 ; .p....f.Bh..`.Th
004074  .dc.b FF FE 30 30 00 00 DE 40 31 C0 47 6A 60 10 4A 38 ; ..00...@1.Gj`.J8
004084  .dc.b 38 E8 56 F8 38 EA 58 47 31 FC 00 04 47 6A 4A 38 ; 8.V.8.XG1...GjJ8
004094  .dc.b 38 E8 66 00 FD 1C 4A 78 01 EE 66 18 10 38 02 6C ; 8.f...Jx..f..8.l
0040A4  .dc.b C0 7C 00 01 D0 7C 00 20 31 C0 02 5C 42 78 47 68 ; .|...|. 1..\BxGh
0040B4  .dc.b 60 00 01 28 6A 0E 51 F8 02 6C 31 FC 00 20 02 5C ; `..(j.Q..l1.. .\
0040C4  .dc.b 60 00 FE 1C 50 F8 02 6C 31 FC 00 21 02 5C 60 00 ; `...P..l1..!.\`.
0040D4  .dc.b FD 16 4A 78 01 EE 67 04 5A F8 02 6C 4A 38 01 E8 ; ..Jx..g.Z..lJ8..
0040E4  .dc.b 67 1A 42 38 01 E8 42 38 02 16 61 00 36 92 6B 14 ; g.B8..B8..a.6.k.
0040F4  .dc.b 42 78 47 62 50 F8 38 E8 60 00 FC B6 0C 38 00 40 ; BxGbP.8.`....8.@
004104  .dc.b 02 16 67 DE 10 38 02 6C C0 7C 00 01 54 40 31 C0 ; ..g..8.l.|..T@1.
004114  .dc.b 02 5C 48 B8 00 C0 01 04 60 00 00 CA 41 F8 47 CA ; .\H.....`...A.G.
004124  .dc.b 30 28 FF FE 0C 70 80 01 00 00 66 0C 51 F8 38 E9 ; 0(...p....f.Q.8.
004134  .dc.b 51 F8 38 EA 60 00 F9 1C 4A 70 00 00 6B 54 32 07 ; Q.8.`...Jp..kT2.
004144  .dc.b 30 06 58 40 D2 7C 00 25 38 00 3A 01 61 00 F4 5C ; 0.X@.|.%8.:.a..\
004154  .dc.b 66 14 50 44 52 41 10 32 10 00 66 0A 50 44 52 41 ; f.PDRA.2..f.PDRA
004164  .dc.b 10 32 10 00 67 2C 6A 0A 32 04 34 05 61 00 FB D0 ; .2..g,j.2.4.a...
004174  .dc.b 60 20 54 78 47 C6 31 78 47 C6 FF FE 53 38 38 E9 ; ` TxG.1xG...S88.
004184  .dc.b 66 08 51 F8 38 E9 60 00 F8 CA 30 28 FF FE 30 30 ; f.Q.8.`...0(..00
004194  .dc.b 00 00 30 28 FF FE 54 68 FF FE 30 30 00 00 DE 40 ; ..0(..Th..00...@
0041A4  .dc.b 31 C0 47 6A 60 00 FC 0A 4A 38 47 66 67 08 53 39 ; 1.Gj`...J8Gfg.S9
0041B4  .dc.b 00 00 47 66 4E 75 13 FC 00 01 00 00 47 66 30 38 ; ..GfNu......Gf08
0041C4  .dc.b 01 EE D0 38 59 4B C0 3C 00 1F 11 C0 59 4B 42 78 ; ...8YK.<....YKBx
0041D4  .dc.b 47 68 61 10 42 B8 01 24 4E 75 48 B8 00 C0 01 04 ; Gha.B..$NuH.....
0041E4  .dc.b 42 78 01 EA 61 00 01 0E 4C B8 00 03 02 64 58 41 ; Bx..a...L....dXA
0041F4  .dc.b 61 00 F3 B8 6A 06 61 00 FB 24 67 16 10 32 10 01 ; a...j.a..$g..2..
004204  .dc.b 6A 06 61 00 FB 18 67 0A 10 32 10 02 6A 04 61 00 ; j.a...g..2..j.a.
004214  .dc.b FB 0C 30 38 02 64 32 38 02 6A 59 41 61 00 F3 8C ; ..08.d28.jYAa...
004224  .dc.b 6A 06 61 00 FA F8 67 16 10 32 10 01 6A 06 61 00 ; j.a...g..2..j.a.
004234  .dc.b FA EC 67 0A 10 32 10 02 6A 04 61 00 FA E0 51 F8 ; ..g..2..j.a...Q.
004244  .dc.b 01 3C 51 F8 01 3D 4A 38 38 EC 66 00 00 40 11 FC ; .<Q..=J88.f..@..
004254  .dc.b 00 05 38 EC 30 38 01 04 34 38 01 20 38 38 47 68 ; ..8.08..48. 88Gh
004264  .dc.b B0 7C 00 84 6C 08 53 42 B4 44 6D 10 60 1A B0 7C ; .|..l.SB.Dm.`..|
004274  .dc.b 00 D4 6F 08 52 42 B4 44 6E 02 60 0C 4A 42 67 08 ; ..o.RB.Dn.`.JBg.
004284  .dc.b 6A 04 52 42 60 02 53 42 31 C2 01 24 53 38 38 EC ; j.RB`.SB1..$S88.
004294  .dc.b 42 78 01 26 32 38 01 06 30 38 47 6A 66 02 70 01 ; Bx.&28..08Gjf.p.
0042A4  .dc.b B2 7C 00 48 6C 06 91 78 01 26 4E 75 B2 7C 00 8E ; .|.Hl..x.&Nu.|..
0042B4  .dc.b 6F 04 D1 78 01 26 30 38 01 24 66 14 4A 78 01 20 ; o..x.&08.$f.Jx. 
0042C4  .dc.b 67 0E 34 38 35 F8 B4 7C 00 04 6F 04 30 38 01 20 ; g.485..|..o.08. 
0042D4  .dc.b 32 38 01 26 66 14 4A 78 01 22 67 0E 34 38 36 0E ; 28.&f.Jx."g.486.
0042E4  .dc.b B4 7C 00 06 6F 04 32 38 01 22 31 C0 01 24 31 C1 ; .|..o.28."1..$1.
0042F4  .dc.b 01 26 4E 75                                     ; .&Nu
0042F8  4C B8                         .dc.w $4CB8
0042FA  .dc.b 00 03 01 04 D0 7C 00 0C 54 41 4A 38 02 6C 67 02 ; .....|..TAJ8.lg.
00430A  .dc.b 5D 40 34 00 36 01 D4 7C 00 0E D6 7C 00 22 4A 38 ; ]@4.6..|...|."J8
00431A  .dc.b 38 E8 66 08 4A 78 01 F0 67 08 6B 06 D2 7C 00 0E ; 8.f.Jx..g.k..|..
00432A  .dc.b 60 14 0C 78 00 20 02 5C 67 08 0C 78 00 21 02 5C ; `..x. .\g..x.!.\
00433A  .dc.b 66 04 59 41 5F 43 48 B8 00 0F 02 64 3C 38 02 62 ; f.YA_CH....d<8.b
00434A  .dc.b 8C 38 38 E8 4B F8 4A BA 7E 0E 4A 55 67 2C 4C B8 ; .88.K.J.~.JUg,L.
00435A  .dc.b 00 0F 02 64 4C AD 00 30 00 02 B8 42 6E 1C BA 43 ; ...dL..0...Bn..C
00436A  .dc.b 6E 18 5C 44 B8 40 6D 12 5C 45 BA 41 6D 0C 42 55 ; n.\D.@m.\E.Am.BU
00437A  .dc.b 4A 46 66 06 72 04 61 00 33 CC 5C 4D 51 CF FF CC ; JFf.r.a.3.\MQ...
00438A  .dc.b 4E 75                                           ; Nu

; ==== sub_00438C (1 caller) ====
00438C  4C B8                         .dc.w $4CB8
00438E  .dc.b 00 0F 02 64 4C AD 00 30 00 18 28 6D 00 08 3C 2D ; ...dL..0..(m..<-
00439E  .dc.b 00 0C E7 4E D8 C6 D8 5C B4 44 6D 2A DA 5C B6 45 ; ...N...\.Dm*.\.E
0043AE  .dc.b 6D 24 D8 5C B0 44 6E 1E DA 5C B2 45 6E 18 4A 38 ; m$.\.Dn..\.En.J8
0043BE  .dc.b 38 E8 67 04 7C FF 4E 75 4A 78 02 62 67 04 7C FF ; 8.g.|.NuJx.bg.|.
0043CE  .dc.b 4E 75 7C 01 4E 75 7C 00 4E 75                   ; Nu|.Nu|.Nu

; ==== sub_0043D8 (5 callers) ====
0043D8  4A 38 02 52                   TST.b $252.w
0043DC  67 02                         BEQ $0043E0
0043DE  4E 75                         RTS
0043E0  4C B8                         .dc.w $4CB8
0043E2  .dc.b 00 03 01 04 4A 78 02 62 67 3A 53 78 02 62 53 78 ; ....Jx.bg:Sx.bSx
0043F2  .dc.b 02 60 6A 10 31 FC 00 03 02 60 52 78 02 5E 02 78 ; .`j.1....`Rx.^.x
004402  .dc.b 00 07 02 5E 38 38 02 62 B8 7C 00 64 6C 06 C8 7C ; ...^88.b.|.dl..|
004412  .dc.b 00 03 60 04 C8 7C 00 01 66 0A 38 38 02 5E D8 7C ; ..`..|..f.88.^.|
004422  .dc.b 00 26 60 04 38 38 02 5C E7 4C 41 F8 45 AE D0 C4 ; .&`.88.\.LA.E...
004432  .dc.b D2 68 00 04 74 00 36 3C 00 80 D2 3C 00 0C D0 7C ; .h..t.6<...<...|
004442  .dc.b 00 71 E2 48 64 04 08 C3 00 00 14 01 E1 4A 14 00 ; .q.Hd........J..
004452  .dc.b D2 28 00 03 64 04 08 C3 00 01 E1 49 86 41 70 00 ; .(..d......I.Ap.
004462  .dc.b 72 00 30 10 D0 BC 00 00 AD 00 32 28 00 06 43 F8 ; r.0.......2(..C.
004472  .dc.b 72 94 48 40 33 40 00 02 48 40 33 40 00 06 20 40 ; r.H@3@..H@3@.. @
004482  .dc.b 48 90 00 0C 50 49 D0 81 48 40 33 40 00 02 48 40 ; H...PI..H@3@..H@
004492  .dc.b 33 40 00 06 20 40 48 90 00 0C 50 02 50 49 D0 81 ; 3@.. @H...P.PI..
0044A2  .dc.b 48 40 33 40 00 02 48 40 33 40 00 06 20 40 48 90 ; H@3@..H@3@.. @H.
0044B2  .dc.b 00 0C 50 49 D0 81 48 40 33 40 00 02 48 40 33 40 ; ..PI..H@3@..H@3@
0044C2  .dc.b 00 06 20 40 48 90 00 0C 4E 75                   ; .. @H...Nu

; ==== sub_0044CC (3 callers) ====
0044CC  42 6E 00 36                   CLR.w $36(a6)
0044D0  30 2E 00 0C                   MOVE.w $C(a6),d0
0044D4  4B F8 45 68                   LEA $4568.w,a5
0044D8  72 08                         MOVEQ #$8,d1
0044DA  B0 55                         CMP.w (a5),d0
0044DC  67 06                         BEQ $0044E4
0044DE  5C 4D                         ADDQ.w #6,a5
0044E0  51 C9 FF F8                   DBRA d1,$0044DA
0044E4  4C AD                         .dc.w $4CAD
0044E6  .dc.b 00 03 00 02 4A 38 01 E7 66 12 08 39 00 07 00 BF ; ....J8..f..9....
0044F6  .dc.b E0 01 66 24 50 F8 01 E7 50 F8 01 E6 08 39 00 07 ; ..f$P...P....9..
004506  .dc.b 00 BF E0 01 67 0E 42 78 01 EA 51 F8 01 E7 51 F8 ; ....g.Bx..Q...Q.
004516  .dc.b 01 E6 60 04 52 78 01 EA 4A 38 01 E9 66 16 3D 7C ; ..`.Rx..J8..f.=|
004526  .dc.b FF 00 00 34 08 2E 00 0E 00 16 66 28 50 F8 01 E9 ; ...4......f(P...
004536  .dc.b 50 F8 01 E8 3D 7C FF 00 00 34 08 2E 00 0E 00 16 ; P...=|...4......
004546  .dc.b 67 0E 42 78 01 EC 51 F8 01 E9 51 F8 01 E8 60 04 ; g.Bx..Q...Q...`.
004556  .dc.b 52 78 01 EC 4A 38 01 E0 67 06 20 78 01 E2 4E D0 ; Rx..J8..g. x..N.
004566  .dc.b 4E 75 00 00 00 00 00 00 03 00 FF FF 00 00 00 03 ; Nu..............
004576  .dc.b 00 01 00 00 01 00 00 00 FF FF 00 01 00 00 00 01 ; ................
004586  .dc.b 02 00 FF FF FF FF 03 01 FF FF 00 01 00 02 00 01 ; ................
004596  .dc.b 00 01 01 03 00 01 FF FF 00 00 00 00 00 00 00 00 ; ................
0045A6  .dc.b 00 00 00 00 00 00 00 00 00 00 00 25 00 00 00 9C ; ...........%....
0045B6  .dc.b 02 70 00 25 00 00 00 9C 04 E0 00 25 00 00 00 9C ; .p.%.......%....
0045C6  .dc.b 07 50 00 25 00 00 00 9C 09 C0 00 25 00 00 00 9C ; .P.%.......%....
0045D6  .dc.b 0C 30 00 25 00 00 00 9C 0E A0 00 25 00 00 00 9C ; .0.%.......%....
0045E6  .dc.b 11 10 00 25 00 00 00 9C 13 80 00 25 00 00 00 9C ; ...%.......%....
0045F6  .dc.b 15 F0 00 25 00 00 00 9C 18 60 00 25 00 00 00 9C ; ...%.....`.%....
004606  .dc.b 1A D0 00 25 00 00 00 9C 1D 40 00 25 00 00 00 9C ; ...%.....@.%....
004616  .dc.b 1F B0 00 25 00 00 00 9C 22 20 00 25 00 00 00 9C ; ...%...." .%....
004626  .dc.b 24 90 00 25 00 00 00 9C 27 00 00 25 00 00 00 9C ; $..%....'..%....
004636  .dc.b 29 70 00 25 00 00 00 9C 2B E0 00 25 00 00 00 9C ; )p.%....+..%....
004646  .dc.b 2E 50 00 25 00 00 00 9C 30 C0 00 25 00 00 00 9C ; .P.%....0..%....
004656  .dc.b 33 30 00 25 00 00 00 9C 35 A0 00 25 00 00 00 9C ; 30.%....5..%....
004666  .dc.b 38 10 00 25 00 00 00 9C 3A 80 00 25 00 00 00 9C ; 8..%....:..%....
004676  .dc.b 3C F0 00 25 00 00 00 9C 3F 60 00 25 00 00 00 9C ; <..%....?`.%....
004686  .dc.b 41 D0 00 25 00 00 00 9C 44 40 00 25 00 00 00 9C ; A..%....D@.%....
004696  .dc.b 46 B0 00 25 00 00 00 9C 49 20 00 25 00 00 00 9C ; F..%....I .%....
0046A6  .dc.b 4B 90 00 25 00 00 00 9C 4E 00 00 29 00 00 00 AC ; K..%....N..)....
0046B6  .dc.b 50 B0 00 29 00 00 00 AC 53 60 00 15 00 10 00 5C ; P..)....S`.....\
0046C6  .dc.b 54 D0 00 15 00 10 00 5C 56 40 00 15 00 10 00 5C ; T......\V@.....\
0046D6  .dc.b 57 B0 00 15 00 10 00 5C A2 08 00 29 FF FE 00 AC ; W......\...)....
0046E6  .dc.b A4 B8 00 29 FF FE 00 AC A7 68 00 29 FF FE 00 AC ; ...).....h.)....
0046F6  .dc.b AA 18 00 29 FF FE 00 AC AC C8 00 29 FF FE 00 AC ; ...).......)....
004706  .dc.b AF 78 00 29 FF FE 00 AC B2 28 00 29 FF FE 00 AC ; .x.).....(.)....
004716  .dc.b B4 D8 00 29 FF FE 00 AC 04 04 05 05 06 06 07 07 ; ...)............
004726  .dc.b 08 08 09 09 0A 0A 0B 0B 0C 0C 0D 0D 0E 0E 0F 0F ; ................
004736  .dc.b 10 10 11 11 FF 12 12 13 13 14 14 15 15 16 16 17 ; ................
004746  .dc.b 17 18 18 19 19 1A 1A 1B 1B 1C 1C 1D 1D 1E 1E 1F ; ................
004756  .dc.b 1F FF 22 23 24 25 FF 25 24 23 22 FF 00 00 00 00 ; .."#$%.%$#".....
004766  .dc.b 00 00 00 00 00 00 00 00 FF F9 FF F9 FF FA FF FA ; ................
004776  .dc.b FF FB FF FA FF FB FF FB FF FC FF FC FF FC FF FC ; ................
004786  .dc.b FF FD FF FD FF FD FF FD FF FD FF FE FF FE FF FE ; ................
004796  .dc.b FF FE FF FE FF FE FF FF FF FF FF FF FF FF FF FF ; ................
0047A6  .dc.b FF FF FF FF 00 00 00 00 00 00 00 00 00 01 00 01 ; ................
0047B6  .dc.b 00 01 00 02 00 02 00 02 00 03 00 03 00 04 80 00 ; ................
0047C6  .dc.b 00 00 00 00 FF FD FF FE FF FE FF FF FF FF 00 00 ; ................
0047D6  .dc.b 00 01 00 01 00 02 00 02 00 03 00 04 80 01 00 00 ; ................
0047E6  .dc.b 00 00 00 00 00 00 00 00 00 00 00 00 00 00 00 00 ; ................
0047F6  .dc.b 00 00 00 00 00 00 00 00 00 00 00 00 00 00 00 00 ; ................
004806  .dc.b 00 00 00 00 00 00 00 00 00 00 00 00 00 00 00 00 ; ................
004816  .dc.b 00 00 00 00 00 00 00 00 00 00 00 00 00 00 00 00 ; ................
004826  .dc.b 00 00 00 00 00 00 00 00 00 00 00 01 0C 58 00 01 ; .............X..
004836  .dc.b 0C B8 00 BC 04 02 10 00 00 01 0C D8 00 01 0D 38 ; ...............8
004846  .dc.b 00 BC 04 02 10 00 00 01 4B 88 00 01 4B E8 00 BC ; ........K...K...
004856  .dc.b 04 02 10 00 00 00 00 01 4B 88 00 01 4B E8 00 BC ; ........K...K...
004866  .dc.b 04 02 10 00 00 00 00 01 4C 08 00 01 4C 68 00 BC ; ........L...Lh..
004876  .dc.b 04 02 10 00 00 00 00 01 4C 08 00 01 4C 68 00 BC ; ........L...Lh..
004886  .dc.b 04 02 10 00 00 00 00 01 4C 88 00 01 4C E8 00 BC ; ........L...L...
004896  .dc.b 04 02 10 00 00 00 00 01 4C 88 00 01 4C E8 00 BC ; ........L...L...
0048A6  .dc.b 04 02 10 00 00 00 00 01 4D 08 00 01 4D 68 00 BC ; ........M...Mh..
0048B6  .dc.b 04 02 10 00 00 00 00 01 4D 08 00 01 4D 68 00 BC ; ........M...Mh..
0048C6  .dc.b 04 02 10 00 00 00 00 01 4D 88 00 01 4D E8 00 BC ; ........M...M...
0048D6  .dc.b 04 02 10 00 00 00 00 01 4D 88 00 01 4D E8 00 BC ; ........M...M...
0048E6  .dc.b 04 02 10 00 00 00 00 01 09 D8 00 01 0A 38 00 BC ; .............8..
0048F6  .dc.b 04 02 10 00 00 00 00 01 09 D8 00 01 0A 38 00 BC ; .............8..
004906  .dc.b 04 02 10 00 00 00 00 01 0A 58 00 01 0A B8 00 BC ; .........X......
004916  .dc.b 04 02 10 00 00 00 00 01 0A 58 00 01 0A B8 00 BC ; .........X......
004926  .dc.b 04 02 10 00 00 00 00 01 0A D8 00 01 0B 38 00 BC ; .............8..
004936  .dc.b 04 02 10 00 00 00 00 01 0A D8 00 01 0B 38 00 BC ; .............8..
004946  .dc.b 04 02 10 00 00 00 00 01 0B 58 00 01 0B B8 00 BC ; .........X......
004956  .dc.b 04 02 10 00 00 00 00 01 0B 58 00 01 0B B8 00 BC ; .........X......
004966  .dc.b 04 02 10 00 00 00 00 01 0B D8 00 01 0C 38 00 BC ; .............8..
004976  .dc.b 04 02 10 00 00 00 00 01 0B D8 00 01 0C 38 00 BC ; .............8..
004986  .dc.b 04 02 10 00 00 00 00 00 00 00 00 00 00 00 00 00 ; ................
004996  .dc.b 00 00 00 00 00 00 00 01 06 20 00 01 06 4A 00 BC ; ......... ...J..
0049A6  .dc.b 01 C2 07 00 00 00 00 01 06 58 00 01 06 82 00 BC ; .........X......
0049B6  .dc.b 01 C2 07 00 00 00 00 01 06 90 00 01 06 BA 00 BC ; ................
0049C6  .dc.b 01 C2 07 00 00 00 00 01 06 C8 00 01 06 F2 00 BC ; ................
0049D6  .dc.b 01 C2 07 00 00 00 00 01 07 00 00 01 07 2A 00 BC ; .............*..
0049E6  .dc.b 01 C2 07 00 00 00 00 01 07 38 00 01 07 62 00 BC ; .........8...b..
0049F6  .dc.b 01 C2 07 00 00 00 00 01 07 70 00 01 07 9A 00 BC ; .........p......
004A06  .dc.b 01 C2 07 00 00 00 00 01 07 A8 00 01 07 D2 00 BC ; ................
004A16  .dc.b 01 C2 07 00 00 00 00 01 07 E0 00 01 08 0A 00 BC ; ................
004A26  .dc.b 01 C2 07 00 00 00 00 01 08 18 00 01 08 42 00 BC ; .............B..
004A36  .dc.b 01 C2 07 00 00 00 00 01 08 50 00 01 08 7A 00 BC ; .........P...z..
004A46  .dc.b 01 C2 07 00 00 00 00 01 08 88 00 01 08 B2 00 BC ; ................
004A56  .dc.b 01 C2 07 00 00 00 00 01 08 C0 00 01 08 EA 00 BC ; ................
004A66  .dc.b 01 C2 07 00 00 00 00 01 08 F8 00 01 09 22 00 BC ; ............."..
004A76  .dc.b 01 C2 07 00 00 00 00 01 09 30 00 01 09 5A 00 BC ; .........0...Z..
004A86  .dc.b 01 C2 07 00 00 00 00 01 09 68 00 01 09 92 00 BC ; .........h......
004A96  .dc.b 01 C2 07 00 00 00 00 01 09 A0 00 01 09 CA 00 BC ; ................
004AA6  .dc.b 01 C2 07 00 00 00 00 01 08 C0 00 01 08 EA 00 BC ; ................
004AB6  .dc.b 01 C2 07 00 00 00 00 00 00 00 00 00 00 00 00 00 ; ................
004AC6  .dc.b 00 00 00 00 00 00 00 00 00 00 00 00 00 00 00 00 ; ................
004AD6  .dc.b 00 00 00 00 00 00 00 00 00 00 00 00 00 00 00 00 ; ................
004AE6  .dc.b 00 00 00 00 00 00 00 00 00 00 00 00 00 00 00 00 ; ................
004AF6  .dc.b 00 00 00 00 00 00 00 00 00 00 00 00 00 00 00 00 ; ................
004B06  .dc.b 00 00 00 00 00 00 00 00 00 00 00 00 00 00 00 00 ; ................
004B16  .dc.b 00 00 00 00 00 00 00 00 00 00 00 00 00 00 00 00 ; ................
004B26  .dc.b 00 00 00 00 00 00 00 00 00 00 00 00 FF FE 00 00 ; ................
004B36  .dc.b FF FE FF FF FF FE FF FE FF FF FF FE 00 00 FF FE ; ................
004B46  .dc.b 00 01 FF FE 00 02 FF FE 00 02 FF FF 00 02 00 00 ; ................
004B56  .dc.b 00 02 00 01 00 02 00 02 00 01 00 02 00 00 00 02 ; ................
004B66  .dc.b FF FF 00 02 FF FE 00 02 FF FE 00 01 FF FC 00 01 ; ................
004B76  .dc.b FF FE 00 02 00 00 00 03 00 02 00 02 00 04 00 01 ; ................
004B86  .dc.b FF FC 00 01 FF FC 00 00 FF FC FF FF 00 04 00 01 ; ................
004B96  .dc.b 00 04 00 00 00 04 FF FF 00 00 00 00 00 00 00 00 ; ................
004BA6  .dc.b 00 00 00 00 00 00 00 00 00 00 00 00 00 00 00 00 ; ................
004BB6  .dc.b 00 00 00 00 00 00 00 00 00 00 00 00 00 00 00 00 ; ................
004BC6  .dc.b 00 00 00 00 00 00 00 00 00 00 00 00 00 00 00 00 ; ................
004BD6  .dc.b 00 00 00 00 00 00 00 00 00 01 09 68 00 01 09 92 ; ...........h....
004BE6  .dc.b 00 BC 01 C2 07 00 00 01 09 30 00 01 09 5A 00 BC ; .........0...Z..
004BF6  .dc.b 01 C2 07 00 00 01 09 A0 00 01 09 CA 00 BC 01 C2 ; ................
004C06  .dc.b 07 00 00 01 08 F8 00 01 09 22 00 BC 01 C2 07 00 ; ........."......
004C16  .dc.b 00 00 4C 1E 00 00 4C 2C 00 01 08 50 00 01 08 7A ; ..L...L,...P...z
004C26  .dc.b 00 BC 01 C2 07 00 00 01 08 88 00 01 08 B2 00 BC ; ................
004C36  .dc.b 01 C2 07 00 00 00 4C 5A 00 00 4C 68 00 00 4C 76 ; ......LZ..Lh..Lv
004C46  .dc.b 00 00 4C 84 00 00 4C 92 00 00 4C A0 00 00 4C AE ; ..L...L...L...L.
004C56  .dc.b 00 00 4C BC 00 01 17 E8 00 01 19 68 00 BA 08 03 ; ..L........h....
004C66  .dc.b 20 00 00 01 19 E8 00 01 1B 68 00 BA 08 03 20 00 ;  ........h.... .
004C76  .dc.b 00 01 1B E8 00 01 1D 68 00 BA 08 03 20 00 00 01 ; .......h.... ...
004C86  .dc.b 1D E8 00 01 1F 68 00 BA 08 03 20 00 00 01 1F E8 ; .....h.... .....
004C96  .dc.b 00 01 21 68 00 BA 08 03 20 00 00 01 21 E8 00 01 ; ..!h.... ...!...
004CA6  .dc.b 23 68 00 BA 08 03 20 00 00 01 23 E8 00 01 25 68 ; #h.... ...#...%h
004CB6  .dc.b 00 BA 08 03 20 00 00 01 25 E8 00 01 27 68 00 BA ; .... ...%...'h..
004CC6  .dc.b 08 03 20 00 00 00 51 56 00 00 51 64 00 00 51 72 ; .. ...QV..Qd..Qr
004CD6  .dc.b 00 00 51 80 00 00 51 8E 00 00 51 9C 00 00 51 AA ; ..Q...Q...Q...Q.
004CE6  .dc.b 00 00 51 B8 00 00 51 C6 00 00 51 D4 00 00 51 E2 ; ..Q...Q...Q...Q.
004CF6  .dc.b 00 00 51 F0 00 00 51 FE 00 00 52 0C 00 00 52 1A ; ..Q...Q...R...R.
004D06  .dc.b 00 00 52 28 00 00 52 36 00 00 52 44 00 00 52 52 ; ..R(..R6..RD..RR
004D16  .dc.b 00 00 52 66 00 00 52 7A 00 00 52 8E 00 00 52 A2 ; ..Rf..Rz..R...R.
004D26  .dc.b 00 00 52 B6 00 00 52 CA 00 00 52 DE 00 00 52 F2 ; ..R...R...R...R.
004D36  .dc.b 00 00 53 06 00 00 53 1A 00 00 53 2E 00 00 53 42 ; ..S...S...S...SB
004D46  .dc.b 00 00 53 56 00 00 53 86 00 00 53 94 00 00 53 A2 ; ..SV..S...S...S.
004D56  .dc.b FF E0 00 00 FF E3 FF F9 FF E4 FF F3 FF E6 FF EF ; ................
004D66  .dc.b FF E9 FF EA FF EE FF E5 FF F3 FF E4 FF F9 FF E2 ; ................
004D76  .dc.b 00 00 FF E0 00 07 FF E2 00 0D FF E4 00 12 FF E5 ; ................
004D86  .dc.b 00 17 FF EA 00 1A FF EF 00 1C FF F3 00 1D FF F9 ; ................
004D96  .dc.b 00 20 00 00 00 1D 00 07 00 1C 00 0D 00 1A 00 11 ; . ..............
004DA6  .dc.b 00 17 00 16 00 12 00 1B 00 0D 00 1C 00 07 00 1E ; ................
004DB6  .dc.b 00 00 00 20 FF F9 00 1E FF F3 00 1C FF EE 00 1B ; ... ............
004DC6  .dc.b FF E9 00 16 FF E6 00 11 FF E4 00 0D FF E3 00 07 ; ................
004DD6  .dc.b FF E0 FF FB FF E0 FF F5 FF E2 FF F0 FF E4 FF EB ; ................
004DE6  .dc.b FF E7 FF E7 FF EB FF E5 FF EE FF E3 FF F4 FF E2 ; ................
004DF6  .dc.b FF FA FF E2 FF FA FF E2 FF FC FF E3 FF FD FF E5 ; ................
004E06  .dc.b FF FB FF E8 FF FC FF EC FF FE FF F0 FF FF FF F5 ; ................
004E16  .dc.b FF FF FF FA FF FE FF FC FF FD FF FE FF FB FF FD ; ................
004E26  .dc.b FF FB FF FE FF FA FF FE FF FB FF FE FF FB FF FF ; ................
004E36  .dc.b FF F9 00 01 FF F4 FF FF FF F1 FF FF FF E9 00 00 ; ................
004E46  .dc.b FF E6 FF FE FF E3 FF FE FF E2 FF FD FF E1 FF FC ; ................
004E56  .dc.b 00 1B 00 07 00 10 00 07 00 05 00 07 00 1A 00 0A ; ................
004E66  .dc.b 00 10 00 08 00 07 00 06 00 18 00 0E 00 10 00 0A ; ................
004E76  .dc.b 00 08 00 07 00 17 00 12 00 0F 00 0C 00 09 00 07 ; ................
004E86  .dc.b 00 16 00 16 00 10 00 10 00 08 00 08 00 13 00 17 ; ................
004E96  .dc.b 00 0E 00 10 00 09 00 08 00 0F 00 17 00 0C 00 10 ; ................
004EA6  .dc.b 00 09 00 08 00 0A 00 19 00 09 00 11 00 07 00 08 ; ................
004EB6  .dc.b 00 06 00 1A 00 06 00 0F 00 06 00 06 00 07 00 18 ; ................
004EC6  .dc.b 00 08 00 10 00 0A 00 06 00 08 00 18 00 0B 00 0F ; ................
004ED6  .dc.b 00 0F 00 07 00 08 00 18 00 0E 00 11 00 12 00 09 ; ................
004EE6  .dc.b 00 07 00 16 00 0F 00 0F 00 15 00 09 00 09 00 11 ; ................
004EF6  .dc.b 00 10 00 0C 00 18 00 06 00 07 00 0F 00 10 00 0B ; ................
004F06  .dc.b 00 18 00 08 00 07 00 0B 00 10 00 09 00 19 00 07 ; ................
004F16  .dc.b 00 05 00 07 00 10 00 07 00 1B 00 07 00 07 00 06 ; ................
004F26  .dc.b 00 10 00 08 00 1A 00 0A 00 08 00 07 00 10 00 0A ; ................
004F36  .dc.b 00 18 00 0E 00 09 00 07 00 0F 00 0C 00 17 00 12 ; ................
004F46  .dc.b 00 08 00 08 00 10 00 10 00 16 00 16 00 09 00 08 ; ................
004F56  .dc.b 00 0E 00 10 00 13 00 17 00 09 00 08 00 17 00 10 ; ................
004F66  .dc.b 00 0F 00 17 00 07 00 08 00 09 00 11 00 0A 00 19 ; ................
004F76  .dc.b 00 06 00 06 00 06 00 0F 00 06 00 1A 00 0A 00 06 ; ................
004F86  .dc.b 00 08 00 10 00 07 00 18 00 0F 00 07 00 0B 00 0F ; ................
004F96  .dc.b 00 08 00 18 00 12 00 09 00 0E 00 11 00 08 00 18 ; ................
004FA6  .dc.b 00 15 00 09 00 0F 00 0F 00 07 00 16 00 18 00 06 ; ................
004FB6  .dc.b 00 10 00 0C 00 09 00 11 00 18 00 08 00 10 00 0B ; ................
004FC6  .dc.b 00 07 00 0F 00 19 00 07 00 10 00 09 00 07 00 0B ; ................
004FD6  .dc.b 00 00 4E 56 00 00 4E 62 00 00 4E 6E 00 00 4E 7A ; ..NV..Nb..Nn..Nz
004FE6  .dc.b 00 00 4E 86 00 00 4E 92 00 00 4E 9E 00 00 4E AA ; ..N...N...N...N.
004FF6  .dc.b 00 00 4E B6 00 00 4E C2 00 00 4E CE 00 00 4E DA ; ..N...N...N...N.
005006  .dc.b 00 00 4E E6 00 00 4E F2 00 00 4E FE 00 00 4F 0A ; ..N...N...N...O.
005016  .dc.b 00 00 4F 16 00 00 4F 22 00 00 4F 2E 00 00 4F 3A ; ..O...O"..O...O:
005026  .dc.b 00 00 4F 46 00 00 4F 52 00 00 4F 5E 00 00 4F 6A ; ..OF..OR..O^..Oj
005036  .dc.b 00 00 4F 76 00 00 4F 82 00 00 4F 8E 00 00 4F 9A ; ..Ov..O...O...O.
005046  .dc.b 00 00 4F A6 00 00 4F B2 00 00 4F BE 00 00 4F CA ; ..O...O...O...O.
005056  .dc.b FF F9 FF F7 FF F9 FF F7 FF FB FF F7 FF FA FF F7 ; ................
005066  .dc.b FF FA FF F9 FF F9 FF FA FF F6 FF FA FF F6 FF FB ; ................
005076  .dc.b FF F6 FF F9 FF F9 FF FB FF FC FF FB 00 00 FF F9 ; ................
005086  .dc.b 00 02 FF F9 00 04 FF F8 00 06 FF F8 00 05 FF F7 ; ................
005096  .dc.b 00 07 FF F7 00 05 FF F9 00 06 FF FC 00 04 00 00 ; ................
0050A6  .dc.b 00 02 00 04 00 00 00 07 FF FC 00 05 FF F9 00 05 ; ................
0050B6  .dc.b FF F6 00 07 FF F6 00 05 FF F6 00 05 FF F9 00 06 ; ................
0050C6  .dc.b FF FA 00 05 FF FA 00 00 FF FB FF FC FF F9 FF F7 ; ................
0050D6  .dc.b FF FB FF FE FF FC FF FC FF FC FF FC FF FD FF FC ; ................
0050E6  .dc.b FF FC FF FB FF FD FF FB FF FB FF FA FF FC FF F9 ; ................
0050F6  .dc.b FF FE FF F9 00 05 FF F9 00 09 FF FA 00 0F FF FB ; ................
005106  .dc.b 00 14 FF FB 00 13 FF FC 00 14 FF FC 00 14 FF FC ; ................
005116  .dc.b 00 15 FF FE 00 14 00 04 00 14 00 08 00 13 00 0C ; ................
005126  .dc.b 00 13 00 11 00 0F 00 14 00 08 00 14 00 04 00 15 ; ................
005136  .dc.b FF FE 00 16 FF FB 00 15 FF FC 00 14 FF FD 00 14 ; ................
005146  .dc.b FF FD 00 11 FF FD 00 0C FF FC 00 08 FF FC 00 04 ; ................
005156  .dc.b 00 01 27 E8 00 01 28 90 00 BA 03 83 0E 00 00 01 ; ..'...(.........
005166  .dc.b 28 C8 00 01 29 70 00 BA 03 83 0E 00 00 01 29 A8 ; (...)p........).
005176  .dc.b 00 01 2A 80 00 BA 04 83 12 00 00 01 2A C8 00 01 ; ..*.........*...
005186  .dc.b 2B A0 00 BA 04 83 12 00 00 01 2B E8 00 01 2C F0 ; +.........+...,.
005196  .dc.b 00 BA 05 83 16 00 00 01 2D 48 00 01 2E 50 00 BA ; ........-H...P..
0051A6  .dc.b 05 83 16 00 00 01 2E A8 00 01 2F D4 00 BA 06 43 ; ........../....C
0051B6  .dc.b 19 00 00 01 30 38 00 01 31 64 00 BA 06 43 19 00 ; ....08..1d...C..
0051C6  .dc.b 00 01 31 C8 00 01 33 30 00 BA 07 83 1E 00 00 01 ; ..1...30........
0051D6  .dc.b 33 A8 00 01 35 10 00 BA 07 83 1E 00 00 01 35 88 ; 3...5.........5.
0051E6  .dc.b 00 01 37 08 00 BA 08 03 20 00 00 01 37 88 00 01 ; ..7..... ...7...
0051F6  .dc.b 39 08 00 BA 08 03 20 00 00 01 39 88 00 01 3B 08 ; 9..... ...9...;.
005206  .dc.b 00 BA 08 03 20 00 00 01 3B 88 00 01 3D 08 00 BA ; .... ...;...=...
005216  .dc.b 08 03 20 00 00 01 3D 88 00 01 3F 08 00 BA 08 03 ; .. ...=...?.....
005226  .dc.b 20 00 00 01 3F 88 00 01 41 08 00 BA 08 03 20 00 ;  ...?...A..... .
005236  .dc.b 00 01 41 88 00 01 43 08 00 BA 08 03 20 00 00 01 ; ..A...C..... ...
005246  .dc.b 43 88 00 01 45 08 00 BA 08 03 20 00 00 01 3D 88 ; C...E..... ...=.
005256  .dc.b 00 01 3F 08 00 BA 08 03 20 01 FF F6 00 01 3F 84 ; ..?..... .....?.
005266  .dc.b 00 01 3F 88 00 01 41 08 00 BA 08 03 20 01 FF F6 ; ..?...A..... ...
005276  .dc.b 00 01 41 84 00 01 39 88 00 01 3B 08 00 BA 08 03 ; ..A...9...;.....
005286  .dc.b 20 01 FF F6 00 01 3B 84 00 01 3B 88 00 01 3D 08 ;  .....;...;...=.
005296  .dc.b 00 BA 08 03 20 01 FF F6 00 01 3D 84 00 01 35 88 ; .... .....=...5.
0052A6  .dc.b 00 01 37 08 00 BA 08 03 20 01 FF F6 00 01 37 84 ; ..7..... .....7.
0052B6  .dc.b 00 01 37 88 00 01 39 08 00 BA 08 03 20 01 FF F6 ; ..7...9..... ...
0052C6  .dc.b 00 01 39 84 00 01 31 C8 00 01 33 30 00 BA 07 83 ; ..9...1...30....
0052D6  .dc.b 1E 01 FF F6 00 01 33 A4 00 01 33 A8 00 01 35 10 ; ......3...3...5.
0052E6  .dc.b 00 BA 07 83 1E 01 FF F6 00 01 35 84 00 01 2E A8 ; ..........5.....
0052F6  .dc.b 00 01 2F D4 00 BA 06 43 19 01 FF F6 00 01 30 34 ; ../....C......04
005306  .dc.b 00 01 30 38 00 01 31 64 00 BA 06 43 19 01 FF F6 ; ..08..1d...C....
005316  .dc.b 00 01 31 C4 00 01 2B E8 00 01 2C F0 00 BA 05 83 ; ..1...+...,.....
005326  .dc.b 16 01 FF F6 00 01 2D 44 00 01 2D 48 00 01 2E 50 ; ......-D..-H...P
005336  .dc.b 00 BA 05 83 16 01 FF F6 00 01 2E A4 00 01 29 A8 ; ..............).
005346  .dc.b 00 01 2A 80 00 BA 04 83 12 01 FF F6 00 01 2A C4 ; ..*...........*.
005356  .dc.b 00 01 2A C8 00 01 2B A0 00 BA 04 83 12 01 FF F6 ; ..*...+.........
005366  .dc.b 00 01 2B E4 00 01 13 D8 00 01 14 38 00 BC 04 02 ; ..+........8....
005376  .dc.b 10 00 00 01 14 58 00 01 14 B8 00 BC 04 02 10 00 ; .....X..........
005386  .dc.b 00 01 45 88 00 01 47 08 00 BA 08 03 20 00 00 01 ; ..E...G..... ...
005396  .dc.b 47 88 00 01 49 08 00 BA 08 03 20 00 00 01 49 88 ; G...I..... ...I.
0053A6  .dc.b 00 01 4B 08 00 BA 08 03 20 00 FF F3 00 06 00 20 ; ..K..... ...... 
0053B6  .dc.b 00 06 FF F2 00 0F 00 21 00 0F FF F3 00 06 FF F4 ; .......!........
0053C6  .dc.b 00 06 FF F5 00 06 FF F6 00 06 FF F7 00 05 FF F8 ; ................
0053D6  .dc.b 00 05 FF F8 00 05 FF F9 00 06 FF F8 00 06 FF F8 ; ................
0053E6  .dc.b 00 06 FF F7 00 05 FF F6 00 05 FF F5 00 05 FF F4 ; ................
0053F6  .dc.b 00 05 00 20 00 06 00 1F 00 06 00 1E 00 06 00 1D ; ... ............
005406  .dc.b 00 05 00 1C 00 05 00 1B 00 05 00 1B 00 05 00 1A ; ................
005416  .dc.b 00 06 00 1B 00 06 00 1B 00 06 00 1C 00 05 00 1D ; ................
005426  .dc.b 00 05 00 1E 00 05 00 1F 00 05 FF F3 00 06 00 20 ; ............... 
005436  .dc.b 00 06 00 10 00 13 00 10 00 13 00 10 00 13 00 10 ; ................
005446  .dc.b 00 13 00 00 00 00 00 00 00 00 00 00 00 00 00 00 ; ................
005456  .dc.b 00 00 00 00 00 00 00 00 00 00 11 FC 00 0F 01 35 ; ...............5
005466  .dc.b 21 FC 00 00 72 D8 02 3E 21 FC 00 00 19 D0 02 42 ; !...r..>!......B
005476  .dc.b 31 FC 00 1E 02 46 11 FC 00 01 02 48 41 F9 00 00 ; 1....F.....HA...
005486  .dc.b 72 D8 70 1E 31 41 00 02 58 48 51 C8 FF F8 4E 75 ; r.p.1A..XHQ...Nu

; ==== sub_005496 (1 caller) ====
005496  53 38 54 51                   SUBQ.b #1,$5451.w
00549A  6A 04                         BPL $0054A0
00549C  42 38 54 51                   CLR.b $5451.w
0054A0  53 38 54 52                   SUBQ.b #1,$5452.w
0054A4  6A 0A                         BPL $0054B0
0054A6  42 38 54 52                   CLR.b $5452.w
0054AA  11 FC 00 01 54 4F             MOVE.b #$1,$544F.w
0054B0  53 38 59 4C                   SUBQ.b #1,$594C.w
0054B4  6A 04                         BPL $0054BA
0054B6  42 38 59 4C                   CLR.b $594C.w
0054BA  60 12                         BRA $0054CE

; ==== init_54BC  $0054BC  (2 callers) — Set the $544F flag and clear the 31-entry table at $9E54 (some per-level state array). ====
0054BC  42 38 54 51                   CLR.b $5451.w
0054C0  42 38 54 52                   CLR.b $5452.w
0054C4  42 38 59 4C                   CLR.b $594C.w
0054C8  11 FC 00 01 54 4F             MOVE.b #$1,$544F.w

; ==== sub_0054CE (2 callers) ====
0054CE  41 F9 00 00 9E 54             LEA $9E54.l,a0
0054D4  70 1E                         MOVEQ #$1E,d0
0054D6  42 50                         CLR.w (a0)
0054D8  5C 48                         ADDQ.w #6,a0
0054DA  51 C8 FF FA                   DBRA d0,$0054D6
0054DE  42 78 54 48                   CLR.w $5448.w
0054E2  41 F8 4A BA                   LEA $4ABA.w,a0
0054E6  70 13                         MOVEQ #$13,d0
0054E8  42 50                         CLR.w (a0)
0054EA  5C 48                         ADDQ.w #6,a0
0054EC  51 C8 FF FA                   DBRA d0,$0054E8
0054F0  41 F8 4B 9E                   LEA $4B9E.w,a0
0054F4  70 0F                         MOVEQ #$F,d0
0054F6  42 98                         CLR.l (a0)+
0054F8  51 C8 FF FC                   DBRA d0,$0054F6
0054FC  42 B9 00 00 9C 78             CLR.l $9C78.l
005502  42 B9 00 00 9A 98             CLR.l $9A98.l
005508  21 FC 00 00 9C 74 01 86       MOVE.l #$9C74,$186.w
005510  21 FC 00 00 9A 94 01 9E       MOVE.l #$9A94,$19E.w
005518  21 FC 00 00 9C 74 01 8A       MOVE.l #$9C74,$18A.w
005520  21 FC 00 00 9A 94 01 A2       MOVE.l #$9A94,$1A2.w
005528  51 F8 54 53                   SF $5453.w
00552C  51 F8 5A B2                   SF $5AB2.w
005530  51 F8 5B 9E                   SF $5B9E.w
005534  51 F8 59 4A                   SF $594A.w
005538  42 38 54 4D                   CLR.b $544D.w
00553C  42 38 54 4E                   CLR.b $544E.w
005540  42 78 01 EA                   CLR.w $1EA.w
005544  51 F8 02 29                   SF $229.w
005548  20 3C 00 00 73 84             MOVE.l #$7384,d0
00554E  41 F8 73 78                   LEA $7378.w,a0
005552  48 40                         SWAP d0
005554  31 40 00 02                   MOVE.w d0,$2(a0)
005558  48 40                         SWAP d0
00555A  31 40 00 06                   MOVE.w d0,$6(a0)
00555E  20 3C 00 00 73 B4             MOVE.l #$73B4,d0
005564  41 F8 73 A8                   LEA $73A8.w,a0
005568  48 40                         SWAP d0
00556A  31 40 00 02                   MOVE.w d0,$2(a0)
00556E  48 40                         SWAP d0
005570  31 40 00 06                   MOVE.w d0,$6(a0)
005574  4E 75                         RTS

; ==== sub_005576 (2 callers) ====
005576  4A 38 02 76                   TST.b $276.w
00557A  67 0C                         BEQ $005588
00557C  42 B8 01 E6                   CLR.l $1E6.w
005580  42 B8 01 EA                   CLR.l $1EA.w
005584  42 38 02 16                   CLR.b $216.w
005588  4A 38 01 E6                   TST.b $1E6.w
00558C  67 06                         BEQ $005594
00558E  42 38 01 E6                   CLR.b $1E6.w
005592  61 3C                         BSR $0055D0
005594  61 00 01 16                   BSR $0056AC
005598  61 00 03 C2                   BSR $00595C
00559C  61 00 05 52                   BSR $005AF0
0055A0  61 00 13 B4                   BSR $006956
0055A4  4A 38 54 4D                   TST.b $544D.w
0055A8  67 06                         BEQ $0055B0
0055AA  53 38 54 4D                   SUBQ.b #1,$544D.w
0055AE  61 3E                         BSR $0055EE
0055B0  61 00 07 12                   BSR $005CC4
0055B4  61 00 0A 32                   BSR $005FE8
0055B8  61 00 08 38                   BSR $005DF2
0055BC  61 00 08 DE                   BSR $005E9C
0055C0  4A 38 54 4E                   TST.b $544E.w
0055C4  67 08                         BEQ $0055CE
0055C6  61 00 00 7E                   BSR $005646
0055CA  52 38 54 4E                   ADDQ.b #1,$544E.w
0055CE  4E 75                         RTS

; ==== sub_0055D0 (1 caller) ====
0055D0  11 FC 00 02 54 4D             MOVE.b #$2,$544D.w
0055D6  10 39 00 00 54 4F             MOVE.b $544F.l,d0
0055DC  B0 3C 00 01                   CMP.b #$1,d0
0055E0  67 00 06 30                   BEQ $005C12
0055E4  B0 3C 00 02                   CMP.b #$2,d0
0055E8  67 00 05 BA                   BEQ $005BA4
0055EC  4E 75                         RTS

; ==== sub_0055EE (1 caller) ====
0055EE  4A 38 38 E8                   TST.b $38E8.w
0055F2  67 02                         BEQ $0055F6
0055F4  4E 75                         RTS
0055F6  4A 38 02 6C                   TST.b $26C.w
0055FA  66 06                         BNE $005602
0055FC  41 F8 48 30                   LEA $4830.w,a0
005600  60 04                         BRA $005606
005602  41 F8 48 3E                   LEA $483E.w,a0
005606  4C B8                         .dc.w $4CB8
005608  .dc.b 00 03 01 04 34 38 02 5C D4 42 D4 42 4B F8 53 B0 ; ....48.\.B.BK.S.
005618  .dc.b D0 75 20 00 D2 75 20 02 2D 7C FF FE FF FE 00 62 ; .u ..u .-|.....b
005628  .dc.b 2D 7C FF FF 00 00 00 44 22 78 02 0E 24 78 01 C2 ; -|.....D"x..$x..
005638  .dc.b 26 6A 00 14 28 78 74 F2 7A 30 60 00 09 F6       ; &j..(xt.z0`...

; ==== sub_005646 (1 caller) ====
005646  10 38 54 4E                   MOVE.b $544E.w,d0
00564A  C0 7C 00 0E                   AND.w #$E,d0
00564E  D0 40                         ADD.w d0,d0
005650  41 F8 4C 3A                   LEA $4C3A.w,a0
005654  20 70 00 00                   MOVEA.l $0(a0,d0.w),a0
005658  70 00                         MOVEQ #$0,d0
00565A  4C B8                         .dc.w $4CB8
00565C  .dc.b 00 03 54 5C 90 78 01 20 6B 3E B0 7C 01 50 6C 38 ; ..T\.x. k>.|.Pl8
00566C  .dc.b 92 78 01 22 6B 32 B2 7C 00 D4 6C 2C 48 B8 00 03 ; .x."k2.|..l,H...
00567C  .dc.b 54 5C 2D 7C FF FE FF FE 00 62 2D 7C FF FF 00 00 ; T\-|.....b-|....
00568C  .dc.b 00 44 22 78 02 0E 24 78 01 C2 26 6A 00 14 28 78 ; .D"x..$x..&j..(x
00569C  .dc.b 74 F2 7A 30 60 00 09 98 42 38 54 4E 4E 75 00 00 ; t.z0`...B8TNNu..

; ==== sub_0056AC (1 caller) ====
0056AC  0C 78 00 14 01 EA             CMPI.w #$14,$1EA.w
0056B2  6C 20                         BGE $0056D4
0056B4  4A 38 59 4A                   TST.b $594A.w
0056B8  67 14                         BEQ $0056CE
0056BA  0C 79 00 06 00 00 56 AA       CMPI.w #$6,$56AA.l
0056C2  6D 00 00 3C                   BLT $005700
0056C6  70 20                         MOVEQ #$20,d0
0056C8  4E B9 00 01 A2 DC             JSR $1A2DC.l
0056CE  51 F8 59 4A                   SF $594A.w
0056D2  4E 75                         RTS
0056D4  4A 38 59 4A                   TST.b $594A.w
0056D8  66 26                         BNE $005700
0056DA  42 79 00 00 56 AA             CLR.w $56AA.l
0056E0  4A 78 01 F0                   TST.w $1F0.w
0056E4  66 00 03 D4                   BNE $005ABA
0056E8  50 F8 59 4A                   ST $594A.w
0056EC  10 38 02 6C                   MOVE.b $26C.w,d0
0056F0  C0 7C 00 10                   AND.w #$10,d0
0056F4  11 C0 59 4B                   MOVE.b d0,$594B.w
0056F8  70 02                         MOVEQ #$2,d0
0056FA  4E B9 00 01 A2 DC             JSR $1A2DC.l
005700  52 78 56 AA                   ADDQ.w #1,$56AA.w
005704  16 38 59 4B                   MOVE.b $594B.w,d3
005708  C6 7C 00 1F                   AND.w #$1F,d3
00570C  D6 43                         ADD.w d3,d3
00570E  D6 43                         ADD.w d3,d3
005710  41 F8 4D 56                   LEA $4D56.w,a0
005714  2F 30 30 00                   MOVE.l $0(a0,d3.w),-(a7)
005718  21 F0 30 00 59 44             MOVE.l $0(a0,d3.w),$5944.w
00571E  70 00                         MOVEQ #$0,d0
005720  4C B8                         .dc.w $4CB8
005722  .dc.b 00 03 01 04 34 38 02 5C D4 42 D4 42 41 F8 53 B0 ; ....48.\.B.BA.S.
005732  .dc.b D0 70 20 00 D2 70 20 02 48 A7 C0 00 41 F8 4D D6 ; .p ..p .H...A.M.
005742  .dc.b D0 70 30 00 D2 70 30 02 4A 38 02 6C 66 04 D0 7C ; .p0..p0.J8.lf..|
005752  .dc.b 00 10 5E 41 48 B8 00 03 59 40 42 78 59 48 41 F8 ; ..^AH...Y@BxYHA.
005762  .dc.b 4F D6 20 70 30 00 21 D8 59 50 21 D8 59 54 21 D8 ; O. p0.!.YP!.YT!.
005772  .dc.b 59 58 D6 43 4B F8 4C CA C6 7C 00 7F DA C3 2D 7C ; YX.CK.L..|....-|
005782  .dc.b FF FE FF FE 00 62 2D 7C FF FF 00 00 00 44 22 78 ; .....b-|.....D"x
005792  .dc.b 02 0E 24 78 01 C2 26 6A 00 14 28 78 74 F2 7A 30 ; ..$x..&j..(xt.z0
0057A2  .dc.b 1E 38 59 4C CE 7C 00 07 54 47 3C 38 59 3E 20 75 ; .8YL.|..TG<8Y> u
0057B2  .dc.b 60 00 0A 46 00 04 48 A7 C0 00 61 00 08 7C 52 78 ; `..F..H...a..|Rx
0057C2  .dc.b 59 48 70 00 4C 97 00 03 D0 78 59 50 D2 78 59 52 ; YHp.L....xYP.xYR
0057D2  .dc.b 48 A7 C0 00 61 00 DD D6 66 34 58 4F 4C 97 00 03 ; H...a...f4XOL...
0057E2  .dc.b D0 78 59 54 D2 78 59 56 48 A7 C0 00 61 00 DD BE ; .xYT.xYVH...a...
0057F2  .dc.b 66 1C 58 4F 4C 97 00 03 D0 78 59 58 D2 78 59 5A ; f.XOL....xYX.xYZ
005802  .dc.b 48 A7 C0 00 61 00 DD A6 66 04 58 4F 60 56 4C 9F ; H...a...f.XO`VL.
005812  .dc.b 00 06 B0 3C 00 7F 66 14 61 00 0B 92 2D 7C FF FE ; ...<..f.a...-|..
005822  .dc.b FF FE 00 62 2D 7C FF FF 00 00 00 44 70 00 4C 9F ; ...b-|.....Dp.L.
005832  .dc.b 00 03 14 38 59 4B C4 7C 00 1F 41 F8 50 56 D4 42 ; ...8YK.|..A.PV.B
005842  .dc.b D4 42 D0 70 20 00 D2 70 20 02 41 F8 4D 4A 14 38 ; .B.p ..p .A.MJ.8
005852  .dc.b 59 4E C4 7C 00 0C 20 70 20 00 24 78 01 C2 61 00 ; YN.|.. p .$x..a.
005862  .dc.b 07 D8 60 5E 24 78 01 C2 4C 9F 00 03 D0 6F 00 04 ; ..`^$x..L....o..
005872  .dc.b 6B 00 00 9E D2 6F 00 06 6B 00 00 9A B0 7C 01 50 ; k....o..k....|.P
005882  .dc.b 6C 40 B2 7C 00 D4 6C 3A 51 CF FF 24 90 6F 00 04 ; l@.|..l:Q..$.o..
005892  .dc.b 92 6F 00 06 41 F8 50 D6 14 38 59 4B C4 7C 00 1F ; .o..A.P..8YK.|..
0058A2  .dc.b D4 42 D4 42 D0 70 20 00 D2 70 20 02 08 38 00 02 ; .B.B.p ..p ..8..
0058B2  .dc.b 59 4E 67 06 41 F8 53 78 60 04 41 F8 53 6A 61 00 ; YNg.A.Sx`.A.Sja.
0058C2  .dc.b 07 78 70 00 4C 9F 00 03 58 4F 4A 38 02 6C 67 04 ; .xp.L...XOJ8.lg.
0058D2  .dc.b 51 40 60 02 50 40 4A 78 59 3E 67 06 41 F8 53 6A ; Q@`.P@JxY>g.A.Sj
0058E2  .dc.b 60 04 41 F8 53 78 61 00 07 50 59 38 59 4E 6A 06 ; `.A.Sxa..PY8YNj.
0058F2  .dc.b 11 FC 00 08 59 4E 4A 38 59 4D 67 06 53 38 59 4D ; ....YNJ8YMg.S8YM
005902  .dc.b 4E 75 11 FC 00 02 59 4D 0A 78 00 04 59 3E 4E 75 ; Nu....YM.x..Y>Nu
005912  .dc.b D2 6F 00 06 B0 7C FF F0 6D A8 B2 7C FF F0 6D A2 ; .o...|..m..|..m.
005922  .dc.b 20 75 60 00 0A 46 00 04 48 A7 C0 00 61 00 07 0A ;  u`..F..H...a...
005932  .dc.b 52 78 59 48 70 00 4C 9F 00 03 60 86 00 00 00 00 ; RxYHp.L...`.....
005942  .dc.b 00 00 00 00 00 00 00 00 00 00 04 00 00 00 00 00 ; ................
005952  .dc.b 00 00 00 00 00 00 00 00 00 00                   ; ..........

; ==== sub_00595C (1 caller) ====
00595C  4A 38 5A B2                   TST.b $5AB2.w
005960  66 6C                         BNE $0059CE
005962  4A 38 59 4A                   TST.b $594A.w
005966  66 64                         BNE $0059CC
005968  10 38 02 16                   MOVE.b $216.w,d0
00596C  67 5E                         BEQ $0059CC
00596E  B0 3C 00 64                   CMP.b #$64,d0
005972  6D 58                         BLT $0059CC
005974  B0 3C 00 67                   CMP.b #$67,d0
005978  6E 52                         BGT $0059CC
00597A  42 38 02 16                   CLR.b $216.w
00597E  70 02                         MOVEQ #$2,d0
005980  61 00 1E D6                   BSR $007858
005984  6B 46                         BMI $0059CC
005986  70 05                         MOVEQ #$5,d0
005988  4E B9 00 01 A2 DC             JSR $1A2DC.l
00598E  50 F8 5A B2                   ST $5AB2.w
005992  51 F8 01 C7                   SF $1C7.w
005996  4C B8                         .dc.w $4CB8
005998  .dc.b 00 03 01 04 34 38 02 5C D4 42 D4 42 4B F8 53 B0 ; ....48.\.B.BK.S.
0059A8  .dc.b D0 75 20 00 D2 75 20 02 5A 41 48 B8 00 03 5A B4 ; .u ..u .ZAH...Z.
0059B8  .dc.b 11 FC 00 04 54 4D 70 08 4A 38 02 6C 66 02 44 40 ; ....TMp.J8.lf.D@
0059C8  .dc.b 31 C0 5A B8                                     ; 1.Z.
0059CC  4E 75                         RTS
0059CE  4A 38 01 C7                   TST.b $1C7.w
0059D2  66 00 00 CA                   BNE $005A9E
0059D6  4C B8                         .dc.w $4CB8
0059D8  .dc.b 00 03 5A B4 D0 78 5A B8 90 78 01 20 6B 50 B0 7C ; ..Z..xZ..x. kP.|
0059E8  .dc.b 01 50 6C 4A 92 78 01 22 6B 44 B2 7C 00 D4 6C 3E ; .PlJ.x."kD.|..l>
0059F8  .dc.b 48 B8 00 03 5A B4 61 00 DB AE 66 38 70 00 4C B8 ; H...Z.a...f8p.L.
005A08  .dc.b 00 03 5A B4 2D 7C FF FE FF FE 00 62 2D 7C FF FF ; ..Z.-|.....b-|..
005A18  .dc.b 00 00 00 44 22 78 02 0E 24 78 01 C2 26 6A 00 14 ; ...D"x..$x..&j..
005A28  .dc.b 28 78 74 F2 7A 30 41 F8 4C 08 60 00 06 06 51 F8 ; (xt.z0A.L.`...Q.
005A38  .dc.b 5A B2 4E 75 50 F8 01 C7 4C B8 00 03 5A B4 51 40 ; Z.NuP...L...Z.Q@
005A48  .dc.b 92 7C 00 10 48 B8 00 03 54 5C 11 FC 00 F0 54 4E ; .|..H...T\....TN
005A58  .dc.b 41 F9 00 00 72 D8 70 1E 31 7C 0F FF 00 02 58 48 ; A...r.p.1|....XH
005A68  .dc.b 51 C8 FF F6 50 F8 5A B3 11 FC 00 0F 01 35 21 FC ; Q...P.Z......5!.
005A78  .dc.b 00 00 72 D8 02 3E 21 FC 00 00 19 D0 02 42 31 FC ; ..r..>!......B1.
005A88  .dc.b 00 1E 02 46 11 FC 00 01 02 48 70 06 4E B9 00 01 ; ...F.....Hp.N...
005A98  .dc.b A2 DC 60 00 D3 92                               ; ..`...
005A9E  4A 38 01 35                   TST.b $135.w
005AA2  67 02                         BEQ $005AA6
005AA4  4E 75                         RTS
005AA6  51 F8 01 C7                   SF $1C7.w
005AAA  51 F8 5A B2                   SF $5AB2.w
005AAE  60 00 D3 BE                   BRA $002E6E
005AB2  .dc.b 00 00 00 00 00 00 00 00                         ; ........
005ABA  4A 38 5B 9E                   TST.b $5B9E.w
005ABE  66 2E                         BNE $005AEE
005AC0  70 03                         MOVEQ #$3,d0
005AC2  61 00 1D 94                   BSR $007858
005AC6  6B 00 00 26                   BMI $005AEE
005ACA  70 04                         MOVEQ #$4,d0
005ACC  4E B9 00 01 A2 DC             JSR $1A2DC.l
005AD2  4C B8                         .dc.w $4CB8
005AD4  .dc.b 00 03 01 04 50 40 D2 7C 00 1E 48 B8 00 03 5B A0 ; ....P@.|..H...[.
005AE4  .dc.b 11 FC 00 48 5B 9F 50 F8 5B 9E                   ; ...H[.P.[.
005AEE  4E 75                         RTS

; ==== sub_005AF0 (1 caller) ====
005AF0  4A 38 5B 9E                   TST.b $5B9E.w
005AF4  67 F8                         BEQ $005AEE
005AF6  4A 38 01 34                   TST.b $134.w
005AFA  66 00 00 8E                   BNE $005B8A
005AFE  53 38 5B 9F                   SUBQ.b #1,$5B9F.w
005B02  66 26                         BNE $005B2A
005B04  4C B8                         .dc.w $4CB8
005B06  .dc.b 00 03 5B A0 51 40 92 7C 00 0A 48 B8 00 03 54 5C ; ..[.Q@.|..H...T\
005B16  .dc.b 11 FC 00 F0 54 4E 50 F8 01 34 11 FC 00 14 5B 9F ; ....TNP..4....[.
005B26  .dc.b 60 00 D3 16                                     ; `...
005B2A  4C B8                         .dc.w $4CB8
005B2C  .dc.b 00 03 5B A0 90 78 01 20 6B 4E B0 7C 01 50 6C 48 ; ..[..x. kN.|.PlH
005B3C  .dc.b 92 78 01 22 6B 42 B2 7C 00 D4 6C 3C 48 B8 00 03 ; .x."kB.|..l<H...
005B4C  .dc.b 5B A0 41 F8 4C 16 14 38 5B 9F C4 7C 00 04 20 70 ; [.A.L..8[..|.. p
005B5C  .dc.b 20 00 2D 7C FF FE FF FE 00 62 2D 7C FF FF 00 00 ;  .-|.....b-|....
005B6C  .dc.b 00 44 22 78 02 0E 24 78 01 C2 26 6A 00 14 28 78 ; .D"x..$x..&j..(x
005B7C  .dc.b 74 F2 7A 30 60 00 04 B8 51 F8 5B 9E 4E 75       ; t.z0`...Q.[.Nu
005B8A  53 38 5B 9F                   SUBQ.b #1,$5B9F.w
005B8E  66 0C                         BNE $005B9C
005B90  51 F8 5B 9E                   SF $5B9E.w
005B94  51 F8 01 34                   SF $134.w
005B98  60 00 D2 D4                   BRA $002E6E
005B9C  4E 75                         RTS
005B9E  .dc.b 00 00 00 00 00 00                               ; ......
005BA4  4A 38 54 53                   TST.b $5453.w
005BA8  67 02                         BEQ $005BAC
005BAA  4E 75                         RTS
005BAC  70 01                         MOVEQ #$1,d0
005BAE  4E B9 00 01 A2 DC             JSR $1A2DC.l
005BB4  50 F8 54 53                   ST $5453.w
005BB8  4A 38 02 6C                   TST.b $26C.w
005BBC  67 08                         BEQ $005BC6
005BBE  31 FC 00 10 54 56             MOVE.w #$10,$5456.w
005BC4  60 06                         BRA $005BCC
005BC6  31 FC FF F0 54 56             MOVE.w #$FFF0,$5456.w
005BCC  4C B8                         .dc.w $4CB8
005BCE  .dc.b 00 03 01 04 34 38 02 5C D4 42 D4 42 41 F8 53 B0 ; ....48.\.B.BA.S.
005BDE  .dc.b D0 70 20 00 D2 70 20 02 5A 41 14 38 54 52 C4 7C ; .p ..p .ZA.8TR.|
005BEE  .dc.b 00 07 52 42 E7 4A 76 20 4A 78 54 56 6A 04 44 42 ; ..RB.Jv JxTVj.DB
005BFE  .dc.b 44 43 90 42 90 43 48 B8 00 03 54 58 11 FC 00 03 ; DC.B.CH...TX....
005C0E  .dc.b 54 55 4E 75                                     ; TUNu
005C12  10 38 54 51                   MOVE.b $5451.w,d0
005C16  C0 7C 00 03                   AND.w #$3,d0
005C1A  4A 38 02 52                   TST.b $252.w
005C1E  67 08                         BEQ $005C28
005C20  B0 7C 00 01                   CMP.w #$1,d0
005C24  6F 02                         BLE $005C28
005C26  70 01                         MOVEQ #$1,d0
005C28  41 F8 5D C0                   LEA $5DC0.w,a0
005C2C  D0 40                         ADD.w d0,d0
005C2E  3F 00                         MOVE.w d0,-(a7)
005C30  30 30 00 00                   MOVE.w $0(a0,d0.w),d0
005C34  4E B9 00 01 A2 DC             JSR $1A2DC.l
005C3A  30 1F                         MOVE.w (a7)+,d0
005C3C  41 F8 5D B0                   LEA $5DB0.w,a0
005C40  D0 40                         ADD.w d0,d0
005C42  36 30 00 02                   MOVE.w $2(a0,d0.w),d3
005C46  30 30 00 00                   MOVE.w $0(a0,d0.w),d0
005C4A  72 0E                         MOVEQ #$E,d1
005C4C  4A 38 02 52                   TST.b $252.w
005C50  67 02                         BEQ $005C54
005C52  72 05                         MOVEQ #$5,d1
005C54  92 43                         SUB.w d3,d1
005C56  B2 78 54 48                   CMP.w $5448.w,d1
005C5A  6C 02                         BGE $005C5E
005C5C  4E 75                         RTS
005C5E  4A 38 02 6C                   TST.b $26C.w
005C62  67 02                         BEQ $005C66
005C64  5A 40                         ADDQ.w #5,d0
005C66  4C B8                         .dc.w $4CB8
005C68  .dc.b 00 06 01 04 38 38 02 5C D8 44 D8 44 4B F8 53 B0 ; ....88.\.D.DK.S.
005C78  .dc.b D2 75 40 00 D4 75 40 02 5A 42 4A 38 02 6C 66 04 ; .u@..u@.ZBJ8.lf.
005C88  .dc.b 50 41 60 02 51 41 41 F9 00 00 9E 54 78 0E 61 00 ; PA`.QAA....Tx.a.
005C98  .dc.b 00 0A 52 40 51 CB FF F8 4E 75 4A 50 66 12 48 90 ; ..R@Q...NuJPf.H.
005CA8  .dc.b 00 07 5C 48 52 79 00 00 54 48 53 44 6B 08 4E 75 ; ..\HRy..THSDk.Nu
005CB8  .dc.b 5C 48 51 CC FF E6 5D 48 78 00 4E 75             ; \HQ...]Hx.Nu

; ==== sub_005CC4 (1 caller) ====
005CC4  4B F9 00 00 9E 54             LEA $9E54.l,a5
005CCA  3E 38 54 48                   MOVE.w $5448.w,d7
005CCE  53 47                         SUBQ.w #1,d7
005CD0  6A 02                         BPL $005CD4
005CD2  4E 75                         RTS
005CD4  49 F8 5D C6                   LEA $5DC6.w,a4
005CD8  34 15                         MOVE.w (a5),d2
005CDA  66 04                         BNE $005CE0
005CDC  5C 4D                         ADDQ.w #6,a5
005CDE  60 F8                         BRA $005CD8
005CE0  6A 30                         BPL $005D12
005CE2  4C AD                         .dc.w $4CAD
005CE4  .dc.b 00 03 00 02 90 78 01 20 6B 6E 92 78 01 22 6B 68 ; .....x. kn.x."kh
005CF4  .dc.b B0 7C 01 50 6E 62 B2 7C 00 D4 6E 5C 48 AD 00 03 ; .|.Pnb.|..n\H...
005D04  .dc.b 00 02 52 55 67 52 0C 55 FF F6 67 4C 60 42       ; ..RUgR.U..gL`B
005D12  4C AD                         .dc.w $4CAD
005D14  .dc.b 00 03 00 02 3F 02 61 00 D8 92 66 00 00 44 34 1F ; ....?.a...f..D4.
005D24  .dc.b D4 42 D4 42 4C AD 00 03 00 02 D0 74 20 00 90 78 ; .B.BL......t ..x
005D34  .dc.b 01 20 6B 24 D2 74 20 02 92 78 01 22 6B 1A B0 7C ; . k$.t ..x."k..|
005D44  .dc.b 01 50 6E 14 B2 7C 00 D4 6E 0E 48 AD 00 03 00 02 ; .Pn..|..n.H.....
005D54  .dc.b 5C 4D 51 CF FF 80 4E 75 42 55 53 78 54 48 60 F0 ; \MQ...NuBUSxTH`.
005D64  .dc.b 54 4F 4C AD 00 06 00 02 B0 3C 00 7F 66 2C 61 00 ; TOL......<..f,a.
005D74  .dc.b 06 3A 3A BC FF EC 4C AD 00 03 00 02 4C B8 00 0C ; .::...L.....L...
005D84  .dc.b 01 72 90 42 92 43 C0 7C FF F0 C2 7C FF F0 D0 42 ; .r.B.C.|...|...B
005D94  .dc.b D2 43 48 AD 00 03 00 02 60 B6 3A BC FF F6 59 6D ; .CH.....`.:...Ym
005DA4  .dc.b 00 02 6B B4 5D 6D 00 04 6B AE 60 A4 00 03 00 00 ; ..k.]m..k.`.....
005DB4  .dc.b 00 02 00 02 00 01 00 04 00 01 00 04 00 00 00 1D ; ................
005DC4  .dc.b 00 1E 00 00 00 00 FF F8 FF FC FF F8 FF FE FF F8 ; ................
005DD4  .dc.b 00 00 FF F8 00 02 FF F8 00 04 00 08 FF FC 00 08 ; ................
005DE4  .dc.b FF FE 00 08 00 00 00 08 00 02 00 08 00 04       ; ..............

; ==== sub_005DF2 (1 caller) ====
005DF2  4A 38 54 53                   TST.b $5453.w
005DF6  66 02                         BNE $005DFA
005DF8  4E 75                         RTS
005DFA  4C B8                         .dc.w $4CB8
005DFC  .dc.b 00 03 54 58 14 38 54 52 C4 7C 00 07 52 42 E7 4A ; ..TX.8TR.|..RB.J
005E0C  .dc.b D4 7C 00 10 4A 78 54 56 6A 02 44 42 D0 42 90 78 ; .|..JxTVj.DB.B.x
005E1C  .dc.b 01 20 6B 1A 92 78 01 22 6B 14 B0 7C 01 50 6C 0E ; . k..x."k..|.Pl.
005E2C  .dc.b B2 7C 00 D4 6C 08 48 B8 00 03 54 58 4E 75 51 F8 ; .|..l.H...TXNuQ.
005E3C  .dc.b 54 53 4E 75                                     ; TSNu

; ==== blit_objects  $005E40  (4 callers) — Sibling blit routine (same BLTCON0=$9F0 setup, a different list slot $10(a1) of the $1C2 structure) — draws the object/sprite layer. ====
005E40  3D 7C 09 F0 00 40             MOVE.w #$9F0,$40(a6)
005E46  42 6E 00 42                   CLR.w $42(a6)
005E4A  2D 7C FF FF FF FF 00 44       MOVE.l #$FFFFFFFF,$44(a6)
005E52  22 78 01 C2                   MOVEA.l $1C2.w,a1
005E56  24 69 00 10                   MOVEA.l $10(a1),a2
005E5A  20 29 00 0C                   MOVE.l $C(a1),d0
005E5E  32 3C 00 90                   MOVE.w #$90,d1
005E62  23 4A 00 14                   MOVE.l a2,$14(a1)
005E66  4A 6A 00 04                   TST.w $4(a2)
005E6A  67 26                         BEQ $005E92
005E6C  24 1A                         MOVE.l (a2)+,d2
005E6E  2D 42 00 54                   MOVE.l d2,$54(a6)
005E72  D4 80                         ADD.l d0,d2
005E74  2D 42 00 50                   MOVE.l d2,$50(a6)
005E78  4C 9A                         .dc.w $4C9A
005E7A  .dc.b 00 0C 94 41 3D 42 00 64 3D 42 00 66 D6 43 D6 43 ; ...A=B.d=B.f.C.C
005E8A  .dc.b E4 0B 3D 43 00 58 60 D4                         ; ..=C.X`.
005E92  24 69 00 10                   MOVEA.l $10(a1),a2
005E96  42 6A 00 04                   CLR.w $4(a2)
005E9A  4E 75                         RTS

; ==== sub_005E9C (1 caller) ====
005E9C  4A 38 54 53                   TST.b $5453.w
005EA0  66 02                         BNE $005EA4
005EA2  4E 75                         RTS
005EA4  2D 7C FF FE FF FE 00 62       MOVE.l #$FFFEFFFE,$62(a6)
005EAC  2D 7C FF FF 00 00 00 44       MOVE.l #$FFFF0000,$44(a6)
005EB4  22 78 02 0E                   MOVEA.l $20E.w,a1
005EB8  24 78 01 C2                   MOVEA.l $1C2.w,a2
005EBC  26 6A 00 14                   MOVEA.l $14(a2),a3
005EC0  28 78 74 F2                   MOVEA.l $74F2.w,a4
005EC4  7A 30                         MOVEQ #$30,d5
005EC6  1E 38 54 52                   MOVE.b $5452.w,d7
005ECA  CE 7C 00 07                   AND.w #$7,d7
005ECE  3C 38 54 56                   MOVE.w $5456.w,d6
005ED2  6B 0A                         BMI $005EDE
005ED4  41 F8 4B EC                   LEA $4BEC.w,a0
005ED8  4B F8 4B FA                   LEA $4BFA.w,a5
005EDC  60 08                         BRA $005EE6
005EDE  41 F8 4B FA                   LEA $4BFA.w,a0
005EE2  4B F8 4B EC                   LEA $4BEC.w,a5
005EE6  50 F8 54 54                   ST $5454.w
005EEA  4C B8                         .dc.w $4CB8
005EEC  .dc.b 00 03 54 58 61 00 00 30 41 F8 4B DE 53 47 6B 00 ; ..TXa..0A.K.SGk.
005EFC  .dc.b 00 14 D0 46 6B 1E B0 7C 01 50 6C 18 61 00 00 18 ; ...Fk..|.Pl.a...
005F0C  .dc.b 51 CF FF F0 20 4D D0 46 6B 0A B0 7C 01 50 6C 04 ; Q... M.Fk..|.Pl.
005F1C  .dc.b 60 00 00 04 4E 75 48 A7 C0 00 58 41 61 00 D6 84 ; `...NuH...XAa...
005F2C  .dc.b 66 1C 10 32 10 01 66 4A 4C 97 00 03 24 78 01 C2 ; f..2..fJL...$x..
005F3C  .dc.b 61 00 00 FC 51 F8 54 54 4C 9F 00 03 4E 75 B0 3C ; a...Q.TTL...Nu.<
005F4C  .dc.b 00 7F 66 22 48 F8 3F FE 5F A8 4C 97 00 06 4A 38 ; ..f"H.?._.L...J8
005F5C  .dc.b 54 55 67 16 53 38 54 55 58 42 61 00 04 46 4C F8 ; TUg.S8TUXBa..FL.
005F6C  .dc.b 3F FE 5F A8 60 BC 4A 38 54 54 57 F8 54 53 50 4F ; ?._.`.J8TTW.TSPO
005F7C  .dc.b 4E 75 B0 3C 00 7F 66 EE 48 F8 3F FE 5F A8 4C 97 ; Nu.<..f.H.?._.L.
005F8C  .dc.b 00 06 50 41 4A 38 54 55 67 E0 53 38 54 55 58 42 ; ..PAJ8TUg.S8TUXB
005F9C  .dc.b 61 00 04 10 4C F8 3F FE 5F A8 60 8C 00 00 00 00 ; a...L.?._.`.....
005FAC  .dc.b 00 00 00 00 00 00 00 00 00 00 00 00 00 00 00 00 ; ................
005FBC  .dc.b 00 00 00 00 00 00 00 00 00 00 00 00 00 00 00 00 ; ................
005FCC  .dc.b 00 00 00 00 00 00 00 00 00 00 00 00 00 00 00 00 ; ................
005FDC  .dc.b 00 00 00 00 00 00 00 00 00 00 00 00             ; ............

; ==== sub_005FE8 (1 caller) ====
005FE8  4B F9 00 00 9E 54             LEA $9E54.l,a5
005FEE  3E 38 54 48                   MOVE.w $5448.w,d7
005FF2  53 47                         SUBQ.w #1,d7
005FF4  6A 02                         BPL $005FF8
005FF6  4E 75                         RTS
005FF8  2D 7C FF FE FF FE 00 62       MOVE.l #$FFFEFFFE,$62(a6)
006000  2D 7C FF FF 00 00 00 44       MOVE.l #$FFFF0000,$44(a6)
006008  22 78 02 0E                   MOVEA.l $20E.w,a1
00600C  24 78 01 C2                   MOVEA.l $1C2.w,a2
006010  26 6A 00 14                   MOVEA.l $14(a2),a3
006014  28 78 74 F2                   MOVEA.l $74F2.w,a4
006018  7A 30                         MOVEQ #$30,d5
00601A  34 15                         MOVE.w (a5),d2
00601C  66 04                         BNE $006022
00601E  5C 4D                         ADDQ.w #6,a5
006020  60 F8                         BRA $00601A
006022  E9 4A                         LSL.w #4,d2
006024  41 F8 49 8C                   LEA $498C.w,a0
006028  D0 C2                         ADDA.w d2,a0
00602A  4C AD                         .dc.w $4CAD
00602C  .dc.b 00 03 00 02 61 08 5C 4D 51 CF FF E4 4E 75 90 78 ; ....a.\MQ...Nu.x
00603C  .dc.b 01 72 D0 7C 00 40 48 C0 6B F2 92 78 01 74 C2 7C ; .r.|.@H.k..x.t.|
00604C  .dc.b 00 FF 92 78 01 C0 C2 7C 00 FF E8 98 34 01 D4 42 ; ...x...|....4..B
00605C  .dc.b D0 71 20 00 59 40 6B D4 38 02 48 40 3D 40 00 42 ; .q .Y@k.8.H@=@.B
00606C  .dc.b 80 7C 0F CA 3D 40 00 40 42 40 48 40 D0 40 D0 AA ; .|..=@.@B@H@.@..
00607C  .dc.b 00 04 4A 28 00 0D 66 00 01 7E 34 28 00 08 3D 42 ; ..J(..f..~4(..=B
00608C  .dc.b 00 60 3D 42 00 66 36 28 00 0A D2 28 00 0C 65 70 ; .`=B.f6(...(..ep
00609C  .dc.b 26 C0 36 C2 36 C3 24 00 2D 50 00 4C 22 28 00 04 ; &.6.6.$.-P.L"(..
0060AC  .dc.b 48 EE 00 06 00 50 2D 42 00 48 3D 43 00 58 08 2E ; H....P-B.H=C.X..
0060BC  .dc.b 00 0E 00 02 66 F8 D4 85 48 EE 00 06 00 50 2D 42 ; ....f...H....P-B
0060CC  .dc.b 00 48 3D 43 00 58 08 2E 00 0E 00 02 66 F8 D4 85 ; .H=C.X......f...
0060DC  .dc.b 48 EE 00 06 00 50 2D 42 00 48 3D 43 00 58 08 2E ; H....P-B.H=C.X..
0060EC  .dc.b 00 0E 00 02 66 F8 D4 85 48 EE 00 06 00 50 2D 42 ; ....f...H....P-B
0060FC  .dc.b 00 48 3D 43 00 58 25 4B 00 14 42 6B 00 04 4E 75 ; .H=C.X%K..Bk..Nu
00610C  .dc.b 67 8E 37 42 00 04 37 42 00 0C 48 C4 38 31 40 00 ; g.7B..7B..H.81@.
00611C  .dc.b D8 44 24 00 90 84 D2 41 32 34 10 00 96 41 38 03 ; .D$....A24...A8.
00612C  .dc.b C8 7C 00 3F 88 41 26 82 37 43 00 06 27 40 00 08 ; .|.?.A&.7C..'@..
00613C  .dc.b 37 44 00 0E D6 FC 00 10 2D 50 00 4C 22 28 00 04 ; 7D......-P.L"(..
00614C  .dc.b 48 EE 00 06 00 50 2D 42 00 48 3D 43 00 58 08 2E ; H....P-B.H=C.X..
00615C  .dc.b 00 0E 00 02 66 F8 2D 40 00 48 2D 40 00 54 3D 44 ; ....f.-@.H-@.T=D
00616C  .dc.b 00 58 08 2E 00 0E 00 02 66 F8 D0 85 D4 85 48 EE ; .X......f.....H.
00617C  .dc.b 00 06 00 50 2D 42 00 48 3D 43 00 58 08 2E 00 0E ; ...P-B.H=C.X....
00618C  .dc.b 00 02 66 F8 2D 40 00 48 2D 40 00 54 3D 44 00 58 ; ..f.-@.H-@.T=D.X
00619C  .dc.b 08 2E 00 0E 00 02 66 F8 D0 85 D4 85 48 EE 00 06 ; ......f.....H...
0061AC  .dc.b 00 50 2D 42 00 48 3D 43 00 58 08 2E 00 0E 00 02 ; .P-B.H=C.X......
0061BC  .dc.b 66 F8 2D 40 00 48 2D 40 00 54 3D 44 00 58 08 2E ; f.-@.H-@.T=D.X..
0061CC  .dc.b 00 0E 00 02 66 F8 D0 85 D4 85 48 EE 00 06 00 50 ; ....f.....H....P
0061DC  .dc.b 2D 42 00 48 3D 43 00 58 08 2E 00 0E 00 02 66 F8 ; -B.H=C.X......f.
0061EC  .dc.b 2D 40 00 48 2D 40 00 54 3D 44 00 58 25 4B 00 14 ; -@.H-@.T=D.X%K..
0061FC  .dc.b 42 6B 00 04 4E 75 34 28 00 08 3D 42 00 60 3D 42 ; Bk..Nu4(..=B.`=B
00620C  .dc.b 00 66 36 28 00 0E 3D 43 00 62 3D 43 00 64 36 28 ; .f6(..=C.b=C.d6(
00621C  .dc.b 00 0A D2 28 00 0C 65 7E 26 C0 36 C2 36 C3 D0 BC ; ...(..e~&.6.6...
00622C  .dc.b 00 00 00 90 24 00 22 28 00 10 2D 41 00 4C 48 EE ; ....$."(..-A.LH.
00623C  .dc.b 00 06 00 50 2D 42 00 48 3D 43 00 58 08 2E 00 0E ; ...P-B.H=C.X....
00624C  .dc.b 00 02 66 F8 94 85 48 EE 00 06 00 50 2D 42 00 48 ; ..f...H....P-B.H
00625C  .dc.b 3D 43 00 58 08 2E 00 0E 00 02 66 F8 94 85 48 EE ; =C.X......f...H.
00626C  .dc.b 00 06 00 50 2D 42 00 48 3D 43 00 58 08 2E 00 0E ; ...P-B.H=C.X....
00627C  .dc.b 00 02 66 F8 94 85 48 EE 00 06 00 50 2D 42 00 48 ; ..f...H....P-B.H
00628C  .dc.b 3D 43 00 58 25 4B 00 14 42 6B 00 04 2D 7C FF FE ; =C.X%K..Bk..-|..
00629C  .dc.b FF FE 00 62 4E 75 67 80 37 42 00 04 37 42 00 0C ; ...bNug.7B..7B..
0062AC  .dc.b 48 C4 38 31 40 00 D8 44 24 00 90 84 D2 41 32 34 ; H.81@..D$....A24
0062BC  .dc.b 10 00 96 41 38 03 C8 7C 00 3F 88 41 26 82 37 43 ; ...A8..|.?.A&.7C
0062CC  .dc.b 00 06 27 40 00 08 37 44 00 0E D6 FC 00 10 D0 BC ; ..'@..7D........
0062DC  .dc.b 00 00 00 90 D4 BC 00 00 00 90 22 28 00 10 2D 41 ; .........."(..-A
0062EC  .dc.b 00 4C 48 EE 00 06 00 50 2D 42 00 48 3D 43 00 58 ; .LH....P-B.H=C.X
0062FC  .dc.b 08 2E 00 0E 00 02 66 F8 2D 40 00 48 2D 40 00 54 ; ......f.-@.H-@.T
00630C  .dc.b 3D 44 00 58 08 2E 00 0E 00 02 66 F8 90 85 94 85 ; =D.X......f.....
00631C  .dc.b 48 EE 00 06 00 50 2D 42 00 48 3D 43 00 58 08 2E ; H....P-B.H=C.X..
00632C  .dc.b 00 0E 00 02 66 F8 2D 40 00 48 2D 40 00 54 3D 44 ; ....f.-@.H-@.T=D
00633C  .dc.b 00 58 08 2E 00 0E 00 02 66 F8 90 85 94 85 48 EE ; .X......f.....H.
00634C  .dc.b 00 06 00 50 2D 42 00 48 3D 43 00 58 08 2E 00 0E ; ...P-B.H=C.X....
00635C  .dc.b 00 02 66 F8 2D 40 00 48 2D 40 00 54 3D 44 00 58 ; ..f.-@.H-@.T=D.X
00636C  .dc.b 08 2E 00 0E 00 02 66 F8 90 85 94 85 48 EE 00 06 ; ......f.....H...
00637C  .dc.b 00 50 2D 42 00 48 3D 43 00 58 08 2E 00 0E 00 02 ; .P-B.H=C.X......
00638C  .dc.b 66 F8 2D 40 00 48 2D 40 00 54 3D 44 00 58 25 4B ; f.-@.H-@.T=D.X%K
00639C  .dc.b 00 14 42 6B 00 04 2D 7C FF FE FF FE 00 62 4E 75 ; ..Bk..-|.....bNu
0063AC  .dc.b 4E 75 92 78 01 72 6B F8 94 78 01 74 6B F2 C2 BC ; Nu.x.rk..x.tk...
0063BC  .dc.b 00 00 FF F0 C4 7C 00 F0 48 A7 60 00 94 78 01 C0 ; .....|..H.`..x..
0063CC  .dc.b C4 7C 00 F0 D4 42 48 A7 60 00 E8 49 20 78 02 0E ; .|...BH.`..I x..
0063DC  .dc.b D2 70 20 00 D2 81 D2 B8 01 7A 20 78 35 D8 24 10 ; .p ......z x5.$.
0063EC  .dc.b 30 2F 00 04 08 00 00 04 67 02 54 82 30 2F 00 06 ; 0/......g.T.0/..
0063FC  .dc.b 08 00 00 04 67 06 D4 BC 00 00 01 00 3D 7C 09 F0 ; ....g.......=|..
00640C  .dc.b 00 40 42 6E 00 42 2D 7C FF FF FF FF 00 44 3D 7C ; .@Bn.B-|.....D=|
00641C  .dc.b 00 2E 00 66 3D 7C 00 02 00 64 2D 42 00 50 2D 41 ; ...f=|...d-B.P-A
00642C  .dc.b 00 54 3D 7C 10 01 00 58 D2 BC 00 00 C0 00 08 2E ; .T=|...X........
00643C  .dc.b 00 0E 00 02 66 F8 2D 42 00 50 2D 41 00 54 3D 7C ; ....f.-B.P-A.T=|
00644C  .dc.b 10 01 00 58 D2 BC 00 00 C0 00 08 2E 00 0E 00 02 ; ...X............
00645C  .dc.b 66 F8 2D 42 00 50 2D 41 00 54 3D 7C 10 01 00 58 ; f.-B.P-A.T=|...X
00646C  .dc.b 4C 9F 00 03 34 01 D4 42 D2 42 E6 48 D2 40 20 78 ; L...4..B.B.H.@ x
00647C  .dc.b 02 12 42 30 10 00 42 30 10 01 42 30 10 30 42 30 ; ..B0..B0..B0.0B0
00648C  .dc.b 10 31 4C 9F 00 03 EA 48 D0 78 01 F6 D0 40 EA 49 ; .1L....H.x...@.I
00649C  .dc.b D2 78 01 F8 20 78 02 2E D2 70 00 00 20 78 02 2A ; .x.. x...p.. x.*
0064AC  .dc.b 42 30 10 00 70 19 4E F9 00 01 A2 DC             ; B0..p.N.....

; ==== sub_0064B8 (4 callers) ====
0064B8  4A B8 02 36                   TST.l $236.w
0064BC  66 02                         BNE $0064C0
0064BE  4E 75                         RTS
0064C0  3E 38 54 48                   MOVE.w $5448.w,d7
0064C4  53 47                         SUBQ.w #1,d7
0064C6  6B 00 00 96                   BMI $00655E
0064CA  2A 78 02 36                   MOVEA.l $236.w,a5
0064CE  4A 2D 00 1F                   TST.b $1F(a5)
0064D2  66 00 00 7C                   BNE $006550
0064D6  4A 2D 00 1E                   TST.b $1E(a5)
0064DA  6B 00 00 74                   BMI $006550
0064DE  28 6D 00 08                   MOVEA.l $8(a5),a4
0064E2  34 2D 00 0C                   MOVE.w $C(a5),d2
0064E6  E7 4A                         LSL.w #3,d2
0064E8  D8 C2                         ADDA.w d2,a4
0064EA  4C AD                         .dc.w $4CAD
0064EC  .dc.b 00 03 00 18 D0 5C D2 5C 34 00 36 01 D4 5C D6 54 ; .....\.\4.6..\.T
0064FC  .dc.b 3C 07 41 F9 00 00 9E 54 4A 50 66 04 5C 48 60 F8 ; <.A....TJPf.\H`.
00650C  .dc.b 6B 3C 4C A8 00 30 00 02 B4 44 6D 32 B6 45 6D 2E ; k<L..0...Dm2.Em.
00651C  .dc.b 50 44 5C 45 B0 44 6E 26 B2 45 6E 22 52 2D 00 1D ; PD\E.Dn&.En"R-..
00652C  .dc.b 42 50 4A 38 01 5C 67 0E 30 BC FF F6 59 68 00 02 ; BPJ8.\g.0...Yh..
00653C  .dc.b 5D 68 00 04 60 08 53 79 00 00 54 48 67 14 5C 48 ; ]h..`.Sy..THg.\H
00654C  .dc.b 51 CE FF B6                                     ; Q...
006550  4A AD 00 00                   TST.l $0(a5)
006554  67 08                         BEQ $00655E
006556  2A 6D 00 00                   MOVEA.l $0(a5),a5
00655A  60 00 FF 72                   BRA $0064CE
00655E  4A 39 00 00 54 53             TST.b $5453.l
006564  67 00 00 7E                   BEQ $0065E4
006568  4C B8                         .dc.w $4CB8
00656A  .dc.b 00 03 54 58 36 01 D6 7C 00 06 18 38 54 52 C8 7C ; ..TX6..|...8TR.|
00657A  .dc.b 00 07 54 44 E9 4C 4A 78 54 56 6A 0A D0 7C 00 10 ; ..TD.LJxTVj..|..
00658A  .dc.b 34 00 90 44 60 04 34 00 D4 44 2A 78 02 36 4A 2D ; 4..D`.4..D*x.6J-
00659A  .dc.b 00 1F 66 00 00 3A 4A 2D 00 1E 6B 00 00 32 4C AD ; ..f..:J-..k..2L.
0065AA  .dc.b 00 30 00 18 28 6D 00 08 3C 2D 00 0C E7 4E D8 C6 ; .0..(m..<-...N..
0065BA  .dc.b D8 5C B4 44 6D 18 DA 5C B6 45 6D 12 D8 5C B0 44 ; .\.Dm..\.Em..\.D
0065CA  .dc.b 6E 0C DA 5C B2 45 6E 06 06 2D 00 06 00 1D 4A AD ; n..\.En..-....J.
0065DA  .dc.b 00 00 67 06 2A 6D 00 00 60 B4                   ; ..g.*m..`.
0065E4  4A 38 01 5C                   TST.b $15C.w
0065E8  67 30                         BEQ $00661A
0065EA  4A 38 5A B2                   TST.b $5AB2.w
0065EE  67 2A                         BEQ $00661A
0065F0  4A 38 01 C7                   TST.b $1C7.w
0065F4  66 24                         BNE $00661A
0065F6  4C B8                         .dc.w $4CB8
0065F8  .dc.b 00 30 5A B4 4C B8 00 0F 01 6A B4 44 6D 14 B6 45 ; .0Z.L....j.Dm..E
006608  .dc.b 6D 10 5C 44 5C 45 B0 44 6E 08 B2 45 6E 04 61 00 ; m.\D\E.Dn..En.a.
006618  .dc.b F4 24                                           ; .$
00661A  4A 38 5A B2                   TST.b $5AB2.w
00661E  67 00 00 74                   BEQ $006694
006622  4A 38 01 C7                   TST.b $1C7.w
006626  67 08                         BEQ $006630
006628  4A 38 5A B3                   TST.b $5AB3.w
00662C  67 00 00 66                   BEQ $006694
006630  4C B8                         .dc.w $4CB8
006632  .dc.b 00 03 5A B4 4C B8 00 0C 5A B4 58 42 58 43 2A 78 ; ..Z.L...Z.XBXC*x
006642  .dc.b 02 36 4A 2D 00 1F 66 3E 4A 2D 00 1E 6B 00 00 38 ; .6J-..f>J-..k..8
006652  .dc.b 4A 38 5A B3 66 2A 4C AD 00 30 00 18 28 6D 00 08 ; J8Z.f*L..0..(m..
006662  .dc.b 3C 2D 00 0C E7 4E D8 C6 D8 5C B4 44 6D 18 DA 5C ; <-...N...\.Dm..\
006672  .dc.b B6 45 6D 12 D8 5C B0 44 6E 0C DA 5C B2 45 6E 06 ; .Em..\.Dn..\.En.
006682  .dc.b 06 2D 00 64 00 1D 4A AD 00 00 67 06 2A 6D 00 00 ; .-.d..J...g.*m..
006692  .dc.b 60 B0                                           ; `.
006694  51 F8 5A B3                   SF $5AB3.w
006698  4A 38 59 4A                   TST.b $594A.w
00669C  67 00 00 9E                   BEQ $00673C
0066A0  18 38 59 4B                   MOVE.b $594B.w,d4
0066A4  C8 7C 00 0F                   AND.w #$F,d4
0066A8  E7 4C                         LSL.w #3,d4
0066AA  41 F8 67 E6                   LEA $67E6.w,a0
0066AE  D0 C4                         ADDA.w d4,a0
0066B0  53 78 59 48                   SUBQ.w #1,$5948.w
0066B4  2A 78 02 36                   MOVEA.l $236.w,a5
0066B8  4A 2D 00 1F                   TST.b $1F(a5)
0066BC  66 00 00 70                   BNE $00672E
0066C0  4A 2D 00 1E                   TST.b $1E(a5)
0066C4  6B 00 00 68                   BMI $00672E
0066C8  2F 38 59 40                   MOVE.l $5940.w,-(a7)
0066CC  28 6D 00 08                   MOVEA.l $8(a5),a4
0066D0  3C 2D 00 0C                   MOVE.w $C(a5),d6
0066D4  E7 4E                         LSL.w #3,d6
0066D6  D8 C6                         ADDA.w d6,a4
0066D8  4C AD                         .dc.w $4CAD
0066DA  .dc.b 00 0C 00 18 D4 5C D6 5C 38 02 3A 03 D8 5C DA 54 ; .....\.\8.:..\.T
0066EA  .dc.b 3E 38 59 48 4C 97 00 03 D0 68 00 00 D2 68 00 02 ; >8YHL....h...h..
0066FA  .dc.b B8 40 6D 1E BA 41 6D 1A D0 68 00 04 D2 68 00 06 ; .@m..Am..h...h..
00670A  .dc.b B4 40 6E 0E B6 41 6E 00 00 0A 06 2D 00 01 00 1D ; .@n..An....-....
00671A  .dc.b 60 10 4C B8 00 03 59 44 D1 57 D3 6F 00 02 51 CF ; `.L...YD.W.o..Q.
00672A  .dc.b FF C4 58 4F                                     ; ..XO
00672E  4A AD 00 00                   TST.l $0(a5)
006732  67 08                         BEQ $00673C
006734  2A 6D 00 00                   MOVEA.l $0(a5),a5
006738  60 00 FF 7E                   BRA $0066B8
00673C  4A 38 02 29                   TST.b $229.w
006740  67 00 00 A2                   BEQ $0067E4
006744  41 F8 02 9A                   LEA $29A.w,a0
006748  43 F8 02 B8                   LEA $2B8.w,a1
00674C  30 38 02 96                   MOVE.w $296.w,d0
006750  34 38 02 98                   MOVE.w $298.w,d2
006754  32 00                         MOVE.w d0,d1
006756  36 02                         MOVE.w d2,d3
006758  D2 7C 00 10                   ADD.w #$10,d1
00675C  D6 7C 00 10                   ADD.w #$10,d3
006760  2A 78 02 36                   MOVEA.l $236.w,a5
006764  4A 2D 00 1F                   TST.b $1F(a5)
006768  66 00 00 6E                   BNE $0067D8
00676C  4A 2D 00 1E                   TST.b $1E(a5)
006770  6B 00 00 66                   BMI $0067D8
006774  4C AD                         .dc.w $4CAD
006776  .dc.b 00 30 00 18 28 6D 00 08 3C 2D 00 0C E7 4E D8 C6 ; .0..(m..<-...N..
006786  .dc.b D8 5C DA 5C 3C 04 DC 5C B6 44 6D 00 00 46 B4 46 ; .\.\<..\.Dm..F.F
006796  .dc.b 6E 1E E6 4D 59 45 3C 14 4A 31 50 00 66 08 52 45 ; n..MYE<.J1P.f.RE
0067A6  .dc.b 51 46 6A F4 60 2C 06 2D 00 05 00 1D 60 00 00 24 ; QFj.`,.-....`..$
0067B6  .dc.b B0 46 6E 1E B2 44 6D 1A E6 4D 59 45 3C 14 4A 30 ; .Fn..Dm..MYE<.J0
0067C6  .dc.b 50 00 66 08 52 45 51 46 6A F4 60 06 06 2D 00 05 ; P.f.REQFj.`..-..
0067D6  .dc.b 00 1D                                           ; ..
0067D8  4A AD 00 00                   TST.l $0(a5)
0067DC  67 06                         BEQ $0067E4
0067DE  2A 6D 00 00                   MOVEA.l $0(a5),a5
0067E2  60 80                         BRA $006764
0067E4  4E 75                         RTS
0067E6  .dc.b 00 00 00 02 00 20 00 0A 00 02 00 02 00 1D 00 0E ; ..... ..........
0067F6  .dc.b 00 03 00 02 00 1A 00 12 00 03 00 04 00 1A 00 12 ; ................
006806  .dc.b 00 03 00 03 00 17 00 17 00 05 00 03 00 11 00 1A ; ................
006816  .dc.b 00 03 00 02 00 11 00 1C 00 03 00 02 00 0D 00 1E ; ................
006826  .dc.b 00 02 00 00 00 0A 00 20 00 03 00 02 00 0D 00 1D ; ....... ........
006836  .dc.b 00 03 00 02 00 11 00 1C 00 05 00 03 00 11 00 1A ; ................
006846  .dc.b 00 03 00 03 00 17 00 17 00 03 00 04 00 1A 00 12 ; ................
006856  .dc.b 00 02 00 02 00 1A 00 12 00 02 00 02 00 1D 00 0E ; ................
006866  .dc.b 52 42 D4 42 D4 42 41 F8 4A BA 76 0E 4A 50 67 08 ; RB.B.BA.J.v.JPg.
006876  .dc.b 5C 48 51 CB FF F8 4E 75 4A 42 66 20 43 F8 4B 32 ; \HQ...NuJBf C.K2
006886  .dc.b 74 6C 76 0F 4A B1 20 00 67 0E B8 B1 20 00 67 08 ; tlv.J. .g... .g.
006896  .dc.b 58 42 51 CB FF F0 4E 75 23 84 20 00 30 82 48 A8 ; XBQ...Nu#. .0.H.
0068A6  .dc.b 00 03 00 02 4E 75                               ; ....Nu

; ==== sub_0068AC (2 callers) ====
0068AC  4B F8 4A BA                   LEA $4ABA.w,a5
0068B0  7E 0E                         MOVEQ #$E,d7
0068B2  2C 3C 00 00 4B 2E             MOVE.l #$4B2E,d6
0068B8  2D 7C FF FE FF FE 00 62       MOVE.l #$FFFEFFFE,$62(a6)
0068C0  2D 7C FF FF 00 00 00 44       MOVE.l #$FFFF0000,$44(a6)
0068C8  41 F8 4A AC                   LEA $4AAC.w,a0
0068CC  22 78 02 0E                   MOVEA.l $20E.w,a1
0068D0  24 78 01 C2                   MOVEA.l $1C2.w,a2
0068D4  26 6A 00 14                   MOVEA.l $14(a2),a3
0068D8  28 78 74 F2                   MOVEA.l $74F2.w,a4
0068DC  7A 30                         MOVEQ #$30,d5
0068DE  38 15                         MOVE.w (a5),d4
0068E0  67 64                         BEQ $006946
0068E2  CD 8C                         EXG d6,a4
0068E4  4C B4                         .dc.w $4CB4
0068E6  .dc.b 00 0C 40 00 CD 8C 4C AD 00 03 00 02 D0 42 D2 43 ; ..@...L......B.C
0068F6  .dc.b 90 78 01 20 6B 52 92 78 01 22 6B 4C B0 7C 01 50 ; .x. kR.x."kL.|.P
006906  .dc.b 6E 46 B2 7C 00 D4 6E 40 48 AD 00 03 00 02 24 78 ; nF.|..n@H.....$x
006916  .dc.b 01 C2 61 00 F7 20 4C AD 00 03 00 02 61 00 CC 8A ; ..a.. L.....a...
006926  .dc.b 67 1E 41 F9 00 00 9E 54 78 0E 70 F6 4C AD 00 06 ; g.A....Tx.p.L...
006936  .dc.b 00 02 59 41 59 42 61 00 F3 64 42 55 41 F8 4A AC ; ..YAYBa..dBUA.J.
006946  5C 4D                         ADDQ.w #6,a5
006948  51 CF FF 94                   DBRA d7,$0068DE
00694C  4E 75                         RTS
00694E  .dc.b 42 55 51 CF FF 8C 4E 75                         ; BUQ...Nu

; ==== sub_006956 (1 caller) ====
006956  4A 38 02 29                   TST.b $229.w
00695A  66 00 00 D6                   BNE $006A32
00695E  4A 38 01 E8                   TST.b $1E8.w
006962  67 00 00 C2                   BEQ $006A26
006966  42 38 02 16                   CLR.b $216.w
00696A  51 F8 01 E8                   SF $1E8.w
00696E  70 04                         MOVEQ #$4,d0
006970  61 00 0E E6                   BSR $007858
006974  6A 02                         BPL $006978
006976  4E 75                         RTS
006978  70 03                         MOVEQ #$3,d0
00697A  4E B9 00 01 A2 DC             JSR $1A2DC.l
006980  30 38 01 04                   MOVE.w $104.w,d0
006984  D0 7C 00 10                   ADD.w #$10,d0
006988  31 C0 02 96                   MOVE.w d0,$296.w
00698C  31 C0 02 98                   MOVE.w d0,$298.w
006990  50 F8 02 29                   ST $229.w
006994  51 F8 47 E4                   SF $47E4.w
006998  51 F8 47 E5                   SF $47E5.w
00699C  41 F8 02 9A                   LEA $29A.w,a0
0069A0  43 F8 02 B8                   LEA $2B8.w,a1
0069A4  32 38 01 06                   MOVE.w $106.w,d1
0069A8  D2 7C 00 10                   ADD.w #$10,d1
0069AC  61 00 CC 00                   BSR $0035AE
0069B0  34 38 01 06                   MOVE.w $106.w,d2
0069B4  D4 7C 00 10                   ADD.w #$10,d2
0069B8  E6 4A                         LSR.w #3,d2
0069BA  5B 42                         SUBQ.w #5,d2
0069BC  76 01                         MOVEQ #$1,d3
0069BE  92 7C 00 30                   SUB.w #$30,d1
0069C2  6A 04                         BPL $0069C8
0069C4  D2 7C 06 00                   ADD.w #$600,d1
0069C8  10 32 10 00                   MOVE.b $0(a2,d1.w),d0
0069CC  67 02                         BEQ $0069D0
0069CE  76 00                         MOVEQ #$0,d3
0069D0  11 83 20 00                   MOVE.b d3,$0(a0,d2.w)
0069D4  13 83 20 00                   MOVE.b d3,$0(a1,d2.w)
0069D8  53 42                         SUBQ.w #1,d2
0069DA  6A E2                         BPL $0069BE
0069DC  30 38 02 96                   MOVE.w $296.w,d0
0069E0  32 38 01 06                   MOVE.w $106.w,d1
0069E4  61 00 CB C8                   BSR $0035AE
0069E8  34 38 01 06                   MOVE.w $106.w,d2
0069EC  E6 4A                         LSR.w #3,d2
0069EE  57 42                         SUBQ.w #3,d2
0069F0  76 01                         MOVEQ #$1,d3
0069F2  D2 7C 00 30                   ADD.w #$30,d1
0069F6  B2 7C 06 00                   CMP.w #$600,d1
0069FA  6D 04                         BLT $006A00
0069FC  92 7C 06 00                   SUB.w #$600,d1
006A00  10 32 10 00                   MOVE.b $0(a2,d1.w),d0
006A04  67 02                         BEQ $006A08
006A06  76 00                         MOVEQ #$0,d3
006A08  11 83 20 00                   MOVE.b d3,$0(a0,d2.w)
006A0C  13 83 20 00                   MOVE.b d3,$0(a1,d2.w)
006A10  52 42                         ADDQ.w #1,d2
006A12  B4 7C 00 18                   CMP.w #$18,d2
006A16  6D DA                         BLT $0069F2
006A18  4A 38 02 52                   TST.b $252.w
006A1C  67 06                         BEQ $006A24
006A1E  20 78 02 8A                   MOVEA.l $28A.w,a0
006A22  4E 90                         JSR (a0)
006A24  60 0C                         BRA $006A32
006A26  0C 38 00 40 02 16             CMPI.b #$40,$216.w
006A2C  67 00 FF 38                   BEQ $006966
006A30  4E 75                         RTS
006A32  52 78 47 E6                   ADDQ.w #1,$47E6.w
006A36  51 78 02 96                   SUBQ.w #8,$296.w
006A3A  6A 0A                         BPL $006A46
006A3C  42 79 00 00 02 96             CLR.w $296.l
006A42  50 F8 47 E4                   ST $47E4.w
006A46  50 78 02 98                   ADDQ.w #8,$298.w
006A4A  30 38 02 98                   MOVE.w $298.w,d0
006A4E  B0 7C 01 70                   CMP.w #$170,d0
006A52  6D 0A                         BLT $006A5E
006A54  31 FC 01 70 02 98             MOVE.w #$170,$298.w
006A5A  50 F8 47 E5                   ST $47E5.w
006A5E  4A 38 47 E4                   TST.b $47E4.w
006A62  67 44                         BEQ $006AA8
006A64  4A 38 47 E5                   TST.b $47E5.w
006A68  67 3E                         BEQ $006AA8
006A6A  51 F8 02 29                   SF $229.w
006A6E  4A 38 02 52                   TST.b $252.w
006A72  67 06                         BEQ $006A7A
006A74  20 78 02 92                   MOVEA.l $292.w,a0
006A78  4E D0                         JMP (a0)
006A7A  20 3C 00 00 73 84             MOVE.l #$7384,d0
006A80  41 F8 73 78                   LEA $7378.w,a0
006A84  48 40                         SWAP d0
006A86  31 40 00 02                   MOVE.w d0,$2(a0)
006A8A  48 40                         SWAP d0
006A8C  31 40 00 06                   MOVE.w d0,$6(a0)
006A90  20 3C 00 00 73 B4             MOVE.l #$73B4,d0
006A96  41 F8 73 A8                   LEA $73A8.w,a0
006A9A  48 40                         SWAP d0
006A9C  31 40 00 02                   MOVE.w d0,$2(a0)
006AA0  48 40                         SWAP d0
006AA2  31 40 00 06                   MOVE.w d0,$6(a0)
006AA6  4E 75                         RTS
006AA8  41 F8 02 9A                   LEA $29A.w,a0
006AAC  30 38 02 96                   MOVE.w $296.w,d0
006AB0  32 3C 00 D8                   MOVE.w #$D8,d1
006AB4  61 00 CA F8                   BSR $0035AE
006AB8  76 16                         MOVEQ #$16,d3
006ABA  92 7C 00 30                   SUB.w #$30,d1
006ABE  6A 04                         BPL $006AC4
006AC0  D2 7C 06 00                   ADD.w #$600,d1
006AC4  10 32 10 00                   MOVE.b $0(a2,d1.w),d0
006AC8  67 04                         BEQ $006ACE
006ACA  51 F0 30 00                   SF $0(a0,d3.w)
006ACE  51 CB FF EA                   DBRA d3,$006ABA
006AD2  41 F8 02 B8                   LEA $2B8.w,a0
006AD6  30 38 02 98                   MOVE.w $298.w,d0
006ADA  50 40                         ADDQ.w #8,d0
006ADC  32 3C 00 D8                   MOVE.w #$D8,d1
006AE0  61 00 CA CC                   BSR $0035AE
006AE4  76 16                         MOVEQ #$16,d3
006AE6  92 7C 00 30                   SUB.w #$30,d1
006AEA  6A 04                         BPL $006AF0
006AEC  D2 7C 06 00                   ADD.w #$600,d1
006AF0  10 32 10 00                   MOVE.b $0(a2,d1.w),d0
006AF4  67 04                         BEQ $006AFA
006AF6  51 F0 30 00                   SF $0(a0,d3.w)
006AFA  51 CB FF EA                   DBRA d3,$006AE6
006AFE  4A 38 02 52                   TST.b $252.w
006B02  67 06                         BEQ $006B0A
006B04  20 78 02 8E                   MOVEA.l $28E.w,a0
006B08  4E D0                         JMP (a0)
006B0A  20 78 47 E8                   MOVEA.l $47E8.w,a0
006B0E  B1 FC 00 00 8B D0             CMPA.l #$8BD0,a0
006B14  66 08                         BNE $006B1E
006B16  41 F9 00 00 89 DC             LEA $89DC.l,a0
006B1C  60 06                         BRA $006B24
006B1E  41 F9 00 00 8B D0             LEA $8BD0.l,a0
006B24  21 C8 47 E8                   MOVE.l a0,$47E8.w
006B28  30 3C 22 F1                   MOVE.w #$22F1,d0
006B2C  3C 38 01 BE                   MOVE.w $1BE.w,d6
006B30  6A 04                         BPL $006B36
006B32  3C 3C 00 D3                   MOVE.w #$D3,d6
006B36  BC 7C 00 B4                   CMP.w #$B4,d6
006B3A  6D 04                         BLT $006B40
006B3C  3C 3C 00 D3                   MOVE.w #$D3,d6
006B40  DC 7C 00 2B                   ADD.w #$2B,d6
006B44  E1 4E                         LSL.w #8,d6
006B46  45 F8 02 9A                   LEA $29A.w,a2
006B4A  47 F8 02 B8                   LEA $2B8.w,a3
006B4E  32 38 47 E6                   MOVE.w $47E6.w,d1
006B52  C2 BC 00 00 00 04             AND.l #$4,d1
006B58  E9 49                         LSL.w #4,d1
006B5A  D2 BC 00 01 4E 08             ADD.l #$14E08,d1
006B60  24 01                         MOVE.l d1,d2
006B62  D4 BC 00 00 00 20             ADD.l #$20,d2
006B68  26 01                         MOVE.l d1,d3
006B6A  28 02                         MOVE.l d2,d4
006B6C  D6 BC 00 00 00 80             ADD.l #$80,d3
006B72  D8 BC 00 00 00 80             ADD.l #$80,d4
006B78  2A 3C 00 00 47 F0             MOVE.l #$47F0,d5
006B7E  7E 0A                         MOVEQ #$A,d7
006B80  D0 7C 08 00                   ADD.w #$800,d0
006B84  BC 40                         CMP.w d0,d6
006B86  62 00 00 30                   BHI $006BB8
006B8A  2C 3C 00 00 73 84             MOVE.l #$7384,d6
006B90  48 46                         SWAP d6
006B92  31 46 00 02                   MOVE.w d6,$2(a0)
006B96  48 46                         SWAP d6
006B98  31 46 00 06                   MOVE.w d6,$6(a0)
006B9C  30 BC 00 84                   MOVE.w #$84,(a0)
006BA0  31 7C 00 86 00 04             MOVE.w #$86,$4(a0)
006BA6  21 7C 00 8A 00 00 00 08       MOVE.l #$8A0000,$8(a0)
006BAE  41 E8 00 0C                   LEA $C(a0),a0
006BB2  21 C8 47 EC                   MOVE.l a0,$47EC.w
006BB6  7C FF                         MOVEQ #$FF,d6
006BB8  30 C0                         MOVE.w d0,(a0)+
006BBA  30 FC FF FE                   MOVE.w #$FFFE,(a0)+
006BBE  4A 1A                         TST.b (a2)+
006BC0  66 12                         BNE $006BD4
006BC2  48 45                         SWAP d5
006BC4  30 FC 01 38                   MOVE.w #$138,(a0)+
006BC8  30 C5                         MOVE.w d5,(a0)+
006BCA  48 45                         SWAP d5
006BCC  30 FC 01 3A                   MOVE.w #$13A,(a0)+
006BD0  30 C5                         MOVE.w d5,(a0)+
006BD2  60 10                         BRA $006BE4
006BD4  48 41                         SWAP d1
006BD6  30 FC 01 38                   MOVE.w #$138,(a0)+
006BDA  30 C1                         MOVE.w d1,(a0)+
006BDC  48 41                         SWAP d1
006BDE  30 FC 01 3A                   MOVE.w #$13A,(a0)+
006BE2  30 C1                         MOVE.w d1,(a0)+
006BE4  4A 1B                         TST.b (a3)+
006BE6  66 12                         BNE $006BFA
006BE8  48 45                         SWAP d5
006BEA  30 FC 01 3C                   MOVE.w #$13C,(a0)+
006BEE  30 C5                         MOVE.w d5,(a0)+
006BF0  48 45                         SWAP d5
006BF2  30 FC 01 3E                   MOVE.w #$13E,(a0)+
006BF6  30 C5                         MOVE.w d5,(a0)+
006BF8  60 10                         BRA $006C0A
006BFA  48 43                         SWAP d3
006BFC  30 FC 01 3C                   MOVE.w #$13C,(a0)+
006C00  30 C3                         MOVE.w d3,(a0)+
006C02  48 43                         SWAP d3
006C04  30 FC 01 3E                   MOVE.w #$13E,(a0)+
006C08  30 C3                         MOVE.w d3,(a0)+
006C0A  D0 7C 08 00                   ADD.w #$800,d0
006C0E  BC 40                         CMP.w d0,d6
006C10  62 00 00 30                   BHI $006C42
006C14  2C 3C 00 00 73 84             MOVE.l #$7384,d6
006C1A  48 46                         SWAP d6
006C1C  31 46 00 02                   MOVE.w d6,$2(a0)
006C20  48 46                         SWAP d6
006C22  31 46 00 06                   MOVE.w d6,$6(a0)
006C26  30 BC 00 84                   MOVE.w #$84,(a0)
006C2A  31 7C 00 86 00 04             MOVE.w #$86,$4(a0)
006C30  21 7C 00 8A 00 00 00 08       MOVE.l #$8A0000,$8(a0)
006C38  41 E8 00 0C                   LEA $C(a0),a0
006C3C  21 C8 47 EC                   MOVE.l a0,$47EC.w
006C40  7C FF                         MOVEQ #$FF,d6
006C42  30 C0                         MOVE.w d0,(a0)+
006C44  30 FC FF FE                   MOVE.w #$FFFE,(a0)+
006C48  4A 1A                         TST.b (a2)+
006C4A  66 12                         BNE $006C5E
006C4C  48 45                         SWAP d5
006C4E  30 FC 01 38                   MOVE.w #$138,(a0)+
006C52  30 C5                         MOVE.w d5,(a0)+
006C54  48 45                         SWAP d5
006C56  30 FC 01 3A                   MOVE.w #$13A,(a0)+
006C5A  30 C5                         MOVE.w d5,(a0)+
006C5C  60 10                         BRA $006C6E
006C5E  48 42                         SWAP d2
006C60  30 FC 01 38                   MOVE.w #$138,(a0)+
006C64  30 C2                         MOVE.w d2,(a0)+
006C66  48 42                         SWAP d2
006C68  30 FC 01 3A                   MOVE.w #$13A,(a0)+
006C6C  30 C2                         MOVE.w d2,(a0)+
006C6E  4A 1B                         TST.b (a3)+
006C70  66 12                         BNE $006C84
006C72  48 45                         SWAP d5
006C74  30 FC 01 3C                   MOVE.w #$13C,(a0)+
006C78  30 C5                         MOVE.w d5,(a0)+
006C7A  48 45                         SWAP d5
006C7C  30 FC 01 3E                   MOVE.w #$13E,(a0)+
006C80  30 C5                         MOVE.w d5,(a0)+
006C82  60 10                         BRA $006C94
006C84  48 44                         SWAP d4
006C86  30 FC 01 3C                   MOVE.w #$13C,(a0)+
006C8A  30 C4                         MOVE.w d4,(a0)+
006C8C  48 44                         SWAP d4
006C8E  30 FC 01 3E                   MOVE.w #$13E,(a0)+
006C92  30 C4                         MOVE.w d4,(a0)+
006C94  51 CF FE EA                   DBRA d7,$006B80
006C98  D0 7C 08 00                   ADD.w #$800,d0
006C9C  BC 40                         CMP.w d0,d6
006C9E  62 00 00 2E                   BHI $006CCE
006CA2  2C 3C 00 00 73 84             MOVE.l #$7384,d6
006CA8  48 46                         SWAP d6
006CAA  31 46 00 02                   MOVE.w d6,$2(a0)
006CAE  48 46                         SWAP d6
006CB0  31 46 00 06                   MOVE.w d6,$6(a0)
006CB4  30 BC 00 84                   MOVE.w #$84,(a0)
006CB8  31 7C 00 86 00 04             MOVE.w #$86,$4(a0)
006CBE  21 7C 00 8A 00 00 00 08       MOVE.l #$8A0000,$8(a0)
006CC6  41 E8 00 0C                   LEA $C(a0),a0
006CCA  21 C8 47 EC                   MOVE.l a0,$47EC.w
006CCE  30 C0                         MOVE.w d0,(a0)+
006CD0  30 FC FF FE                   MOVE.w #$FFFE,(a0)+
006CD4  4A 1A                         TST.b (a2)+
006CD6  66 12                         BNE $006CEA
006CD8  48 45                         SWAP d5
006CDA  30 FC 01 38                   MOVE.w #$138,(a0)+
006CDE  30 C5                         MOVE.w d5,(a0)+
006CE0  48 45                         SWAP d5
006CE2  30 FC 01 3A                   MOVE.w #$13A,(a0)+
006CE6  30 C5                         MOVE.w d5,(a0)+
006CE8  60 10                         BRA $006CFA
006CEA  48 41                         SWAP d1
006CEC  30 FC 01 38                   MOVE.w #$138,(a0)+
006CF0  30 C1                         MOVE.w d1,(a0)+
006CF2  48 41                         SWAP d1
006CF4  30 FC 01 3A                   MOVE.w #$13A,(a0)+
006CF8  30 C1                         MOVE.w d1,(a0)+
006CFA  4A 1B                         TST.b (a3)+
006CFC  66 12                         BNE $006D10
006CFE  48 45                         SWAP d5
006D00  30 FC 01 3C                   MOVE.w #$13C,(a0)+
006D04  30 C5                         MOVE.w d5,(a0)+
006D06  48 45                         SWAP d5
006D08  30 FC 01 3E                   MOVE.w #$13E,(a0)+
006D0C  30 C5                         MOVE.w d5,(a0)+
006D0E  60 10                         BRA $006D20
006D10  48 43                         SWAP d3
006D12  30 FC 01 3C                   MOVE.w #$13C,(a0)+
006D16  30 C3                         MOVE.w d3,(a0)+
006D18  48 43                         SWAP d3
006D1A  30 FC 01 3E                   MOVE.w #$13E,(a0)+
006D1E  30 C3                         MOVE.w d3,(a0)+
006D20  2A 3C 00 00 73 B4             MOVE.l #$73B4,d5
006D26  48 45                         SWAP d5
006D28  31 45 00 02                   MOVE.w d5,$2(a0)
006D2C  48 45                         SWAP d5
006D2E  31 45 00 06                   MOVE.w d5,$6(a0)
006D32  30 BC 00 84                   MOVE.w #$84,(a0)
006D36  31 7C 00 86 00 04             MOVE.w #$86,$4(a0)
006D3C  21 7C 00 8A 00 00 00 08       MOVE.l #$8A0000,$8(a0)
006D44  41 E8 00 0C                   LEA $C(a0),a0
006D48  4E 75                         RTS

; ==== sub_006D4A (1 caller) ====
006D4A  21 FC 00 00 6D 64 00 6C       MOVE.l #$6D64,$6C.w
006D52  42 78 70 68                   CLR.w $7068.w
006D56  51 F8 01 E1                   SF $1E1.w
006D5A  42 38 70 6A                   CLR.b $706A.w
006D5E  51 F8 70 67                   SF $7067.w
006D62  4E 75                         RTS
006D64  .dc.b 2F 00 30 39 00 DF F0 1E 3F 00 C0 7C 00 10 67 00 ; /.09....?..|..g.
006D74  .dc.b 00 4C 48 E7 7E FC 23 FC 00 00 72 70 00 DF F0 80 ; .LH.~.#...rp....
006D84  .dc.b 52 78 70 68 4A 38 01 35 67 04 61 00 02 50 4A 38 ; RxphJ8.5g.a..PJ8
006D94  .dc.b 70 67 67 06 4E B9 00 01 A2 A4 4A 38 01 E1 67 18 ; pgg.N.....J8..g.
006DA4  .dc.b 42 38 01 E1 61 00 00 D2 61 00 D6 2A 61 00 0A 90 ; B8..a...a..*a...
006DB4  .dc.b 61 00 08 FE 61 00 00 16 4C DF 3F 7E 30 1F C0 7C ; a...a...L.?~0..|
006DC4  .dc.b 7F FF 33 C0 00 DF F0 9C 20 1F 4E 73 4A 38 02 29 ; ..3..... .NsJ8.)
006DD4  .dc.b 66 02 4E 75 4A 38 02 52 66 F8 30 38 01 BE 6B 30 ; f.NuJ8.Rf.08..k0
006DE4  .dc.b B0 7C 00 B4 6C 2A 20 38 47 E8 41 F8 73 78 48 40 ; .|..l* 8G.A.sxH@
006DF4  .dc.b 31 40 00 02 48 40 31 40 00 06 20 38 47 EC 41 F8 ; 1@..H@1@.. 8G.A.
006E04  .dc.b 73 A8 48 40 31 40 00 02 48 40 31 40 00 06 60 2A ; s.H@1@..H@1@..`*
006E14  .dc.b 20 3C 00 00 73 84 41 F8 73 78 48 40 31 40 00 02 ;  <..s.A.sxH@1@..
006E24  .dc.b 48 40 31 40 00 06 20 38 47 E8 41 F8 73 A8 48 40 ; H@1@.. 8G.A.s.H@
006E34  .dc.b 31 40 00 02 48 40 31 40 00 06 30 38 02 96 D0 7C ; 1@..H@1@..08...|
006E44  .dc.b 00 71 32 3C E0 00 E2 48 64 04 08 C1 00 00 80 7C ; .q2<...Hd......|
006E54  .dc.b 2C 00 48 B8 00 03 74 58 30 38 02 98 D0 7C 00 71 ; ,.H...tX08...|.q
006E64  .dc.b 32 3C E0 00 E2 48 64 04 08 C1 00 00 80 7C 2C 00 ; 2<...Hd......|,.
006E74  .dc.b 48 B8 00 03 74 60 4E 75 4A 39 00 00 02 52 67 18 ; H...t`NuJ9...Rg.
006E84  .dc.b 61 16 41 F8 73 78 43 F8 73 A8 45 F8 73 84 47 F8 ; a.A.sxC.s.E.s.G.
006E94  .dc.b 73 B4 28 78 02 70 4E D4                         ; s.(x.pN.

; ==== sub_006E9C (1 caller) ====
006E9C  70 02                         MOVEQ #$2,d0
006E9E  32 38 01 72                   MOVE.w $172.w,d1
006EA2  B2 7C 00 10                   CMP.w #$10,d1
006EA6  6D 02                         BLT $006EAA
006EA8  70 00                         MOVEQ #$0,d0
006EAA  C2 7C 00 0F                   AND.w #$F,d1
006EAE  31 C1 73 56                   MOVE.w d1,$7356.w
006EB2  E9 49                         LSL.w #4,d1
006EB4  83 78 73 56                   OR.w d1,$7356.w
006EB8  46 38 70 6A                   NOT.b $706A.w
006EBC  66 0E                         BNE $006ECC
006EBE  41 F8 01 76                   LEA $176.w,a0
006EC2  21 FC 00 00 01 8E 01 C2       MOVE.l #$18E,$1C2.w
006ECA  60 0C                         BRA $006ED8
006ECC  41 F8 01 8E                   LEA $18E.w,a0
006ED0  21 FC 00 00 01 76 01 C2       MOVE.l #$176,$1C2.w
006ED8  22 00                         MOVE.l d0,d1
006EDA  D0 A8 00 04                   ADD.l $4(a0),d0
006EDE  34 38 01 BE                   MOVE.w $1BE.w,d2
006EE2  67 00 00 B0                   BEQ $006F94
006EE6  6B 00 00 A6                   BMI $006F8E
006EEA  B4 7C 00 B4                   CMP.w #$B4,d2
006EEE  6C 00 00 9E                   BGE $006F8E
006EF2  43 F8 73 88                   LEA $7388.w,a1
006EF6  48 40                         SWAP d0
006EF8  33 40 00 02                   MOVE.w d0,$2(a1)
006EFC  48 40                         SWAP d0
006EFE  33 40 00 06                   MOVE.w d0,$6(a1)
006F02  D0 BC 00 00 00 30             ADD.l #$30,d0
006F08  48 40                         SWAP d0
006F0A  33 40 00 0A                   MOVE.w d0,$A(a1)
006F0E  48 40                         SWAP d0
006F10  33 40 00 0E                   MOVE.w d0,$E(a1)
006F14  D0 BC 00 00 00 30             ADD.l #$30,d0
006F1A  48 40                         SWAP d0
006F1C  33 40 00 12                   MOVE.w d0,$12(a1)
006F20  48 40                         SWAP d0
006F22  33 40 00 16                   MOVE.w d0,$16(a1)
006F26  D0 BC 00 00 00 30             ADD.l #$30,d0
006F2C  48 40                         SWAP d0
006F2E  33 40 00 1A                   MOVE.w d0,$1A(a1)
006F32  48 40                         SWAP d0
006F34  33 40 00 1E                   MOVE.w d0,$1E(a1)
006F38  20 28 00 08                   MOVE.l $8(a0),d0
006F3C  D0 81                         ADD.l d1,d0
006F3E  43 F8 73 58                   LEA $7358.w,a1
006F42  48 40                         SWAP d0
006F44  33 40 00 02                   MOVE.w d0,$2(a1)
006F48  48 40                         SWAP d0
006F4A  33 40 00 06                   MOVE.w d0,$6(a1)
006F4E  D0 BC 00 00 00 30             ADD.l #$30,d0
006F54  48 40                         SWAP d0
006F56  33 40 00 0A                   MOVE.w d0,$A(a1)
006F5A  48 40                         SWAP d0
006F5C  33 40 00 0E                   MOVE.w d0,$E(a1)
006F60  D0 BC 00 00 00 30             ADD.l #$30,d0
006F66  48 40                         SWAP d0
006F68  33 40 00 12                   MOVE.w d0,$12(a1)
006F6C  48 40                         SWAP d0
006F6E  33 40 00 16                   MOVE.w d0,$16(a1)
006F72  D0 BC 00 00 00 30             ADD.l #$30,d0
006F78  48 40                         SWAP d0
006F7A  33 40 00 1A                   MOVE.w d0,$1A(a1)
006F7E  48 40                         SWAP d0
006F80  33 40 00 1E                   MOVE.w d0,$1E(a1)
006F84  D4 7C 00 2B                   ADD.w #$2B,d2
006F88  11 C2 73 84                   MOVE.b d2,$7384.w
006F8C  4E 75                         RTS
006F8E  20 28 00 08                   MOVE.l $8(a0),d0
006F92  D0 81                         ADD.l d1,d0
006F94  43 F8 73 88                   LEA $7388.w,a1
006F98  48 40                         SWAP d0
006F9A  33 40 00 02                   MOVE.w d0,$2(a1)
006F9E  48 40                         SWAP d0
006FA0  33 40 00 06                   MOVE.w d0,$6(a1)
006FA4  D0 BC 00 00 00 30             ADD.l #$30,d0
006FAA  48 40                         SWAP d0
006FAC  33 40 00 0A                   MOVE.w d0,$A(a1)
006FB0  48 40                         SWAP d0
006FB2  33 40 00 0E                   MOVE.w d0,$E(a1)
006FB6  D0 BC 00 00 00 30             ADD.l #$30,d0
006FBC  48 40                         SWAP d0
006FBE  33 40 00 12                   MOVE.w d0,$12(a1)
006FC2  48 40                         SWAP d0
006FC4  33 40 00 16                   MOVE.w d0,$16(a1)
006FC8  D0 BC 00 00 00 30             ADD.l #$30,d0
006FCE  48 40                         SWAP d0
006FD0  33 40 00 1A                   MOVE.w d0,$1A(a1)
006FD4  48 40                         SWAP d0
006FD6  33 40 00 1E                   MOVE.w d0,$1E(a1)
006FDA  42 38 73 84                   CLR.b $7384.w
006FDE  4E 75                         RTS
006FE0  .dc.b 4A 38 70 66 67 06 53 38 70 66 4E 75 11 F8 02 48 ; J8pfg.S8pfNu...H
006FF0  .dc.b 70 66 53 38 01 35                               ; pfS8.5

; ==== sub_006FF6 (4 callers) ====
006FF6  3A 38 02 46                   MOVE.w $246.w,d5
006FFA  20 78 02 3E                   MOVEA.l $23E.w,a0
006FFE  22 78 02 42                   MOVEA.l $242.w,a1
007002  70 00                         MOVEQ #$0,d0
007004  32 11                         MOVE.w (a1),d1
007006  34 28 00 02                   MOVE.w $2(a0),d2
00700A  C2 7C 00 0F                   AND.w #$F,d1
00700E  C4 7C 00 0F                   AND.w #$F,d2
007012  B4 41                         CMP.w d1,d2
007014  6F 02                         BLE $007018
007016  53 42                         SUBQ.w #1,d2
007018  6C 02                         BGE $00701C
00701A  52 42                         ADDQ.w #1,d2
00701C  80 42                         OR.w d2,d0
00701E  32 11                         MOVE.w (a1),d1
007020  34 28 00 02                   MOVE.w $2(a0),d2
007024  C2 7C 00 F0                   AND.w #$F0,d1
007028  C4 7C 00 F0                   AND.w #$F0,d2
00702C  B4 41                         CMP.w d1,d2
00702E  6F 04                         BLE $007034
007030  94 7C 00 10                   SUB.w #$10,d2
007034  6C 04                         BGE $00703A
007036  D4 7C 00 10                   ADD.w #$10,d2
00703A  80 42                         OR.w d2,d0
00703C  32 19                         MOVE.w (a1)+,d1
00703E  34 28 00 02                   MOVE.w $2(a0),d2
007042  C2 7C 0F 00                   AND.w #$F00,d1
007046  C4 7C 0F 00                   AND.w #$F00,d2
00704A  B4 41                         CMP.w d1,d2
00704C  6F 04                         BLE $007052
00704E  94 7C 01 00                   SUB.w #$100,d2
007052  6C 04                         BGE $007058
007054  D4 7C 01 00                   ADD.w #$100,d2
007058  80 42                         OR.w d2,d0
00705A  31 40 00 02                   MOVE.w d0,$2(a0)
00705E  58 88                         ADDQ.l #4,a0
007060  51 CD FF A0                   DBRA d5,$007002
007064  4E 75                         RTS
007066  .dc.b 00 00 00 00 00 00                               ; ......

; ==== sub_00706C (1 caller) ====
00706C  21 FC 00 00 70 7E 00 68       MOVE.l #$707E,$68.w
007074  42 38 71 28                   CLR.b $7128.w
007078  42 38 02 16                   CLR.b $216.w
00707C  4E 75                         RTS
00707E  .dc.b 08 39 00 03 00 BF ED 01 67 56 48 E7 E0 80 10 39 ; .9......gVH....9
00708E  .dc.b 00 BF EC 01 46 00 E2 18 6B 14 72 00 61 00 00 4C ; ....F...k.r.a..L
00709E  .dc.b 4A 00 67 22 11 C0 71 28 11 C0 02 16 60 18 08 80 ; J.g"..q(....`...
0070AE  .dc.b 00 07 72 01 61 00 00 34 B0 38 71 28 66 08 42 38 ; ..r.a..4.8q(f.B8
0070BE  .dc.b 02 16 42 38 71 28 08 F9 00 06 00 BF EE 01 70 36 ; ..B8q(........p6
0070CE  .dc.b 51 C8 FF FE 08 B9 00 06 00 BF EE 01 4C DF 01 07 ; Q...........L...
0070DE  .dc.b 33 FC 00 08 00 DF F0 9C 4E 73 41 FA 00 2E 74 02 ; 3.......NsA...t.
0070EE  .dc.b B0 10 67 08 54 88 51 CA FF F8 4E 75 11 41 00 01 ; ..g.T.Q...Nu.A..
0070FE  .dc.b 41 FA 00 18 70 00 10 28 00 01 80 28 00 03 80 28 ; A...p..(...(...(
00710E  .dc.b 00 05 11 C0 71 29 70 00 4E 75 60 00 61 00 62 00 ; ....q)p.Nu`.a.b.
00711E  .dc.b 64 00 65 00 66 00 67 00 63 00 00 00             ; d.e.f.g.c...

; ==== sub_00712A (1 caller) ====
00712A  41 F8 72 D4                   LEA $72D4.w,a0
00712E  70 1F                         MOVEQ #$1F,d0
007130  42 68 00 02                   CLR.w $2(a0)
007134  58 48                         ADDQ.w #4,a0
007136  51 C8 FF F8                   DBRA d0,$007130
00713A  42 78 73 56                   CLR.w $7356.w
00713E  41 F9 00 00 73 C0             LEA $73C0.l,a0
007144  20 3C 00 01 64 88             MOVE.l #$16488,d0
00714A  32 3C 00 03                   MOVE.w #$3,d1
00714E  48 40                         SWAP d0
007150  31 40 00 02                   MOVE.w d0,$2(a0)
007154  48 40                         SWAP d0
007156  31 40 00 06                   MOVE.w d0,$6(a0)
00715A  D0 BC 00 00 05 32             ADD.l #$532,d0
007160  50 48                         ADDQ.w #8,a0
007162  51 C9 FF EA                   DBRA d1,$00714E
007166  61 00 00 0C                   BSR $007174
00716A  41 F8 72 70                   LEA $7270.w,a0
00716E  2D 48 00 80                   MOVE.l a0,$80(a6)
007172  4E 75                         RTS

; ==== sub_007174 (3 callers) ====
007174  41 FA 02 02                   LEA $007378(pc),a0
007178  20 3C 00 00 73 84             MOVE.l #$7384,d0
00717E  48 40                         SWAP d0
007180  31 40 00 02                   MOVE.w d0,$2(a0)
007184  48 40                         SWAP d0
007186  31 40 00 06                   MOVE.w d0,$6(a0)
00718A  41 FA 02 1C                   LEA $0073A8(pc),a0
00718E  20 3C 00 00 73 B4             MOVE.l #$73B4,d0
007194  48 40                         SWAP d0
007196  31 40 00 02                   MOVE.w d0,$2(a0)
00719A  48 40                         SWAP d0
00719C  31 40 00 06                   MOVE.w d0,$6(a0)
0071A0  42 78 02 52                   CLR.w $252.w
0071A4  20 3C 00 00 74 68             MOVE.l #$7468,d0
0071AA  41 F9 00 00 72 94             LEA $7294.l,a0
0071B0  72 07                         MOVEQ #$7,d1
0071B2  48 40                         SWAP d0
0071B4  31 40 00 02                   MOVE.w d0,$2(a0)
0071B8  48 40                         SWAP d0
0071BA  31 40 00 06                   MOVE.w d0,$6(a0)
0071BE  50 48                         ADDQ.w #8,a0
0071C0  51 C9 FF F0                   DBRA d1,$0071B2
0071C4  42 B8 74 58                   CLR.l $7458.w
0071C8  42 B8 74 60                   CLR.l $7460.w
0071CC  20 3C 00 00 74 58             MOVE.l #$7458,d0
0071D2  41 F8 72 C4                   LEA $72C4.w,a0
0071D6  48 40                         SWAP d0
0071D8  30 FC 01 38                   MOVE.w #$138,(a0)+
0071DC  30 C0                         MOVE.w d0,(a0)+
0071DE  48 40                         SWAP d0
0071E0  30 FC 01 3A                   MOVE.w #$13A,(a0)+
0071E4  30 C0                         MOVE.w d0,(a0)+
0071E6  20 3C 00 00 74 60             MOVE.l #$7460,d0
0071EC  48 40                         SWAP d0
0071EE  30 FC 01 3C                   MOVE.w #$13C,(a0)+
0071F2  30 C0                         MOVE.w d0,(a0)+
0071F4  48 40                         SWAP d0
0071F6  30 FC 01 3E                   MOVE.w #$13E,(a0)+
0071FA  30 C0                         MOVE.w d0,(a0)+
0071FC  41 F8 19 8E                   LEA $198E.w,a0
007200  61 00 00 5C                   BSR $00725E
007204  41 F8 73 E8                   LEA $73E8.w,a0
007208  70 0E                         MOVEQ #$E,d0
00720A  42 68 00 02                   CLR.w $2(a0)
00720E  58 48                         ADDQ.w #4,a0
007210  51 C8 FF F8                   DBRA d0,$00720A
007214  42 78 74 52                   CLR.w $7452.w
007218  41 F8 1A 0E                   LEA $1A0E.w,a0
00721C  43 F9 00 00 19 DE             LEA $19DE.l,a1
007222  4C D0                         .dc.w $4CD0
007224  .dc.b 00 FF 48 D1 00 FF 4C A8 00 FF 00 20 48 A9 00 FF ; ..H...L.... H...
007234  .dc.b 00 20 4A 38 19 4B 67 20 41 F8 1A 40 43 F8 73 E8 ; . J8.Kg A..@C.s.
007244  .dc.b 70 0E 33 58 00 02 58 49 51 C8 FF F8 31 FC 01 D2 ; p.3X..XIQ...1...
007254  .dc.b 74 52 41 F8 19 CE 60 02 4E 75                   ; tRA...`.Nu

; ==== sub_00725E (1 caller) ====
00725E  43 F8 72 D4                   LEA $72D4.w,a1
007262  70 1F                         MOVEQ #$1F,d0
007264  33 58 00 02                   MOVE.w (a0)+,$2(a1)
007268  58 49                         ADDQ.w #4,a1
00726A  51 C8 FF F8                   DBRA d0,$007264
00726E  4E 75                         RTS
007270  .dc.b 00 8E 2C 91 00 90 03 C1 00 92 00 38 00 94 00 D0 ; ..,........8....
007280  .dc.b 01 04 00 24 01 00 42 00 01 08 00 98 01 0A 00 98 ; ...$..B.........
007290  .dc.b 00 96 80 20 01 20 00 00 01 22 00 00 01 24 00 00 ; ... . ..."...$..
0072A0  .dc.b 01 26 00 00 01 28 00 00 01 2A 00 00 01 2C 00 00 ; .&...(...*...,..
0072B0  .dc.b 01 2E 00 00 01 30 00 00 01 32 00 00 01 34 00 00 ; .....0...2...4..
0072C0  .dc.b 01 36 00 00 01 38 00 00 01 3A 00 00 01 3C 00 00 ; .6...8...:...<..
0072D0  .dc.b 01 3E 00 00 01 80 00 00 01 82 04 20 01 84 07 42 ; .>......... ...B
0072E0  .dc.b 01 86 0A 70 01 88 0C A7 01 8A 00 9E 01 8C 03 6F ; ...p...........o
0072F0  .dc.b 01 8E 05 91 01 90 02 23 01 92 04 45 01 94 07 78 ; .......#...E...x
007300  .dc.b 01 96 0A AB 01 98 0C 00 01 9A 0F 60 01 9C 0F F0 ; ...........`....
007310  .dc.b 01 9E 0F FF 01 A0 00 00 01 A2 0D DF 01 A4 0B BE ; ................
007320  .dc.b 01 A6 08 8B 01 A8 04 47 01 AA 02 25 01 AC 0B BB ; .......G...%....
007330  .dc.b 01 AE 08 88 01 B0 05 55 01 B2 02 22 01 B4 00 5F ; .......U..."..._
007340  .dc.b 01 B6 00 3A 01 B8 0F 33 01 BA 09 00 01 BC 00 00 ; ...:...3........
007350  .dc.b 01 BE 00 00 01 02 00 00 00 E0 00 06 00 E2 00 00 ; ................
007360  .dc.b 00 E4 00 06 00 E6 00 00 00 E8 00 06 00 EA 00 00 ; ................
007370  .dc.b 00 EC 00 06 00 EE 00 00 00 84 00 00 00 86 00 00 ; ................
007380  .dc.b 00 8A 00 00 2C E1 FF FE 00 E0 00 06 00 E2 00 00 ; ....,...........
007390  .dc.b 00 E4 00 06 00 E6 00 00 00 E8 00 06 00 EA 00 00 ; ................
0073A0  .dc.b 00 EC 00 06 00 EE 00 00 00 84 00 00 00 86 00 00 ; ................
0073B0  .dc.b 00 8A 00 00 DF F1 FF FE 00 92 00 40 01 02 00 00 ; ...........@....
0073C0  .dc.b 00 E0 00 00 00 E2 00 00 00 E4 00 00 00 E6 00 00 ; ................
0073D0  .dc.b 00 E8 00 00 00 EA 00 00 00 EC 00 00 00 EE 00 00 ; ................
0073E0  .dc.b 01 08 00 00 01 0A 00 00 01 82 0F FF 01 84 0B BB ; ................
0073F0  .dc.b 01 86 08 88 01 88 05 55 01 8A 02 22 01 8C 0F D0 ; .......U..."....
007400  .dc.b 01 8E 00 0F 01 90 01 D2 01 92 0B 00 01 94 0F 40 ; ...............@
007410  .dc.b 01 96 0B BF 01 98 08 8F 01 9A 06 6B 01 9C 04 49 ; ...........k...I
007420  .dc.b 01 9E 02 26 00 9C 80 10 00 96 00 20 01 44 00 00 ; ...&....... .D..
007430  .dc.b 01 46 00 00 01 4C 00 00 01 4E 00 00 01 54 00 00 ; .F...L...N...T..
007440  .dc.b 01 56 00 00 01 5C 00 00 01 5E 00 00 EE F1 FF FE ; .V...\...^......
007450  .dc.b 01 90 01 D2 FF FF FF FE 00 00 00 00 00 00 00 00 ; ................
007460  .dc.b 00 00 00 00 00 00 00 00 00 00 00 00 00 00 00 00 ; ................
007470  .dc.b 00 00 00 00 00 00 00 00 2E 38 35 D8 26 47 28 47 ; .........85.&G(G
007480  .dc.b D9 D3 DF 9B B9 CB 6E FA 4E 75                   ; ......n.Nu

; ==== init_object_table  $00748A  (1 caller) — Zero-fill the object tables pointed to by $20A/$20E, laying out per-object slots on a $C0-byte stride. ====
00748A  24 78 02 0A                   MOVEA.l $20A.w,a2
00748E  26 78 02 0E                   MOVEA.l $20E.w,a3
007492  3E 3C 00 FF                   MOVE.w #$FF,d7
007496  7C 00                         MOVEQ #$0,d6
007498  24 C6                         MOVE.l d6,(a2)+
00749A  E2 8E                         LSR.l #1,d6
00749C  36 C6                         MOVE.w d6,(a3)+
00749E  DC 86                         ADD.l d6,d6
0074A0  DC BC 00 00 00 C0             ADD.l #$C0,d6
0074A6  51 CF FF F0                   DBRA d7,$007498
0074AA  24 78 74 F2                   MOVEA.l $74F2.w,a2
0074AE  3E 3C 00 B3                   MOVE.w #$B3,d7
0074B2  7C 00                         MOVEQ #$0,d6
0074B4  34 C6                         MOVE.w d6,(a2)+
0074B6  DC 7C 00 40                   ADD.w #$40,d6
0074BA  51 CF FF F8                   DBRA d7,$0074B4
0074BE  4E 75                         RTS

; ==== init_map_grid  $0074C0  (1 caller) — Initialise a 32-wide tile/coordinate grid via the buffer pointer at $35F4. ====
0074C0  24 78 35 F4                   MOVEA.l $35F4.w,a2
0074C4  70 1F                         MOVEQ #$1F,d0
0074C6  72 00                         MOVEQ #$0,d1
0074C8  76 27                         MOVEQ #$27,d3
0074CA  78 20                         MOVEQ #$20,d4
0074CC  7A 01                         MOVEQ #$1,d5
0074CE  34 01                         MOVE.w d1,d2
0074D0  42 12                         CLR.b (a2)
0074D2  15 85 40 00                   MOVE.b d5,$0(a2,d4.w)
0074D6  D8 7C 00 20                   ADD.w #$20,d4
0074DA  53 43                         SUBQ.w #1,d3
0074DC  67 0A                         BEQ $0074E8
0074DE  51 CA FF F2                   DBRA d2,$0074D2
0074E2  52 45                         ADDQ.w #1,d5
0074E4  34 01                         MOVE.w d1,d2
0074E6  60 EA                         BRA $0074D2
0074E8  52 4A                         ADDQ.w #1,a2
0074EA  52 41                         ADDQ.w #1,d1
0074EC  51 C8 FF DA                   DBRA d0,$0074C8
0074F0  4E 75                         RTS
0074F2  .dc.b 00 00 9F 08                                     ; ....

; ==== sub_0074F6 (2 callers) ====
0074F6  30 39 00 00 7B 2A             MOVE.w $7B2A.l,d0
0074FC  4A 79 00 00 7B 2C             TST.w $7B2C.l
007502  67 56                         BEQ $00755A
007504  4A 40                         TST.w d0
007506  6B 24                         BMI $00752C
007508  41 F9 00 00 7B 2E             LEA $7B2E.l,a0
00750E  61 2A                         BSR $00753A
007510  41 E8 00 78                   LEA $78(a0),a0
007514  61 24                         BSR $00753A
007516  41 E8 00 78                   LEA $78(a0),a0
00751A  61 1E                         BSR $00753A
00751C  41 E8 00 78                   LEA $78(a0),a0
007520  61 18                         BSR $00753A
007522  04 79 00 02 00 00 7B 2A       SUBI.w #$2,$7B2A.l
00752A  4E 75                         RTS
00752C  42 79 00 00 7B 2A             CLR.w $7B2A.l
007532  42 79 00 00 7B 2C             CLR.w $7B2C.l
007538  4E 75                         RTS

; ==== sub_00753A (4 callers) ====
00753A  22 78 01 7A                   MOVEA.l $17A.w,a1
00753E  D2 F0 00 00                   ADDA.w $0(a0,d0.w),a1
007542  D2 FC 18 04                   ADDA.w #$1804,a1
007546  45 F9 00 01 7A F0             LEA $17AF0.l,a2
00754C  72 3B                         MOVEQ #$3B,d1
00754E  32 9A                         MOVE.w (a2)+,(a1)
007550  D2 FC 00 30                   ADDA.w #$30,a1
007554  51 C9 FF F8                   DBRA d1,$00754E
007558  4E 75                         RTS
00755A  B0 7C 00 78                   CMP.w #$78,d0
00755E  67 24                         BEQ $007584
007560  41 F9 00 00 7B 2E             LEA $7B2E.l,a0
007566  61 20                         BSR $007588
007568  41 E8 00 78                   LEA $78(a0),a0
00756C  61 1A                         BSR $007588
00756E  41 E8 00 78                   LEA $78(a0),a0
007572  61 14                         BSR $007588
007574  41 E8 00 78                   LEA $78(a0),a0
007578  61 0E                         BSR $007588
00757A  06 79 00 02 00 00 7B 2A       ADDI.w #$2,$7B2A.l
007582  4E 75                         RTS
007584  70 FF                         MOVEQ #$FF,d0
007586  4E 75                         RTS

; ==== sub_007588 (4 callers) ====
007588  22 78 01 AA                   MOVEA.l $1AA.w,a1
00758C  D2 F0 00 00                   ADDA.w $0(a0,d0.w),a1
007590  24 78 01 7A                   MOVEA.l $17A.w,a2
007594  D4 F0 00 00                   ADDA.w $0(a0,d0.w),a2
007598  32 3C 18 04                   MOVE.w #$1804,d1
00759C  D2 C1                         ADDA.w d1,a1
00759E  D4 C1                         ADDA.w d1,a2
0075A0  72 3B                         MOVEQ #$3B,d1
0075A2  34 91                         MOVE.w (a1),(a2)
0075A4  43 E9 00 30                   LEA $30(a1),a1
0075A8  45 EA 00 30                   LEA $30(a2),a2
0075AC  51 C9 FF F4                   DBRA d1,$0075A2
0075B0  4E 75                         RTS

; ==== sub_0075B2 (1 caller) ====
0075B2  20 3C 00 01 7A F0             MOVE.l #$17AF0,d0
0075B8  22 38 01 7A                   MOVE.l $17A.w,d1
0075BC  D2 BC 00 00 18 04             ADD.l #$1804,d1
0075C2  38 3C 0F 01                   MOVE.w #$F01,d4
0075C6  3D 7C 09 F0 00 40             MOVE.w #$9F0,$40(a6)
0075CC  42 6E 00 42                   CLR.w $42(a6)
0075D0  42 6E 00 64                   CLR.w $64(a6)
0075D4  3D 7C 00 2E 00 66             MOVE.w #$2E,$66(a6)
0075DA  74 FF                         MOVEQ #$FF,d2
0075DC  2D 42 00 44                   MOVE.l d2,$44(a6)
0075E0  74 13                         MOVEQ #$13,d2
0075E2  76 0B                         MOVEQ #$B,d3
0075E4  2D 41 00 54                   MOVE.l d1,$54(a6)
0075E8  2D 40 00 50                   MOVE.l d0,$50(a6)
0075EC  3D 44 00 58                   MOVE.w d4,$58(a6)
0075F0  08 2E 00 0E 00 02             BTST.b #$E,$2(a6)
0075F6  66 F8                         BNE $0075F0
0075F8  51 CB FF EE                   DBRA d3,$0075E8
0075FC  54 81                         ADDQ.l #2,d1
0075FE  51 CA FF E2                   DBRA d2,$0075E2
007602  4E 75                         RTS
007604  .dc.b 20 3C 00 01 7A F0 22 38 01 92 D2 BC 00 00 18 04 ;  <..z."8........
007614  .dc.b 38 3C 0F 01 3D 7C 09 F0 00 40 42 6E 00 42 42 6E ; 8<..=|...@Bn.BBn
007624  .dc.b 00 64 3D 7C 00 2E 00 66 74 FF 2D 42 00 44 74 13 ; .d=|...ft.-B.Dt.
007634  .dc.b 76 0B 2D 41 00 54 2D 40 00 50 3D 44 00 58 08 2E ; v.-A.T-@.P=D.X..
007644  .dc.b 00 0E 00 02 66 F8 51 CB FF EE 54 81 51 CA FF E2 ; ....f.Q...T.Q...
007654  .dc.b 4E 75                                           ; Nu

; ==== sub_007656 (3 callers) ====
007656  41 F9 00 01 74 AE             LEA $174AE.l,a0
00765C  74 00                         MOVEQ #$0,d2
00765E  70 04                         MOVEQ #$4,d0
007660  72 06                         MOVEQ #$6,d1
007662  11 82 10 00                   MOVE.b d2,$0(a0,d1.w)
007666  51 C9 FF FA                   DBRA d1,$007662
00766A  D0 FC 00 26                   ADDA.w #$26,a0
00766E  51 C8 FF F0                   DBRA d0,$007660
007672  13 FC 00 01 00 00 7A C8       MOVE.b #$1,$7AC8.l
00767A  42 39 00 00 7A C9             CLR.b $7AC9.l
007680  42 78 77 26                   CLR.w $7726.w
007684  4E 75                         RTS
007686  .dc.b 70 00 10 38 7B 0B B0 38 7A C9 6D 00 00 9A       ; p..8{..8z.m...

; ==== sub_007694 (1 caller) ====
007694  4A 78 77 26                   TST.w $7726.w
007698  67 18                         BEQ $0076B2
00769A  52 78 77 26                   ADDQ.w #1,$7726.w
00769E  0C 78 00 08 77 26             CMPI.w #$8,$7726.w
0076A4  6F 0C                         BLE $0076B2
0076A6  42 78 77 26                   CLR.w $7726.w
0076AA  70 23                         MOVEQ #$23,d0
0076AC  4E F9 00 01 A2 DC             JMP $1A2DC.l
0076B2  4E 75                         RTS
0076B4  .dc.b 4A 39 00 00 7A C8 67 CA 41 F8 7A C8 70 00 10 28 ; J9..z.g.A.z.p..(
0076C4  .dc.b 00 01 B0 3C 00 37 6D 0A 42 10 11 FC 00 37 7B 0B ; ...<.7m.B....7{.
0076D4  .dc.b 4E 75 4A 10 67 02 52 40 76 00 11 40 00 01 32 00 ; NuJ.g.R@v..@..2.
0076E4  .dc.b C0 7C 00 07 4A 03 67 0E 4A 01 67 04 53 28 00 01 ; .|..J.g.J.g.S(..
0076F4  .dc.b 10 30 00 02 60 04 10 30 00 03 14 30 10 0B E9 42 ; .0..`..0...0...B
007704  .dc.b 31 C2 74 06 43 F9 00 01 74 AE E6 49 D2 C1 12 80 ; 1.t.C...t..I....
007714  .dc.b 13 40 00 26 13 40 00 4C 13 40 00 72 13 40 00 98 ; .@.&.@.L.@.r.@..
007724  4E 75                         RTS
007726  .dc.b 00 00                                           ; ..
007728  72 01                         MOVEQ #$1,d1
00772A  60 22                         BRA $00774E
00772C  .dc.b 4A 39 00 00 7A C8 67 08 31 FC 00 14 77 26 4E 75 ; J9..z.g.1...w&Nu
00773C  .dc.b 52 78 77 26 41 F8 7A C8 70 00 10 28 00 01 76 D3 ; Rxw&A.z.p..(..v.
00774C  .dc.b 60 90                                           ; `.
00774E  4A 38 02 76                   TST.b $276.w
007752  67 02                         BEQ $007756
007754  4E 75                         RTS
007756  4A 38 7A C8                   TST.b $7AC8.w
00775A  66 C8                         BNE $007724
00775C  70 00                         MOVEQ #$0,d0
00775E  10 38 7B 0B                   MOVE.b $7B0B.w,d0
007762  90 01                         SUB.b d1,d0
007764  6A 02                         BPL $007768
007766  70 00                         MOVEQ #$0,d0
007768  11 C0 7B 0B                   MOVE.b d0,$7B0B.w
00776C  4A 78 77 26                   TST.w $7726.w
007770  66 08                         BNE $00777A
007772  70 22                         MOVEQ #$22,d0
007774  4E F9 00 01 A2 DC             JMP $1A2DC.l
00777A  31 FC 00 01 77 26             MOVE.w #$1,$7726.w
007780  4E 75                         RTS
007782  .dc.b 70 00 10 39 00 00 7A AE 6B 26 41 F9 00 01 6A 07 ; p..9..z.k&A...j.
007792  .dc.b D0 C0 04 39 00 01 00 00 7A AE 70 07 10 BC 00 00 ; ...9....z.p.....
0077A2  .dc.b 11 7C 00 FF 05 32 D0 FC 00 26 51 C8 FF F0 70 00 ; .|...2...&Q...p.
0077B2  .dc.b 4E 75                                           ; Nu

; ==== sub_0077B4 (1 caller) ====
0077B4  13 FC 00 02 00 00 7A AE       MOVE.b #$2,$7AAE.l
0077BC  41 F9 00 01 79 50             LEA $17950.l,a0
0077C2  43 F9 00 01 6A 07             LEA $16A07.l,a1
0077C8  70 07                         MOVEQ #$7,d0
0077CA  12 B0 00 00                   MOVE.b $0(a0,d0.w),(a1)
0077CE  13 70 00 08 05 32             MOVE.b $8(a0,d0.w),$532(a1)
0077D4  13 70 00 00 00 01             MOVE.b $0(a0,d0.w),$1(a1)
0077DA  13 70 00 08 05 33             MOVE.b $8(a0,d0.w),$533(a1)
0077E0  13 70 00 00 00 02             MOVE.b $0(a0,d0.w),$2(a1)
0077E6  13 70 00 08 05 34             MOVE.b $8(a0,d0.w),$534(a1)
0077EC  D2 FC 00 26                   ADDA.w #$26,a1
0077F0  51 C8 FF D8                   DBRA d0,$0077CA
0077F4  4E 75                         RTS

; ==== sub_0077F6 (2 callers) ====
0077F6  45 F9 00 00 7B 0C             LEA $7B0C.l,a2
0077FC  34 00                         MOVE.w d0,d2
0077FE  D0 40                         ADD.w d0,d0
007800  D0 40                         ADD.w d0,d0
007802  D4 C0                         ADDA.w d0,a2
007804  70 02                         MOVEQ #$2,d0
007806  06 32 00 01 00 00             ADDI.b #$1,$0(a2,d0.w)
00780C  0C 32 00 0A 00 00             CMPI.b #$A,$0(a2,d0.w)
007812  6D 18                         BLT $00782C
007814  04 32 00 0A 00 00             SUBI.b #$A,$0(a2,d0.w)
00781A  53 40                         SUBQ.w #1,d0
00781C  6B 0E                         BMI $00782C
00781E  06 32 00 01 00 00             ADDI.b #$1,$0(a2,d0.w)
007824  0C 32 00 09 00 00             CMPI.b #$9,$0(a2,d0.w)
00782A  6E E8                         BGT $007814
00782C  B4 3C 00 01                   CMP.b #$1,d2
007830  66 0C                         BNE $00783E
007832  0C 12 00 03                   CMPI.b #$3,(a2)
007836  66 06                         BNE $00783E
007838  42 92                         CLR.l (a2)
00783A  61 00 01 08                   BSR $007944
00783E  30 02                         MOVE.w d2,d0
007840  60 42                         BRA $007884
007842  .dc.b 04 39 00 01 00 00 7A C7 67 02 4E 75 13 FC 00 32 ; .9....z.g.Nu...2
007852  .dc.b 00 00 7A C7 70 00                               ; ..z.p.

; ==== sub_007858 (3 callers) ====
007858  45 F9 00 00 7B 0C             LEA $7B0C.l,a2
00785E  34 00                         MOVE.w d0,d2
007860  D0 40                         ADD.w d0,d0
007862  D0 40                         ADD.w d0,d0
007864  D4 C0                         ADDA.w d0,a2
007866  4A 92                         TST.l (a2)
007868  66 04                         BNE $00786E
00786A  70 D3                         MOVEQ #$D3,d0
00786C  4E 75                         RTS
00786E  70 02                         MOVEQ #$2,d0
007870  04 32 00 01 00 00             SUBI.b #$1,$0(a2,d0.w)
007876  6A 0A                         BPL $007882
007878  15 BC 00 09 00 00             MOVE.b #$9,$0(a2,d0.w)
00787E  51 C8 FF F0                   DBRA d0,$007870
007882  30 02                         MOVE.w d2,d0

; ==== sub_007884 (5 callers) ====
007884  32 00                         MOVE.w d0,d1
007886  D0 40                         ADD.w d0,d0
007888  D0 40                         ADD.w d0,d0
00788A  41 F9 00 01 64 88             LEA $16488.l,a0
007890  45 F9 00 00 7B 0C             LEA $7B0C.l,a2
007896  D2 41                         ADD.w d1,d1
007898  D0 F2 10 14                   ADDA.w $14(a2,d1.w),a0
00789C  D4 C0                         ADDA.w d0,a2
00789E  70 02                         MOVEQ #$2,d0
0078A0  12 32 00 00                   MOVE.b $0(a2,d0.w),d1
0078A4  61 00 01 38                   BSR $0079DE
0078A8  51 C8 FF F6                   DBRA d0,$0078A0
0078AC  70 00                         MOVEQ #$0,d0
0078AE  4E 75                         RTS

; ==== sub_0078B0 (1 caller) ====
0078B0  41 F9 00 00 7A B2             LEA $7AB2.l,a0
0078B6  70 06                         MOVEQ #$6,d0
0078B8  42 30 00 00                   CLR.b $0(a0,d0.w)
0078BC  11 BC 00 01 00 07             MOVE.b #$1,$7(a0,d0.w)
0078C2  42 30 00 0E                   CLR.b $E(a0,d0.w)
0078C6  51 C8 FF F0                   DBRA d0,$0078B8
0078CA  60 4E                         BRA $00791A

; ==== sub_0078CC (1 caller) ====
0078CC  45 F8 7A C0                   LEA $7AC0.w,a2
0078D0  15 80 10 00                   MOVE.b d0,$0(a2,d1.w)
0078D4  45 F8 7A B2                   LEA $7AB2.w,a2
0078D8  70 06                         MOVEQ #$6,d0
0078DA  14 32 00 0E                   MOVE.b $E(a2,d0.w),d2
0078DE  67 36                         BEQ $007916
0078E0  42 32 00 0E                   CLR.b $E(a2,d0.w)
0078E4  15 BC 00 01 00 07             MOVE.b #$1,$7(a2,d0.w)
0078EA  D5 32 00 00                   ADD.b d2,$0(a2,d0.w)
0078EE  0C 32 00 0A 00 00             CMPI.b #$A,$0(a2,d0.w)
0078F4  6D 20                         BLT $007916
0078F6  22 00                         MOVE.l d0,d1
0078F8  04 32 00 0A 10 00             SUBI.b #$A,$0(a2,d1.w)
0078FE  53 41                         SUBQ.w #1,d1
007900  6B 14                         BMI $007916
007902  06 32 00 01 10 00             ADDI.b #$1,$0(a2,d1.w)
007908  15 BC 00 01 10 07             MOVE.b #$1,$7(a2,d1.w)
00790E  0C 32 00 09 10 00             CMPI.b #$9,$0(a2,d1.w)
007914  6E E2                         BGT $0078F8
007916  51 C8 FF C2                   DBRA d0,$0078DA
00791A  41 F9 00 01 66 9A             LEA $1669A.l,a0
007920  45 F9 00 00 7A B2             LEA $7AB2.l,a2
007926  74 06                         MOVEQ #$6,d2
007928  4A 32 20 07                   TST.b $7(a2,d2.w)
00792C  67 0E                         BEQ $00793C
00792E  12 32 20 00                   MOVE.b $0(a2,d2.w),d1
007932  61 00 00 FE                   BSR $007A32
007936  42 32 20 07                   CLR.b $7(a2,d2.w)
00793A  60 02                         BRA $00793E
00793C  53 48                         SUBQ.w #1,a0
00793E  51 CA FF E8                   DBRA d2,$007928
007942  4E 75                         RTS

; ==== sub_007944 (1 caller) ====
007944  0C 39 00 09 00 00 7A AF       CMPI.b #$9,$7AAF.l
00794C  67 1A                         BEQ $007968
00794E  06 39 00 01 00 00 7A AF       ADDI.b #$1,$7AAF.l
007956  60 10                         BRA $007968

; ==== sub_007958 (1 caller) ====
007958  4A 39 00 00 7A AF             TST.b $7AAF.l
00795E  67 08                         BEQ $007968
007960  04 39 00 01 00 00 7A AF       SUBI.b #$1,$7AAF.l

; ==== sub_007968 (1 caller) ====
007968  41 F9 00 01 66 7D             LEA $1667D.l,a0
00796E  12 39 00 00 7A AF             MOVE.b $7AAF.l,d1
007974  60 00 00 BC                   BRA $007A32

; ==== sub_007978 (1 caller) ====
007978  45 F9 00 00 7A B0             LEA $7AB0.l,a2
00797E  0C 52 09 09                   CMPI.w #$909,(a2)
007982  67 3A                         BEQ $0079BE
007984  70 01                         MOVEQ #$1,d0
007986  06 32 00 01 00 00             ADDI.b #$1,$0(a2,d0.w)
00798C  0C 32 00 0A 00 00             CMPI.b #$A,$0(a2,d0.w)
007992  6D 2A                         BLT $0079BE
007994  15 BC 00 00 00 00             MOVE.b #$0,$0(a2,d0.w)
00799A  51 C8 FF EA                   DBRA d0,$007986
00799E  60 1E                         BRA $0079BE

; ==== sub_0079A0 (1 caller) ====
0079A0  45 F9 00 00 7A B0             LEA $7AB0.l,a2
0079A6  4A 52                         TST.w (a2)
0079A8  67 14                         BEQ $0079BE
0079AA  70 01                         MOVEQ #$1,d0
0079AC  04 32 00 01 00 00             SUBI.b #$1,$0(a2,d0.w)
0079B2  6A 0A                         BPL $0079BE
0079B4  15 BC 00 09 00 00             MOVE.b #$9,$0(a2,d0.w)
0079BA  51 C8 FF F0                   DBRA d0,$0079AC

; ==== sub_0079BE (1 caller) ====
0079BE  41 F9 00 01 66 7B             LEA $1667B.l,a0
0079C4  45 F9 00 00 7A B0             LEA $7AB0.l,a2
0079CA  74 01                         MOVEQ #$1,d2
0079CC  12 32 20 00                   MOVE.b $0(a2,d2.w),d1
0079D0  61 00 00 60                   BSR $007A32
0079D4  51 CA FF F6                   DBRA d2,$0079CC
0079D8  30 38 7A B0                   MOVE.w $7AB0.w,d0
0079DC  4E 75                         RTS

; ==== sub_0079DE (1 caller) ====
0079DE  47 F9 00 01 79 60             LEA $17960.l,a3
0079E4  C2 7C 00 0F                   AND.w #$F,d1
0079E8  E7 41                         ASL.w #3,d1
0079EA  D6 C1                         ADDA.w d1,a3
0079EC  49 EB 00 50                   LEA $50(a3),a4
0079F0  10 9B                         MOVE.b (a3)+,(a0)
0079F2  11 5C 05 32                   MOVE.b (a4)+,$532(a0)
0079F6  11 5B 00 26                   MOVE.b (a3)+,$26(a0)
0079FA  11 5C 05 58                   MOVE.b (a4)+,$558(a0)
0079FE  11 5B 00 4C                   MOVE.b (a3)+,$4C(a0)
007A02  11 5C 05 7E                   MOVE.b (a4)+,$57E(a0)
007A06  11 5B 00 72                   MOVE.b (a3)+,$72(a0)
007A0A  11 5C 05 A4                   MOVE.b (a4)+,$5A4(a0)
007A0E  11 5B 00 98                   MOVE.b (a3)+,$98(a0)
007A12  11 5C 05 CA                   MOVE.b (a4)+,$5CA(a0)
007A16  11 5B 00 BE                   MOVE.b (a3)+,$BE(a0)
007A1A  11 5C 05 F0                   MOVE.b (a4)+,$5F0(a0)
007A1E  11 5B 00 E4                   MOVE.b (a3)+,$E4(a0)
007A22  11 5C 06 16                   MOVE.b (a4)+,$616(a0)
007A26  11 5B 01 0A                   MOVE.b (a3)+,$10A(a0)
007A2A  11 5C 06 3C                   MOVE.b (a4)+,$63C(a0)
007A2E  53 48                         SUBQ.w #1,a0
007A30  4E 75                         RTS

; ==== sub_007A32 (2 callers) ====
007A32  47 F9 00 01 7A 00             LEA $17A00.l,a3
007A38  C2 7C 00 0F                   AND.w #$F,d1
007A3C  30 01                         MOVE.w d1,d0
007A3E  E7 41                         ASL.w #3,d1
007A40  D0 40                         ADD.w d0,d0
007A42  D0 40                         ADD.w d0,d0
007A44  D2 40                         ADD.w d0,d1
007A46  D6 C1                         ADDA.w d1,a3
007A48  49 EB 00 78                   LEA $78(a3),a4
007A4C  10 9B                         MOVE.b (a3)+,(a0)
007A4E  11 5C 05 32                   MOVE.b (a4)+,$532(a0)
007A52  11 5B 00 26                   MOVE.b (a3)+,$26(a0)
007A56  11 5C 05 58                   MOVE.b (a4)+,$558(a0)
007A5A  11 5B 00 4C                   MOVE.b (a3)+,$4C(a0)
007A5E  11 5C 05 7E                   MOVE.b (a4)+,$57E(a0)
007A62  11 5B 00 72                   MOVE.b (a3)+,$72(a0)
007A66  11 5C 05 A4                   MOVE.b (a4)+,$5A4(a0)
007A6A  11 5B 00 98                   MOVE.b (a3)+,$98(a0)
007A6E  11 5C 05 CA                   MOVE.b (a4)+,$5CA(a0)
007A72  11 5B 00 BE                   MOVE.b (a3)+,$BE(a0)
007A76  11 5C 05 F0                   MOVE.b (a4)+,$5F0(a0)
007A7A  11 5B 00 E4                   MOVE.b (a3)+,$E4(a0)
007A7E  11 5C 06 16                   MOVE.b (a4)+,$616(a0)
007A82  11 5B 01 0A                   MOVE.b (a3)+,$10A(a0)
007A86  11 5C 06 3C                   MOVE.b (a4)+,$63C(a0)
007A8A  11 5B 01 30                   MOVE.b (a3)+,$130(a0)
007A8E  11 5C 06 62                   MOVE.b (a4)+,$662(a0)
007A92  11 5B 01 56                   MOVE.b (a3)+,$156(a0)
007A96  11 5C 06 88                   MOVE.b (a4)+,$688(a0)
007A9A  11 5B 01 7C                   MOVE.b (a3)+,$17C(a0)
007A9E  11 5C 06 AE                   MOVE.b (a4)+,$6AE(a0)
007AA2  11 5B 01 A2                   MOVE.b (a3)+,$1A2(a0)
007AA6  11 5C 06 D4                   MOVE.b (a4)+,$6D4(a0)
007AAA  53 48                         SUBQ.w #1,a0
007AAC  4E 75                         RTS
007AAE  .dc.b 02 03 01 04 00 00 00 00 00 00 00 01 01 01 01 01 ; ................
007ABE  .dc.b 01 01 00 00 00 02 05 00 00 32 00 00 00 80 C0 E0 ; .........2......
007ACE  .dc.b F0 F8 FC FE FF 50 60 70 80 90 A0 B0 C0 D0 E0 F0 ; .....P`p........
007ADE  .dc.b F1 F2 F3 F4 F5 F6 F7 F8 F9 FA FB FC FD FE FF EF ; ................
007AEE  .dc.b DF CF CF BF BF AF AF 9F 9F 8F 8F 7E 7E 6E 6E 5E ; ...........~~nn^
007AFE  .dc.b 5E 4E 4E 3E 3E 2E 2E 1E 1E 0E 0E 0F 0F 00 05 00 ; ^NN>>...........
007B0E  .dc.b 00 00 01 00 00 00 00 00 08 00 00 00 03 00 00 00 ; ................
007B1E  .dc.b 06 00 02 DD 02 E1 02 E5 02 E9 02 ED 00 00 00 00 ; ................
007B2E  .dc.b 38 52 38 50 43 90 4E D0 4E CE 43 8E 38 4E 2D 0E ; 8R8PC.N.N.C.8N-.
007B3E  .dc.b 21 CE 16 8E 16 90 16 92 16 94 16 96 16 98 16 9A ; !...............
007B4E  .dc.b 0B 5A 0B 58 0B 56 0B 54 0B 52 0B 50 0B 4E 0B 4C ; .Z.X.V.T.R.P.N.L
007B5E  .dc.b 0B 4A 00 0A 00 0C 00 0E 00 10 00 12 00 14 00 16 ; .J..............
007B6E  .dc.b 00 18 00 1A 00 1C 00 1E 00 20 0B 60 16 A0 21 E0 ; ......... .`..!.
007B7E  .dc.b 2D 20 38 60 38 62 38 64 38 66 2D 26 21 E6 16 A6 ; - 8`8b8d8f-&!...
007B8E  .dc.b 0B 66 00 26 00 24 00 22 0B 62 16 A2 21 E2 2D 22 ; .f.&.$.".b..!.-"
007B9E  .dc.b 2D 24 21 E4 16 A4 0B 64 43 92 4E D2 4E D4 4E D6 ; -$!....dC.N.N.N.
007BAE  .dc.b 5A 16 5A 14 5A 12 5A 10 5A 0E 5A 0C 4E CC 43 8C ; Z.Z.Z.Z.Z.Z.N.C.
007BBE  .dc.b 38 4C 2D 0C 21 CC 16 8C 16 8A 21 CA 2D 0A 38 4A ; 8L-.!.....!.-.8J
007BCE  .dc.b 43 8A 4E CA 5A 0A 65 4A 70 8A 70 88 65 48 5A 08 ; C.N.Z.eJp.p.eHZ.
007BDE  .dc.b 4E C8 43 88 38 48 2D 08 21 C8 16 88 0B 48 00 08 ; N.C.8H-.!....H..
007BEE  .dc.b 00 06 0B 46 16 86 21 C6 2D 06 38 46 38 44 38 42 ; ...F..!.-.8F8D8B
007BFE  .dc.b 38 40 2D 00 21 C0 16 80 0B 40 00 00 00 02 00 04 ; 8@-.!....@......
007C0E  .dc.b 0B 44 16 84 21 C4 2D 04 2D 02 21 C2 16 82 0B 42 ; .D..!.-.-.!....B
007C1E  .dc.b 43 94 43 96 38 56 2D 16 2D 18 38 58 43 98 4E D8 ; C.C.8V-.-.8XC.N.
007C2E  .dc.b 5A 18 65 58 65 56 65 54 65 52 65 50 65 4E 65 4C ; Z.eXeVeTeRePeNeL
007C3E  .dc.b 70 8C 70 8E 70 90 70 92 70 94 70 96 70 98 70 9A ; p.p.p.p.p.p.p.p.
007C4E  .dc.b 70 9C 7B DC 7B DA 7B D8 7B D6 7B D4 7B D2 7B D0 ; p.{.{.{.{.{.{.{.
007C5E  .dc.b 7B CE 7B CC 7B CA 7B C8 7B C6 70 86 65 46 5A 06 ; {.{.{.{.{.p.eFZ.
007C6E  .dc.b 4E C6 43 86 43 84 43 82 43 80 4E C0 5A 00 65 40 ; N.C.C.C.C.N.Z.e@
007C7E  .dc.b 70 80 7B C0 7B C2 7B C4 70 84 65 44 5A 04 4E C4 ; p.{.{.{.p.eDZ.N.
007C8E  .dc.b 4E C2 5A 02 65 42 70 82 38 54 2D 14 2D 12 2D 10 ; N.Z.eBp.8T-.-.-.
007C9E  .dc.b 21 D0 21 D2 21 D4 21 D6 21 D8 21 DA 2D 1A 38 5A ; !.!.!.!.!.!.-.8Z
007CAE  .dc.b 43 9A 4E DA 5A 1A 65 5A 65 5C 5A 1C 4E DC 43 9C ; C.N.Z.eZe\Z.N.C.
007CBE  .dc.b 38 5C 2D 1C 21 DC 16 9C 0B 5C 0B 5E 16 9E 21 DE ; 8\-.!....\.^..!.
007CCE  .dc.b 2D 1E 38 5E 43 9E 4E DE 5A 1E 65 5E 70 9E 7B DE ; -.8^C.N.Z.e^p.{.
007CDE  .dc.b 7B E0 70 A0 65 60 5A 20 4E E0 43 A0 43 A2 43 A4 ; {.p.e`Z N.C.C.C.
007CEE  .dc.b 43 A6 4E E6 5A 26 65 66 70 A6 7B E6 7B E4 7B E2 ; C.N.Z&efp.{.{.{.
007CFE  .dc.b 70 A2 65 62 5A 22 4E E2 4E E4 5A 24 65 64 70 A4 ; p.ebZ"N.N.Z$edp.
007D0E  .dc.b 4A 2D 00 1E 6A 36 02 2D 00 7F 00 1E 2B 7C 00 00 ; J-..j6.-....+|..
007D1E  .dc.b 7E 7E 00 12 2B 7C 00 00 7E 82 00 08 50 ED 00 1C ; ~~..+|..~...P...
007D2E  .dc.b 72 02 30 38 01 04 B0 6D 00 18 6C 02 44 41 3B 41 ; r.08...m..l.DA;A
007D3E  .dc.b 00 2E 3B 7C 00 62 00 30 51 ED 00 34 4A 2D 00 1D ; ..;|.b.0Q..4J-..
007D4E  .dc.b 67 0C 70 05 72 04 61 00 FB 76 60 00 00 DE 4C AD ; g.p.r.a..v`...L.
007D5E  .dc.b 00 03 00 18 36 2D 00 30 41 FA 01 30 D2 70 30 00 ; ....6-.0A..0.p0.
007D6E  .dc.b D0 6D 00 2E 90 78 01 20 92 78 01 22 B0 7C FF E0 ; .m...x. .x.".|..
007D7E  .dc.b 6F 00 00 B4 B2 7C FF E0 6F 00 00 AC B0 7C 01 90 ; o....|..o....|..
007D8E  .dc.b 6C 00 00 A4 B2 7C 01 14 6C 00 00 9C 48 AD 00 03 ; l....|..l...H...
007D9E  .dc.b 00 18 61 00 C5 EA 67 08 6B 00 00 90 61 00 F9 7C ; ..a...g.k...a..|
007DAE  .dc.b 4C AD 00 03 00 18 4A 6D 00 2E 6B 04 D0 7C 00 18 ; L.....Jm..k..|..
007DBE  .dc.b 50 41 61 00 B7 EC 67 12 4A 2D 00 34 66 00 00 68 ; PAa...g.J-.4f..h
007DCE  .dc.b 44 6D 00 2E 50 ED 00 34 60 04 51 ED 00 34 30 2D ; Dm..P..4`.Q..40-
007DDE  .dc.b 00 2E 48 C0 E2 88 92 40 36 2D 00 30 41 F8 7E 98 ; ..H....@6-.0A.~.
007DEE  .dc.b 4A 70 30 00 6A 18 92 7C 00 30 6A 04 D2 7C 06 00 ; Jp0.j..|.0j..|..
007DFE  .dc.b 10 32 10 00 67 06 3B 7C 00 1C 00 30 60 1A D2 7C ; .2..g.;|...0`..|
007E0E  .dc.b 00 30 B2 7C 06 00 6D 04 92 7C 06 00 10 32 10 00 ; .0.|..m..|...2..
007E1E  .dc.b 67 06 3B 7C 00 4E 00 30 55 6D 00 30 6A 06 3B 7C ; g.;|.N.0Um.0j.;|
007E2E  .dc.b 00 62 00 30 4E 75 60 00 9D 02 2F 0D 61 00 9C 7E ; .b.0Nu`.../.a..~
007E3E  .dc.b 20 57 14 28 00 1E 84 3C 00 80 1B 42 00 1E 2B 7C ;  W.(...<...B..+|
007E4E  .dc.b 00 00 7E FC 00 22 4C A8 00 03 00 18 B4 7C 00 08 ; ..~.."L......|..
007E5E  .dc.b 6E 02 50 40 48 AD 00 03 00 18 61 00 9C 82 2A 5F ; n.P@H.....a...*_
007E6E  .dc.b 70 08 4E B9 00 01 A2 DC 70 00 72 F9 60 00 A4 D0 ; p.N.....p.r.`...
007E7E  .dc.b 00 00 7E 8A 00 03 00 02 00 12 00 0B 00 01 14 D8 ; ..~.............
007E8E  .dc.b 00 01 15 8C 00 BA 03 C3 0F 00 00 00 00 00 00 01 ; ................
007E9E  .dc.b 00 01 00 02 00 02 00 02 00 03 00 03 00 03 00 03 ; ................
007EAE  .dc.b 00 04 00 04 00 04 00 04 00 04 00 03 00 03 00 03 ; ................
007EBE  .dc.b 00 03 00 02 00 02 00 02 00 01 00 01 00 00 00 00 ; ................
007ECE  .dc.b FF FF FF FF FF FE FF FE FF FE FF FD FF FD FF FD ; ................
007EDE  .dc.b FF FD FF FC FF FC FF FC FF FC FF FC FF FD FF FD ; ................
007EEE  .dc.b FF FD FF FD FF FE FF FE FF FE FF FF FF FF       ; ..............
007EFC  4A 2D 00 1E                   TST.b $1E(a5)
007F00  6A 2E                         BPL $007F30
007F02  2B 7C 00 00 80 E8 00 12       MOVE.l #$80E8,$12(a5)
007F0A  2B 7C 00 00 81 10 00 08       MOVE.l #$8110,$8(a5)
007F12  10 2D 00 1E                   MOVE.b $1E(a5),d0
007F16  C0 7C 00 7F                   AND.w #$7F,d0
007F1A  1B 40 00 1E                   MOVE.b d0,$1E(a5)
007F1E  50 ED 00 1C                   ST $1C(a5)
007F22  50 ED 00 1F                   ST $1F(a5)
007F26  3B 40 00 0C                   MOVE.w d0,$C(a5)
007F2A  3B 7C 00 18 00 32             MOVE.w #$18,$32(a5)
007F30  61 00 C4 5A                   BSR $00438C
007F34  66 00 00 AE                   BNE $007FE4
007F38  4C AD                         .dc.w $4CAD
007F3A  .dc.b 00 03 00 18 90 78 01 20 92 78 01 22 0C 6D 00 08 ; .....x. .x.".m..
007F4A  .dc.b 00 0C 6D 00 00 3E 48 A7 C0 00 D2 7C 00 0F 0C 6D ; ..m..>H....|...m
007F5A  .dc.b 00 08 00 0C 66 02 58 41 D0 7C 00 10 61 00 B6 46 ; ....f.XA.|..a..F
007F6A  .dc.b 4C 9F 00 03 66 18 38 2D 00 32 41 FA 02 76 D2 70 ; L...f.8-.2A..v.p
007F7A  .dc.b 40 00 55 6D 00 32 6A 00 00 36 42 6D 00 32 60 00 ; @.Um.2j..6Bm.2`.
007F8A  .dc.b 00 2E 38 2D 00 32 C8 7C 00 03 66 00 00 1E 53 41 ; ..8-.2.|..f...SA
007F9A  .dc.b 34 01 94 78 01 74 6B 12 48 A7 C0 00 50 40 61 00 ; 4..x.tk.H...P@a.
007FAA  .dc.b B6 04 4C 9F 00 03 67 02 52 41 52 6D 00 32 B0 7C ; ..L...g.RARm.2.|
007FBA  .dc.b FF E0 6F 00 00 22 B2 7C FF E0 6F 00 00 1A B0 7C ; ..o..".|..o....|
007FCA  .dc.b 01 90 6C 00 00 12 B2 7C 01 14 6C 00 00 0A 48 AD ; ..l....|..l...H.
007FDA  .dc.b 00 03 00 18 4E 75 60 00 9B 9C                   ; ....Nu`...
007FE4  70 03                         MOVEQ #$3,d0
007FE6  72 04                         MOVEQ #$4,d1
007FE8  61 00 F8 E2                   BSR $0078CC
007FEC  34 2D 00 0C                   MOVE.w $C(a5),d2
007FF0  B4 7C 00 09                   CMP.w #$9,d2
007FF4  66 12                         BNE $008008
007FF6  70 13                         MOVEQ #$13,d0
007FF8  4E B9 00 01 A2 DC             JSR $1A2DC.l
007FFE  70 01                         MOVEQ #$1,d0
008000  61 00 F7 F4                   BSR $0077F6
008004  60 00 9B 32                   BRA $001B38
008008  B4 7C 00 05                   CMP.w #$5,d2
00800C  66 04                         BNE $008012
00800E  70 02                         MOVEQ #$2,d0
008010  60 12                         BRA $008024
008012  B4 7C 00 06                   CMP.w #$6,d2
008016  66 04                         BNE $00801C
008018  70 03                         MOVEQ #$3,d0
00801A  60 08                         BRA $008024
00801C  B4 7C 00 07                   CMP.w #$7,d2
008020  66 12                         BNE $008034
008022  70 04                         MOVEQ #$4,d0
008024  61 00 F7 D0                   BSR $0077F6
008028  70 11                         MOVEQ #$11,d0
00802A  4E B9 00 01 A2 DC             JSR $1A2DC.l
008030  60 00 9B 06                   BRA $001B38
008034  B4 7C 00 08                   CMP.w #$8,d2
008038  66 10                         BNE $00804A
00803A  61 00 F9 3C                   BSR $007978
00803E  70 12                         MOVEQ #$12,d0
008040  4E B9 00 01 A2 DC             JSR $1A2DC.l
008046  60 00 9A F0                   BRA $001B38
00804A  4A 42                         TST.w d2
00804C  66 20                         BNE $00806E
00804E  11 FC 00 01 54 4F             MOVE.b #$1,$544F.w
008054  10 38 54 51                   MOVE.b $5451.w,d0
008058  B0 3C 00 02                   CMP.b #$2,d0
00805C  6C 04                         BGE $008062
00805E  52 38 54 51                   ADDQ.b #1,$5451.w
008062  70 11                         MOVEQ #$11,d0
008064  4E B9 00 01 A2 DC             JSR $1A2DC.l
00806A  60 00 9A CC                   BRA $001B38
00806E  B4 7C 00 01                   CMP.w #$1,d2
008072  66 20                         BNE $008094
008074  11 FC 00 02 54 4F             MOVE.b #$2,$544F.w
00807A  10 38 54 52                   MOVE.b $5452.w,d0
00807E  B0 3C 00 04                   CMP.b #$4,d0
008082  6C 04                         BGE $008088
008084  52 38 54 52                   ADDQ.b #1,$5452.w
008088  70 11                         MOVEQ #$11,d0
00808A  4E B9 00 01 A2 DC             JSR $1A2DC.l
008090  60 00 9A A6                   BRA $001B38
008094  B4 7C 00 02                   CMP.w #$2,d2
008098  66 1A                         BNE $0080B4
00809A  10 38 59 4C                   MOVE.b $594C.w,d0
00809E  B0 3C 00 04                   CMP.b #$4,d0
0080A2  6C 04                         BGE $0080A8
0080A4  52 38 59 4C                   ADDQ.b #1,$594C.w
0080A8  70 11                         MOVEQ #$11,d0
0080AA  4E B9 00 01 A2 DC             JSR $1A2DC.l
0080B0  60 00 9A 86                   BRA $001B38
0080B4  B4 7C 00 04                   CMP.w #$4,d2
0080B8  66 12                         BNE $0080CC
0080BA  50 F9 00 00 7A C8             ST $7AC8.l
0080C0  70 11                         MOVEQ #$11,d0
0080C2  4E B9 00 01 A2 DC             JSR $1A2DC.l
0080C8  60 00 9A 6E                   BRA $001B38
0080CC  B4 7C 00 03                   CMP.w #$3,d2
0080D0  66 12                         BNE $0080E4
0080D2  31 FC 02 08 02 62             MOVE.w #$208,$262.w
0080D8  70 11                         MOVEQ #$11,d0
0080DA  4E B9 00 01 A2 DC             JSR $1A2DC.l
0080E0  60 00 9A 56                   BRA $001B38
0080E4  60 00 9A 52                   BRA $001B38
0080E8  .dc.b 00 00 81 60 00 00 81 6E 00 00 81 7C 00 00 81 8A ; ...`...n...|....
0080F8  .dc.b 00 00 81 98 00 00 81 A6 00 00 81 B4 00 00 81 C2 ; ................
008108  .dc.b 00 00 81 D0 00 00 81 DE 00 01 00 01 00 0D 00 0D ; ................
008118  .dc.b 00 01 00 01 00 0D 00 0D 00 01 00 01 00 0D 00 0D ; ................
008128  .dc.b 00 01 00 01 00 0D 00 0D 00 01 00 01 00 0D 00 0D ; ................
008138  .dc.b 00 01 00 01 00 0D 00 0D 00 01 00 01 00 0D 00 0D ; ................
008148  .dc.b 00 01 00 01 00 0D 00 0D 00 01 00 02 00 12 00 10 ; ................
008158  .dc.b 00 04 00 02 00 18 00 0B 00 01 0F D8 00 01 10 38 ; ...............8
008168  .dc.b 00 BC 04 02 10 00 00 01 10 58 00 01 10 B8 00 BC ; .........X......
008178  .dc.b 04 02 10 00 00 01 10 D8 00 01 11 38 00 BC 04 02 ; ...........8....
008188  .dc.b 10 00 00 01 11 58 00 01 11 B8 00 BC 04 02 10 00 ; .....X..........
008198  .dc.b 00 01 11 D8 00 01 12 38 00 BC 04 02 10 00 00 01 ; .......8........
0081A8  .dc.b 12 58 00 01 12 B8 00 BC 04 02 10 00 00 01 12 D8 ; .X..............
0081B8  .dc.b 00 01 13 38 00 BC 04 02 10 00 00 01 13 58 00 01 ; ...8.........X..
0081C8  .dc.b 13 B8 00 BC 04 02 10 00 00 01 16 B8 00 01 17 9C ; ................
0081D8  .dc.b 00 BA 04 C3 13 00 00 01 15 C8 00 01 16 7C 00 BA ; .............|..
0081E8  .dc.b 03 C3 0F 00 00 04 00 03 00 03 00 02 00 02 00 02 ; ................
0081F8  .dc.b 00 01 00 01 00 01 00 01 00 00 00 00 00 00 00 00 ; ................
008208  .dc.b 00 00 00 00 00 00 B8 B6 B2 B2 BA DF B1 AB AC BC ; ................
008218  .dc.b DF DF DF DF DF DF DF DF DF DF 00 00 84 3A B8 B6 ; .............:..
008228  .dc.b B2 B2 BA DF AF BE B3 DF DF DF DF DF DF DF DF DF ; ................
008238  .dc.b DF DF 00 00 84 6C A9 BA AD AC B6 B0 B1 DF C0 DF ; .....l..........
008248  .dc.b DF DF DF DF DF DF DF DF DF DF 00 00 84 90 B6 DF ; ................
008258  .dc.b B3 B6 B4 BA DF AD D2 AB A6 AF BA DF DF DF DF DF ; ................
008268  .dc.b DF DF 00 00 84 96 A8 B6 B3 B3 B6 DF BD BE BA BC ; ................
008278  .dc.b B4 BA AD DF DF DF DF DF DF DF 00 00 84 9E BE BC ; ................
008288  .dc.b B7 B6 B2 DF B2 B0 B3 B3 BA AD DF DF DF DF DF DF ; ................
008298  .dc.b DF DF 00 00 84 B8 AC AB BA B9 BE B1 DF AB AC B0 ; ................
0082A8  .dc.b AA AF BE AD B6 BB B6 AC DF DF 00 00 84 D2 B2 BE ; ................
0082B8  .dc.b B1 B9 AD BA BB DF AB AD BA B1 A5 DF DF DF DF DF ; ................
0082C8  .dc.b DF DF 00 00 84 EE BE B1 BB AD BA BE AC DF BA AC ; ................
0082D8  .dc.b BC B7 BA AD DF DF DF DF DF DF 00 00 85 0A B5 AA ; ................
0082E8  .dc.b B3 B6 BE B1 DF BA B8 B8 BA BD AD BA BC B7 AB DF ; ................
0082F8  .dc.b DF DF 00 00 85 26 BC B7 AD B6 AC DF DF B7 AA BA ; .....&..........
008308  .dc.b B3 AC BD BA BC B4 DF DF DF DF 00 00 85 42 AB BA ; .............B..
008318  .dc.b AA AB DF A8 BA B6 BB BA B2 BE B1 B1 DF DF DF DF ; ................
008328  .dc.b DF DF 00 00 85 5E B5 BE B4 BA DF D9 DF BA B3 A8 ; .....^..........
008338  .dc.b B0 B0 BB DF DF DF DF DF DF DF 00 00 84 76 B5 BE ; .............v..
008348  .dc.b B1 B6 AC DF B3 B6 BA AF BE DF DF DF DF DF DF DF ; ................
008358  .dc.b DF DF 00 00 85 7A B7 BE B1 AC DF B5 AA BA AD B8 ; .....z..........
008368  .dc.b BA B1 DF B8 AD BE B3 DF DF DF 00 00 85 96 AB B7 ; ................
008378  .dc.b B0 B2 BE AC DF BA B1 B8 BA B3 DF DF DF DF DF DF ; ................
008388  .dc.b DF DF 00 00 85 B2 AD BA B1 BA DF B7 BA B1 B4 BA ; ................
008398  .dc.b DF DF DF DF DF DF DF DF DF DF 00 00 85 CE B4 B3 ; ................
0083A8  .dc.b BE AA AC DF B0 BC B7 BA B1 BB BE B3 AC B4 B6 DF ; ................
0083B8  .dc.b DF DF 00 00 85 EA AD B0 BD B6 B1 DF A8 AA B1 BB ; ................
0083C8  .dc.b BA AD B3 B6 BC B7 DF DF DF DF 00 00 86 06 B3 AA ; ................
0083D8  .dc.b AB A5 DF B0 AC AB BA AD B4 B0 AD B1 DF DF DF DF ; ................
0083E8  .dc.b DF DF 00 00 86 22 BD B3 AA BA AC B2 B0 BD B6 B3 ; ....."..........
0083F8  .dc.b DF DF DF DF DF DF DF DF DF DF 00 00 84 08 D3 D3 ; ................
008408  .dc.b 31 FC 09 09 0E 0E 20 3C 05 00 00 00 21 C0 14 80 ; 1..... <....!...
008418  .dc.b 21 C0 14 88 21 C0 14 90 43 FA 00 04 60 20 A6 BA ; !...!...C...` ..
008428  .dc.b BE B7 DF AB B7 BE AB AC DF B6 AB DF DE DE DF DF ; ................
008438  .dc.b DF DF 33 FC 00 00 00 DF F1 DC 43 FA 00 14 D0 FC ; ..3.......C.....
008448  .dc.b 00 0F 70 11 12 19 46 01 10 C1 51 C8 FF F8 4E 75 ; ..p...F...Q...Nu
008458  .dc.b D2 DF AF B3 BE A6 DF B6 AB DF B9 BE AC AB DF DE ; ................
008468  .dc.b DF D2 DF DF 33 FC 00 20 00 DF F1 DC 4E 75 43 FA ; ....3.. ....NuC.
008478  .dc.b 00 04 60 CA BD B0 A6 D2 AB B7 BE AB DF A8 BE AC ; ..`.............
008488  .dc.b DF BC B3 B0 AC BA DF DF 43 FA 01 DC 60 B0 41 FA ; ........C...`.A.
008498  .dc.b 01 EA 60 00 01 A2 43 FA 00 04 60 A2 AB B7 BA DF ; ..`...C...`.....
0084A8  .dc.b BB AA B4 BA DF A8 BE AC DF B7 BA AD BA DE DF DF ; ................
0084B8  .dc.b 43 FA 00 04 60 88 AB BE BE DF AB BE DF AB BE DF ; C...`...........
0084C8  .dc.b AB BE BE BE BE BE BE BE DF DF 43 FA 00 06 60 00 ; ..........C...`.
0084D8  .dc.b FF 6E B3 B6 A5 BA B1 A5 DF A5 AA B2 DF B3 B0 BA ; .n..............
0084E8  .dc.b AB BA B1 DE DF DF 43 FA 00 06 60 00 FF 52 AF B3 ; ......C...`..R..
0084F8  .dc.b AA B9 B0 DF D9 DF B9 B0 AB B0 B9 B6 AB AB BA AD ; ................
008508  .dc.b DF DF 43 FA 00 06 60 00 FF 36 D2 DF AB B7 BA DF ; ..C...`..6......
008518  .dc.b B8 AB B6 DF B7 AA B1 AB BA AD DF D2 DF DF 43 FA ; ..............C.
008528  .dc.b 00 06 60 00 FF 1A A8 B6 B3 B3 AC AB DF BB AA DF ; ..`.............
008538  .dc.b B1 BA DF AF B6 A5 A5 BE DF DF 43 FA 00 06 60 00 ; ..........C...`.
008548  .dc.b FE FE AF AA B2 AF DF AA AF DF AB B7 BA DF A9 B0 ; ................
008558  .dc.b B3 AA B2 BA DF DF 43 FA 00 06 60 00 FE E2 B1 BE ; ......C...`.....
008568  .dc.b DF B5 BE DF DF B8 BE B1 A5 DF B1 BA AB AB D1 D1 ; ................
008578  .dc.b DF DF 43 FA 00 06 60 00 FE C6 AB B7 BA DF B8 AD ; ..C...`.........
008588  .dc.b BA BE AB DF B7 AA B1 AB BA AD DF DF DF DF 43 FA ; ..............C.
008598  .dc.b 00 06 60 00 FE AA BA B6 B1 DF AB BA AA AD BA AD ; ..`.............
0085A8  .dc.b DF B9 AD BA AA B1 BB DE DF DF 43 FA 00 06 60 00 ; ..........C...`.
0085B8  .dc.b FE 8E B4 BA BA AF DF D7 BB BA D6 BD AA B8 B8 B6 ; ................
0085C8  .dc.b B1 B8 DF DE DF DF 43 FA 00 06 60 00 FE 72 BB BA ; ......C...`..r..
0085D8  .dc.b AD DF BD BE BA AD D2 AB B6 B8 BA DF DE DF DF DF ; ................
0085E8  .dc.b DF DF 43 FA 00 06 60 00 FE 56 BB B6 BA DF B8 BA ; ..C...`..V......
0085F8  .dc.b B3 BD BA DF B8 BA B9 BE B7 AD DF DE DF DF 43 FA ; ..............C.
008608  .dc.b 00 06 60 00 FE 3A B9 B6 B1 B8 BA AD DF A8 BA B8 ; ..`..:..........
008618  .dc.b DF DE DE DE DE DE DE DE DF DF 43 FA 00 06 60 00 ; ..........C...`.
008628  .dc.b FE 1E AC AF B6 BA B3 AC DF BB AA AD BC B7 DF DE ; ................
008638  .dc.b DE DE DE DE DF DF 43 F8 02 EE 74 09 61 06 51 CA ; ......C...t.a.Q.
008648  .dc.b FF FC 4E 75 70 0B 45 FA 00 FA 56 49 12 DA 51 C8 ; ..Nup.E...VI..Q.
008658  .dc.b FF FC 70 11 12 18 46 01 12 C1 51 C8 FF F8 12 FC ; ..p...F...Q.....
008668  .dc.b 00 FF 54 48 4E 75 D5 DF A9 CE D1 CF CD D2 CD C7 ; ..THNu..........
008678  .dc.b D1 CA D1 C6 CF BE DF D5 DF DF D5 D5 D5 D5 D5 D5 ; ................
008688  .dc.b D5 D5 D5 D5 D5 D5 D5 D5 D5 D5 D5 D5 DF DF D5 DF ; ................
008698  .dc.b DF DF DF DF DF DF DF DF DF DF DF DF DF DF DF D5 ; ................
0086A8  .dc.b DF DF D5 DF A6 BA BE B7 DF D2 DF AD D2 AB A6 AF ; ................
0086B8  .dc.b BA DF DF D5 DF DF D5 DF A8 BE AC DF B1 B6 BC BA ; ................
0086C8  .dc.b DF D1 D1 D1 DF DF DF D5 DF DF D5 DF B6 DF A8 B0 ; ................
0086D8  .dc.b B1 BB BA AD D3 DF A8 B7 B0 DF DF D5 DF DF D5 DF ; ................
0086E8  .dc.b A8 B6 B3 B3 DF BC B0 B1 A9 BA AD AB DF DF DF D5 ; ................
0086F8  .dc.b DF DF D5 DF AD D2 AB A6 AF BA DF B6 B6 DF DF C0 ; ................
008708  .dc.b DF DF DF D5 DF DF D5 DF DF DF DF DF DF DF DF DF ; ................
008718  .dc.b DF DF DF DF DF DF DF D5 DF DF D5 DF DF DF DF DF ; ................
008728  .dc.b DF DF DF DF DF DF DF DF DF DF DF D5 DF DF D5 D5 ; ................
008738  .dc.b D5 D5 D5 D5 D5 D5 D5 D5 D5 D5 D5 D5 D5 D5 D5 D5 ; ................
008748  .dc.b DF DF 30 30 30 30 30 30 30 20 30 2D 30 20 41 F8 ; ..0000000 0-0 A.
008758  .dc.b 02 EE D0 C7 45 FA FA B0 43 E8 00 0F 72 11 26 4A ; ....E...C...r.&J
008768  .dc.b 10 1B 46 00 C0 3C 00 3F B0 19 66 14 51 C9 FF F2 ; ..F..<.?..f.Q...
008778  .dc.b 24 6A 00 14 4E 92 50 F9 00 00 82 0C 70 FF 4E 75 ; $j..N.P.....p.Nu
008788  .dc.b 45 EA 00 18 0C 52 D3 D3 66 CE 10 3A FA 78 4E 75 ; E....R..f..:.xNu
008798  .dc.b 00 00 00 00 00 00 00 00 00 00 00 00 00 00 00 00 ; ................
0087A8  .dc.b 00 00 00 00 00 00 00 00 00 00 00 00 00 00 00 00 ; ................
0087B8  .dc.b 00 00 00 00 00 00 00 00 00 00 00 00 00 00 00 00 ; ................
0087C8  .dc.b 00 00 00 00 00 00 00 00 00 00 00 00 00 00 00 00 ; ................
0087D8  .dc.b 00 00 00 00 00 00 00 00 00 00 00 00 00 00 00 00 ; ................
0087E8  .dc.b 00 00 00 00 00 00 00 00 00 00 00 00 00 00 00 00 ; ................
0087F8  .dc.b 00 00 00 00 00 00 00 00 00 00 00 00 00 00 00 00 ; ................
008808  .dc.b 00 00 00 00 00 00 00 00 00 00 00 00 00 00 00 00 ; ................
008818  .dc.b 00 00 00 00 00 00 00 00 00 00 00 00 00 00 00 00 ; ................
008828  .dc.b 00 00 00 00 00 00 00 00 00 00 00 00 00 00 00 00 ; ................
008838  .dc.b 00 00 00 00 00 00 00 00 00 00 00 00 00 00 00 00 ; ................
008848  .dc.b 00 00 00 00 00 00 00 00 00 00 00 00 00 00 00 00 ; ................
008858  .dc.b 00 00 00 00 00 00 00 00 00 00 00 00 00 00 00 00 ; ................
008868  .dc.b 00 00 00 00 00 00 00 00 00 00 00 00 00 00 00 00 ; ................
008878  .dc.b 00 00 00 00 00 00 00 00 00 00 00 00 00 00 00 00 ; ................
008888  .dc.b 00 00 00 00 00 00 00 00 00 00 00 00 00 00 00 00 ; ................
008898  .dc.b 00 00 00 00 00 00 00 00 00 00 00 00 00 00 00 00 ; ................
0088A8  .dc.b 00 00 00 00 00 00 00 00 00 00 00 00 00 00 00 00 ; ................
0088B8  .dc.b 00 00 00 00 00 00 00 00 00 00 00 00 00 00 00 00 ; ................
0088C8  .dc.b 00 00 00 00 00 00 00 00 00 00 00 00 00 00 00 00 ; ................
0088D8  .dc.b 00 00 00 00 00 00 00 00 00 00 00 00 00 00 00 00 ; ................
0088E8  .dc.b 00 00 00 00 00 00 00 00 00 00 00 00 00 00 00 00 ; ................
0088F8  .dc.b 00 00 00 00 00 00 00 00 00 00 00 00 00 00 00 00 ; ................
008908  .dc.b 00 00 00 00 00 00 00 00 00 00 00 00 00 00 00 00 ; ................
008918  .dc.b 00 00 00 00 00 00 00 00 00 00 00 00 00 00 00 00 ; ................
008928  .dc.b 00 00 00 00 00 00 00 00 00 00 00 00 00 00 00 00 ; ................
008938  .dc.b 00 00 00 00 00 00 00 00 00 00 00 00 00 00 00 00 ; ................
008948  .dc.b 00 00 00 00 00 00 00 00 00 00 00 00 00 00 00 00 ; ................
008958  .dc.b 00 00 00 00 00 00 00 00 00 00 00 00 00 00 00 00 ; ................
008968  .dc.b 00 00 00 00 00 00 00 00 00 00 00 00 00 00 00 00 ; ................
008978  .dc.b 00 00 00 00 00 00 00 00 00 00 00 00 00 00 00 00 ; ................
008988  .dc.b 00 00 00 00 00 00 00 00 00 00 00 00 00 00 00 00 ; ................
008998  .dc.b 00 00 00 00 00 00 00 00 00 00 00 00 00 00 00 00 ; ................
0089A8  .dc.b 00 00 00 00 00 00 00 00 00 00 00 00 00 00 00 00 ; ................
0089B8  .dc.b 00 00 00 00 00 00 00 00 00 00 00 00 00 00 00 00 ; ................
0089C8  .dc.b 00 00 00 00 00 00 00 00 00 00 00 00 00 00 00 00 ; ................
0089D8  .dc.b 00 00 00 00 00 00 00 00 00 00 00 00 00 00 00 00 ; ................
0089E8  .dc.b 00 00 00 00 00 00 00 00 00 00 00 00 00 00 00 00 ; ................
0089F8  .dc.b 00 00 00 00 00 00 00 00 00 00 00 00 00 00 00 00 ; ................
008A08  .dc.b 00 00 00 00 00 00 00 00 00 00 00 00 00 00 00 00 ; ................
008A18  .dc.b 00 00 00 00 00 00 00 00 00 00 00 00 00 00 00 00 ; ................
008A28  .dc.b 00 00 00 00 00 00 00 00 00 00 00 00 00 00 00 00 ; ................
008A38  .dc.b 00 00 00 00 00 00 00 00 00 00 00 00 00 00 00 00 ; ................
008A48  .dc.b 00 00 00 00 00 00 00 00 00 00 00 00 00 00 00 00 ; ................
008A58  .dc.b 00 00 00 00 00 00 00 00 00 00 00 00 00 00 00 00 ; ................
008A68  .dc.b 00 00 00 00 00 00 00 00 00 00 00 00 00 00 00 00 ; ................
008A78  .dc.b 00 00 00 00 00 00 00 00 00 00 00 00 00 00 00 00 ; ................
008A88  .dc.b 00 00 00 00 00 00 00 00 00 00 00 00 00 00 00 00 ; ................
008A98  .dc.b 00 00 00 00 00 00 00 00 00 00 00 00 00 00 00 00 ; ................
008AA8  .dc.b 00 00 00 00 00 00 00 00 00 00 00 00 00 00 00 00 ; ................
008AB8  .dc.b 00 00 00 00 00 00 00 00 00 00 00 00 00 00 00 00 ; ................
008AC8  .dc.b 00 00 00 00 00 00 00 00 00 00 00 00 00 00 00 00 ; ................
008AD8  .dc.b 00 00 00 00 00 00 00 00 00 00 00 00 00 00 00 00 ; ................
008AE8  .dc.b 00 00 00 00 00 00 00 00 00 00 00 00 00 00 00 00 ; ................
008AF8  .dc.b 00 00 00 00 00 00 00 00 00 00 00 00 00 00 00 00 ; ................
008B08  .dc.b 00 00 00 00 00 00 00 00 00 00 00 00 00 00 00 00 ; ................
008B18  .dc.b 00 00 00 00 00 00 00 00 00 00 00 00 00 00 00 00 ; ................
008B28  .dc.b 00 00 00 00 00 00 00 00 00 00 00 00 00 00 00 00 ; ................
008B38  .dc.b 00 00 00 00 00 00 00 00 00 00 00 00 00 00 00 00 ; ................
008B48  .dc.b 00 00 00 00 00 00 00 00 00 00 00 00 00 00 00 00 ; ................
008B58  .dc.b 00 00 00 00 00 00 00 00 00 00 00 00 00 00 00 00 ; ................
008B68  .dc.b 00 00 00 00 00 00 00 00 00 00 00 00 00 00 00 00 ; ................
008B78  .dc.b 00 00 00 00 00 00 00 00 00 00 00 00 00 00 00 00 ; ................
008B88  .dc.b 00 00 00 00 00 00 00 00 00 00 00 00 00 00 00 00 ; ................
008B98  .dc.b 00 00 00 00 00 00 00 00 00 00 00 00 00 00 00 00 ; ................
008BA8  .dc.b 00 00 00 00 00 00 00 00 00 00 00 00 00 00 00 00 ; ................
008BB8  .dc.b 00 00 00 00 00 00 00 00 00 00 00 00 00 00 00 00 ; ................
008BC8  .dc.b 00 00 00 00 00 00 00 00 00 00 00 00 00 00 00 00 ; ................
008BD8  .dc.b 00 00 00 00 00 00 00 00 00 00 00 00 00 00 00 00 ; ................
008BE8  .dc.b 00 00 00 00 00 00 00 00 00 00 00 00 00 00 00 00 ; ................
008BF8  .dc.b 00 00 00 00 00 00 00 00 00 00 00 00 00 00 00 00 ; ................
008C08  .dc.b 00 00 00 00 00 00 00 00 00 00 00 00 00 00 00 00 ; ................
008C18  .dc.b 00 00 00 00 00 00 00 00 00 00 00 00 00 00 00 00 ; ................
008C28  .dc.b 00 00 00 00 00 00 00 00 00 00 00 00 00 00 00 00 ; ................
008C38  .dc.b 00 00 00 00 00 00 00 00 00 00 00 00 00 00 00 00 ; ................
008C48  .dc.b 00 00 00 00 00 00 00 00 00 00 00 00 00 00 00 00 ; ................
008C58  .dc.b 00 00 00 00 00 00 00 00 00 00 00 00 00 00 00 00 ; ................
008C68  .dc.b 00 00 00 00 00 00 00 00 00 00 00 00 00 00 00 00 ; ................
008C78  .dc.b 00 00 00 00 00 00 00 00 00 00 00 00 00 00 00 00 ; ................
008C88  .dc.b 00 00 00 00 00 00 00 00 00 00 00 00 00 00 00 00 ; ................
008C98  .dc.b 00 00 00 00 00 00 00 00 00 00 00 00 00 00 00 00 ; ................
008CA8  .dc.b 00 00 00 00 00 00 00 00 00 00 00 00 00 00 00 00 ; ................
008CB8  .dc.b 00 00 00 00 00 00 00 00 00 00 00 00 00 00 00 00 ; ................
008CC8  .dc.b 00 00 00 00 00 00 00 00 00 00 00 00 00 00 00 00 ; ................
008CD8  .dc.b 00 00 00 00 00 00 00 00 00 00 00 00 00 00 00 00 ; ................
008CE8  .dc.b 00 00 00 00 00 00 00 00 00 00 00 00 00 00 00 00 ; ................
008CF8  .dc.b 00 00 00 00 00 00 00 00 00 00 00 00 00 00 00 00 ; ................
008D08  .dc.b 00 00 00 00 00 00 00 00 00 00 00 00 00 00 00 00 ; ................
008D18  .dc.b 00 00 00 00 00 00 00 00 00 00 00 00 00 00 00 00 ; ................
008D28  .dc.b 00 00 00 00 00 00 00 00 00 00 00 00 00 00 00 00 ; ................
008D38  .dc.b 00 00 00 00 00 00 00 00 00 00 00 00 00 00 00 00 ; ................
008D48  .dc.b 00 00 00 00 00 00 00 00 00 00 00 00 00 00 00 00 ; ................
008D58  .dc.b 00 00 00 00 00 00 00 00 00 00 00 00 00 00 00 00 ; ................
008D68  .dc.b 00 00 00 00 00 00 00 00 00 00 00 00 00 00 00 00 ; ................
008D78  .dc.b 00 00 00 00 00 00 00 00 00 00 00 00 00 00 00 00 ; ................
008D88  .dc.b 00 00 00 00 00 00 00 00 00 00 00 00 00 00 00 00 ; ................
008D98  .dc.b 00 00 00 00 00 00 00 00 00 00 00 00 00 00 00 00 ; ................
008DA8  .dc.b 00 00 00 00 00 00 00 00 00 00 00 00 00 00 00 00 ; ................
008DB8  .dc.b 00 00 00 00 00 00 00 00 00 00 00 00 00 00 00 00 ; ................
008DC8  .dc.b 00 00 00 00 00 00 00 00 00 00 00 00 00 00 00 00 ; ................
008DD8  .dc.b 00 00 00 00 00 00 00 00 00 00 00 00 00 00 00 00 ; ................
008DE8  .dc.b 00 00 00 00 00 00 00 00 00 00 00 00 00 00 00 00 ; ................
008DF8  .dc.b 00 00 00 00 00 00 00 00 00 00 00 00 00 00 00 00 ; ................
008E08  .dc.b 00 00 00 00 00 00 00 00 00 00 00 00 00 00 00 00 ; ................
008E18  .dc.b 00 00 00 00 00 00 00 00 00 00 00 00 00 00 00 00 ; ................
008E28  .dc.b 00 00 00 00 00 00 00 00 00 00 00 00 00 00 00 00 ; ................
008E38  .dc.b 00 00 00 00 00 00 00 00 00 00 00 00 00 00 00 00 ; ................
008E48  .dc.b 00 00 00 00 00 00 00 00 00 00 00 00 00 00 00 00 ; ................
008E58  .dc.b 00 00 00 00 00 00 00 00 00 00 00 00 00 00 00 00 ; ................
008E68  .dc.b 00 00 00 00 00 00 00 00 00 00 00 00 00 00 00 00 ; ................
008E78  .dc.b 00 00 00 00 00 00 00 00 00 00 00 00 00 00 00 00 ; ................
008E88  .dc.b 00 00 00 00 00 00 00 00 00 00 00 00 00 00 00 00 ; ................
008E98  .dc.b 00 00 00 00 00 00 00 00 00 00 00 00 00 00 00 00 ; ................
008EA8  .dc.b 00 00 00 00 00 00 00 00 00 00 00 00 00 00 00 00 ; ................
008EB8  .dc.b 00 00 00 00 00 00 00 00 00 00 00 00 00 00 00 00 ; ................
008EC8  .dc.b 00 00 00 00 00 00 00 00 00 00 00 00 00 00 00 00 ; ................
008ED8  .dc.b 00 00 00 00 00 00 00 00 00 00 00 00 00 00 00 00 ; ................
008EE8  .dc.b 00 00 00 00 00 00 00 00 00 00 00 00 00 00 00 00 ; ................
008EF8  .dc.b 00 00 00 00 00 00 00 00 00 00 00 00 00 00 00 00 ; ................
008F08  .dc.b 00 00 00 00 00 00 00 00 00 00 00 00 00 00 00 00 ; ................
008F18  .dc.b 00 00 00 00 00 00 00 00 00 00 00 00 00 00 00 00 ; ................
008F28  .dc.b 00 00 00 00 00 00 00 00 00 00 00 00 00 00 00 00 ; ................
008F38  .dc.b 00 00 00 00 00 00 00 00 00 00 00 00 00 00 00 00 ; ................
008F48  .dc.b 00 00 00 00 00 00 00 00 00 00 00 00 00 00 00 00 ; ................
008F58  .dc.b 00 00 00 00 00 00 00 00 00 00 00 00 00 00 00 00 ; ................
008F68  .dc.b 00 00 00 00 00 00 00 00 00 00 00 00 00 00 00 00 ; ................
008F78  .dc.b 00 00 00 00 00 00 00 00 00 00 00 00 00 00 00 00 ; ................
008F88  .dc.b 00 00 00 00 00 00 00 00 00 00 00 00 00 00 00 00 ; ................
008F98  .dc.b 00 00 00 00 00 00 00 00 00 00 00 00 00 00 00 00 ; ................
008FA8  .dc.b 00 00 00 00 00 00 00 00 00 00 00 00 00 00 00 00 ; ................
008FB8  .dc.b 00 00 00 00 00 00 00 00 00 00 00 00 00 00 00 00 ; ................
008FC8  .dc.b 00 00 00 00 00 00 00 00 00 00 00 00 00 00 00 00 ; ................
008FD8  .dc.b 00 00 00 00 00 00 00 00 00 00 00 00 00 00 00 00 ; ................
008FE8  .dc.b 00 00 00 00 00 00 00 00 00 00 00 00 00 00 00 00 ; ................
008FF8  .dc.b 00 00 00 00 00 00 00 00 00 00 00 00 00 00 00 00 ; ................
009008  .dc.b 00 00 00 00 00 00 00 00 00 00 00 00 00 00 00 00 ; ................
009018  .dc.b 00 00 00 00 00 00 00 00 00 00 00 00 00 00 00 00 ; ................
009028  .dc.b 00 00 00 00 00 00 00 00 00 00 00 00 00 00 00 00 ; ................
009038  .dc.b 00 00 00 00 00 00 00 00 00 00 00 00 00 00 00 00 ; ................
009048  .dc.b 00 00 00 00 00 00 00 00 00 00 00 00 00 00 00 00 ; ................
009058  .dc.b 00 00 00 00 00 00 00 00 00 00 00 00 00 00 00 00 ; ................
009068  .dc.b 00 00 00 00 00 00 00 00 00 00 00 00 00 00 00 00 ; ................
009078  .dc.b 00 00 00 00 00 00 00 00 00 00 00 00 00 00 00 00 ; ................
009088  .dc.b 00 00 00 00 00 00 00 00 00 00 00 00 00 00 00 00 ; ................
009098  .dc.b 00 00 00 00 00 00 00 00 00 00 00 00 00 00 00 00 ; ................
0090A8  .dc.b 00 00 00 00 00 00 00 00 00 00 00 00 00 00 00 00 ; ................
0090B8  .dc.b 00 00 00 00 00 00 00 00 00 00 00 00 00 00 00 00 ; ................
0090C8  .dc.b 00 00 00 00 00 00 00 00 00 00 00 00 00 00 00 00 ; ................
0090D8  .dc.b 00 00 00 00 00 00 00 00 00 00 00 00 00 00 00 00 ; ................
0090E8  .dc.b 00 00 00 00 00 00 00 00 00 00 00 00 00 00 00 00 ; ................
0090F8  .dc.b 00 00 00 00 00 00 00 00 00 00 00 00 00 00 00 00 ; ................
009108  .dc.b 00 00 00 00 00 00 00 00 00 00 00 00 00 00 00 00 ; ................
009118  .dc.b 00 00 00 00 00 00 00 00 00 00 00 00 00 00 00 00 ; ................
009128  .dc.b 00 00 00 00 00 00 00 00 00 00 00 00 00 00 00 00 ; ................
009138  .dc.b 00 00 00 00 00 00 00 00 00 00 00 00 00 00 00 00 ; ................
009148  .dc.b 00 00 00 00 00 00 00 00 00 00 00 00 00 00 00 00 ; ................
009158  .dc.b 00 00 00 00 00 00 00 00 00 00 00 00 00 00 00 00 ; ................
009168  .dc.b 00 00 00 00 00 00 00 00 00 00 00 00 00 00 00 00 ; ................
009178  .dc.b 00 00 00 00 00 00 00 00 00 00 00 00 00 00 00 00 ; ................
009188  .dc.b 00 00 00 00 00 00 00 00 00 00 00 00 00 00 00 00 ; ................
009198  .dc.b 00 00 00 00 00 00 00 00 00 00 00 00 00 00 00 00 ; ................
0091A8  .dc.b 00 00 00 00 00 00 00 00 00 00 00 00 00 00 00 00 ; ................
0091B8  .dc.b 00 00 00 00 00 00 00 00 00 00 00 00 00 00 00 00 ; ................
0091C8  .dc.b 00 00 00 00 00 00 00 00 00 00 00 00 00 00 00 00 ; ................
0091D8  .dc.b 00 00 00 00 00 00 00 00 00 00 00 00 00 00 00 00 ; ................
0091E8  .dc.b 00 00 00 00 00 00 00 00 00 00 00 00 00 00 00 00 ; ................
0091F8  .dc.b 00 00 00 00 00 00 00 00 00 00 00 00 00 00 00 00 ; ................
009208  .dc.b 00 00 00 00 00 00 00 00 00 00 00 00 00 00 00 00 ; ................
009218  .dc.b 00 00 00 00 00 00 00 00 00 00 00 00 00 00 00 00 ; ................
009228  .dc.b 00 00 00 00 00 00 00 00 00 00 00 00 00 00 00 00 ; ................
009238  .dc.b 00 00 00 00 00 00 00 00 00 00 00 00 00 00 00 00 ; ................
009248  .dc.b 00 00 00 00 00 00 00 00 00 00 00 00 00 00 00 00 ; ................
009258  .dc.b 00 00 00 00 00 00 00 00 00 00 00 00 00 00 00 00 ; ................
009268  .dc.b 00 00 00 00 00 00 00 00 00 00 00 00 00 00 00 00 ; ................
009278  .dc.b 00 00 00 00 00 00 00 00 00 00 00 00 00 00 00 00 ; ................
009288  .dc.b 00 00 00 00 00 00 00 00 00 00 00 00 00 00 00 00 ; ................
009298  .dc.b 00 00 00 00 00 00 00 00 00 00 00 00 00 00 00 00 ; ................
0092A8  .dc.b 00 00 00 00 00 00 00 00 00 00 00 00 00 00 00 00 ; ................
0092B8  .dc.b 00 00 00 00 00 00 00 00 00 00 00 00 00 00 00 00 ; ................
0092C8  .dc.b 00 00 00 00 00 00 00 00 00 00 00 00 00 00 00 00 ; ................
0092D8  .dc.b 00 00 00 00 00 00 00 00 00 00 00 00 00 00 00 00 ; ................
0092E8  .dc.b 00 00 00 00 00 00 00 00 00 00 00 00 00 00 00 00 ; ................
0092F8  .dc.b 00 00 00 00 00 00 00 00 00 00 00 00 00 00 00 00 ; ................
009308  .dc.b 00 00 00 00 00 00 00 00 00 00 00 00 00 00 00 00 ; ................
009318  .dc.b 00 00 00 00 00 00 00 00 00 00 00 00 00 00 00 00 ; ................
009328  .dc.b 00 00 00 00 00 00 00 00 00 00 00 00 00 00 00 00 ; ................
009338  .dc.b 00 00 00 00 00 00 00 00 00 00 00 00 00 00 00 00 ; ................
009348  .dc.b 00 00 00 00 00 00 00 00 00 00 00 00 00 00 00 00 ; ................
009358  .dc.b 00 00 00 00 00 00 00 00 00 00 00 00 00 00 00 00 ; ................
009368  .dc.b 00 00 00 00 00 00 00 00 00 00 00 00 00 00 00 00 ; ................
009378  .dc.b 00 00 00 00 00 00 00 00 00 00 00 00 00 00 00 00 ; ................
009388  .dc.b 00 00 00 00 00 00 00 00 00 00 00 00 00 00 00 00 ; ................
009398  .dc.b 00 00 00 00 00 00 00 00 00 00 00 00 00 00 00 00 ; ................
0093A8  .dc.b 00 00 00 00 00 00 00 00 00 00 00 00 00 00 00 00 ; ................
0093B8  .dc.b 00 00 00 00 00 00 00 00 00 00 00 00 00 00 00 00 ; ................
0093C8  .dc.b 00 00 00 00 00 00 00 00 00 00 00 00 00 00 00 00 ; ................
0093D8  .dc.b 00 00 00 00 00 00 00 00 00 00 00 00 00 00 00 00 ; ................
0093E8  .dc.b 00 00 00 00 00 00 00 00 00 00 00 00 00 00 00 00 ; ................
0093F8  .dc.b 00 00 00 00 00 00 00 00 00 00 00 00 00 00 00 00 ; ................
009408  .dc.b 00 00 00 00 00 00 00 00 00 00 00 00 00 00 00 00 ; ................
009418  .dc.b 00 00 00 00 00 00 00 00 00 00 00 00 00 00 00 00 ; ................
009428  .dc.b 00 00 00 00 00 00 00 00 00 00 00 00 00 00 00 00 ; ................
009438  .dc.b 00 00 00 00 00 00 00 00 00 00 00 00 00 00 00 00 ; ................
009448  .dc.b 00 00 00 00 00 00 00 00 00 00 00 00 00 00 00 00 ; ................
009458  .dc.b 00 00 00 00 00 00 00 00 00 00 00 00 00 00 00 00 ; ................
009468  .dc.b 00 00 00 00 00 00 00 00 00 00 00 00 00 00 00 00 ; ................
009478  .dc.b 00 00 00 00 00 00 00 00 00 00 00 00 00 00 00 00 ; ................
009488  .dc.b 00 00 00 00 00 00 00 00 00 00 00 00 00 00 00 00 ; ................
009498  .dc.b 00 00 00 00 00 00 00 00 00 00 00 00 00 00 00 00 ; ................
0094A8  .dc.b 00 00 00 00 00 00 00 00 00 00 00 00 00 00 00 00 ; ................
0094B8  .dc.b 00 00 00 00 00 00 00 00 00 00 00 00 00 00 00 00 ; ................
0094C8  .dc.b 00 00 00 00 00 00 00 00 00 00 00 00 00 00 00 00 ; ................
0094D8  .dc.b 00 00 00 00 00 00 00 00 00 00 00 00 00 00 00 00 ; ................
0094E8  .dc.b 00 00 00 00 00 00 00 00 00 00 00 00 00 00 00 00 ; ................
0094F8  .dc.b 00 00 00 00 00 00 00 00 00 00 00 00 00 00 00 00 ; ................
009508  .dc.b 00 00 00 00 00 00 00 00 00 00 00 00 00 00 00 00 ; ................
009518  .dc.b 00 00 00 00 00 00 00 00 00 00 00 00 00 00 00 00 ; ................
009528  .dc.b 00 00 00 00 00 00 00 00 00 00 00 00 00 00 00 00 ; ................
009538  .dc.b 00 00 00 00 00 00 00 00 00 00 00 00 00 00 00 00 ; ................
009548  .dc.b 00 00 00 00 00 00 00 00 00 00 00 00 00 00 00 00 ; ................
009558  .dc.b 00 00 00 00 00 00 00 00 00 00 00 00 00 00 00 00 ; ................
009568  .dc.b 00 00 00 00 00 00 00 00 00 00 00 00 00 00 00 00 ; ................
009578  .dc.b 00 00 00 00 00 00 00 00 00 00 00 00 00 00 00 00 ; ................
009588  .dc.b 00 00 00 00 00 00 00 00 00 00 00 00 00 00 00 00 ; ................
009598  .dc.b 00 00 00 00 00 00 00 00 00 00 00 00 00 00 00 00 ; ................
0095A8  .dc.b 00 00 00 00 00 00 00 00 00 00 00 00 00 00 00 00 ; ................
0095B8  .dc.b 00 00 00 00 00 00 00 00 00 00 00 00 00 00 00 00 ; ................
0095C8  .dc.b 00 00 00 00 00 00 00 00 00 00 00 00 00 00 00 00 ; ................
0095D8  .dc.b 00 00 00 00 00 00 00 00 00 00 00 00 00 00 00 00 ; ................
0095E8  .dc.b 00 00 00 00 00 00 00 00 00 00 00 00 00 00 00 00 ; ................
0095F8  .dc.b 00 00 00 00 00 00 00 00 00 00 00 00 00 00 00 00 ; ................
009608  .dc.b 00 00 00 00 00 00 00 00 00 00 00 00 00 00 00 00 ; ................
009618  .dc.b 00 00 00 00 00 00 00 00 00 00 00 00 00 00 00 00 ; ................
009628  .dc.b 00 00 00 00 00 00 00 00 00 00 00 00 00 00 00 00 ; ................
009638  .dc.b 00 00 00 00 00 00 00 00 00 00 00 00 00 00 00 00 ; ................
009648  .dc.b 00 00 00 00 00 00 00 00 00 00 00 00 00 00 00 00 ; ................
009658  .dc.b 00 00 00 00 00 00 00 00 00 00 00 00 00 00 00 00 ; ................
009668  .dc.b 00 00 00 00 00 00 00 00 00 00 00 00 00 00 00 00 ; ................
009678  .dc.b 00 00 00 00 00 00 00 00 00 00 00 00 00 00 00 00 ; ................
009688  .dc.b 00 00 00 00 00 00 00 00 00 00 00 00 00 00 00 00 ; ................
009698  .dc.b 00 00 00 00 00 00 00 00 00 00 00 00 00 00 00 00 ; ................
0096A8  .dc.b 00 00 00 00 00 00 00 00 00 00 00 00 00 00 00 00 ; ................
0096B8  .dc.b 00 00 00 00 00 00 00 00 00 00 00 00 00 00 00 00 ; ................
0096C8  .dc.b 00 00 00 00 00 00 00 00 00 00 00 00 00 00 00 00 ; ................
0096D8  .dc.b 00 00 00 00 00 00 00 00 00 00 00 00 00 00 00 00 ; ................
0096E8  .dc.b 00 00 00 00 00 00 00 00 00 00 00 00 00 00 00 00 ; ................
0096F8  .dc.b 00 00 00 00 00 00 00 00 00 00 00 00 00 00 00 00 ; ................
009708  .dc.b 00 00 00 00 00 00 00 00 00 00 00 00 00 00 00 00 ; ................
009718  .dc.b 00 00 00 00 00 00 00 00 00 00 00 00 00 00 00 00 ; ................
009728  .dc.b 00 00 00 00 00 00 00 00 00 00 00 00 00 00 00 00 ; ................
009738  .dc.b 00 00 00 00 00 00 00 00 00 00 00 00 00 00 00 00 ; ................
009748  .dc.b 00 00 00 00 00 00 00 00 00 00 00 00 00 00 00 00 ; ................
009758  .dc.b 00 00 00 00 00 00 00 00 00 00 00 00 00 00 00 00 ; ................
009768  .dc.b 00 00 00 00 00 00 00 00 00 00 00 00 00 00 00 00 ; ................
009778  .dc.b 00 00 00 00 00 00 00 00 00 00 00 00 00 00 00 00 ; ................
009788  .dc.b 00 00 00 00 00 00 00 00 00 00 00 00 00 00 00 00 ; ................
009798  .dc.b 00 00 00 00 00 00 00 00 00 00 00 00 00 00 00 00 ; ................
0097A8  .dc.b 00 00 00 00 00 00 00 00 00 00 00 00 00 00 00 00 ; ................
0097B8  .dc.b 00 00 00 00 00 00 00 00 00 00 00 00 00 00 00 00 ; ................
0097C8  .dc.b 00 00 00 00 00 00 00 00 00 00 00 00 00 00 00 00 ; ................
0097D8  .dc.b 00 00 00 00 00 00 00 00 00 00 00 00 00 00 00 00 ; ................
0097E8  .dc.b 00 00 00 00 00 00 00 00 00 00 00 00 00 00 00 00 ; ................
0097F8  .dc.b 00 00 00 00 00 00 00 00 00 00 00 00 00 00 00 00 ; ................
009808  .dc.b 00 00 00 00 00 00 00 00 00 00 00 00 00 00 00 00 ; ................
009818  .dc.b 00 00 00 00 00 00 00 00 00 00 00 00 00 00 00 00 ; ................
009828  .dc.b 00 00 00 00 00 00 00 00 00 00 00 00 00 00 00 00 ; ................
009838  .dc.b 00 00 00 00 00 00 00 00 00 00 00 00 00 00 00 00 ; ................
009848  .dc.b 00 00 00 00 00 00 00 00 00 00 00 00 00 00 00 00 ; ................
009858  .dc.b 00 00 00 00 00 00 00 00 00 00 00 00 00 00 00 00 ; ................
009868  .dc.b 00 00 00 00 00 00 00 00 00 00 00 00 00 00 00 00 ; ................
009878  .dc.b 00 00 00 00 00 00 00 00 00 00 00 00 00 00 00 00 ; ................
009888  .dc.b 00 00 00 00 00 00 00 00 00 00 00 00 00 00 00 00 ; ................
009898  .dc.b 00 00 00 00 00 00 00 00 00 00 00 00 00 00 00 00 ; ................
0098A8  .dc.b 00 00 00 00 00 00 00 00 00 00 00 00 00 00 00 00 ; ................
0098B8  .dc.b 00 00 00 00 00 00 00 00 00 00 00 00 00 00 00 00 ; ................
0098C8  .dc.b 00 00 00 00 00 00 00 00 00 00 00 00 00 00 00 00 ; ................
0098D8  .dc.b 00 00 00 00 00 00 00 00 00 00 00 00 00 00 00 00 ; ................
0098E8  .dc.b 00 00 00 00 00 00 00 00 00 00 00 00 00 00 00 00 ; ................
0098F8  .dc.b 00 00 00 00 00 00 00 00 00 00 00 00 00 00 00 00 ; ................
009908  .dc.b 00 00 00 00 00 00 00 00 00 00 00 00 00 00 00 00 ; ................
009918  .dc.b 00 00 00 00 00 00 00 00 00 00 00 00 00 00 00 00 ; ................
009928  .dc.b 00 00 00 00 00 00 00 00 00 00 00 00 00 00 00 00 ; ................
009938  .dc.b 00 00 00 00 00 00 00 00 00 00 00 00 00 00 00 00 ; ................
009948  .dc.b 00 00 00 00 00 00 00 00 00 00 00 00 00 00 00 00 ; ................
009958  .dc.b 00 00 00 00 00 00 00 00 00 00 00 00 00 00 00 00 ; ................
009968  .dc.b 00 00 00 00 00 00 00 00 00 00 00 00 00 00 00 00 ; ................
009978  .dc.b 00 00 00 00 00 00 00 00 00 00 00 00 00 00 00 00 ; ................
009988  .dc.b 00 00 00 00 00 00 00 00 00 00 00 00 00 00 00 00 ; ................
009998  .dc.b 00 00 00 00 00 00 00 00 00 00 00 00 00 00 00 00 ; ................
0099A8  .dc.b 00 00 00 00 00 00 00 00 00 00 00 00 00 00 00 00 ; ................
0099B8  .dc.b 00 00 00 00 00 00 00 00 00 00 00 00 00 00 00 00 ; ................
0099C8  .dc.b 00 00 00 00 00 00 00 00 00 00 00 00 00 00 00 00 ; ................
0099D8  .dc.b 00 00 00 00 00 00 00 00 00 00 00 00 00 00 00 00 ; ................
0099E8  .dc.b 00 00 00 00 00 00 00 00 00 00 00 00 00 00 00 00 ; ................
0099F8  .dc.b 00 00 00 00 00 00 00 00 00 00 00 00 00 00 00 00 ; ................
009A08  .dc.b 00 00 00 00 00 00 00 00 00 00 00 00 00 00 00 00 ; ................
009A18  .dc.b 00 00 00 00 00 00 00 00 00 00 00 00 00 00 00 00 ; ................
009A28  .dc.b 00 00 00 00 00 00 00 00 00 00 00 00 00 00 00 00 ; ................
009A38  .dc.b 00 00 00 00 00 00 00 00 00 00 00 00 00 00 00 00 ; ................
009A48  .dc.b 00 00 00 00 00 00 00 00 00 00 00 00 00 00 00 00 ; ................
009A58  .dc.b 00 00 00 00 00 00 00 00 00 00 00 00 00 00 00 00 ; ................
009A68  .dc.b 00 00 00 00 00 00 00 00 00 00 00 00 00 00 00 00 ; ................
009A78  .dc.b 00 00 00 00 00 00 00 00 00 00 00 00 00 00 00 00 ; ................
009A88  .dc.b 00 00 00 00 00 00 00 00 00 00 00 00 00 00 00 00 ; ................
009A98  .dc.b 00 00 00 00 00 00 00 00 00 00 00 00 00 00 00 00 ; ................
009AA8  .dc.b 00 00 00 00 00 00 00 00 00 00 00 00 00 00 00 00 ; ................
009AB8  .dc.b 00 00 00 00 00 00 00 00 00 00 00 00 00 00 00 00 ; ................
009AC8  .dc.b 00 00 00 00 00 00 00 00 00 00 00 00 00 00 00 00 ; ................
009AD8  .dc.b 00 00 00 00 00 00 00 00 00 00 00 00 00 00 00 00 ; ................
009AE8  .dc.b 00 00 00 00 00 00 00 00 00 00 00 00 00 00 00 00 ; ................
009AF8  .dc.b 00 00 00 00 00 00 00 00 00 00 00 00 00 00 00 00 ; ................
009B08  .dc.b 00 00 00 00 00 00 00 00 00 00 00 00 00 00 00 00 ; ................
009B18  .dc.b 00 00 00 00 00 00 00 00 00 00 00 00 00 00 00 00 ; ................
009B28  .dc.b 00 00 00 00 00 00 00 00 00 00 00 00 00 00 00 00 ; ................
009B38  .dc.b 00 00 00 00 00 00 00 00 00 00 00 00 00 00 00 00 ; ................
009B48  .dc.b 00 00 00 00 00 00 00 00 00 00 00 00 00 00 00 00 ; ................
009B58  .dc.b 00 00 00 00 00 00 00 00 00 00 00 00 00 00 00 00 ; ................
009B68  .dc.b 00 00 00 00 00 00 00 00 00 00 00 00 00 00 00 00 ; ................
009B78  .dc.b 00 00 00 00 00 00 00 00 00 00 00 00 00 00 00 00 ; ................
009B88  .dc.b 00 00 00 00 00 00 00 00 00 00 00 00 00 00 00 00 ; ................
009B98  .dc.b 00 00 00 00 00 00 00 00 00 00 00 00 00 00 00 00 ; ................
009BA8  .dc.b 00 00 00 00 00 00 00 00 00 00 00 00 00 00 00 00 ; ................
009BB8  .dc.b 00 00 00 00 00 00 00 00 00 00 00 00 00 00 00 00 ; ................
009BC8  .dc.b 00 00 00 00 00 00 00 00 00 00 00 00 00 00 00 00 ; ................
009BD8  .dc.b 00 00 00 00 00 00 00 00 00 00 00 00 00 00 00 00 ; ................
009BE8  .dc.b 00 00 00 00 00 00 00 00 00 00 00 00 00 00 00 00 ; ................
009BF8  .dc.b 00 00 00 00 00 00 00 00 00 00 00 00 00 00 00 00 ; ................
009C08  .dc.b 00 00 00 00 00 00 00 00 00 00 00 00 00 00 00 00 ; ................
009C18  .dc.b 00 00 00 00 00 00 00 00 00 00 00 00 00 00 00 00 ; ................
009C28  .dc.b 00 00 00 00 00 00 00 00 00 00 00 00 00 00 00 00 ; ................
009C38  .dc.b 00 00 00 00 00 00 00 00 00 00 00 00 00 00 00 00 ; ................
009C48  .dc.b 00 00 00 00 00 00 00 00 00 00 00 00 00 00 00 00 ; ................
009C58  .dc.b 00 00 00 00 00 00 00 00 00 00 00 00 00 00 00 00 ; ................
009C68  .dc.b 00 00 00 00 00 00 00 00 00 00 00 00 00 00 00 00 ; ................
009C78  .dc.b 00 00 00 00 00 00 00 00 00 00 00 00 00 00 00 00 ; ................
009C88  .dc.b 00 00 00 00 00 00 00 00 00 00 00 00 00 00 00 00 ; ................
009C98  .dc.b 00 00 00 00 00 00 00 00 00 00 00 00 00 00 00 00 ; ................
009CA8  .dc.b 00 00 00 00 00 00 00 00 00 00 00 00 00 00 00 00 ; ................
009CB8  .dc.b 00 00 00 00 00 00 00 00 00 00 00 00 00 00 00 00 ; ................
009CC8  .dc.b 00 00 00 00 00 00 00 00 00 00 00 00 00 00 00 00 ; ................
009CD8  .dc.b 00 00 00 00 00 00 00 00 00 00 00 00 00 00 00 00 ; ................
009CE8  .dc.b 00 00 00 00 00 00 00 00 00 00 00 00 00 00 00 00 ; ................
009CF8  .dc.b 00 00 00 00 00 00 00 00 00 00 00 00 00 00 00 00 ; ................
009D08  .dc.b 00 00 00 00 00 00 00 00 00 00 00 00 00 00 00 00 ; ................
009D18  .dc.b 00 00 00 00 00 00 00 00 00 00 00 00 00 00 00 00 ; ................
009D28  .dc.b 00 00 00 00 00 00 00 00 00 00 00 00 00 00 00 00 ; ................
009D38  .dc.b 00 00 00 00 00 00 00 00 00 00 00 00 00 00 00 00 ; ................
009D48  .dc.b 00 00 00 00 00 00 00 00 00 00 00 00 00 00 00 00 ; ................
009D58  .dc.b 00 00 00 00 00 00 00 00 00 00 00 00 00 00 00 00 ; ................
009D68  .dc.b 00 00 00 00 00 00 00 00 00 00 00 00 00 00 00 00 ; ................
009D78  .dc.b 00 00 00 00 00 00 00 00 00 00 00 00 00 00 00 00 ; ................
009D88  .dc.b 00 00 00 00 00 00 00 00 00 00 00 00 00 00 00 00 ; ................
009D98  .dc.b 00 00 00 00 00 00 00 00 00 00 00 00 00 00 00 00 ; ................
009DA8  .dc.b 00 00 00 00 00 00 00 00 00 00 00 00 00 00 00 00 ; ................
009DB8  .dc.b 00 00 00 00 00 00 00 00 00 00 00 00 00 00 00 00 ; ................
009DC8  .dc.b 00 00 00 00 00 00 00 00 00 00 00 00 00 00 00 00 ; ................
009DD8  .dc.b 00 00 00 00 00 00 00 00 00 00 00 00 00 00 00 00 ; ................
009DE8  .dc.b 00 00 00 00 00 00 00 00 00 00 00 00 00 00 00 00 ; ................
009DF8  .dc.b 00 00 00 00 00 00 00 00 00 00 00 00 00 00 00 00 ; ................
009E08  .dc.b 00 00 00 00 00 00 00 00 00 00 00 00 00 00 00 00 ; ................
009E18  .dc.b 00 00 00 00 00 00 00 00 00 00 00 00 00 00 00 00 ; ................
009E28  .dc.b 00 00 00 00 00 00 00 00 00 00 00 00 00 00 00 00 ; ................
009E38  .dc.b 00 00 00 00 00 00 00 00 00 00 00 00 00 00 00 00 ; ................
009E48  .dc.b 00 00 00 00 00 00 00 00 00 00 00 00 00 00 00 00 ; ................
009E58  .dc.b 00 00 00 00 00 00 00 00 00 00 00 00 00 00 00 00 ; ................
009E68  .dc.b 00 00 00 00 00 00 00 00 00 00 00 00 00 00 00 00 ; ................
009E78  .dc.b 00 00 00 00 00 00 00 00 00 00 00 00 00 00 00 00 ; ................
009E88  .dc.b 00 00 00 00 00 00 00 00 00 00 00 00 00 00 00 00 ; ................
009E98  .dc.b 00 00 00 00 00 00 00 00 00 00 00 00 00 00 00 00 ; ................
009EA8  .dc.b 00 00 00 00 00 00 00 00 00 00 00 00 00 00 00 00 ; ................
009EB8  .dc.b 00 00 00 00 00 00 00 00 00 00 00 00 00 00 00 00 ; ................
009EC8  .dc.b 00 00 00 00 00 00 00 00 00 00 00 00 00 00 00 00 ; ................
009ED8  .dc.b 00 00 00 00 00 00 00 00 00 00 00 00 00 00 00 00 ; ................
009EE8  .dc.b 00 00 00 00 00 00 00 00 00 00 00 00 00 00 00 00 ; ................
009EF8  .dc.b 00 00 00 00 00 00 00 00 00 00 00 00 00 00 00 00 ; ................
009F08  .dc.b 00 00 00 00 00 00 00 00 00 00 00 00 00 00 00 00 ; ................
009F18  .dc.b 00 00 00 00 00 00 00 00 00 00 00 00 00 00 00 00 ; ................
009F28  .dc.b 00 00 00 00 00 00 00 00 00 00 00 00 00 00 00 00 ; ................
009F38  .dc.b 00 00 00 00 00 00 00 00 00 00 00 00 00 00 00 00 ; ................
009F48  .dc.b 00 00 00 00 00 00 00 00 00 00 00 00 00 00 00 00 ; ................
009F58  .dc.b 00 00 00 00 00 00 00 00 00 00 00 00 00 00 00 00 ; ................
009F68  .dc.b 00 00 00 00 00 00 00 00 00 00 00 00 00 00 00 00 ; ................
009F78  .dc.b 00 00 00 00 00 00 00 00 00 00 00 00 00 00 00 00 ; ................
009F88  .dc.b 00 00 00 00 00 00 00 00 00 00 00 00 00 00 00 00 ; ................
009F98  .dc.b 00 00 00 00 00 00 00 00 00 00 00 00 00 00 00 00 ; ................
009FA8  .dc.b 00 00 00 00 00 00 00 00 00 00 00 00 00 00 00 00 ; ................
009FB8  .dc.b 00 00 00 00 00 00 00 00 00 00 00 00 00 00 00 00 ; ................
009FC8  .dc.b 00 00 00 00 00 00 00 00 00 00 00 00 00 00 00 00 ; ................
009FD8  .dc.b 00 00 00 00 00 00 00 00 00 00 00 00 00 00 00 00 ; ................
009FE8  .dc.b 00 00 00 00 00 00 00 00 00 00 00 00 00 00 00 00 ; ................
009FF8  .dc.b 00 00 00 00 00 00 00 00 00 00 00 00 00 00 00 00 ; ................
00A008  .dc.b 00 00 00 00 00 00 00 00 00 00 00 00 00 00 00 00 ; ................
00A018  .dc.b 00 00 00 00 00 00 00 00 00 00 00 00 00 00 00 00 ; ................
00A028  .dc.b 00 00 00 00 00 00 00 00 00 00 00 00 00 00 00 00 ; ................
00A038  .dc.b 00 00 00 00 00 00 00 00 00 00 00 00 00 00 00 00 ; ................
00A048  .dc.b 00 00 00 00 00 00 00 00 00 00 00 00 00 00 00 00 ; ................
00A058  .dc.b 00 00 00 00 00 00 00 00 00 00 00 00 00 00 00 00 ; ................
00A068  .dc.b 00 00 00 00 00 00 00 00 00 00 00 00 00 00 00 00 ; ................
00A078  .dc.b 00 00 00 00 00 00 00 00 00 00 00 00 00 00 00 00 ; ................
00A088  .dc.b 00 00 00 00 00 00 00 00 00 00 00 00 00 00 00 00 ; ................
00A098  .dc.b 00 00 00 00 00 00 00 00 00 00 00 00 00 00 00 00 ; ................
00A0A8  .dc.b 00 00 00 00 00 00 00 00 00 00 00 00 00 00 00 00 ; ................
00A0B8  .dc.b 00 00 00 00 00 00 00 00 00 00 00 00 00 00 00 00 ; ................
00A0C8  .dc.b 00 00 00 00 00 00 00 00 00 00 00 00 00 00 00 00 ; ................
00A0D8  .dc.b 00 00 00 00 00 00 00 00 00 00 00 00 00 00 00 00 ; ................
00A0E8  .dc.b 00 00 00 00 00 00 00 00 00 00 00 00 00 00 00 00 ; ................
00A0F8  .dc.b 00 00 00 00 00 00 00 00 00 00 00 00 00 00 00 00 ; ................
00A108  .dc.b 00 00 00 00 00 00 00 00 00 00 00 00 00 00 00 00 ; ................
00A118  .dc.b 00 00 00 00 00 00 00 00 00 00 00 00 00 00 00 00 ; ................
00A128  .dc.b 00 00 00 00 00 00 00 00 00 00 00 00 00 00 00 00 ; ................
00A138  .dc.b 00 00 00 00 00 00 00 00 00 00 00 00 00 00 00 00 ; ................
00A148  .dc.b 00 00 00 00 00 00 00 00 00 00 00 00 00 00 00 00 ; ................
00A158  .dc.b 00 00 00 00 00 00 00 00 00 00 00 00 00 00 00 00 ; ................
00A168  .dc.b 00 00 00 00 00 00 00 00 00 00 00 00 00 00 00 00 ; ................
00A178  .dc.b 00 00 00 00 00 00 00 00 00 00 00 00 00 00 00 00 ; ................
00A188  .dc.b 00 00 00 00 00 00 00 00 00 00 00 00 00 00 00 00 ; ................
00A198  .dc.b 00 00 00 00 00 00 00 00 00 00 00 00 00 00 00 00 ; ................
00A1A8  .dc.b 00 00 00 00 00 00 00 00 00 00 00 00 00 00 00 00 ; ................
00A1B8  .dc.b 00 00 00 00 00 00 00 00 00 00 00 00 00 00 00 00 ; ................
00A1C8  .dc.b 00 00 00 00 00 00 00 00 00 00 00 00 00 00 00 00 ; ................
00A1D8  .dc.b 00 00 00 00 00 00 00 00 00 00 00 00 00 00 00 00 ; ................
00A1E8  .dc.b 00 00 00 00 00 00 00 00 00 00 00 00 00 00 00 00 ; ................
00A1F8  .dc.b 00 00 00 00 00 00 00 00 00 00 00 00 00 00 00 00 ; ................
00A208  .dc.b 00 00 00 00 00 00 00 00 00 00 00 00 00 00 00 00 ; ................
00A218  .dc.b 00 00 00 00 00 00 00 00 00 00 00 00 00 00 00 00 ; ................
00A228  .dc.b 00 00 00 00 00 00 00 00 00 00 00 00 00 00 00 00 ; ................
00A238  .dc.b 00 00 00 00 00 00 00 00 00 00 00 00 00 00 00 00 ; ................
00A248  .dc.b 00 00 00 00 00 00 00 00 00 00 00 00 00 00 00 00 ; ................
00A258  .dc.b 00 00 00 00 00 00 00 00 00 00 00 00 00 00 00 00 ; ................
00A268  .dc.b 00 00 00 00 00 00 00 00 00 00 00 00 00 00 00 00 ; ................
00A278  .dc.b 00 00 00 00 00 00 00 00 00 00 00 00 00 00 00 00 ; ................
00A288  .dc.b 00 00 00 00 00 00 00 00 00 00 00 00 00 00 00 00 ; ................
00A298  .dc.b 00 00 00 00 00 00 00 00 00 00 00 00 00 00 00 00 ; ................
00A2A8  .dc.b 00 00 00 00 00 00 00 00 00 00 00 00 00 00 00 00 ; ................
00A2B8  .dc.b 00 00 00 00 00 00 00 00 00 00 00 00 00 00 00 00 ; ................
00A2C8  .dc.b 00 00 00 00 00 00 00 00 00 00 00 00 00 00 00 00 ; ................
00A2D8  .dc.b 00 00 00 00 00 00 00 00 00 00 00 00 00 00 00 00 ; ................
00A2E8  .dc.b 00 00 00 00 00 00 00 00 00 00 00 00 00 00 00 00 ; ................
00A2F8  .dc.b 00 00 00 00 00 00 00 00 00 00 00 00 00 00 00 00 ; ................
00A308  .dc.b 00 00 00 00 00 00 00 00 00 00 00 00 00 00 00 00 ; ................
00A318  .dc.b 00 00 00 00 00 00 00 00 00 00 00 00 00 00 00 00 ; ................
00A328  .dc.b 00 00 00 00 00 00 00 00 00 00 00 00 00 00 00 00 ; ................
00A338  .dc.b 00 00 00 00 00 00 00 00 00 00 00 00 00 00 00 00 ; ................
00A348  .dc.b 00 00 00 00 00 00 00 00 00 00 00 00 00 00 00 00 ; ................
00A358  .dc.b 00 00 00 00 00 00 00 00 00 00 00 00 00 00 00 00 ; ................
00A368  .dc.b 00 00 00 00 00 00 00 00 00 00 00 00 00 00 00 00 ; ................
00A378  .dc.b 00 00 00 00 00 00 00 00 00 00 00 00 00 00 00 00 ; ................
00A388  .dc.b 00 00 00 00 00 00 00 00 00 00 00 00 00 00 00 00 ; ................
00A398  .dc.b 00 00 00 00 00 00 00 00 00 00 00 00 00 00 00 00 ; ................
00A3A8  .dc.b 00 00 00 00 00 00 00 00 00 00 00 00 00 00 00 00 ; ................
00A3B8  .dc.b 00 00 00 00 00 00 00 00 00 00 00 00 00 00 00 00 ; ................
00A3C8  .dc.b 00 00 00 00 00 00 00 00 00 00 00 00 00 00 00 00 ; ................
00A3D8  .dc.b 00 00 00 00 00 00 00 00 00 00 00 00 00 00 00 00 ; ................
00A3E8  .dc.b 00 00 00 00 00 00 00 00 00 00 00 00 00 00 00 00 ; ................
00A3F8  .dc.b 00 00 00 00 00 00 00 00 00 00 00 00 00 00 00 00 ; ................
00A408  .dc.b 00 00 00 00 00 00 00 00 00 00 00 00 00 00 00 00 ; ................
00A418  .dc.b 00 00 00 00 00 00 00 00 00 00 00 00 00 00 00 00 ; ................
00A428  .dc.b 00 00 00 00 00 00 00 00 00 00 00 00 00 00 00 00 ; ................
00A438  .dc.b 00 00 00 00 00 00 00 00 00 00 00 00 00 00 00 00 ; ................
00A448  .dc.b 00 00 00 00 00 00 00 00 00 00 00 00 00 00 00 00 ; ................
00A458  .dc.b 00 00 00 00 00 00 00 00 00 00 00 00 00 00 00 00 ; ................
00A468  .dc.b 00 00 00 00 00 00 00 00 00 00 00 00 00 00 00 00 ; ................
00A478  .dc.b 00 00 00 00 00 00 00 00 00 00 00 00 00 00 00 00 ; ................
00A488  .dc.b 00 00 00 00 00 00 00 00 00 00 00 00 00 00 00 00 ; ................
00A498  .dc.b 00 00 00 00 00 00 00 00 00 00 00 00 00 00 00 00 ; ................
00A4A8  .dc.b 00 00 00 00 00 00 00 00 00 00 00 00 00 00 00 00 ; ................
00A4B8  .dc.b 00 00 00 00 00 00 00 00 00 00 00 00 00 00 00 00 ; ................
00A4C8  .dc.b 00 00 00 00 00 00 00 00 00 00 00 00 00 00 00 00 ; ................
00A4D8  .dc.b 00 00 00 00 00 00 00 00 00 00 00 00 00 00 00 00 ; ................
00A4E8  .dc.b 00 00 00 00 00 00 00 00 00 00 00 00 00 00 00 00 ; ................
00A4F8  .dc.b 00 00 00 00 00 00 00 00 00 00 00 00 00 00 00 00 ; ................
00A508  .dc.b 00 00 00 00 00 00 00 00 00 00 00 00 00 00 00 00 ; ................
00A518  .dc.b 00 00 00 00 00 00 00 00 00 00 00 00 00 00 00 00 ; ................
00A528  .dc.b 00 00 00 00 00 00 00 00 00 00 00 00 00 00 00 00 ; ................
00A538  .dc.b 00 00 00 00 00 00 00 00 00 00 00 00 00 00 00 00 ; ................
00A548  .dc.b 00 00 00 00 00 00 00 00 00 00 00 00 00 00 00 00 ; ................
00A558  .dc.b 00 00 00 00 00 00 00 00 00 00 00 00 00 00 00 00 ; ................
00A568  .dc.b 00 00 00 00 00 00 00 00 00 00 00 00 00 00 00 00 ; ................
00A578  .dc.b 00 00 00 00 00 00 00 00 00 00 00 00 00 00 00 00 ; ................
00A588  .dc.b 00 00 00 00 00 00 00 00 00 00 00 00 00 00 00 00 ; ................
00A598  .dc.b 00 00 00 00 00 00 00 00 00 00 00 00 00 00 00 00 ; ................
00A5A8  .dc.b 00 00 00 00 00 00 00 00 00 00 00 00 00 00 00 00 ; ................
00A5B8  .dc.b 00 00 00 00 00 00 00 00 00 00 00 00 00 00 00 00 ; ................
00A5C8  .dc.b 00 00 00 00 00 00 00 00 00 00 00 00 00 00 00 00 ; ................
00A5D8  .dc.b 00 00 00 00 00 00 00 00 00 00 00 00 00 00 00 00 ; ................
00A5E8  .dc.b 00 00 00 00 00 00 00 00 00 00 00 00 00 00 00 00 ; ................
00A5F8  .dc.b 00 00 00 00 00 00 00 00 00 00 00 00 00 00 00 00 ; ................
00A608  .dc.b 00 00 00 00 00 00 00 00 00 00 00 00 00 00 00 00 ; ................
00A618  .dc.b 00 00 00 00 00 00 00 00 00 00 00 00 00 00 00 00 ; ................
00A628  .dc.b 00 00 00 00 00 00 00 00 00 00 00 00 00 00 00 00 ; ................
00A638  .dc.b 00 00 00 00 00 00 00 00 00 00 00 00 00 00 00 00 ; ................
00A648  .dc.b 00 00 00 00 00 00 00 00 00 00 00 00 00 00 00 00 ; ................
00A658  .dc.b 00 00 00 00 00 00 00 00 00 00 00 00 00 00 00 00 ; ................
00A668  .dc.b 00 00 00 00 00 00 00 00 00 00 00 00 00 00 00 00 ; ................
00A678  .dc.b 00 00 00 00 00 00 00 00 00 00 00 00 00 00 00 00 ; ................
00A688  .dc.b 00 00 00 00 00 00 00 00 00 00 00 00 00 00 00 00 ; ................
00A698  .dc.b 00 00 00 00 00 00 00 00 00 00 00 00 00 00 00 00 ; ................
00A6A8  .dc.b 00 00 00 00 00 00 00 00 00 00 00 00 00 00 00 00 ; ................
00A6B8  .dc.b 00 00 00 00 00 00 00 00 00 00 00 00 00 00 00 00 ; ................
00A6C8  .dc.b 00 00 00 00 00 00 00 00 00 00 00 00 00 00 00 00 ; ................
00A6D8  .dc.b 00 00 00 00 00 00 00 00 00 00 00 00 00 00 00 00 ; ................
00A6E8  .dc.b 00 00 00 00 00 00 00 00 00 00 00 00 00 00 00 00 ; ................
00A6F8  .dc.b 00 00 00 00 00 00 00 00 00 00 00 00 00 00 00 00 ; ................
00A708  .dc.b 00 00 00 00 00 00 00 00 00 00 00 00 00 00 00 00 ; ................
00A718  .dc.b 00 00 00 00 00 00 00 00 00 00 00 00 00 00 00 00 ; ................
00A728  .dc.b 00 00 00 00 00 00 00 00 00 00 00 00 00 00 00 00 ; ................
00A738  .dc.b 00 00 00 00 00 00 00 00 00 00 00 00 00 00 00 00 ; ................
00A748  .dc.b 00 00 00 00 00 00 00 00 00 00 00 00 00 00 00 00 ; ................
00A758  .dc.b 00 00 00 00 00 00 00 00 00 00 00 00 00 00 00 00 ; ................
00A768  .dc.b 00 00 00 00 00 00 00 00 00 00 00 00 00 00 00 00 ; ................
00A778  .dc.b 00 00 00 00 00 00 00 00 00 00 00 00 00 00 00 00 ; ................
00A788  .dc.b 00 00 00 00 00 00 00 00 00 00 00 00 00 00 00 00 ; ................
00A798  .dc.b 00 00 00 00 00 00 00 00 00 00 00 00 00 00 00 00 ; ................
00A7A8  .dc.b 00 00 00 00 00 00 00 00 00 00 00 00 00 00 00 00 ; ................
00A7B8  .dc.b 00 00 00 00 00 00 00 00 00 00 00 00 00 00 00 00 ; ................
00A7C8  .dc.b 00 00 00 00 00 00 00 00 00 00 00 00 00 00 00 00 ; ................
00A7D8  .dc.b 00 00 00 00 00 00 00 00 00 00 00 00 00 00 00 00 ; ................
00A7E8  .dc.b 00 00 00 00 00 00 00 00 00 00 00 00 00 00 00 00 ; ................
00A7F8  .dc.b 00 00 00 00 00 00 00 00 00 00 00 00 00 00 00 00 ; ................
00A808  .dc.b 00 00 00 00 00 00 00 00 00 00 00 00 00 00 00 00 ; ................
00A818  .dc.b 00 00 00 00 00 00 00 00 00 00 00 00 00 00 00 00 ; ................
00A828  .dc.b 00 00 00 00 00 00 00 00 00 00 00 00 00 00 00 00 ; ................
00A838  .dc.b 00 00 00 00 00 00 00 00 00 00 00 00 00 00 00 00 ; ................
00A848  .dc.b 00 00 00 00 00 00 00 00 00 00 00 00 00 00 00 00 ; ................
00A858  .dc.b 00 00 00 00 00 00 00 00 00 00 00 00 00 00 00 00 ; ................
00A868  .dc.b 00 00 00 00 00 00 00 00 00 00 00 00 00 00 00 00 ; ................
00A878  .dc.b 00 00 00 00 00 00 00 00 00 00 00 00 00 00 00 00 ; ................
00A888  .dc.b 00 00 00 00 00 00 00 00 00 00 00 00 00 00 00 00 ; ................
00A898  .dc.b 00 00 00 00 00 00 00 00 00 00 00 00 00 00 00 00 ; ................
00A8A8  .dc.b 00 00 00 00 00 00 00 00 00 00 00 00 00 00 00 00 ; ................
00A8B8  .dc.b 00 00 00 00 00 00 00 00 00 00 00 00 00 00 00 00 ; ................
00A8C8  .dc.b 00 00 00 00 00 00 00 00 00 00 00 00 00 00 00 00 ; ................
00A8D8  .dc.b 00 00 00 00 00 00 00 00 00 00 00 00 00 00 00 00 ; ................
00A8E8  .dc.b 00 00 00 00 00 00 00 00 00 00 00 00 00 00 00 00 ; ................
00A8F8  .dc.b 00 00 00 00 00 00 00 00 00 00 00 00 00 00 00 00 ; ................
00A908  .dc.b 00 00 00 00 00 00 00 00 00 00 00 00 00 00 00 00 ; ................
00A918  .dc.b 00 00 00 00 00 00 00 00 00 00 00 00 00 00 00 00 ; ................
00A928  .dc.b 00 00 00 00 00 00 00 00 00 00 00 00 00 00 00 00 ; ................
00A938  .dc.b 00 00 00 00 00 00 00 00 00 00 00 00 00 00 00 00 ; ................
00A948  .dc.b 00 00 00 00 00 00 00 00 00 00 00 00 00 00 00 00 ; ................
00A958  .dc.b 00 00 00 00 00 00 00 00 00 00 00 00 00 00 00 00 ; ................
00A968  .dc.b 00 00 00 00 00 00 00 00 00 00 00 00 00 00 00 00 ; ................
00A978  .dc.b 00 00 00 00 00 00 00 00 00 00 00 00 00 00 00 00 ; ................
00A988  .dc.b 00 00 00 00 00 00 00 00 00 00 00 00 00 00 00 00 ; ................
00A998  .dc.b 00 00 00 00 00 00 00 00 00 00 00 00 00 00 00 00 ; ................
00A9A8  .dc.b 00 00 00 00 00 00 00 00 00 00 00 00 00 00 00 00 ; ................
00A9B8  .dc.b 00 00 00 00 00 00 00 00 00 00 00 00 00 00 00 00 ; ................
00A9C8  .dc.b 00 00 00 00 00 00 00 00 00 00 00 00 00 00 00 00 ; ................
00A9D8  .dc.b 00 00 00 00 00 00 00 00 00 00 00 00 00 00 00 00 ; ................
00A9E8  .dc.b 00 00 00 00 00 00 00 00 00 00 00 00 00 00 00 00 ; ................
00A9F8  .dc.b 00 00 00 00 00 00 00 00 00 00 00 00 00 00 00 00 ; ................
00AA08  .dc.b 00 00 00 00 00 00 00 00 00 00 00 00 00 00 00 00 ; ................
00AA18  .dc.b 00 00 00 00 00 00 00 00 00 00 00 00 00 00 00 00 ; ................
00AA28  .dc.b 00 00 00 00 00 00 00 00 00 00 00 00 00 00 00 00 ; ................
00AA38  .dc.b 00 00 00 00 00 00 00 00 00 00 00 00 00 00 00 00 ; ................
00AA48  .dc.b 00 00 00 00 00 00 00 00 00 00 00 00 00 00 00 00 ; ................
00AA58  .dc.b 00 00 00 00 00 00 00 00 00 00 00 00 00 00 00 00 ; ................
00AA68  .dc.b 00 00 00 00 00 00 00 00 00 00 00 00 00 00 00 00 ; ................
00AA78  .dc.b 00 00 00 00 00 00 00 00 00 00 00 00 00 00 00 00 ; ................
00AA88  .dc.b 00 00 00 00 00 00 00 00 00 00 00 00 00 00 00 00 ; ................
00AA98  .dc.b 00 00 00 00 00 00 00 00 00 00 00 00 00 00 00 00 ; ................
00AAA8  .dc.b 00 00 00 00 00 00 00 00 00 00 00 00 00 00 00 00 ; ................
00AAB8  .dc.b 00 00 00 00 00 00 00 00 00 00 00 00 00 00 00 00 ; ................
00AAC8  .dc.b 00 00 00 00 00 00 00 00 00 00 00 00 00 00 00 00 ; ................
00AAD8  .dc.b 00 00 00 00 00 00 00 00 00 00 00 00 00 00 00 00 ; ................
00AAE8  .dc.b 00 00 00 00 00 00 00 00 00 00 00 00 00 00 00 00 ; ................
00AAF8  .dc.b 00 00 00 00 00 00 00 00 00 00 00 00 00 00 00 00 ; ................
00AB08  .dc.b 00 00 00 00 00 00 00 00 00 00 00 00 00 00 00 00 ; ................
00AB18  .dc.b 00 00 00 00 00 00 00 00 00 00 00 00 00 00 00 00 ; ................
00AB28  .dc.b 00 00 00 00 00 00 00 00 00 00 00 00 00 00 00 00 ; ................
00AB38  .dc.b 00 00 00 00 00 00 00 00 00 00 00 00 00 00 00 00 ; ................
00AB48  .dc.b 00 00 00 00 00 00 00 00 00 00 00 00 00 00 00 00 ; ................
00AB58  .dc.b 00 00 00 00 00 00 00 00 00 00 00 00 00 00 00 00 ; ................
00AB68  .dc.b 00 00 00 00 00 00 00 00 00 00 00 00 00 00 00 00 ; ................
00AB78  .dc.b 00 00 00 00 00 00 00 00 00 00 00 00 00 00 00 00 ; ................
00AB88  .dc.b 00 00 00 00 00 00 00 00 00 00 00 00 00 00 00 00 ; ................
00AB98  .dc.b 00 00 00 00 00 00 00 00 00 00 00 00 00 00 00 00 ; ................
00ABA8  .dc.b 00 00 00 00 00 00 00 00 00 00 00 00 00 00 00 00 ; ................
00ABB8  .dc.b 00 00 00 00 00 00 00 00 00 00 00 00 00 00 00 00 ; ................
00ABC8  .dc.b 00 00 00 00 00 00 00 00 00 00 00 00 00 00 00 00 ; ................
00ABD8  .dc.b 00 00 00 00 00 00 00 00 00 00 00 00 00 00 00 00 ; ................
00ABE8  .dc.b 00 00 00 00 00 00 00 00 00 00 00 00 00 00 00 00 ; ................
00ABF8  .dc.b 00 00 00 00 00 00 00 00 00 00 00 00 00 00 00 00 ; ................
00AC08  .dc.b 00 00 00 00 00 00 00 00 00 00 00 00 00 00 00 00 ; ................
00AC18  .dc.b 00 00 00 00 00 00 00 00 00 00 00 00 00 00 00 00 ; ................
00AC28  .dc.b 00 00 00 00 00 00 00 00 00 00 00 00 00 00 00 00 ; ................
00AC38  .dc.b 00 00 00 00 00 00 00 00 00 00 00 00 00 00 00 00 ; ................
00AC48  .dc.b 00 00 00 00 00 00 00 00 00 00 00 00 00 00 00 00 ; ................
00AC58  .dc.b 00 00 00 00 00 00 00 00 00 00 00 00 00 00 00 00 ; ................
00AC68  .dc.b 00 00 00 00 00 00 00 00 00 00 00 00 00 00 00 00 ; ................
00AC78  .dc.b 00 00 00 00 00 00 00 00 00 00 00 00 00 00 00 00 ; ................
00AC88  .dc.b 00 00 00 00 00 00 00 00 00 00 00 00 00 00 00 00 ; ................
00AC98  .dc.b 00 00 00 00 00 00 00 00 00 00 00 00 00 00 00 00 ; ................
00ACA8  .dc.b 00 00 00 00 00 00 00 00 00 00 00 00 00 00 00 00 ; ................
00ACB8  .dc.b 00 00 00 00 00 00 00 00 00 00 00 00 00 00 00 00 ; ................
00ACC8  .dc.b 00 00 00 00 00 00 00 00 00 00 00 00 00 00 00 00 ; ................
00ACD8  .dc.b 00 00 00 00 00 00 00 00 00 00 00 00 00 00 00 00 ; ................
00ACE8  .dc.b 00 00 00 00 00 00 00 00 00 00 00 00 00 00 00 00 ; ................
00ACF8  .dc.b 00 00 00 00 00 00 00 00 00 00 00 00 00 00 00 00 ; ................
00AD08  .dc.b 00 00 00 00 00 00 00 00 00 00 00 00 00 00 00 00 ; ................
00AD18  .dc.b 00 00 00 00 00 00 00 00 00 04 00 04 00 06 00 02 ; ................
00AD28  .dc.b 00 06 00 03 00 05 00 07 35 2C 00 0A 55 29 7F B5 ; ........5,..U)..
00AD38  .dc.b 6A 13 14 2A 55 56 7F D5 35 26 01 E0 00 DC 00 F9 ; j..*UV..5&......
00AD48  .dc.b 00 2D 00 60 00 00 00 01 00 01 00 00 00 03 00 01 ; .-.`............
00AD58  .dc.b 00 01 00 01 00 04 00 01 00 03 00 02 00 0C 00 07 ; ................
00AD68  .dc.b 00 1D 00 03 00 16 00 02 00 15 00 00 00 2A 00 08 ; .............*..
00AD78  .dc.b 00 14 00 0C 00 14 00 0C 00 6C 00 3C 00 2C 00 1C ; .........l.<.,..
00AD88  .dc.b 00 16 00 3E 00 4C 00 1C 00 E4 00 04 01 F2 00 00 ; ...>.L..........
00AD98  .dc.b 00 00 00 00 00 00 00 00 00 00 00 00 00 00 00 00 ; ................
00ADA8  .dc.b 00 00 00 00 00 00 00 00 00 00 00 00 00 00 00 00 ; ................
00ADB8  .dc.b 00 00 00 04 00 04 00 02 00 02 00 05 00 00 00 07 ; ................
00ADC8  .dc.b 00 00 00 07 20 0E 1F B5 7F BD 80 4A 7F FB 6A 15 ; .... ......J..j.
00ADD8  .dc.b 7E 37 80 0A 20 19 1E 00 01 02 00 20 00 1F 00 61 ; ~7.. ...... ...a
00ADE8  .dc.b 00 02 00 00 00 01 00 00 00 02 00 01 00 02 00 00 ; ................
00ADF8  .dc.b 00 06 00 00 00 05 00 01 00 08 00 00 00 04 00 04 ; ................
00AE08  .dc.b 00 09 00 08 00 1B 00 02 00 36 00 00 00 32 00 10 ; .........6...2..
00AE18  .dc.b 00 32 00 10 00 42 00 00 00 62 00 20 00 40 00 0E ; .2...B...b. .@..
00AE28  .dc.b 00 22 00 38 00 1A 00 18 00 0E 00 0C 00 00 00 00 ; .".8............
00AE38  .dc.b 00 00 00 00 00 00 00 00 15 00 1A 00 5A 80 66 00 ; ............Z.f.
00AE48  .dc.b E4 40 8C 00 74 00 04 00 DA 00 9A 00 A5 48 6D 08 ; .@..t........Hm.
00AE58  .dc.b 9A D0 04 10 53 A8 33 20 2C 38 EF F0 4B 98 AF F8 ; ....S.3 ,8..K...
00AE68  .dc.b 35 30 09 E0 EE A0 E3 60 E8 A0 19 60 F5 A0 F1 60 ; 50.....`...`...`
00AE78  .dc.b 4A 50 00 C0 9A B0 5C 00 41 E0 DF 00 CE C0 CE 00 ; JP....\.A.......
00AE88  .dc.b 97 00 88 00 31 80 49 00 2E 80 5A 00 C2 80 76 00 ; ....1.I...Z...v.
00AE98  .dc.b 1D 40 B3 00 B3 40 85 00 68 80 03 80 84 E0 00 00 ; .@...@..h.......
00AEA8  .dc.b 01 A0 00 00 01 00 00 80 02 C0 01 C0 00 D0 01 C0 ; ................
00AEB8  .dc.b 01 D0 00 C0 01 C0 00 C0 00 B8 01 F0 01 48 00 C0 ; .............H..
00AEC8  .dc.b 03 88 00 00 07 C0 00 00 00 00 00 00 00 00 00 00 ; ................
00AED8  .dc.b 00 00 00 00 25 00 04 00 19 80 18 00 13 C0 60 00 ; ....%.........`.
00AEE8  .dc.b 9B C0 00 00 05 C0 F0 00 92 C8 80 00 FB D0 18 08 ; ................
00AEF8  .dc.b 4C A0 03 18 14 20 CF F8 50 90 41 F8 06 10 F4 00 ; L.... ..P.A.....
00AF08  .dc.b E0 90 1C 80 FA 90 E4 80 F2 90 0C 80 95 30 69 00 ; .............0i.
00AF18  .dc.b A3 50 83 40 20 20 00 00 31 C0 00 00 70 00 8F 00 ; .P.@  ..1...p...
00AF28  .dc.b FA 80 35 00 79 80 A4 00 F1 80 88 00 34 C0 4C 00 ; ..5.y.......4.L.
00AF38  .dc.b 4A C0 32 00 EC 40 00 00 87 20 03 00 02 60 02 00 ; J.2..@... ...`..
00AF48  .dc.b 03 60 01 00 02 20 00 00 00 30 00 00 01 30 01 00 ; .`... ...0...0..
00AF58  .dc.b 01 30 01 00 00 08 00 70 00 38 00 C0 00 78 00 60 ; .0.....p.8...x.`
00AF68  .dc.b 00 30 00 30 00 00 00 00 00 00 00 00 00 00 00 00 ; .0.0............
00AF78  .dc.b 00 A8 00 58 01 5A 00 66 02 27 00 31 00 2E 00 20 ; ...X.Z.f.'.1... 
00AF88  .dc.b 00 5B 00 59 12 A5 10 B6 0B 59 08 20 15 CA 04 CC ; .[.Y.....Y. ....
00AF98  .dc.b 1C 34 0F F7 19 D2 1F F5 0C AC 07 90 05 77 06 C7 ; .4...........w..
00AFA8  .dc.b 05 17 06 98 05 AF 06 8F 0A 52 03 00 0D 59 00 3A ; .........R...Y.:
00AFB8  .dc.b 07 82 00 FB 03 73 00 73 00 E9 00 11 01 8C 00 92 ; .....s.s........
00AFC8  .dc.b 01 74 00 5A 01 43 00 6E 02 B8 00 CD 02 CD 00 A1 ; .t.Z.C.n........
00AFD8  .dc.b 01 16 01 C0 07 21 00 00 05 80 00 00 00 80 01 00 ; .....!..........
00AFE8  .dc.b 03 40 03 80 0B 00 03 80 0B 80 03 00 03 80 03 00 ; .@..............
00AFF8  .dc.b 1D 00 0F 80 12 80 03 00 11 C0 00 00 03 E0 00 00 ; ................
00B008  .dc.b 00 00 00 00 00 00 00 00 00 00 00 00 00 A4 00 20 ; ............... 
00B018  .dc.b 01 98 00 18 03 C8 00 06 03 D9 00 00 03 A0 00 0F ; ................
00B028  .dc.b 13 49 00 01 0B DF 10 18 05 32 18 C0 04 28 1F F3 ; .I.......2...(..
00B038  .dc.b 09 0A 1F 82 08 60 00 2F 09 07 01 38 09 5F 01 27 ; .....`./...8._.'
00B048  .dc.b 09 4F 01 30 0C A9 00 96 0A C5 02 C1 04 04 00 00 ; .O.0............
00B058  .dc.b 03 8C 00 00 00 0E 00 F1 01 5F 00 AC 01 9E 00 25 ; ........._.....%
00B068  .dc.b 01 8F 00 11 03 2C 00 32 03 52 00 4C 02 37 00 00 ; .....,.2.R.L.7..
00B078  .dc.b 04 E1 00 C0 06 40 00 40 06 C0 00 80 04 40 00 00 ; .....@.@.....@..
00B088  .dc.b 0C 00 00 00 0C 80 00 80 0C 80 00 80 10 00 0E 00 ; ................
00B098  .dc.b 1C 00 03 00 1E 00 06 00 0C 00 0C 00 00 00 00 00 ; ................
00B0A8  .dc.b 00 00 00 00 00 00 00 00 00 00 00 00 00 00 00 00 ; ................
00B0B8  .dc.b 00 00 00 00 00 00 00 00 00 00 00 00 00 00 00 00 ; ................
00B0C8  .dc.b 20 00 20 00 60 00 40 00 60 00 C0 00 A0 00 E0 00 ;  . .`.@.`.......
00B0D8  .dc.b 34 AC 50 00 94 AA AD FE C8 56 54 28 6A AA AB FE ; 4.P......VT(j...
00B0E8  .dc.b 64 AC 07 80 3B 00 9F 00 B4 00 06 00 00 00 80 00 ; d...;...........
00B0F8  .dc.b 80 00 00 00 C0 00 80 00 80 00 80 00 20 00 80 00 ; ............ ...
00B108  .dc.b C0 00 40 00 30 00 E0 00 B8 00 C0 00 68 00 40 00 ; ..@.0.......h.@.
00B118  .dc.b A8 00 00 00 54 00 10 00 28 00 30 00 28 00 30 00 ; ....T...(.0.(.0.
00B128  .dc.b 36 00 3C 00 34 00 38 00 68 00 7C 00 32 00 38 00 ; 6.<.4.8.h.|.2.8.
00B138  .dc.b 27 00 20 00 4F 80 00 00 00 00 00 00 00 00 00 00 ; '. .O...........
00B148  .dc.b 00 00 00 00 00 00 00 00 00 00 00 00 00 00 00 00 ; ................
00B158  .dc.b 00 00 00 00 00 00 00 00 00 00 20 00 20 00 40 00 ; .......... . .@.
00B168  .dc.b 40 00 A0 00 00 00 E0 00 00 00 E0 00 70 04 AD F8 ; @...........p...
00B178  .dc.b BD FE 52 01 DF FE A8 56 EC 7E 50 01 98 04 00 78 ; ..R....V.~P....x
00B188  .dc.b 40 80 04 00 F8 00 86 00 40 00 00 00 80 00 00 00 ; @.......@.......
00B198  .dc.b 40 00 80 00 40 00 00 00 60 00 00 00 A0 00 80 00 ; @...@...`.......
00B1A8  .dc.b 10 00 00 00 20 00 20 00 90 00 10 00 D8 00 40 00 ; .... . .......@.
00B1B8  .dc.b 6C 00 00 00 4C 00 08 00 4C 00 08 00 42 00 00 00 ; l...L...L...B...
00B1C8  .dc.b 46 00 04 00 02 00 70 00 44 00 1C 00 58 00 18 00 ; F.....p.D...X...
00B1D8  .dc.b 70 00 30 00 00 00 00 00 00 00 00 00 00 00 00 00 ; p.0.............
00B1E8  .dc.b 00 00 00 00 00 00 00 00 00 00 00 00 00 00 00 00 ; ................
00B1F8  .dc.b 00 00 00 00 00 00 00 00 00 00 00 00 00 00 00 00 ; ................
00B208  .dc.b 00 00 00 00 00 00 00 00 00 00 00 00 00 00 00 00 ; ................
00B218  .dc.b 00 00 00 00 00 00 00 00 00 00 00 00 00 04 00 04 ; ................
00B228  .dc.b 00 06 00 02 00 06 00 03 00 05 00 07 35 2C 00 0A ; ............5,..
00B238  .dc.b 55 29 7F B5 6A 13 14 2A 55 56 7F D5 35 26 01 E0 ; U)..j..*UV..5&..
00B248  .dc.b 00 DC 00 F9 00 2D 00 60 00 18 00 01 00 2D 00 0E ; .....-.`.....-..
00B258  .dc.b 00 6E 00 06 00 73 00 00 00 54 00 18 00 29 00 0F ; .n...s...T...)..
00B268  .dc.b 00 14 00 07 00 0C 00 00 00 0E 00 00 00 1F 00 00 ; ................
00B278  .dc.b 00 00 00 00 00 00 00 00 00 00 00 00 00 00 00 00 ; ................
00B288  .dc.b 00 00 00 00 00 00 00 00 00 00 00 00 00 00 00 00 ; ................
00B298  .dc.b 00 00 00 00 00 00 00 00 00 00 00 00 00 00 00 00 ; ................
00B2A8  .dc.b 00 00 00 00 00 00 00 00 00 00 00 00 00 00 00 00 ; ................
00B2B8  .dc.b 00 00 00 00 00 00 00 04 00 04 00 02 00 02 00 05 ; ................
00B2C8  .dc.b 00 00 00 07 00 00 00 07 20 0E 1F B5 7F BD 80 4A ; ........ ......J
00B2D8  .dc.b 7F FB 6A 15 7E 37 80 0A 20 19 1E 00 01 02 00 20 ; ..j.~7.. ...... 
00B2E8  .dc.b 00 1F 00 61 00 06 00 18 00 31 00 00 00 51 00 10 ; ...a.....1...Q..
00B2F8  .dc.b 00 0D 00 0C 00 66 00 04 00 30 00 01 00 18 00 02 ; .....f...0......
00B308  .dc.b 00 0B 00 03 00 01 00 01 00 00 00 00 00 00 00 00 ; ................
00B318  .dc.b 00 00 00 00 00 00 00 00 00 00 00 00 00 00 00 00 ; ................
00B328  .dc.b 00 00 00 00 00 00 00 00 00 00 00 00 00 00 00 00 ; ................
00B338  .dc.b 00 00 00 00 00 00 00 00 00 00 00 00 15 00 1A 00 ; ................
00B348  .dc.b 5A 80 66 00 E4 40 8C 00 74 00 04 00 DA 00 9A 00 ; Z.f..@..t.......
00B358  .dc.b A5 48 6D 08 9A D0 04 10 53 A8 33 20 2C 38 EF F0 ; .Hm.....S.3 ,8..
00B368  .dc.b 4B 98 AF F8 35 30 09 E0 EE A0 E3 60 E8 A0 19 60 ; K...50.....`...`
00B378  .dc.b F5 A0 F1 60 4A 50 00 C0 9A B0 5C 00 41 E0 DF 00 ; ...`JP....\.A...
00B388  .dc.b CE C0 CE 00 0F 00 C0 00 55 00 1C 00 D5 00 1C 00 ; ........U.......
00B398  .dc.b 56 00 1C 00 52 60 18 20 D5 02 19 F0 78 66 13 F0 ; V...R`. ....xf..
00B3A8  .dc.b 34 0F 00 00 09 E7 00 00 00 00 00 00 00 00 00 00 ; 4...............
00B3B8  .dc.b 00 00 00 00 00 00 00 00 00 00 00 00 00 00 00 00 ; ................
00B3C8  .dc.b 00 00 00 00 00 00 00 00 00 00 00 00 00 00 00 00 ; ................
00B3D8  .dc.b 00 00 00 00 00 00 00 00 25 00 04 00 19 80 18 00 ; ........%.......
00B3E8  .dc.b 13 C0 60 00 9B C0 00 00 05 C0 F0 00 92 C8 80 00 ; ..`.............
00B3F8  .dc.b FB D0 18 08 4C A0 03 18 14 20 CF F8 50 90 41 F8 ; ....L.... ..P.A.
00B408  .dc.b 06 10 F4 00 E0 90 1C 80 FA 90 E4 80 F2 90 0C 80 ; ................
00B418  .dc.b 95 30 69 00 A3 50 83 40 20 20 00 00 31 C0 00 00 ; .0i..P.@  ..1...
00B428  .dc.b 3C 00 C3 00 E3 00 00 00 E3 00 00 00 62 00 00 00 ; <...........b...
00B438  .dc.b 66 5E 00 26 E2 0C 00 2C E4 08 04 18 AB F0 88 00 ; f^.&...,........
00B448  .dc.b C7 E0 C0 00 00 00 00 00 00 00 00 00 00 00 00 00 ; ................
00B458  .dc.b 00 00 00 00 00 00 00 00 00 00 00 00 00 00 00 00 ; ................
00B468  .dc.b 00 00 00 00 00 00 00 00 00 00 00 00 00 00 00 00 ; ................
00B478  .dc.b 00 00 00 00 00 A8 00 58 01 5A 00 66 02 27 00 31 ; .......X.Z.f.'.1
00B488  .dc.b 00 2E 00 20 00 5B 00 59 12 A5 10 B6 0B 59 08 20 ; ... .[.Y.....Y. 
00B498  .dc.b 15 CA 04 CC 1C 34 0F F7 19 D2 1F F5 0C AC 07 90 ; .....4..........
00B4A8  .dc.b 05 77 06 C7 05 17 06 98 05 AF 06 8F 0A 52 03 00 ; .w...........R..
00B4B8  .dc.b 0D 59 00 3A 07 82 00 FB 03 73 00 73 00 F0 00 03 ; .Y.:.....s.s....
00B4C8  .dc.b 00 AA 00 38 00 AB 00 38 00 6A 00 38 06 4A 04 18 ; ...8...8.j.8.J..
00B4D8  .dc.b 40 AB 0F 98 66 1E 0F C8 F0 2C 00 00 E7 90 00 00 ; @...f....,......
00B4E8  .dc.b 00 00 00 00 00 00 00 00 00 00 00 00 00 00 00 00 ; ................
00B4F8  .dc.b 00 00 00 00 00 00 00 00 00 00 00 00 00 00 00 00 ; ................
00B508  .dc.b 00 00 00 00 00 00 00 00 00 00 00 00 00 00 00 00 ; ................
00B518  .dc.b 00 A4 00 20 01 98 00 18 03 C8 00 06 03 D9 00 00 ; ... ............
00B528  .dc.b 03 A0 00 0F 13 49 00 01 0B DF 10 18 05 32 18 C0 ; .....I.......2..
00B538  .dc.b 04 28 1F F3 09 0A 1F 82 08 60 00 2F 09 07 01 38 ; .(.......`./...8
00B548  .dc.b 09 5F 01 27 09 4F 01 30 0C A9 00 96 0A C5 02 C1 ; ._.'.O.0........
00B558  .dc.b 04 04 00 00 03 8C 00 00 00 3C 00 C3 00 C7 00 00 ; .........<......
00B568  .dc.b 00 C7 00 00 00 46 00 00 7A 66 64 00 30 47 34 00 ; .....F..zfd.0G4.
00B578  .dc.b 10 27 18 20 0F D5 00 11 07 E3 00 03 00 00 00 00 ; .'. ............
00B588  .dc.b 00 00 00 00 00 00 00 00 00 00 00 00 00 00 00 00 ; ................
00B598  .dc.b 00 00 00 00 00 00 00 00 00 00 00 00 00 00 00 00 ; ................
00B5A8  .dc.b 00 00 00 00 00 00 00 00 00 00 00 00 00 00 00 00 ; ................
00B5B8  .dc.b 00 00 00 00 00 00 00 00 00 00 00 00 00 00 00 00 ; ................
00B5C8  .dc.b 00 00 00 00 20 00 20 00 60 00 40 00 60 00 C0 00 ; .... . .`.@.`...
00B5D8  .dc.b A0 00 E0 00 34 AC 50 00 94 AA AD FE C8 56 54 28 ; ....4.P......VT(
00B5E8  .dc.b 6A AA AB FE 64 AC 07 80 3B 00 9F 00 B4 00 06 00 ; j...d...;.......
00B5F8  .dc.b 18 00 80 00 B4 00 70 00 76 00 60 00 CE 00 00 00 ; ......p.v.`.....
00B608  .dc.b 2A 00 18 00 94 00 F0 00 28 00 E0 00 30 00 00 00 ; *.......(...0...
00B618  .dc.b 70 00 00 00 F8 00 00 00 00 00 00 00 00 00 00 00 ; p...............
00B628  .dc.b 00 00 00 00 00 00 00 00 00 00 00 00 00 00 00 00 ; ................
00B638  .dc.b 00 00 00 00 00 00 00 00 00 00 00 00 00 00 00 00 ; ................
00B648  .dc.b 00 00 00 00 00 00 00 00 00 00 00 00 00 00 00 00 ; ................
00B658  .dc.b 00 00 00 00 00 00 00 00 00 00 00 00 00 00 20 00 ; .............. .
00B668  .dc.b 20 00 40 00 40 00 A0 00 00 00 E0 00 00 00 E0 00 ;  .@.@...........
00B678  .dc.b 70 04 AD F8 BD FE 52 01 DF FE A8 56 EC 7E 50 01 ; p.....R....V.~P.
00B688  .dc.b 98 04 00 78 40 80 04 00 F8 00 86 00 60 00 18 00 ; ...x@.......`...
00B698  .dc.b 8C 00 00 00 8A 00 08 00 B0 00 30 00 66 00 20 00 ; ..........0.f. .
00B6A8  .dc.b 0C 00 80 00 18 00 40 00 D0 00 C0 00 80 00 80 00 ; ......@.........
00B6B8  .dc.b 00 00 00 00 00 00 00 00 00 00 00 00 00 00 00 00 ; ................
00B6C8  .dc.b 00 00 00 00 00 00 00 00 00 00 00 00 00 00 00 00 ; ................
00B6D8  .dc.b 00 00 00 00 00 00 00 00 00 04 00 04 00 06 00 02 ; ................
00B6E8  .dc.b 00 06 00 03 00 05 00 07 35 2C 00 0A 55 29 7F B5 ; ........5,..U)..
00B6F8  .dc.b 6A 13 14 2A 55 56 7F D5 35 26 01 E0 00 DC 00 F9 ; j..*UV..5&......
00B708  .dc.b 00 2D 00 60 00 00 00 01 00 02 00 00 00 00 00 00 ; .-.`............
00B718  .dc.b 00 04 00 01 00 09 00 02 00 16 00 05 00 19 00 07 ; ................
00B728  .dc.b 00 16 00 02 00 2D 00 00 00 14 00 0C 00 14 00 0C ; .....-..........
00B738  .dc.b 00 6C 00 3C 00 2C 00 1C 00 16 00 3E 00 4C 00 1C ; .l.<.,.....>.L..
00B748  .dc.b 00 E4 00 04 01 F2 00 00 00 00 00 00 00 00 00 00 ; ................
00B758  .dc.b 00 00 00 00 00 00 00 00 00 00 00 00 00 00 00 00 ; ................
00B768  .dc.b 00 00 00 00 00 00 00 00 00 00 00 00 00 00 00 00 ; ................
00B778  .dc.b 00 00 00 04 00 04 00 02 00 02 00 05 00 00 00 07 ; ................
00B788  .dc.b 00 00 00 07 20 0E 1F B5 7F BD 80 4A 7F FB 6A 15 ; .... ......J..j.
00B798  .dc.b 7E 37 80 0A 20 19 1E 00 01 02 00 20 00 1F 00 61 ; ~7.. ...... ...a
00B7A8  .dc.b 00 02 00 00 00 03 00 00 00 03 00 00 00 06 00 00 ; ................
00B7B8  .dc.b 00 0D 00 01 00 1A 00 02 00 00 00 00 00 09 00 08 ; ................
00B7C8  .dc.b 00 33 00 02 00 32 00 10 00 32 00 10 00 42 00 00 ; .3...2...2...B..
00B7D8  .dc.b 00 62 00 20 00 40 00 0E 00 22 00 38 00 1A 00 18 ; .b. .@...".8....
00B7E8  .dc.b 00 0E 00 0C 00 00 00 00 00 00 00 00 00 00 00 00 ; ................
00B7F8  .dc.b 00 00 00 00 00 00 00 00 15 00 1A 00 5A 80 66 00 ; ............Z.f.
00B808  .dc.b E4 40 8C 00 74 00 04 00 DA 00 9A 00 A5 48 6D 08 ; .@..t........Hm.
00B818  .dc.b 9A D0 04 10 53 A8 33 20 2C 38 EF F0 4B 98 AF F8 ; ....S.3 ,8..K...
00B828  .dc.b 35 30 09 E0 EE A0 E3 60 E8 A0 19 60 F5 A0 F1 60 ; 50.....`...`...`
00B838  .dc.b 4A 50 00 C0 9A B0 5C 00 41 E0 DF 00 CE C0 CE 00 ; JP....\.A.......
00B848  .dc.b 31 00 30 00 49 00 A0 00 44 00 A4 00 BA 80 EE 00 ; 1.0.I...D.......
00B858  .dc.b 06 80 4A 00 6C 80 0A 00 95 80 07 00 0B 00 02 00 ; ..J.l...........
00B868  .dc.b 06 90 00 40 03 E4 00 64 01 34 00 7C 00 94 00 3C ; ...@...d.4.|...<
00B878  .dc.b 00 29 00 18 00 1B 00 08 00 0F 00 00 00 03 00 00 ; .)..............
00B888  .dc.b 00 01 00 00 00 00 00 00 00 00 00 00 00 00 00 00 ; ................
00B898  .dc.b 00 00 00 00 25 00 04 00 19 80 18 00 13 C0 60 00 ; ....%.........`.
00B8A8  .dc.b 9B C0 00 00 05 C0 F0 00 92 C8 80 00 FB D0 18 08 ; ................
00B8B8  .dc.b 4C A0 03 18 14 20 CF F8 50 90 41 F8 06 10 F4 00 ; L.... ..P.A.....
00B8C8  .dc.b E0 90 1C 80 FA 90 E4 80 F2 90 0C 80 95 30 69 00 ; .............0i.
00B8D8  .dc.b A3 50 83 40 20 20 00 00 31 C0 00 00 CF 00 30 00 ; .P.@  ..1.....0.
00B8E8  .dc.b E7 00 58 00 EB 00 50 00 E1 80 10 00 55 80 A4 00 ; ..X...P.....U...
00B8F8  .dc.b 95 80 64 00 98 00 00 00 0C C0 00 80 05 30 01 00 ; ..d..........0..
00B908  .dc.b 00 98 00 84 01 82 00 0C 00 C3 00 0B 00 26 00 06 ; .............&..
00B918  .dc.b 00 14 00 04 00 08 00 00 00 00 00 00 00 00 00 00 ; ................
00B928  .dc.b 00 00 00 00 00 00 00 00 00 00 00 00 00 00 00 00 ; ................
00B938  .dc.b 00 00 00 00 00 00 00 00 00 00 00 00 00 00 00 00 ; ................
00B948  .dc.b 00 00 00 00 00 00 00 00 00 04 00 04 00 06 00 02 ; ................
00B958  .dc.b 00 06 00 03 00 05 00 07 35 2C 00 0A 55 29 7F B5 ; ........5,..U)..
00B968  .dc.b 6A 13 14 2A 55 56 7F D5 35 26 01 E0 00 DC 00 F9 ; j..*UV..5&......
00B978  .dc.b 00 2D 00 60 00 00 00 01 00 02 00 00 00 01 00 00 ; .-.`............
00B988  .dc.b 00 02 00 00 00 04 00 01 00 03 00 02 00 0E 00 05 ; ................
00B998  .dc.b 00 15 00 03 00 1A 00 00 00 35 00 08 00 2E 00 3C ; .........5.....<
00B9A8  .dc.b 00 7A 00 18 00 3C 00 78 00 24 00 7C 00 94 00 30 ; .z...<.x.$.|...0
00B9B8  .dc.b 01 C0 00 00 03 E0 00 00 00 00 00 00 00 00 00 00 ; ................
00B9C8  .dc.b 00 00 00 00 00 00 00 00 00 00 00 00 00 00 00 00 ; ................
00B9D8  .dc.b 00 00 00 00 00 00 00 00 00 00 00 00 00 00 00 00 ; ................
00B9E8  .dc.b 00 00 00 04 00 04 00 02 00 02 00 05 00 00 00 07 ; ................
00B9F8  .dc.b 00 00 00 07 20 0E 1F B5 7F BD 80 4A 7F FB 6A 15 ; .... ......J..j.
00BA08  .dc.b 7E 37 80 0A 20 19 1E 00 01 02 00 20 00 1F 00 61 ; ~7.. ...... ...a
00BA18  .dc.b 00 02 00 00 00 03 00 00 00 01 00 00 00 03 00 00 ; ................
00BA28  .dc.b 00 06 00 00 00 05 00 01 00 02 00 02 00 08 00 08 ; ................
00BA38  .dc.b 00 15 00 04 00 33 00 12 00 02 00 00 00 66 00 20 ; .....3.......f. 
00BA48  .dc.b 00 04 00 00 00 80 00 1C 00 4C 00 70 00 38 00 30 ; .........L.p.8.0
00BA58  .dc.b 00 18 00 18 00 00 00 00 00 00 00 00 00 00 00 00 ; ................
00BA68  .dc.b 00 00 00 00 00 00 00 00 15 00 1A 00 5A 80 66 00 ; ............Z.f.
00BA78  .dc.b E4 40 8C 00 74 00 04 00 DA 00 9A 00 A5 48 6D 08 ; .@..t........Hm.
00BA88  .dc.b 9A D0 04 10 53 A8 33 20 2C 38 EF F0 4B 98 AF F8 ; ....S.3 ,8..K...
00BA98  .dc.b 35 30 09 E0 EE A0 E3 60 E8 A0 19 60 F5 A0 F1 60 ; 50.....`...`...`
00BAA8  .dc.b 4A 50 00 C0 9A B0 5C 00 41 E0 DF 00 CE C0 CE 00 ; JP....\.A.......
00BAB8  .dc.b 31 00 30 00 69 00 A8 00 45 00 8C 00 A4 00 CC 00 ; 1.0.i...E.......
00BAC8  .dc.b 1A 00 56 00 FD 80 8B 00 55 40 06 00 8A 88 00 48 ; ..V.....U@.....H
00BAD8  .dc.b 05 E1 00 78 03 B3 01 78 00 87 00 38 00 17 00 04 ; ...x...x...8....
00BAE8  .dc.b 00 01 00 00 00 00 00 00 00 00 00 00 00 00 00 00 ; ................
00BAF8  .dc.b 00 00 00 00 00 00 00 00 00 00 00 00 00 00 00 00 ; ................
00BB08  .dc.b 00 00 00 00 25 00 04 00 19 80 18 00 13 C0 60 00 ; ....%.........`.
00BB18  .dc.b 9B C0 00 00 05 C0 F0 00 92 C8 80 00 FB D0 18 08 ; ................
00BB28  .dc.b 4C A0 03 18 14 20 CF F8 50 90 41 F8 06 10 F4 00 ; L.... ..P.A.....
00BB38  .dc.b E0 90 1C 80 FA 90 E4 80 F2 90 0C 80 95 30 69 00 ; .............0i.
00BB48  .dc.b A3 50 83 40 20 20 00 00 31 C0 00 00 CF 00 30 00 ; .P.@  ..1.....0.
00BB58  .dc.b F7 00 40 00 D3 00 60 00 D3 00 20 00 69 00 88 00 ; ..@...`... .i...
00BB68  .dc.b 34 80 44 00 D8 C0 00 80 8D 37 01 0B 02 86 02 9E ; 4.D......7......
00BB78  .dc.b 00 84 00 8C 00 C0 00 00 00 18 00 00 00 00 00 00 ; ................
00BB88  .dc.b 00 00 00 00 00 00 00 00 00 00 00 00 00 00 00 00 ; ................
00BB98  .dc.b 00 00 00 00 00 00 00 00 00 00 00 00 00 00 00 00 ; ................
00BBA8  .dc.b 00 00 00 00 00 00 00 00 00 00 00 00 00 00 00 00 ; ................
00BBB8  .dc.b 00 00 00 00 00 00 00 00 00 02 00 02 00 03 00 01 ; ................
00BBC8  .dc.b 00 03 00 01 00 02 00 03 1A 90 00 06 2A C9 2F CD ; ............*./.
00BBD8  .dc.b 00 12 3F 1B 2A A5 2F E7 1A 94 00 F0 00 68 00 7B ; ..?.*./......h.{
00BBE8  .dc.b 00 12 00 31 00 01 00 03 00 00 00 00 00 00 00 00 ; ...1............
00BBF8  .dc.b 00 01 00 00 00 00 00 00 00 01 00 01 00 02 00 01 ; ................
00BC08  .dc.b 00 03 00 00 00 02 00 00 00 05 00 02 00 02 00 01 ; ................
00BC18  .dc.b 00 02 00 01 00 0D 00 07 00 05 00 03 00 02 00 07 ; ................
00BC28  .dc.b 00 09 00 03 00 1C 00 00 00 3E 00 00 00 00 00 00 ; .........>......
00BC38  .dc.b 00 00 00 00 00 00 00 00 00 00 00 00 00 00 00 00 ; ................
00BC48  .dc.b 00 00 00 00 00 00 00 00 00 00 00 00 00 00 00 00 ; ................
00BC58  .dc.b 00 00 00 02 00 02 00 01 00 01 00 02 00 00 00 03 ; ................
00BC68  .dc.b 00 00 00 03 10 06 0F D9 2F CD 50 32 3F FB 00 04 ; ......../.P2?...
00BC78  .dc.b 2F 17 50 08 10 0B 0F 00 00 84 00 10 00 0E 00 32 ; /.P............2
00BC88  .dc.b 00 04 00 00 00 03 00 00 00 00 00 00 00 01 00 00 ; ................
00BC98  .dc.b 00 01 00 00 00 00 00 00 00 02 00 00 00 00 00 00 ; ................
00BCA8  .dc.b 00 01 00 01 00 05 00 01 00 06 00 02 00 06 00 02 ; ................
00BCB8  .dc.b 00 08 00 00 00 0C 00 04 00 08 00 01 00 04 00 07 ; ................
00BCC8  .dc.b 00 03 00 03 00 01 00 01 00 00 00 00 00 00 00 00 ; ................
00BCD8  .dc.b 00 00 00 00 00 00 00 00 15 00 1A 00 5A 80 66 00 ; ............Z.f.
00BCE8  .dc.b E4 40 8C 00 74 00 04 00 DA 00 9A 00 A5 50 6D 10 ; .@..t........Pm.
00BCF8  .dc.b 98 A0 04 20 53 D0 33 40 2C 70 EF E0 CF 30 AF F0 ; ... S.3@,p...0..
00BD08  .dc.b 32 60 0B C0 ED 40 E6 C0 E1 40 12 C0 F3 40 F2 C0 ; 2`...@...@...@..
00BD18  .dc.b 94 A0 01 80 35 60 B8 00 83 C0 BE 00 9D 80 9C 00 ; ....5`..........
00BD28  .dc.b 67 00 61 00 5B 00 B8 00 F3 00 B8 00 01 00 58 00 ; g.a.[.........X.
00BD38  .dc.b AD 14 54 00 EC 79 94 30 AD 0B 94 78 B6 67 1D F8 ; ..T..y.0...x.g..
00BD48  .dc.b AD F3 08 F0 9B 49 80 C0 86 40 83 00 80 00 80 00 ; .....I...@......
00BD58  .dc.b 80 00 80 00 C0 00 C0 00 80 00 80 00 80 00 80 00 ; ................
00BD68  .dc.b 40 00 00 00 00 00 00 00 00 00 00 00 00 00 00 00 ; @...............
00BD78  .dc.b 00 00 00 00 25 00 04 00 19 80 18 00 13 C0 60 00 ; ....%.........`.
00BD88  .dc.b 9B C0 00 00 05 C0 F0 00 92 D0 80 00 FB A0 18 10 ; ................
00BD98  .dc.b 4C C0 83 30 14 40 CF F0 51 20 C3 F0 04 20 F0 00 ; L..0.@..Q ... ..
00BDA8  .dc.b E1 20 19 00 F5 20 E9 00 F5 20 09 00 2A 60 D2 00 ; . ... ... ..*`..
00BDB8  .dc.b 46 A0 06 80 40 40 00 00 63 80 00 00 9E 00 61 00 ; F...@@..c.....a.
00BDC8  .dc.b E7 00 40 00 E7 00 40 00 47 00 A0 00 4B 1B A8 03 ; ..@...@.G...K...
00BDD8  .dc.b 2A 46 48 26 6B 84 08 34 60 00 00 18 73 0C 43 00 ; *FH&k..4`...s.C.
00BDE8  .dc.b 55 38 05 00 40 C0 00 00 40 00 00 00 40 00 00 00 ; U8..@...@...@...
00BDF8  .dc.b 00 00 C0 00 40 00 00 00 40 00 00 00 C0 00 80 00 ; ....@...@.......
00BE08  .dc.b 00 00 00 00 00 00 00 00 00 00 00 00 00 00 00 00 ; ................
00BE18  .dc.b 00 00 00 00 00 00 00 00 00 00 00 00 00 00 00 00 ; ................
00BE28  .dc.b 00 00 00 00 00 01 00 01 00 01 00 00 00 01 00 01 ; ................
00BE38  .dc.b 00 00 00 01 1F DD 00 07 15 4A 15 4E 2A 15 3F 1D ; .........J.N*.?.
00BE48  .dc.b 15 A2 15 E3 1E 99 00 F8 00 65 00 77 00 1B 00 37 ; .........e.w...7
00BE58  .dc.b 00 0A 00 02 00 04 00 00 00 00 00 00 00 00 00 00 ; ................
00BE68  .dc.b 00 00 00 00 00 01 00 00 00 01 00 00 00 00 00 00 ; ................
00BE78  .dc.b 00 00 00 00 00 00 00 00 00 00 00 00 00 00 00 00 ; ................
00BE88  .dc.b 00 00 00 00 00 00 00 00 00 01 00 00 00 00 00 00 ; ................
00BE98  .dc.b 00 00 00 00 00 01 00 00 00 03 00 00 00 07 00 00 ; ................
00BEA8  .dc.b 00 00 00 00 00 00 00 00 00 00 00 00 00 00 00 00 ; ................
00BEB8  .dc.b 00 00 00 00 00 00 00 00 00 00 00 00 00 00 00 01 ; ................
00BEC8  .dc.b 00 01 00 00 00 00 00 01 00 00 00 01 00 00 00 01 ; ................
00BED8  .dc.b 15 47 0A 98 15 4E 2A B1 3F FD 00 02 15 1B 2A 04 ; .G...N*.?.....*.
00BEE8  .dc.b 14 06 0B 01 00 88 00 10 00 08 00 30 00 0D 00 00 ; ...........0....
00BEF8  .dc.b 00 07 00 00 00 00 00 01 00 00 00 01 00 00 00 01 ; ................
00BF08  .dc.b 00 01 00 00 00 01 00 00 00 00 00 00 00 00 00 00 ; ................
00BF18  .dc.b 00 00 00 00 00 00 00 00 00 00 00 00 00 00 00 00 ; ................
00BF28  .dc.b 00 00 00 00 00 01 00 00 00 01 00 00 00 01 00 00 ; ................
00BF38  .dc.b 00 00 00 00 00 00 00 00 00 00 00 00 00 00 00 00 ; ................
00BF48  .dc.b 00 00 00 00 15 00 1A 00 5A 80 66 00 64 40 0C 00 ; ........Z.f.d@..
00BF58  .dc.b 74 00 04 00 DA 00 9A 00 2A 60 FA 20 BA C0 24 40 ; t.......*`. ..$@
00BF68  .dc.b D3 A0 B2 80 28 E0 EF C0 CE 60 AF E0 34 C0 07 80 ; ....(....`..4...
00BF78  .dc.b DA 80 CD 80 62 80 85 80 F6 80 F5 80 29 40 03 00 ; ....b.......)@..
00BF88  .dc.b 6A C0 70 00 47 80 7C 00 3B 00 38 00 CF 00 C3 00 ; j.p.G.|.;.8.....
00BF98  .dc.b 9B 00 18 00 AB 00 38 00 7F 00 AC 00 F4 00 AC 00 ; ......8.........
00BFA8  .dc.b 44 20 1C 00 7C A6 54 60 21 2F 4D E0 2B 5F 48 F0 ; D ..|.T`!/M.+_H.
00BFB8  .dc.b 92 EF 01 E0 BD 98 03 80 58 80 B0 00 A0 00 60 00 ; ........X.....`.
00BFC8  .dc.b E0 00 60 00 68 00 E0 00 58 00 F8 00 08 00 20 00 ; ..`.h...X..... .
00BFD8  .dc.b 88 00 00 00 C8 00 00 00 00 00 00 00 00 00 00 00 ; ................
00BFE8  .dc.b 25 00 04 00 19 80 18 00 93 C0 60 00 9B C0 00 00 ; %.........`.....
00BFF8  .dc.b 05 C0 F0 00 05 E0 00 00 DB C0 18 20 CD 80 02 60 ; ........... ...`
00C008  .dc.b 18 80 CF E0 52 40 C7 E0 08 40 F0 00 C2 40 32 00 ; ....R@...@...@2.
00C018  .dc.b EA 40 72 00 FA 40 02 00 54 C0 A4 00 8D 40 0D 00 ; .@r..@..T....@..
00C028  .dc.b 80 80 00 00 C7 00 00 00 3C 00 C3 00 A7 00 C0 00 ; ........<.......
00C038  .dc.b 87 00 C0 00 D3 00 10 00 D2 00 10 00 62 3C 80 0C ; ............b<..
00C048  .dc.b AA 98 08 58 B2 10 02 70 B7 00 07 20 6E 18 4E 00 ; ...X...p... n.N.
00C058  .dc.b 50 78 40 00 4F 80 40 00 90 00 80 00 90 00 80 00 ; Px@.O.@.........
00C068  .dc.b 18 00 00 00 00 00 38 00 D8 00 E0 00 78 00 60 00 ; ......8.....x.`.
00C078  .dc.b 38 00 30 00 00 00 00 00 00 00 00 00 00 00 00 00 ; 8.0.............
00C088  .dc.b 00 00 00 00 00 00 00 00 00 00 00 00 00 00 00 00 ; ................
00C098  .dc.b 00 00 00 00 00 00 00 00 00 00 00 00 00 00 00 00 ; ................
00C0A8  .dc.b 00 01 00 01 0F F9 00 03 1A A6 0A A6 15 8D 1F 8D ; ................
00C0B8  .dc.b 1A F2 0A F3 0F A2 00 30 00 5C 00 04 00 0C 00 04 ; .......0.\......
00C0C8  .dc.b 00 09 00 00 00 05 00 01 00 00 00 00 00 00 00 00 ; ................
00C0D8  .dc.b 00 00 00 00 00 01 00 00 00 02 00 00 00 02 00 00 ; ................
00C0E8  .dc.b 00 03 00 00 00 02 00 00 00 02 00 00 00 01 00 00 ; ................
00C0F8  .dc.b 00 00 00 00 00 00 00 00 00 00 00 00 00 00 00 00 ; ................
00C108  .dc.b 00 00 00 00 00 00 00 00 00 00 00 00 00 00 00 00 ; ................
00C118  .dc.b 00 00 00 00 00 00 00 00 00 00 00 00 00 00 00 00 ; ................
00C128  .dc.b 00 00 00 00 00 00 00 00 00 00 00 00 00 00 00 00 ; ................
00C138  .dc.b 00 00 00 00 00 00 00 00 00 00 00 00 00 00 00 01 ; ................
00C148  .dc.b 0A A3 05 5C 0A A6 15 59 1F FD 00 02 0A 83 15 0C ; ...\...Y........
00C158  .dc.b 0A 4C 05 83 00 7B 00 00 00 0B 00 00 00 0F 00 00 ; .L...{..........
00C168  .dc.b 00 06 00 01 00 00 00 00 00 00 00 00 00 00 00 00 ; ................
00C178  .dc.b 00 01 00 00 00 03 00 00 00 03 00 00 00 00 00 00 ; ................
00C188  .dc.b 00 01 00 01 00 01 00 00 00 01 00 00 00 00 00 00 ; ................
00C198  .dc.b 00 00 00 00 00 00 00 00 00 00 00 00 00 00 00 00 ; ................
00C1A8  .dc.b 00 00 00 00 00 00 00 00 00 00 00 00 00 00 00 00 ; ................
00C1B8  .dc.b 00 00 00 00 15 00 1A 00 5A 80 66 00 68 C0 18 00 ; ........Z.f.h...
00C1C8  .dc.b 68 40 08 00 D4 40 94 00 2C 40 FC 40 D4 80 6C 80 ; h@...@..,@.@..l.
00C1D8  .dc.b 53 40 33 00 B1 C0 FF 80 DC C0 BF C0 29 C0 0F 00 ; S@3.........)...
00C1E8  .dc.b D5 40 CB 40 65 40 8B 40 ED 40 EB 40 52 C0 06 00 ; .@.@e@.@.@.@R...
00C1F8  .dc.b C5 80 F0 00 CF 80 F8 00 77 80 70 00 9F 00 87 00 ; ........w.p.....
00C208  .dc.b 55 00 1C 00 A5 00 3C 00 EA 00 58 00 52 00 30 00 ; U.....<...X.R.0.
00C218  .dc.b A4 00 60 00 6B 00 C3 00 32 80 0F 80 DE A0 3F 00 ; ..`.k...2.....?.
00C228  .dc.b 7E 60 FE 00 E0 E0 00 00 D7 E0 70 00 6A 20 18 00 ; ~`........p.j ..
00C238  .dc.b 1D 00 0C 00 26 80 0E 80 12 40 07 80 0A A0 00 80 ; ....&....@......
00C248  .dc.b 07 20 00 00 0F 80 00 00 00 00 00 00 00 00 00 00 ; . ..............
00C258  .dc.b 25 00 04 00 19 80 18 00 87 C0 60 00 97 C0 00 00 ; %.........`.....
00C268  .dc.b 0B C0 E0 00 03 C0 00 00 93 80 10 40 4D 00 82 C0 ; ...........@M...
00C278  .dc.b 11 00 DF C0 44 80 CF C0 10 C0 E0 00 C4 80 34 40 ; ....D.........4@
00C288  .dc.b E4 80 74 40 F4 80 04 40 A9 C0 48 00 0A 80 0A 00 ; ..t@...@..H.....
00C298  .dc.b 01 80 00 00 8F 80 00 00 78 00 87 00 63 00 00 00 ; ........x...c...
00C2A8  .dc.b C3 00 00 00 A6 00 20 00 CE 00 40 00 9C 00 80 00 ; ...... ...@.....
00C2B8  .dc.b 1C E0 03 20 F0 60 F3 60 40 40 41 40 01 80 00 80 ; ... .`.`@@A@....
00C2C8  .dc.b FF 00 00 00 8F 80 00 00 66 00 20 00 33 00 10 00 ; ........f. .3...
00C2D8  .dc.b 31 00 00 80 18 40 01 80 0D 60 01 00 00 E0 00 C0 ; 1....@...`......
00C2E8  .dc.b 00 60 00 60 00 00 00 00 00 00 00 00 00 00 00 00 ; .`.`............
00C2F8  .dc.b 00 00 00 00 00 00 00 00 00 00 00 00 00 00 00 00 ; ................
00C308  .dc.b 00 00 00 00 00 00 00 00 00 00 00 00 00 00 00 00 ; ................
00C318  .dc.b 00 00 00 00 0F F9 00 03 15 56 00 06 1A 8D 1A 8D ; .........V......
00C328  .dc.b 15 72 00 33 0F C4 00 20 00 19 00 09 00 11 00 01 ; .r.3... ........
00C338  .dc.b 00 12 00 00 00 0F 00 03 00 00 00 00 00 00 00 00 ; ................
00C348  .dc.b 00 00 00 00 00 01 00 00 00 03 00 01 00 04 00 01 ; ................
00C358  .dc.b 00 07 00 00 00 04 00 00 00 04 00 01 00 02 00 00 ; ................
00C368  .dc.b 00 01 00 00 00 00 00 00 00 00 00 00 00 00 00 00 ; ................
00C378  .dc.b 00 00 00 00 00 00 00 00 00 00 00 00 00 00 00 00 ; ................
00C388  .dc.b 00 00 00 00 00 00 00 00 00 00 00 00 00 00 00 00 ; ................
00C398  .dc.b 00 00 00 00 00 00 00 00 00 00 00 00 00 00 00 00 ; ................
00C3A8  .dc.b 00 00 00 00 00 00 00 00 00 00 00 00 00 00 00 00 ; ................
00C3B8  .dc.b 05 53 0A AC 00 06 1F F9 1A BD 05 42 00 03 1F CC ; .S.........B....
00C3C8  .dc.b 0D 59 02 86 00 36 00 00 00 1E 00 00 00 1F 00 00 ; .Y...6..........
00C3D8  .dc.b 00 0C 00 03 00 00 00 00 00 00 00 00 00 00 00 00 ; ................
00C3E8  .dc.b 00 01 00 00 00 02 00 00 00 06 00 00 00 00 00 00 ; ................
00C3F8  .dc.b 00 03 00 03 00 02 00 00 00 03 00 00 00 01 00 00 ; ................
00C408  .dc.b 00 00 00 00 00 00 00 00 00 00 00 00 00 00 00 00 ; ................
00C418  .dc.b 00 00 00 00 00 00 00 00 00 00 00 00 00 00 00 00 ; ................
00C428  .dc.b 00 00 00 00 15 00 1A 00 5A 80 66 00 48 C0 18 00 ; ........Z.f.H...
00C438  .dc.b 78 40 18 00 CC 40 8C 00 34 C0 F4 80 6D 40 5D 00 ; x@...@..4...m@].
00C448  .dc.b 52 C0 32 00 23 80 7F 00 F9 C0 BF 80 33 C0 1E C0 ; R.2.#.......3...
00C458  .dc.b CA E0 D6 E0 4A A0 96 E0 DA A0 D6 60 A4 E0 0C 60 ; ....J......`...`
00C468  .dc.b CB A0 E0 20 9F 60 F0 00 EE 40 E0 00 3F 80 0F 80 ; ... .`...@..?...
00C478  .dc.b 4D 00 1C 00 89 00 38 00 6A 00 58 00 D2 00 B0 00 ; M.....8.j.X.....
00C488  .dc.b B4 00 70 00 48 00 C0 00 9C 00 80 00 7C 00 00 00 ; ..p.H.......|...
00C498  .dc.b CC 00 20 00 EC 00 7E 00 3A 80 7E 00 A8 00 3C 00 ; .. ...~.:.~...<.
00C4A8  .dc.b 29 C0 08 00 1F 60 00 40 0E D0 00 C0 0C D8 00 80 ; )....`.@........
00C4B8  .dc.b 01 E0 00 00 01 F0 00 00 00 00 00 00 00 00 00 00 ; ................
00C4C8  .dc.b 25 00 04 00 19 80 18 00 A7 C0 40 00 87 C0 00 00 ; %.........@.....
00C4D8  .dc.b 13 C0 E0 00 0B C0 00 00 A3 40 20 80 4E 40 81 80 ; .........@ .N@..
00C4E8  .dc.b 22 00 7F 80 49 40 DF 80 01 00 E0 C0 C9 40 28 E0 ; "...I@.......@(.
00C4F8  .dc.b E9 00 48 E0 E9 80 08 60 53 C0 90 60 15 C0 14 20 ; ..H....`S..`... 
00C508  .dc.b 03 E0 00 00 1F C0 00 00 F0 00 0F 80 63 00 00 00 ; ............c...
00C518  .dc.b C7 00 00 00 A6 00 20 00 4E 00 40 00 8C 00 80 00 ; ...... .N.@.....
00C528  .dc.b 38 00 00 00 7C 00 00 00 B0 00 80 00 DC 00 C0 00 ; 8...|...........
00C538  .dc.b 80 00 86 00 81 80 04 00 C3 80 07 80 36 40 06 00 ; ............6@..
00C548  .dc.b 10 A0 00 40 01 30 00 40 01 28 00 20 01 18 00 18 ; ...@.0.@.(. ....
00C558  .dc.b 00 0C 00 0C 00 00 00 00 00 00 00 00 00 00 00 00 ; ................
00C568  .dc.b 00 00 00 00 00 00 00 00 00 00 00 00 00 00 00 00 ; ................
00C578  .dc.b 00 00 00 00 00 00 00 00 00 00 00 00 00 00 00 00 ; ................
00C588  .dc.b 00 00 00 00 07 FA 00 02 0A A1 00 01 00 02 00 02 ; ................
00C598  .dc.b 0A 8D 00 0D 07 C9 00 00 00 35 00 11 00 23 00 03 ; .........5...#..
00C5A8  .dc.b 00 25 00 01 00 1E 00 06 00 00 00 00 00 01 00 00 ; .%..............
00C5B8  .dc.b 00 05 00 01 00 0B 00 00 00 18 00 03 00 11 00 00 ; ................
00C5C8  .dc.b 00 14 00 0A 00 05 00 03 00 0D 00 07 00 07 00 01 ; ................
00C5D8  .dc.b 00 02 00 03 00 02 00 01 00 00 00 00 00 01 00 00 ; ................
00C5E8  .dc.b 00 00 00 00 00 00 00 00 00 00 00 00 00 00 00 00 ; ................
00C5F8  .dc.b 00 00 00 00 00 00 00 00 00 00 00 00 00 00 00 00 ; ................
00C608  .dc.b 00 00 00 00 00 00 00 00 00 00 00 00 00 00 00 00 ; ................
00C618  .dc.b 00 00 00 00 00 00 00 00 00 00 00 00 00 00 00 00 ; ................
00C628  .dc.b 06 A2 01 5D 00 01 0F FE 00 32 0F CD 00 1D 0F E2 ; ...].....2......
00C638  .dc.b 02 B2 05 4D 00 2E 00 00 00 3C 00 00 00 3E 00 00 ; ...M.....<...>..
00C648  .dc.b 00 19 00 06 00 00 00 00 00 01 00 00 00 06 00 00 ; ................
00C658  .dc.b 00 0F 00 03 00 04 00 04 00 0E 00 0E 00 15 00 04 ; ................
00C668  .dc.b 00 0C 00 04 00 08 00 00 00 06 00 02 00 00 00 00 ; ................
00C678  .dc.b 00 02 00 00 00 01 00 00 00 01 00 00 00 00 00 00 ; ................
00C688  .dc.b 00 00 00 00 00 00 00 00 00 00 00 00 00 00 00 00 ; ................
00C698  .dc.b 00 00 00 00 15 00 1A 00 5A 80 66 00 68 C0 38 00 ; ........Z.f.h.8.
00C6A8  .dc.b 70 40 30 00 F0 40 B0 00 A9 40 F9 00 CA C0 AA 00 ; p@0..@...@......
00C6B8  .dc.b 55 80 34 00 47 80 7E 00 F3 C0 FF 00 A7 60 BD C0 ; U.4.G.~......`..
00C6C8  .dc.b 55 20 6C E0 95 20 AC E0 35 A0 AC E0 49 A0 18 E0 ; U l.. ..5...I...
00C6D8  .dc.b D7 60 C0 60 BE 60 E0 40 9C C0 80 00 7F 80 1F 80 ; .`.`.`.@........
00C6E8  .dc.b D1 00 1C 00 67 00 5E 00 D9 00 38 00 63 00 E0 00 ; ....g.^...8.c...
00C6F8  .dc.b 8E 80 80 00 39 00 03 00 95 C0 07 80 0A 80 03 00 ; ....9...........
00C708  .dc.b C5 60 C0 00 62 A8 C0 60 51 76 C0 B4 80 F8 80 3C ; .`..b..`Qv.....<
00C718  .dc.b F0 78 80 1C E0 2D 00 1C C0 1B 00 08 80 0F 00 00 ; .x...-..........
00C728  .dc.b 00 03 00 00 00 01 00 00 00 00 00 00 00 00 00 00 ; ................
00C738  .dc.b 25 00 04 00 19 80 18 00 87 C0 40 00 8F C0 00 00 ; %.........@.....
00C748  .dc.b 0F C0 C0 00 07 C0 00 00 56 C0 41 00 4C 80 83 00 ; ........V.A.L...
00C758  .dc.b 44 80 7F 00 12 C0 BF 00 C3 20 01 C0 13 00 90 E0 ; D........ ......
00C768  .dc.b D3 00 10 E0 D3 80 10 E0 A7 00 20 E0 2B C0 28 60 ; .......... .+.(`
00C778  .dc.b 07 A0 00 40 7F C0 00 00 E0 00 1F 80 E3 00 00 00 ; ...@............
00C788  .dc.b A1 00 20 00 C7 00 C0 00 1F 00 00 00 7F 80 00 00 ; .. .............
00C798  .dc.b FC 80 00 00 98 00 00 00 8C 40 00 40 06 A0 40 80 ; .........@.@..@.
00C7A8  .dc.b 21 18 C1 00 30 4A A0 44 70 C3 70 45 00 63 00 27 ; !...0J.Dp.pE.c.'
00C7B8  .dc.b 00 22 00 02 00 14 00 04 00 08 00 00 00 00 00 00 ; ."..............
00C7C8  .dc.b 00 00 00 00 00 00 00 00 00 00 00 00 00 00 00 00 ; ................
00C7D8  .dc.b 00 00 00 00 00 00 00 00 00 00 00 00 00 00 00 00 ; ................
00C7E8  .dc.b 00 00 00 00 00 00 00 00 00 00 00 00 00 00 00 00 ; ................
00C7F8  .dc.b 00 00 00 00 00 00 00 00 07 FA 00 02 0A A1 00 01 ; ................
00C808  .dc.b 00 02 00 02 0A 8D 00 0D 07 C9 00 00 00 35 00 11 ; .............5..
00C818  .dc.b 00 23 00 03 00 25 00 01 00 1E 00 06 00 01 00 00 ; .#...%..........
00C828  .dc.b 00 02 00 00 00 04 00 01 00 0A 00 01 00 1D 00 03 ; ................
00C838  .dc.b 00 17 00 03 00 2C 00 00 00 15 00 0C 00 14 00 0C ; .....,..........
00C848  .dc.b 00 6C 00 3C 00 2C 00 1C 00 16 00 3E 00 4C 00 1C ; .l.<.,.....>.L..
00C858  .dc.b 00 E4 00 04 01 F2 00 00 00 00 00 00 00 00 00 00 ; ................
00C868  .dc.b 00 00 00 00 00 00 00 00 00 00 00 00 00 00 00 00 ; ................
00C878  .dc.b 00 00 00 00 00 00 00 00 00 00 00 00 00 00 00 00 ; ................
00C888  .dc.b 00 00 00 00 00 00 00 00 00 00 00 00 00 00 00 00 ; ................
00C898  .dc.b 00 00 00 00 06 A2 01 5D 00 01 0F FE 00 32 0F CD ; .......].....2..
00C8A8  .dc.b 00 1D 0F E2 02 B2 05 4D 00 2E 00 00 00 3C 00 00 ; .......M.....<..
00C8B8  .dc.b 00 3E 00 00 00 19 00 06 00 01 00 00 00 03 00 00 ; .>..............
00C8C8  .dc.b 00 06 00 00 00 0E 00 02 00 04 00 04 00 08 00 08 ; ................
00C8D8  .dc.b 00 33 00 03 00 33 00 10 00 32 00 10 00 42 00 00 ; .3...3...2...B..
00C8E8  .dc.b 00 62 00 20 00 40 00 0E 00 22 00 38 00 1A 00 18 ; .b. .@...".8....
00C8F8  .dc.b 00 0E 00 0C 00 00 00 00 00 00 00 00 00 00 00 00 ; ................
00C908  .dc.b 00 00 00 00 00 00 00 00 15 00 1A 00 5A 80 66 00 ; ............Z.f.
00C918  .dc.b 68 C0 38 00 70 40 30 00 F0 40 B0 00 A9 40 F9 00 ; h.8.p@0..@...@..
00C928  .dc.b CA C0 AA 00 55 80 34 00 47 80 7E 00 F3 C0 FF 00 ; ....U.4.G.~.....
00C938  .dc.b A7 60 BD C0 55 20 6C E0 95 20 AC E0 35 A0 AC E0 ; .`..U l.. ..5...
00C948  .dc.b 49 A0 18 E0 D7 60 C0 60 BE 60 E0 40 9C C0 80 00 ; I....`.`.`.@....
00C958  .dc.b 7F 80 1F 80 25 00 3C 00 29 00 D8 00 93 00 70 00 ; ....%.<.).....p.
00C968  .dc.b 65 00 E0 00 9D 00 84 00 2B 00 0E 00 96 00 04 00 ; e.......+.......
00C978  .dc.b 0D 20 00 80 07 C8 00 C8 02 68 00 F8 01 28 00 78 ; . .......h...(.x
00C988  .dc.b 00 52 00 30 00 36 00 10 00 1E 00 00 00 06 00 00 ; .R.0.6..........
00C998  .dc.b 00 02 00 00 00 00 00 00 00 00 00 00 00 00 00 00 ; ................
00C9A8  .dc.b 00 00 00 00 25 00 04 00 19 80 18 00 87 C0 40 00 ; ....%.........@.
00C9B8  .dc.b 8F C0 00 00 0F C0 C0 00 07 C0 00 00 56 C0 41 00 ; ............V.A.
00C9C8  .dc.b 4C 80 83 00 44 80 7F 00 12 C0 BF 00 C3 20 01 C0 ; L...D........ ..
00C9D8  .dc.b 13 00 90 E0 D3 00 10 E0 D3 80 10 E0 A7 00 20 E0 ; .............. .
00C9E8  .dc.b 2B C0 28 60 07 A0 00 40 7F C0 00 00 E0 00 1F 80 ; +.(`...@........
00C9F8  .dc.b C3 00 00 00 27 00 20 00 8F 00 80 00 1F 00 00 00 ; ....'. .........
00CA08  .dc.b 7B 00 00 00 F0 00 00 00 19 80 01 00 0A 60 02 00 ; {............`..
00CA18  .dc.b 01 30 01 08 03 04 00 18 01 86 00 16 00 4C 00 0C ; .0...........L..
00CA28  .dc.b 00 28 00 08 00 10 00 00 00 00 00 00 00 00 00 00 ; .(..............
00CA38  .dc.b 00 00 00 00 00 00 00 00 00 00 00 00 00 00 00 00 ; ................
00CA48  .dc.b 00 00 00 00 00 00 00 00 00 00 00 00 00 00 00 00 ; ................
00CA58  .dc.b 00 00 00 00 00 00 00 00 00 00 00 00 00 00 00 00 ; ................
00CA68  .dc.b 00 00 00 00 00 00 00 00 07 FA 00 02 0A A1 00 01 ; ................
00CA78  .dc.b 00 02 00 02 0A 8D 00 0D 07 C9 00 00 00 35 00 11 ; .............5..
00CA88  .dc.b 00 23 00 03 00 25 00 01 00 1E 00 06 00 00 00 00 ; .#...%..........
00CA98  .dc.b 00 01 00 00 00 02 00 00 00 05 00 00 00 0A 00 01 ; ................
00CAA8  .dc.b 00 15 00 03 00 1A 00 00 00 35 00 08 00 2E 00 3C ; .........5.....<
00CAB8  .dc.b 00 7A 00 18 00 3C 00 78 00 24 00 7C 00 94 00 30 ; .z...<.x.$.|...0
00CAC8  .dc.b 01 C0 00 00 03 E0 00 00 00 00 00 00 00 00 00 00 ; ................
00CAD8  .dc.b 00 00 00 00 00 00 00 00 00 00 00 00 00 00 00 00 ; ................
00CAE8  .dc.b 00 00 00 00 00 00 00 00 00 00 00 00 00 00 00 00 ; ................
00CAF8  .dc.b 00 00 00 00 00 00 00 00 00 00 00 00 00 00 00 00 ; ................
00CB08  .dc.b 00 00 00 00 06 A2 01 5D 00 01 0F FE 00 32 0F CD ; .......].....2..
00CB18  .dc.b 00 1D 0F E2 02 B2 05 4D 00 2E 00 00 00 3C 00 00 ; .......M.....<..
00CB28  .dc.b 00 3E 00 00 00 19 00 06 00 00 00 00 00 01 00 00 ; .>..............
00CB38  .dc.b 00 03 00 00 00 07 00 01 00 06 00 02 00 08 00 08 ; ................
00CB48  .dc.b 00 15 00 04 00 33 00 12 00 02 00 00 00 66 00 20 ; .....3.......f. 
00CB58  .dc.b 00 04 00 00 00 80 00 1C 00 4C 00 70 00 38 00 30 ; .........L.p.8.0
00CB68  .dc.b 00 18 00 18 00 00 00 00 00 00 00 00 00 00 00 00 ; ................
00CB78  .dc.b 00 00 00 00 00 00 00 00 15 00 1A 00 5A 80 66 00 ; ............Z.f.
00CB88  .dc.b 68 C0 38 00 70 40 30 00 F0 40 B0 00 A9 40 F9 00 ; h.8.p@0..@...@..
00CB98  .dc.b CA C0 AA 00 55 80 34 00 47 80 7E 00 F3 C0 FF 00 ; ....U.4.G.~.....
00CBA8  .dc.b A7 60 BD C0 55 20 6C E0 95 20 AC E0 35 A0 AC E0 ; .`..U l.. ..5...
00CBB8  .dc.b 49 A0 18 E0 D7 60 C0 60 BE 60 E0 40 9C C0 80 00 ; I....`.`.`.@....
00CBC8  .dc.b 7F 80 1F 80 A5 00 3C 00 29 00 58 00 52 00 B0 00 ; ......<.).X.R...
00CBD8  .dc.b 26 80 E2 00 DD 80 C7 00 35 40 06 00 8A 88 00 48 ; &.......5@.....H
00CBE8  .dc.b 05 E1 00 78 03 B3 01 78 00 87 00 38 00 17 00 04 ; ...x...x...8....
00CBF8  .dc.b 00 01 00 00 00 00 00 00 00 00 00 00 00 00 00 00 ; ................
00CC08  .dc.b 00 00 00 00 00 00 00 00 00 00 00 00 00 00 00 00 ; ................
00CC18  .dc.b 00 00 00 00 25 00 04 00 19 80 18 00 87 C0 40 00 ; ....%.........@.
00CC28  .dc.b 8F C0 00 00 0F C0 C0 00 07 C0 00 00 56 C0 41 00 ; ............V.A.
00CC38  .dc.b 4C 80 83 00 44 80 7F 00 12 C0 BF 00 C3 20 01 C0 ; L...D........ ..
00CC48  .dc.b 13 00 90 E0 D3 00 10 E0 D3 80 10 E0 A7 00 20 E0 ; .............. .
00CC58  .dc.b 2B C0 28 60 07 A0 00 40 7F C0 00 00 E0 00 1F 80 ; +.(`...@........
00CC68  .dc.b C3 00 00 00 A7 00 20 00 4F 00 40 00 1D 80 00 00 ; ...... .O.@.....
00CC78  .dc.b 38 80 00 00 F8 C0 00 80 8D 37 01 0B 02 86 02 9E ; 8........7......
00CC88  .dc.b 00 84 00 8C 00 C0 00 00 00 18 00 00 00 00 00 00 ; ................
00CC98  .dc.b 00 00 00 00 00 00 00 00 00 00 00 00 00 00 00 00 ; ................
00CCA8  .dc.b 00 00 00 00 00 00 00 00 00 00 00 00 00 00 00 00 ; ................
00CCB8  .dc.b 00 00 00 00 00 00 00 00 00 00 00 00 00 00 00 00 ; ................
00CCC8  .dc.b 00 00 00 00 00 00 00 00 00 00 00 00 00 00 00 00 ; ................
00CCD8  .dc.b 00 00 00 00 00 00 00 00 0F F9 00 03 15 56 00 06 ; .............V..
00CCE8  .dc.b 1A 8D 1A 8D 15 72 00 33 0F C4 00 20 00 19 00 09 ; .....r.3... ....
00CCF8  .dc.b 00 11 00 01 00 12 00 00 00 0F 00 03 00 00 00 00 ; ................
00CD08  .dc.b 00 00 00 00 00 01 00 00 00 01 00 00 00 02 00 00 ; ................
00CD18  .dc.b 00 03 00 00 00 02 00 00 00 05 00 02 00 02 00 01 ; ................
00CD28  .dc.b 00 02 00 01 00 0D 00 07 00 05 00 03 00 02 00 07 ; ................
00CD38  .dc.b 00 09 00 03 00 1C 00 00 00 3E 00 00 00 00 00 00 ; .........>......
00CD48  .dc.b 00 00 00 00 00 00 00 00 00 00 00 00 00 00 00 00 ; ................
00CD58  .dc.b 00 00 00 00 00 00 00 00 00 00 00 00 00 00 00 00 ; ................
00CD68  .dc.b 00 00 00 00 00 00 00 00 00 00 00 00 00 00 00 00 ; ................
00CD78  .dc.b 00 00 00 00 05 53 0A AC 00 06 1F F9 1A BD 05 42 ; .....S.........B
00CD88  .dc.b 00 03 1F CC 0D 59 02 86 00 36 00 00 00 1E 00 00 ; .....Y...6......
00CD98  .dc.b 00 1F 00 00 00 0C 00 03 00 00 00 00 00 00 00 00 ; ................
00CDA8  .dc.b 00 01 00 00 00 01 00 00 00 03 00 00 00 00 00 00 ; ................
00CDB8  .dc.b 00 01 00 01 00 05 00 01 00 06 00 02 00 06 00 02 ; ................
00CDC8  .dc.b 00 08 00 00 00 0C 00 04 00 08 00 01 00 04 00 07 ; ................
00CDD8  .dc.b 00 03 00 03 00 01 00 01 00 00 00 00 00 00 00 00 ; ................
00CDE8  .dc.b 00 00 00 00 00 00 00 00 15 00 1A 00 5A 80 66 00 ; ............Z.f.
00CDF8  .dc.b 48 C0 18 00 78 40 18 00 CC 40 8C 00 34 C0 F4 80 ; H...x@...@..4...
00CE08  .dc.b 6D 40 5D 00 52 C0 32 00 23 80 7F 00 F9 C0 BF 80 ; m@].R.2.#.......
00CE18  .dc.b 33 C0 1E C0 CA E0 D6 E0 4A A0 96 E0 DA A0 D6 60 ; 3.......J......`
00CE28  .dc.b A4 E0 0C 60 CB A0 E0 20 9F 60 F0 00 EE 40 E0 00 ; ...`... .`...@..
00CE38  .dc.b 3F 80 0F 80 D5 00 1C 00 B5 00 2C 00 6A 00 58 00 ; ?.........,.j.X.
00CE48  .dc.b D4 14 B0 00 AC 79 60 30 DD 0B C4 78 BE 67 0D F8 ; .....y`0...x.g..
00CE58  .dc.b A5 F3 00 F0 BB 49 80 C0 A6 40 83 00 80 00 80 00 ; .....I...@......
00CE68  .dc.b 80 00 80 00 C0 00 C0 00 80 00 80 00 80 00 80 00 ; ................
00CE78  .dc.b 40 00 00 00 00 00 00 00 00 00 00 00 00 00 00 00 ; @...............
00CE88  .dc.b 00 00 00 00 25 00 04 00 19 80 18 00 A7 C0 40 00 ; ....%.........@.
00CE98  .dc.b 87 C0 00 00 13 C0 E0 00 0B C0 00 00 A3 40 20 80 ; .............@ .
00CEA8  .dc.b 4E 40 81 80 22 00 7F 80 49 40 DF 80 01 00 E0 C0 ; N@.."...I@......
00CEB8  .dc.b C9 40 28 E0 E9 00 48 E0 E9 80 08 60 53 C0 90 60 ; .@(...H....`S..`
00CEC8  .dc.b 15 C0 14 20 03 E0 00 00 1F C0 00 00 F0 00 0F 80 ; ... ............
00CED8  .dc.b E3 00 00 00 D3 00 10 00 A6 00 20 00 4C 1B 40 03 ; .......... .L.@.
00CEE8  .dc.b 9C 46 80 26 3B 84 00 34 70 00 00 18 7B 0C 43 00 ; .F.&;..4p...{.C.
00CEF8  .dc.b 75 38 05 00 60 C0 00 00 40 00 00 00 40 00 00 00 ; u8..`...@...@...
00CF08  .dc.b 00 00 C0 00 40 00 00 00 40 00 00 00 C0 00 80 00 ; ....@...@.......
00CF18  .dc.b 00 00 00 00 00 00 00 00 00 00 00 00 00 00 00 00 ; ................
00CF28  .dc.b 00 00 00 00 00 00 00 00 00 00 00 00 00 00 00 00 ; ................
00CF38  .dc.b 00 00 00 00 00 00 00 00 00 00 00 00 00 00 00 00 ; ................
00CF48  .dc.b 00 01 00 01 0F F9 00 03 1A A6 0A A6 15 8D 1F 8D ; ................
00CF58  .dc.b 1A F2 0A F3 0F A2 00 30 00 5C 00 04 00 0C 00 04 ; .......0.\......
00CF68  .dc.b 00 09 00 00 00 05 00 01 00 00 00 00 00 00 00 00 ; ................
00CF78  .dc.b 00 00 00 00 00 00 00 00 00 00 00 00 00 00 00 00 ; ................
00CF88  .dc.b 00 01 00 00 00 01 00 00 00 01 00 00 00 00 00 01 ; ................
00CF98  .dc.b 00 01 00 00 00 03 00 00 00 03 00 00 00 00 00 01 ; ................
00CFA8  .dc.b 00 00 00 01 00 02 00 00 00 07 00 00 00 0F 00 00 ; ................
00CFB8  .dc.b 00 00 00 00 00 00 00 00 00 00 00 00 00 00 00 00 ; ................
00CFC8  .dc.b 00 00 00 00 00 00 00 00 00 00 00 00 00 00 00 00 ; ................
00CFD8  .dc.b 00 00 00 00 00 00 00 00 00 00 00 00 00 00 00 01 ; ................
00CFE8  .dc.b 0A A3 05 5C 0A A6 15 59 1F FD 00 02 0A 83 15 0C ; ...\...Y........
00CFF8  .dc.b 0A 4C 05 83 00 7B 00 00 00 0B 00 00 00 0F 00 00 ; .L...{..........
00D008  .dc.b 00 06 00 01 00 00 00 00 00 00 00 00 00 00 00 00 ; ................
00D018  .dc.b 00 00 00 00 00 00 00 00 00 00 00 00 00 01 00 00 ; ................
00D028  .dc.b 00 00 00 00 00 00 00 00 00 00 00 00 00 01 00 01 ; ................
00D038  .dc.b 00 03 00 01 00 03 00 01 00 02 00 00 00 02 00 00 ; ................
00D048  .dc.b 00 01 00 01 00 00 00 00 00 00 00 00 00 00 00 00 ; ................
00D058  .dc.b 00 00 00 00 15 00 1A 00 5A 80 66 00 68 C0 18 00 ; ........Z.f.h...
00D068  .dc.b 68 40 08 00 D4 40 94 00 2C 40 FC 40 D4 80 6C 80 ; h@...@..,@.@..l.
00D078  .dc.b 53 40 33 00 B1 C0 FF 80 DC C0 BF C0 29 C0 0F 00 ; S@3.........)...
00D088  .dc.b D5 40 CB 40 65 40 8B 40 ED 40 EB 40 52 C0 06 00 ; .@.@e@.@.@.@R...
00D098  .dc.b C5 80 F0 00 CF 80 F8 00 77 80 70 00 9F 00 87 00 ; ........w.p.....
00D0A8  .dc.b A9 00 38 00 09 00 38 00 EA 00 58 00 92 00 70 00 ; ..8...8...X...p.
00D0B8  .dc.b 54 20 30 00 2C A6 E0 60 AD 2F 61 E0 2F 5F 02 F0 ; T 0.,..`./a./_..
00D0C8  .dc.b DE EF 03 E0 DD 98 43 80 58 80 C0 00 50 00 C0 00 ; ......C.X...P...
00D0D8  .dc.b D0 00 C0 00 D0 00 C0 00 B0 00 F0 00 10 00 40 00 ; ..............@.
00D0E8  .dc.b 10 00 00 00 90 00 00 00 00 00 00 00 00 00 00 00 ; ................
00D0F8  .dc.b 25 00 04 00 19 80 18 00 87 C0 60 00 97 C0 00 00 ; %.........`.....
00D108  .dc.b 0B C0 E0 00 03 C0 00 00 93 80 10 40 4D 00 82 C0 ; ...........@M...
00D118  .dc.b 11 00 DF C0 44 80 CF C0 10 C0 E0 00 C4 80 34 40 ; ....D.........4@
00D128  .dc.b E4 80 74 40 F4 80 04 40 A9 C0 48 00 0A 80 0A 00 ; ..t@...@..H.....
00D138  .dc.b 01 80 00 00 8F 80 00 00 78 00 87 00 C7 00 00 00 ; ........x.......
00D148  .dc.b 47 00 00 00 A6 00 20 00 8E 00 00 00 CC 3C 40 0C ; G..... ......<@.
00D158  .dc.b 1C 98 00 58 9E 10 80 70 D9 00 C1 20 28 18 20 00 ; ...X...p... (. .
00D168  .dc.b B8 78 80 00 3F 80 00 00 30 00 00 00 30 00 00 00 ; .x..?...0...0...
00D178  .dc.b 30 00 00 00 00 00 70 00 B0 00 C0 00 F0 00 C0 00 ; 0.....p.........
00D188  .dc.b 70 00 60 00 00 00 00 00 00 00 00 00 00 00 00 00 ; p.`.............
00D198  .dc.b 00 00 00 00 00 00 00 00 00 00 00 00 00 00 00 00 ; ................
00D1A8  .dc.b 00 00 00 00 00 01 00 01 00 01 00 00 00 01 00 01 ; ................
00D1B8  .dc.b 00 00 00 01 1F DD 00 07 15 4A 15 4E 2A 15 3F 1D ; .........J.N*.?.
00D1C8  .dc.b 15 A2 15 E3 1E 99 00 F8 00 65 00 77 00 1B 00 37 ; .........e.w...7
00D1D8  .dc.b 00 0A 00 02 00 04 00 00 00 00 00 00 00 00 00 00 ; ................
00D1E8  .dc.b 00 00 00 00 00 01 00 00 00 01 00 00 00 02 00 00 ; ................
00D1F8  .dc.b 00 03 00 01 00 03 00 00 00 03 00 00 00 01 00 00 ; ................
00D208  .dc.b 00 00 00 00 00 00 00 00 00 00 00 00 00 00 00 00 ; ................
00D218  .dc.b 00 00 00 00 00 00 00 00 00 00 00 00 00 00 00 00 ; ................
00D228  .dc.b 00 00 00 00 00 00 00 00 00 00 00 00 00 00 00 00 ; ................
00D238  .dc.b 00 00 00 00 00 00 00 00 00 00 00 00 00 00 00 01 ; ................
00D248  .dc.b 00 01 00 00 00 00 00 01 00 00 00 01 00 00 00 01 ; ................
00D258  .dc.b 15 47 0A 98 15 4E 2A B1 3F FD 00 02 15 1B 2A 04 ; .G...N*.?.....*.
00D268  .dc.b 14 06 0B 01 00 88 00 10 00 08 00 30 00 0D 00 00 ; ...........0....
00D278  .dc.b 00 07 00 00 00 00 00 00 00 00 00 00 00 00 00 00 ; ................
00D288  .dc.b 00 01 00 00 00 01 00 00 00 03 00 00 00 02 00 00 ; ................
00D298  .dc.b 00 00 00 00 00 00 00 00 00 01 00 00 00 00 00 00 ; ................
00D2A8  .dc.b 00 00 00 00 00 00 00 00 00 00 00 00 00 00 00 00 ; ................
00D2B8  .dc.b 00 00 00 00 00 00 00 00 00 00 00 00 00 00 00 00 ; ................
00D2C8  .dc.b 00 00 00 00 15 00 1A 00 5A 80 66 00 64 40 0C 00 ; ........Z.f.d@..
00D2D8  .dc.b 74 00 04 00 DA 00 9A 00 2A 60 FA 20 BA C0 24 40 ; t.......*`. ..$@
00D2E8  .dc.b D3 A0 B2 80 28 E0 EF C0 CE 60 AF E0 34 C0 07 80 ; ....(....`..4...
00D2F8  .dc.b DA 80 CD 80 62 80 85 80 F6 80 F5 80 29 40 03 00 ; ....b.......)@..
00D308  .dc.b 6A C0 70 00 47 80 7C 00 3B 00 38 00 CF 00 C3 00 ; j.p.G.|.;.8.....
00D318  .dc.b 56 80 1E 00 04 80 5C 00 D5 00 4C 00 1D 00 0C 00 ; V.....\...L.....
00D328  .dc.b AA 00 B8 00 AB 00 99 00 18 80 39 80 96 A0 33 00 ; ..........9...3.
00D338  .dc.b CC 60 00 00 F4 E0 00 00 1B E0 38 00 6A 20 18 00 ; .`........8.j ..
00D348  .dc.b 1D 00 0C 00 26 80 0E 80 12 40 07 80 0A A0 00 80 ; ....&....@......
00D358  .dc.b 07 20 00 00 0F 80 00 00 00 00 00 00 00 00 00 00 ; . ..............
00D368  .dc.b 25 00 04 00 19 80 18 00 93 C0 60 00 9B C0 00 00 ; %.........`.....
00D378  .dc.b 05 C0 F0 00 05 E0 00 00 DB C0 18 20 CD 80 02 60 ; ........... ...`
00D388  .dc.b 18 80 CF E0 52 40 C7 E0 08 40 F0 00 C2 40 32 00 ; ....R@...@...@2.
00D398  .dc.b EA 40 72 00 FA 40 02 00 54 C0 A4 00 8D 40 0D 00 ; .@r..@..T....@..
00D3A8  .dc.b 80 80 00 00 C7 00 00 00 3C 00 C3 00 61 80 40 00 ; ........<...a.@.
00D3B8  .dc.b 63 80 00 00 F3 00 10 00 F3 00 10 00 06 00 40 00 ; c.............@.
00D3C8  .dc.b 66 E0 21 20 C6 60 01 60 4C 40 01 40 37 80 30 80 ; f.! .`.`L@.@7.0.
00D3D8  .dc.b 0F 00 00 00 47 80 00 00 66 00 20 00 33 00 10 00 ; ....G...f. .3...
00D3E8  .dc.b 31 00 00 80 18 40 01 80 0D 60 01 00 00 E0 00 C0 ; 1....@...`......
00D3F8  .dc.b 00 60 00 60 00 00 00 00 00 00 00 00 00 00 00 00 ; .`.`............
00D408  .dc.b 00 00 00 00 00 00 00 00 00 00 00 00 00 00 00 00 ; ................
00D418  .dc.b 00 00 00 00 00 02 00 02 00 03 00 01 00 03 00 01 ; ................
00D428  .dc.b 00 02 00 03 1A 90 00 06 2A C9 2F CD 00 12 3F 1B ; ........*./...?.
00D438  .dc.b 2A A5 2F E7 1A 94 00 F0 00 68 00 7B 00 12 00 31 ; *./......h.{...1
00D448  .dc.b 00 01 00 03 00 00 00 00 00 00 00 00 00 00 00 00 ; ................
00D458  .dc.b 00 01 00 00 00 02 00 00 00 05 00 01 00 0B 00 03 ; ................
00D468  .dc.b 00 0D 00 00 00 0E 00 00 00 09 00 01 00 02 00 00 ; ................
00D478  .dc.b 00 00 00 00 00 00 00 00 00 00 00 00 00 00 00 00 ; ................
00D488  .dc.b 00 00 00 00 00 00 00 00 00 00 00 00 00 00 00 00 ; ................
00D498  .dc.b 00 00 00 00 00 00 00 00 00 00 00 00 00 00 00 00 ; ................
00D4A8  .dc.b 00 00 00 00 00 00 00 00 00 00 00 00 00 00 00 02 ; ................
00D4B8  .dc.b 00 02 00 01 00 01 00 02 00 00 00 03 00 00 00 03 ; ................
00D4C8  .dc.b 10 06 0F D9 2F CD 50 32 3F FB 00 04 2F 17 50 08 ; ..../.P2?.../.P.
00D4D8  .dc.b 10 0B 0F 00 00 84 00 10 00 0E 00 32 00 04 00 00 ; ...........2....
00D4E8  .dc.b 00 03 00 00 00 00 00 00 00 00 00 00 00 01 00 00 ; ................
00D4F8  .dc.b 00 03 00 00 00 06 00 00 00 0C 00 00 00 02 00 02 ; ................
00D508  .dc.b 00 01 00 00 00 0E 00 00 00 03 00 00 00 00 00 00 ; ................
00D518  .dc.b 00 00 00 00 00 00 00 00 00 00 00 00 00 00 00 00 ; ................
00D528  .dc.b 00 00 00 00 00 00 00 00 00 00 00 00 00 00 00 00 ; ................
00D538  .dc.b 00 00 00 00 15 00 1A 00 5A 80 66 00 E4 40 8C 00 ; ........Z.f..@..
00D548  .dc.b 74 00 04 00 DA 00 9A 00 A5 50 6D 10 98 A0 04 20 ; t........Pm.... 
00D558  .dc.b 53 D0 33 40 2C 70 EF E0 CF 30 AF F0 32 60 0B C0 ; S.3@,p...0..2`..
00D568  .dc.b ED 40 E6 C0 E1 40 12 C0 F3 40 F2 C0 94 A0 01 80 ; .@...@...@......
00D578  .dc.b 35 60 B8 00 83 C0 BE 00 9D 80 9C 00 67 00 61 00 ; 5`..........g.a.
00D588  .dc.b 63 80 2E 00 E5 00 3C 00 15 00 4C 00 7B 00 68 00 ; c.....<...L.{.h.
00D598  .dc.b 8A 00 38 00 AA 00 18 00 F4 00 50 00 D4 00 70 00 ; ..8.......P...p.
00D5A8  .dc.b EC 00 40 00 72 00 08 00 F5 00 1C 00 26 80 0E 00 ; ..@.r.......&...
00D5B8  .dc.b 3B 40 0F 40 3D 60 07 C0 06 50 03 C0 03 58 01 80 ; ;@.@=`...P...X..
00D5C8  .dc.b 01 E0 00 00 01 F0 00 00 00 00 00 00 00 00 00 00 ; ................
00D5D8  .dc.b 25 00 04 00 19 80 18 00 13 C0 60 00 9B C0 00 00 ; %.........`.....
00D5E8  .dc.b 05 C0 F0 00 92 D0 80 00 FB A0 18 10 4C C0 83 30 ; ............L..0
00D5F8  .dc.b 14 40 CF F0 51 20 C3 F0 04 20 F0 00 E1 20 19 00 ; .@..Q ... ... ..
00D608  .dc.b F5 20 E9 00 F5 20 09 00 2A 60 D2 00 46 A0 06 80 ; . ... ..*`..F...
00D618  .dc.b 40 40 00 00 63 80 00 00 9E 00 61 00 61 80 50 00 ; @@..c.....a.a.P.
00D628  .dc.b E3 00 40 00 D3 00 30 00 D7 00 10 00 C6 00 00 00 ; ..@...0.........
00D638  .dc.b E6 00 20 00 AC 00 20 00 88 00 08 00 94 00 10 00 ; .. ... .........
00D648  .dc.b 86 00 00 00 83 00 00 00 31 80 00 00 10 80 00 40 ; ........1......@
00D658  .dc.b 08 20 00 C0 04 30 00 80 02 28 00 20 01 18 00 18 ; . ...0...(. ....
00D668  .dc.b 00 0C 00 0C 00 00 00 00 00 00 00 00 00 00 00 00 ; ................
00D678  .dc.b 00 00 00 00 00 00 00 00 00 00 00 00 00 00 00 00 ; ................
00D688  .dc.b 00 00 00 00 00 04 00 04 00 06 00 02 00 06 00 03 ; ................
00D698  .dc.b 00 05 00 07 35 2C 00 0A 55 29 7F B5 6A 13 14 2A ; ....5,..U)..j..*
00D6A8  .dc.b 55 56 7F D5 35 26 01 E0 00 DC 00 F9 00 2D 00 60 ; UV..5&.......-.`
00D6B8  .dc.b 00 00 00 01 00 02 00 00 00 01 00 00 00 02 00 00 ; ................
00D6C8  .dc.b 00 05 00 01 00 0A 00 01 00 19 00 03 00 11 00 00 ; ................
00D6D8  .dc.b 00 14 00 0A 00 05 00 03 00 0D 00 07 00 07 00 01 ; ................
00D6E8  .dc.b 00 02 00 03 00 02 00 01 00 00 00 00 00 01 00 00 ; ................
00D6F8  .dc.b 00 00 00 00 00 00 00 00 00 00 00 00 00 00 00 00 ; ................
00D708  .dc.b 00 00 00 00 00 00 00 00 00 00 00 00 00 00 00 00 ; ................
00D718  .dc.b 00 00 00 00 00 00 00 00 00 00 00 00 00 00 00 04 ; ................
00D728  .dc.b 00 04 00 02 00 02 00 05 00 00 00 07 00 00 00 07 ; ................
00D738  .dc.b 20 0E 1F B5 7F BD 80 4A 7F FB 6A 15 7E 37 80 0A ;  ......J..j.~7..
00D748  .dc.b 20 19 1E 00 01 02 00 20 00 1F 00 61 00 02 00 00 ;  ...... ...a....
00D758  .dc.b 00 03 00 00 00 00 00 01 00 03 00 00 00 06 00 00 ; ................
00D768  .dc.b 00 0E 00 02 00 04 00 04 00 0E 00 0E 00 15 00 04 ; ................
00D778  .dc.b 00 0C 00 04 00 08 00 00 00 06 00 02 00 00 00 00 ; ................
00D788  .dc.b 00 02 00 00 00 01 00 00 00 01 00 00 00 00 00 00 ; ................
00D798  .dc.b 00 00 00 00 00 00 00 00 00 00 00 00 00 00 00 00 ; ................
00D7A8  .dc.b 00 00 00 00 15 00 1A 00 5A 80 66 00 E4 40 8C 00 ; ........Z.f..@..
00D7B8  .dc.b 74 00 04 00 DA 00 9A 00 A5 48 6D 08 9A D0 04 10 ; t........Hm.....
00D7C8  .dc.b 53 A8 33 20 2C 38 EF F0 4B 98 AF F8 35 30 09 E0 ; S.3 ,8..K...50..
00D7D8  .dc.b EE A0 E3 60 E8 A0 19 60 F5 A0 F1 60 4A 50 00 C0 ; ...`...`...`JP..
00D7E8  .dc.b 9A B0 5C 00 41 E0 DF 00 CE C0 CE 00 31 00 30 00 ; ..\.A.......1.0.
00D7F8  .dc.b 6A 00 A8 00 4E 00 9C 00 A5 00 DC 00 55 00 5C 00 ; j...N.......U.\.
00D808  .dc.b A2 80 8E 00 7A 00 0E 00 95 C0 07 80 0A A0 03 00 ; ....z...........
00D818  .dc.b C5 50 C0 00 62 A8 C0 60 51 76 C0 B4 80 F8 80 3C ; .P..b..`Qv.....<
00D828  .dc.b F0 78 80 1C E0 2D 00 1C C0 1B 00 08 80 0F 00 00 ; .x...-..........
00D838  .dc.b 00 03 00 00 00 01 00 00 00 00 00 00 00 00 00 00 ; ................
00D848  .dc.b 25 00 04 00 19 80 18 00 13 C0 60 00 9B C0 00 00 ; %.........`.....
00D858  .dc.b 05 C0 F0 00 92 C8 80 00 FB D0 18 08 4C A0 03 18 ; ............L...
00D868  .dc.b 14 20 CF F8 50 90 41 F8 06 10 F4 00 E0 90 1C 80 ; . ..P.A.........
00D878  .dc.b FA 90 E4 80 F2 90 0C 80 95 30 69 00 A3 50 83 40 ; .........0i..P.@
00D888  .dc.b 20 20 00 00 31 C0 00 00 CF 00 30 00 E6 00 50 00 ;   ..1.....0...P.
00D898  .dc.b C2 00 60 00 C3 00 20 00 63 00 80 00 71 80 00 00 ; ..`... .c...q...
00D8A8  .dc.b F1 80 00 00 98 00 00 00 8C 60 00 40 06 B0 40 80 ; .........`.@..@.
00D8B8  .dc.b 21 18 C1 00 30 4A A0 44 70 C3 70 45 00 63 00 27 ; !...0J.Dp.pE.c.'
00D8C8  .dc.b 00 22 00 02 00 14 00 04 00 08 00 00 00 00 00 00 ; ."..............
00D8D8  .dc.b 00 00 00 00 00 00 00 00 00 00 00 00 00 00 00 00 ; ................
00D8E8  .dc.b 00 A8 00 58 01 5A 00 66 02 27 00 31 00 2E 00 20 ; ...X.Z.f.'.1... 
00D8F8  .dc.b 00 5B 00 59 12 A5 10 B6 0B 59 08 20 15 CA 04 CC ; .[.Y.....Y. ....
00D908  .dc.b 1C 34 0F F7 19 D2 1F F5 0C AC 07 90 05 77 06 C7 ; .4...........w..
00D918  .dc.b 05 17 06 98 05 AF 06 8F 0A 52 03 00 0D 59 00 3A ; .........R...Y.:
00D928  .dc.b 07 82 00 FB 03 73 00 73 00 8C 00 0C 00 92 00 05 ; .....s.s........
00D938  .dc.b 00 22 00 25 01 5D 00 77 01 60 00 52 01 36 00 50 ; .".%.].w.`.R.6.P
00D948  .dc.b 01 A9 00 E0 00 D0 00 40 09 60 02 00 27 C0 26 00 ; .......@.`..'.&.
00D958  .dc.b 2C 80 3E 00 29 00 3C 00 94 00 18 00 D8 00 10 00 ; ,.>.).<.........
00D968  .dc.b F0 00 00 00 C0 00 00 00 80 00 00 00 00 00 00 00 ; ................
00D978  .dc.b 00 00 00 00 00 00 00 00 00 00 00 00 00 A4 00 20 ; ............... 
00D988  .dc.b 01 98 00 18 03 C8 00 06 03 D9 00 00 03 A0 00 0F ; ................
00D998  .dc.b 13 49 00 01 0B DF 10 18 05 32 18 C0 04 28 1F F3 ; .I.......2...(..
00D9A8  .dc.b 09 0A 1F 82 08 60 00 2F 09 07 01 38 09 5F 01 27 ; .....`./...8._.'
00D9B8  .dc.b 09 4F 01 30 0C A9 00 96 0A C5 02 C1 04 04 00 00 ; .O.0............
00D9C8  .dc.b 03 8C 00 00 00 F3 00 0C 00 E7 00 1A 00 D7 00 0A ; ................
00D9D8  .dc.b 01 87 00 08 01 AA 00 25 01 A9 00 26 00 19 00 00 ; .......%...&....
00D9E8  .dc.b 03 30 01 00 0C A0 00 80 19 00 21 00 41 80 30 00 ; .0........!.A.0.
00D9F8  .dc.b C3 00 D0 00 64 00 60 00 28 00 20 00 10 00 00 00 ; ....d.`.(. .....
00DA08  .dc.b 00 00 00 00 00 00 00 00 00 00 00 00 00 00 00 00 ; ................
00DA18  .dc.b 00 00 00 00 00 00 00 00 00 00 00 00 00 00 00 00 ; ................
00DA28  .dc.b 00 00 00 00 00 00 00 00 00 00 00 00 00 00 00 00 ; ................
00DA38  .dc.b 20 00 20 00 60 00 40 00 60 00 C0 00 A0 00 E0 00 ;  . .`.@.`.......
00DA48  .dc.b 34 AC 50 00 94 AA AD FE C8 56 54 28 6A AA AB FE ; 4.P......VT(j...
00DA58  .dc.b 64 AC 07 80 3B 00 9F 00 B4 00 06 00 00 00 80 00 ; d...;...........
00DA68  .dc.b 40 00 00 00 00 00 00 00 20 00 80 00 90 00 40 00 ; @....... .....@.
00DA78  .dc.b 68 00 A0 00 98 00 E0 00 68 00 40 00 B4 00 00 00 ; h.......h.@.....
00DA88  .dc.b 28 00 30 00 28 00 30 00 36 00 3C 00 34 00 38 00 ; (.0.(.0.6.<.4.8.
00DA98  .dc.b 68 00 7C 00 32 00 38 00 27 00 20 00 4F 80 00 00 ; h.|.2.8.'. .O...
00DAA8  .dc.b 00 00 00 00 00 00 00 00 00 00 00 00 00 00 00 00 ; ................
00DAB8  .dc.b 00 00 00 00 00 00 00 00 00 00 00 00 00 00 00 00 ; ................
00DAC8  .dc.b 00 00 00 00 00 00 00 00 00 00 20 00 20 00 40 00 ; .......... . .@.
00DAD8  .dc.b 40 00 A0 00 00 00 E0 00 00 00 E0 00 70 04 AD F8 ; @...........p...
00DAE8  .dc.b BD FE 52 01 DF FE A8 56 EC 7E 50 01 98 04 00 78 ; ..R....V.~P....x
00DAF8  .dc.b 40 80 04 00 F8 00 86 00 40 00 00 00 C0 00 00 00 ; @.......@.......
00DB08  .dc.b C0 00 00 00 60 00 00 00 B0 00 80 00 58 00 40 00 ; ....`.......X.@.
00DB18  .dc.b 00 00 00 00 90 00 10 00 CC 00 40 00 4C 00 08 00 ; ..........@.L...
00DB28  .dc.b 4C 00 08 00 42 00 00 00 46 00 04 00 02 00 70 00 ; L...B...F.....p.
00DB38  .dc.b 44 00 1C 00 58 00 18 00 70 00 30 00 00 00 00 00 ; D...X...p.0.....
00DB48  .dc.b 00 00 00 00 00 00 00 00 00 00 00 00 00 00 00 00 ; ................
00DB58  .dc.b 00 A8 00 58 01 5A 00 66 02 27 00 31 00 2E 00 20 ; ...X.Z.f.'.1... 
00DB68  .dc.b 00 5B 00 59 12 A5 10 B6 0B 59 08 20 15 CA 04 CC ; .[.Y.....Y. ....
00DB78  .dc.b 1C 34 0F F7 19 D2 1F F5 0C AC 07 90 05 77 06 C7 ; .4...........w..
00DB88  .dc.b 05 17 06 98 05 AF 06 8F 0A 52 03 00 0D 59 00 3A ; .........R...Y.:
00DB98  .dc.b 07 82 00 FB 03 73 00 73 00 8C 00 0C 00 96 00 15 ; .....s.s........
00DBA8  .dc.b 00 A2 00 31 00 25 00 33 00 58 00 6A 01 BF 00 D1 ; ...1.%.3.X.j....
00DBB8  .dc.b 02 AA 00 60 11 51 12 00 87 A0 1E 00 CD C0 1E 80 ; ...`.Q..........
00DBC8  .dc.b E1 00 1C 00 E8 00 20 00 80 00 00 00 00 00 00 00 ; ...... .........
00DBD8  .dc.b 00 00 00 00 00 00 00 00 00 00 00 00 00 00 00 00 ; ................
00DBE8  .dc.b 00 00 00 00 00 00 00 00 00 00 00 00 00 A4 00 20 ; ............... 
00DBF8  .dc.b 01 98 00 18 03 C8 00 06 03 D9 00 00 03 A0 00 0F ; ................
00DC08  .dc.b 13 49 00 01 0B DF 10 18 05 32 18 C0 04 28 1F F3 ; .I.......2...(..
00DC18  .dc.b 09 0A 1F 82 08 60 00 2F 09 07 01 38 09 5F 01 27 ; .....`./...8._.'
00DC28  .dc.b 09 4F 01 30 0C A9 00 96 0A C5 02 C1 04 04 00 00 ; .O.0............
00DC38  .dc.b 03 8C 00 00 00 F3 00 0C 00 EF 00 02 00 CB 00 06 ; ................
00DC48  .dc.b 00 CB 00 04 00 96 00 11 01 2C 00 22 03 1B 01 00 ; .........,."....
00DC58  .dc.b EC B1 D0 80 61 40 79 40 21 00 31 00 03 00 00 00 ; ....a@y@!.1.....
00DC68  .dc.b 18 00 00 00 00 00 00 00 00 00 00 00 00 00 00 00 ; ................
00DC78  .dc.b 00 00 00 00 00 00 00 00 00 00 00 00 00 00 00 00 ; ................
00DC88  .dc.b 00 00 00 00 00 00 00 00 00 00 00 00 00 00 00 00 ; ................
00DC98  .dc.b 00 00 00 00 00 00 00 00 00 00 00 00 00 00 00 00 ; ................
00DCA8  .dc.b 20 00 20 00 60 00 40 00 60 00 C0 00 A0 00 E0 00 ;  . .`.@.`.......
00DCB8  .dc.b 34 AC 50 00 94 AA AD FE C8 56 54 28 6A AA AB FE ; 4.P......VT(j...
00DCC8  .dc.b 64 AC 07 80 3B 00 9F 00 B4 00 06 00 00 00 80 00 ; d...;...........
00DCD8  .dc.b 40 00 00 00 80 00 00 00 40 00 00 00 20 00 80 00 ; @.......@... ...
00DCE8  .dc.b C0 00 40 00 70 00 A0 00 A8 00 C0 00 58 00 00 00 ; ..@.p.......X...
00DCF8  .dc.b AC 00 10 00 74 00 3C 00 5E 00 18 00 3C 00 1E 00 ; ....t.<.^...<...
00DD08  .dc.b 24 00 3E 00 29 00 0C 00 03 80 00 00 07 C0 00 00 ; $.>.)...........
00DD18  .dc.b 00 00 00 00 00 00 00 00 00 00 00 00 00 00 00 00 ; ................
00DD28  .dc.b 00 00 00 00 00 00 00 00 00 00 00 00 00 00 00 00 ; ................
00DD38  .dc.b 00 00 00 00 00 00 00 00 00 00 20 00 20 00 40 00 ; .......... . .@.
00DD48  .dc.b 40 00 A0 00 00 00 E0 00 00 00 E0 00 70 04 AD F8 ; @...........p...
00DD58  .dc.b BD FE 52 01 DF FE A8 56 EC 7E 50 01 98 04 00 78 ; ..R....V.~P....x
00DD68  .dc.b 40 80 04 00 F8 00 86 00 40 00 00 00 C0 00 00 00 ; @.......@.......
00DD78  .dc.b 80 00 00 00 C0 00 00 00 60 00 00 00 A0 00 80 00 ; ........`.......
00DD88  .dc.b 40 00 40 00 10 00 10 00 A8 00 20 00 CC 00 48 00 ; @.@....... ...H.
00DD98  .dc.b 40 00 00 00 66 00 04 00 20 00 00 00 01 00 38 00 ; @...f... .....8.
00DDA8  .dc.b 32 00 0E 00 1C 00 0C 00 18 00 18 00 00 00 00 00 ; 2...............
00DDB8  .dc.b 00 00 00 00 00 00 00 00 00 00 00 00 00 00 00 00 ; ................
00DDC8  .dc.b 00 A8 00 58 01 5A 00 66 02 27 00 31 00 2E 00 20 ; ...X.Z.f.'.1... 
00DDD8  .dc.b 00 5B 00 59 0A A5 08 B6 05 19 04 20 0B CA 02 CC ; .[.Y....... ....
00DDE8  .dc.b 0E 34 07 F7 0C F3 0F F5 06 4C 03 D0 02 B7 03 67 ; .4.......L.....g
00DDF8  .dc.b 02 87 03 48 02 CF 03 4F 05 29 01 80 06 AC 00 1D ; ...H...O.)......
00DE08  .dc.b 03 C1 00 7D 01 B9 00 39 00 E6 00 86 00 DA 00 1D ; ...}...9........
00DE18  .dc.b 00 CF 00 1D 00 80 00 1A 28 B5 00 2A 9E 37 0C 29 ; ........(..*.7.)
00DE28  .dc.b D0 B5 1E 29 E6 6D 1F B8 CF B5 0F 10 92 D9 03 01 ; ...).m..........
00DE38  .dc.b 02 61 00 C1 00 01 00 01 00 01 00 01 00 03 00 03 ; .a..............
00DE48  .dc.b 00 01 00 01 00 01 00 01 00 02 00 00 00 00 00 00 ; ................
00DE58  .dc.b 00 00 00 00 00 00 00 00 00 00 00 00 00 A4 00 20 ; ............... 
00DE68  .dc.b 01 98 00 18 03 C8 00 06 03 D9 00 00 03 A0 00 0F ; ................
00DE78  .dc.b 0B 49 00 01 05 DF 08 18 03 32 0C C1 02 28 0F F3 ; .I.......2...(..
00DE88  .dc.b 04 8A 0F C3 04 20 00 0F 04 87 00 98 04 AF 00 97 ; ..... ..........
00DE98  .dc.b 04 AF 00 90 06 54 00 4B 05 62 01 60 02 02 00 00 ; .....T.K.b.`....
00DEA8  .dc.b 01 C6 00 00 00 79 00 86 00 E7 00 02 00 E7 00 02 ; .....y..........
00DEB8  .dc.b 00 E2 00 05 D8 D2 C0 15 62 54 64 12 21 D6 2C 10 ; ........bTd.!.,.
00DEC8  .dc.b 00 06 18 00 30 CE 00 C2 1C AA 00 A0 03 02 00 00 ; ....0...........
00DED8  .dc.b 00 02 00 00 00 02 00 00 00 00 00 03 00 02 00 00 ; ................
00DEE8  .dc.b 00 02 00 00 00 03 00 01 00 00 00 00 00 00 00 00 ; ................
00DEF8  .dc.b 00 00 00 00 00 00 00 00 00 00 00 00 00 00 00 00 ; ................
00DF08  .dc.b 00 00 00 00 00 00 00 00 00 00 00 00 00 00 00 00 ; ................
00DF18  .dc.b 40 00 40 00 C0 00 80 00 C0 00 80 00 40 00 C0 00 ; @.@.........@...
00DF28  .dc.b 09 58 60 00 93 54 B3 F4 48 00 D8 FC A5 54 E7 F4 ; .X`..T..H....T..
00DF38  .dc.b 29 58 0F 00 16 00 DE 00 48 00 8C 00 80 00 C0 00 ; )X......H.......
00DF48  .dc.b 00 00 00 00 00 00 00 00 80 00 00 00 00 00 00 00 ; ................
00DF58  .dc.b 80 00 80 00 40 00 80 00 C0 00 00 00 40 00 00 00 ; ....@.......@...
00DF68  .dc.b A0 00 40 00 40 00 80 00 40 00 80 00 B0 00 E0 00 ; ..@.@...@.......
00DF78  .dc.b A0 00 C0 00 40 00 E0 00 90 00 C0 00 38 00 00 00 ; ....@.......8...
00DF88  .dc.b 7C 00 00 00 00 00 00 00 00 00 00 00 00 00 00 00 ; |...............
00DF98  .dc.b 00 00 00 00 00 00 00 00 00 00 00 00 00 00 00 00 ; ................
00DFA8  .dc.b 00 00 00 00 00 00 00 00 00 00 40 00 40 00 80 00 ; ..........@.@...
00DFB8  .dc.b 80 00 40 00 00 00 C0 00 00 00 C0 00 60 08 9B F0 ; ..@.........`...
00DFC8  .dc.b B3 F4 4C 0A DF FC 20 00 E8 F4 10 0A D0 08 00 F0 ; ..L... .........
00DFD8  .dc.b 21 00 08 00 70 00 4C 00 20 00 00 00 C0 00 00 00 ; !...p.L. .......
00DFE8  .dc.b 00 00 00 00 80 00 00 00 80 00 00 00 00 00 00 00 ; ................
00DFF8  .dc.b 40 00 00 00 00 00 00 00 80 00 80 00 A0 00 80 00 ; @...............
00E008  .dc.b 60 00 40 00 60 00 40 00 10 00 00 00 30 00 20 00 ; `.@.`.@.....0. .
00E018  .dc.b 10 00 80 00 20 00 E0 00 C0 00 C0 00 80 00 80 00 ; .... ...........
00E028  .dc.b 00 00 00 00 00 00 00 00 00 00 00 00 00 A8 00 58 ; ...............X
00E038  .dc.b 01 5A 00 66 02 26 00 30 00 2E 00 20 00 5B 00 59 ; .Z.f.&.0... .[.Y
00E048  .dc.b 06 54 04 5F 03 5D 02 24 05 CB 01 4D 07 14 03 F7 ; .T._.].$...M....
00E058  .dc.b 06 73 07 F5 03 2C 01 E0 01 5B 01 B3 01 46 01 A1 ; .s...,...[...F..
00E068  .dc.b 01 6F 01 AF 02 94 00 C0 03 56 00 0E 01 E2 00 3E ; .o.......V.....>
00E078  .dc.b 00 DC 00 1C 00 F3 00 C3 00 D9 00 18 00 D5 00 1C ; ................
00E088  .dc.b 00 FE 00 35 00 2F 00 35 04 22 00 38 65 3E 06 2A ; ...5./.5.".8e>.*
00E098  .dc.b F4 84 07 B2 FA D4 0F 12 F7 49 07 80 19 BD 01 C0 ; .........I......
00E0A8  .dc.b 01 1A 00 0D 00 05 00 06 00 07 00 06 00 16 00 07 ; ................
00E0B8  .dc.b 00 1A 00 1F 00 10 00 04 00 11 00 00 00 13 00 00 ; ................
00E0C8  .dc.b 00 00 00 00 00 00 00 00 00 A4 00 20 01 98 00 18 ; ........... ....
00E0D8  .dc.b 03 C9 00 06 03 D9 00 00 03 A0 00 0F 07 A0 00 00 ; ................
00E0E8  .dc.b 03 DB 04 18 01 B3 06 40 01 18 07 F3 02 4A 07 E3 ; .......@.....J..
00E0F8  .dc.b 02 10 00 0F 02 43 00 4C 02 57 00 4E 02 5F 00 40 ; .....C.L.W.N._.@
00E108  .dc.b 03 2A 00 25 02 B1 00 B0 01 01 00 00 00 E3 00 00 ; .*.%............
00E118  .dc.b 00 3C 00 C3 00 E5 00 03 00 E1 00 03 00 CB 00 08 ; .<..............
00E128  .dc.b 00 4B 00 08 3C 46 30 01 19 55 1A 10 08 4D 0E 40 ; .K..<F0..U...M.@
00E138  .dc.b 00 ED 04 E0 18 76 00 72 1E 0A 00 02 01 F2 00 02 ; .....v.r........
00E148  .dc.b 00 09 00 01 00 09 00 01 00 18 00 00 00 00 00 1C ; ................
00E158  .dc.b 00 1B 00 07 00 1E 00 06 00 1C 00 0C 00 00 00 00 ; ................
00E168  .dc.b 00 00 00 00 00 00 00 00 00 00 00 00 00 00 00 00 ; ................
00E178  .dc.b 00 00 00 00 00 00 00 00 00 00 00 00 80 00 80 00 ; ................
00E188  .dc.b 80 00 00 00 80 00 80 00 00 00 80 00 BB F8 E0 00 ; ................
00E198  .dc.b 52 A8 72 A8 A8 54 B8 FC 45 A8 C7 A8 99 78 1F 00 ; R.r..T..E....x..
00E1A8  .dc.b A6 00 EE 00 D8 00 EC 00 50 00 40 00 20 00 00 00 ; ........P.@. ...
00E1B8  .dc.b 00 00 00 00 00 00 00 00 00 00 00 00 80 00 00 00 ; ................
00E1C8  .dc.b 80 00 00 00 00 00 00 00 00 00 00 00 00 00 00 00 ; ................
00E1D8  .dc.b 00 00 00 00 00 00 00 00 00 00 00 00 00 00 00 00 ; ................
00E1E8  .dc.b 80 00 00 00 00 00 00 00 00 00 00 00 80 00 00 00 ; ................
00E1F8  .dc.b C0 00 00 00 E0 00 00 00 00 00 00 00 00 00 00 00 ; ................
00E208  .dc.b 00 00 00 00 00 00 00 00 00 00 00 00 00 00 00 00 ; ................
00E218  .dc.b 00 00 00 00 00 00 80 00 80 00 00 00 00 00 80 00 ; ................
00E228  .dc.b 00 00 80 00 00 00 80 00 E2 A8 19 50 72 A8 8D 54 ; ...........Pr..T
00E238  .dc.b BF FC 40 00 D8 A8 20 54 60 28 80 D0 11 00 08 00 ; ..@... T`(......
00E248  .dc.b 10 00 0C 00 B0 00 00 00 E0 00 00 00 00 00 80 00 ; ................
00E258  .dc.b 00 00 80 00 00 00 80 00 80 00 00 00 80 00 00 00 ; ................
00E268  .dc.b 00 00 00 00 00 00 00 00 00 00 00 00 00 00 00 00 ; ................
00E278  .dc.b 00 00 00 00 00 00 00 00 00 00 00 00 80 00 00 00 ; ................
00E288  .dc.b 80 00 00 00 80 00 00 00 00 00 00 00 00 00 00 00 ; ................
00E298  .dc.b 00 00 00 00 00 00 00 00 00 00 00 00 00 A8 00 58 ; ...............X
00E2A8  .dc.b 01 5A 00 66 03 16 00 18 02 16 00 10 02 2B 00 29 ; .Z.f.........+.)
00E2B8  .dc.b 02 34 02 3F 01 2B 01 36 02 CA 00 CC 03 8D 01 FF ; .4.?.+.6........
00E2C8  .dc.b 03 3B 03 FD 03 94 00 F0 02 AB 02 D3 02 A6 02 D1 ; .;..............
00E2D8  .dc.b 02 B7 02 D7 03 4A 00 60 01 A3 00 0F 01 F3 00 1F ; .....J.`........
00E2E8  .dc.b 01 EE 00 0E 00 F9 00 E1 00 AA 00 38 00 A5 00 3C ; ...........8...<
00E2F8  .dc.b 00 57 00 1A 00 4A 00 0C 00 25 00 06 00 D6 00 C3 ; .W...J...%......
00E308  .dc.b 01 4C 01 F0 05 7B 00 FC 06 7E 00 7F 07 07 00 00 ; .L...{...~......
00E318  .dc.b 07 EB 00 0E 04 56 00 18 00 B8 00 30 01 64 01 70 ; .....V.....0.d.p
00E328  .dc.b 02 48 01 E0 05 50 01 00 04 E0 00 00 01 F0 00 00 ; .H...P..........
00E338  .dc.b 00 00 00 00 00 00 00 00 00 A4 00 20 01 98 00 18 ; ........... ....
00E348  .dc.b 03 E1 00 06 03 E9 00 00 03 D0 00 07 03 C0 00 00 ; ................
00E358  .dc.b 01 C9 02 08 00 B2 03 41 00 88 03 FB 01 22 03 F3 ; .......A....."..
00E368  .dc.b 03 08 00 07 01 23 02 2C 01 27 02 2E 01 2F 02 20 ; .....#.,.'.../. 
00E378  .dc.b 03 95 00 12 01 50 00 50 01 80 00 00 01 F1 00 00 ; .....P.P........
00E388  .dc.b 00 1E 00 E1 00 C6 00 00 00 C3 00 00 00 65 00 04 ; .............e..
00E398  .dc.b 00 73 00 02 00 39 00 01 07 38 04 C0 06 0F 06 CF ; .s...9...8......
00E3A8  .dc.b 02 02 02 82 01 80 01 00 00 FF 00 00 01 F1 00 00 ; ................
00E3B8  .dc.b 00 66 00 04 00 CC 00 08 00 8C 01 00 02 18 01 80 ; .f..............
00E3C8  .dc.b 06 B0 00 80 07 00 03 00 06 00 06 00 00 00 00 00 ; ................
00E3D8  .dc.b 00 00 00 00 00 00 00 00 00 00 00 00 00 00 00 00 ; ................
00E3E8  .dc.b 00 00 00 00 00 00 00 00 00 00 00 00 00 00 00 00 ; ................
00E3F8  .dc.b 00 00 00 00 00 00 00 00 80 00 80 00 9F F0 C0 00 ; ................
00E408  .dc.b 65 58 65 50 B1 A8 B1 F8 4F 58 CF 50 45 F0 0C 00 ; eXeP....OX.PE...
00E418  .dc.b 3A 00 20 00 30 00 20 00 90 00 00 00 A0 00 80 00 ; :. .0. .........
00E428  .dc.b 00 00 00 00 00 00 00 00 00 00 00 00 80 00 00 00 ; ................
00E438  .dc.b 40 00 00 00 40 00 00 00 C0 00 00 00 40 00 00 00 ; @...@.......@...
00E448  .dc.b 40 00 00 00 80 00 00 00 00 00 00 00 00 00 00 00 ; @...............
00E458  .dc.b 00 00 00 00 00 00 00 00 00 00 00 00 00 00 00 00 ; ................
00E468  .dc.b 00 00 00 00 00 00 00 00 00 00 00 00 00 00 00 00 ; ................
00E478  .dc.b 00 00 00 00 00 00 00 00 00 00 00 00 00 00 00 00 ; ................
00E488  .dc.b 00 00 00 00 00 00 00 00 00 00 00 00 00 00 00 00 ; ................
00E498  .dc.b 00 00 00 00 00 00 80 00 C5 50 3A A0 65 50 9A A8 ; .........P:.eP..
00E4A8  .dc.b BF F8 40 00 C1 50 30 A8 32 50 C1 A0 DE 00 00 00 ; ..@..P0.2P......
00E4B8  .dc.b D0 00 00 00 F0 00 00 00 60 00 80 00 00 00 00 00 ; ........`.......
00E4C8  .dc.b 00 00 00 00 00 00 00 00 80 00 00 00 C0 00 00 00 ; ................
00E4D8  .dc.b C0 00 00 00 00 00 00 00 80 00 80 00 80 00 00 00 ; ................
00E4E8  .dc.b 80 00 00 00 00 00 00 00 00 00 00 00 00 00 00 00 ; ................
00E4F8  .dc.b 00 00 00 00 00 00 00 00 00 00 00 00 00 00 00 00 ; ................
00E508  .dc.b 00 00 00 00 00 00 00 00 00 00 00 00 00 A8 00 58 ; ...............X
00E518  .dc.b 01 5A 00 66 03 12 00 18 02 1E 00 18 02 33 00 31 ; .Z.f.........3.1
00E528  .dc.b 03 2C 01 2F 02 B6 00 BA 03 4A 00 4C 01 C4 00 FE ; .,./.....J.L....
00E538  .dc.b 03 9F 01 FD 03 CC 03 78 07 53 07 6B 05 52 07 69 ; .......x.S.k.R.i
00E548  .dc.b 05 5B 06 6B 07 25 06 30 05 D3 04 07 06 F9 00 0F ; .[.k.%.0........
00E558  .dc.b 02 77 00 07 01 FC 01 F0 00 B2 00 38 00 91 00 1C ; .w.........8....
00E568  .dc.b 00 56 00 1A 00 4B 00 0D 00 2D 00 0E 00 12 00 03 ; .V...K...-......
00E578  .dc.b 00 39 00 01 00 3E 00 00 00 33 00 04 00 37 00 7E ; .9...>...3...7.~
00E588  .dc.b 01 5C 00 7E 00 15 00 3C 03 94 00 10 06 F8 02 00 ; .\.~...<........
00E598  .dc.b 0B 70 03 00 1B 30 01 00 07 80 00 00 0F 80 00 00 ; .p...0..........
00E5A8  .dc.b 00 00 00 00 00 00 00 00 00 A4 00 20 01 98 00 18 ; ........... ....
00E5B8  .dc.b 03 E5 00 02 03 E1 00 00 03 C8 00 07 03 D0 00 00 ; ................
00E5C8  .dc.b 02 C5 01 04 02 72 01 81 00 44 01 FE 02 92 01 FB ; .....r...D......
00E5D8  .dc.b 00 80 03 07 02 93 07 14 00 97 07 12 01 97 06 10 ; ................
00E5E8  .dc.b 03 CA 06 09 03 A8 04 28 07 C0 00 00 03 F8 00 00 ; .......(........
00E5F8  .dc.b 00 0F 01 F0 00 C6 00 00 00 E3 00 00 00 65 00 04 ; .............e..
00E608  .dc.b 00 72 00 02 00 31 00 01 00 1C 00 00 00 3E 00 00 ; .r...1.......>..
00E618  .dc.b 00 0D 00 01 00 3B 00 03 00 01 00 61 01 81 00 20 ; .....;.....a... 
00E628  .dc.b 01 C3 01 E0 02 6C 00 60 05 08 02 00 0C 80 02 00 ; .....l.`........
00E638  .dc.b 14 80 04 00 18 80 18 00 30 00 30 00 00 00 00 00 ; ........0.0.....
00E648  .dc.b 00 00 00 00 00 00 00 00 00 00 00 00 00 00 00 00 ; ................
00E658  .dc.b 00 00 00 00 00 00 00 00 00 00 00 00 00 00 00 00 ; ................
00E668  .dc.b 00 00 00 00 00 00 00 00 00 00 00 00 9F F0 C0 00 ; ................
00E678  .dc.b 6A A8 60 00 B1 58 B1 58 4E A8 CC 00 23 F0 04 00 ; j.`..X.XN...#...
00E688  .dc.b 98 00 90 00 88 00 80 00 48 00 00 00 F0 00 C0 00 ; ........H.......
00E698  .dc.b 00 00 00 00 00 00 00 00 00 00 00 00 80 00 00 00 ; ................
00E6A8  .dc.b C0 00 80 00 20 00 80 00 E0 00 00 00 20 00 00 00 ; .... ....... ...
00E6B8  .dc.b 20 00 80 00 40 00 00 00 80 00 00 00 00 00 00 00 ;  ...@...........
00E6C8  .dc.b 00 00 00 00 00 00 00 00 00 00 00 00 00 00 00 00 ; ................
00E6D8  .dc.b 00 00 00 00 00 00 00 00 00 00 00 00 00 00 00 00 ; ................
00E6E8  .dc.b 00 00 00 00 00 00 00 00 00 00 00 00 00 00 00 00 ; ................
00E6F8  .dc.b 00 00 00 00 00 00 00 00 00 00 00 00 00 00 00 00 ; ................
00E708  .dc.b 00 00 00 00 00 00 00 00 CA A0 35 50 60 00 9F F8 ; ..........5P`...
00E718  .dc.b BD 58 42 A0 C0 00 33 F8 9A B0 61 40 6C 00 00 00 ; .XB...3...a@l...
00E728  .dc.b 78 00 00 00 F8 00 00 00 30 00 C0 00 00 00 00 00 ; x.......0.......
00E738  .dc.b 00 00 00 00 00 00 00 00 80 00 00 00 40 00 00 00 ; ............@...
00E748  .dc.b 60 00 00 00 00 00 00 00 C0 00 C0 00 40 00 00 00 ; `...........@...
00E758  .dc.b C0 00 00 00 80 00 00 00 00 00 00 00 00 00 00 00 ; ................
00E768  .dc.b 00 00 00 00 00 00 00 00 00 00 00 00 00 00 00 00 ; ................
00E778  .dc.b 00 00 00 00 00 00 00 00 00 00 00 00 00 A8 00 58 ; ...............X
00E788  .dc.b 01 5A 00 66 03 16 00 1C 02 0E 00 0C 02 0F 00 0D ; .Z.f............
00E798  .dc.b 02 95 00 9F 03 53 00 55 01 AA 00 2C 01 E2 00 7E ; .....S.U...,...~
00E7A8  .dc.b 03 CF 00 FF 06 E5 03 BD 04 AA 07 36 04 A9 07 35 ; ...........6...5
00E7B8  .dc.b 05 AC 07 35 05 92 07 18 06 EB 06 03 06 7D 02 07 ; ...5.........}..
00E7C8  .dc.b 03 39 00 01 01 FE 01 F8 00 8B 00 38 00 E6 00 7A ; .9.........8...z
00E7D8  .dc.b 00 9B 00 1C 00 C6 00 07 01 71 00 01 00 9C 00 C0 ; .........q......
00E7E8  .dc.b 03 A9 01 E0 01 50 00 C0 06 A3 00 03 15 46 06 03 ; .....P.......F..
00E7F8  .dc.b 6E 8A 2D 03 1F 01 3C 01 1E 0F 38 01 B4 07 38 00 ; n.-...<...8...8.
00E808  .dc.b D8 03 10 00 F0 01 00 00 C0 00 00 00 80 00 00 00 ; ................
00E818  .dc.b 00 00 00 00 00 00 00 00 00 A4 00 20 01 98 00 18 ; ........... ....
00E828  .dc.b 03 E1 00 02 03 F1 00 00 03 F0 00 03 03 E0 00 00 ; ................
00E838  .dc.b 03 6A 00 82 01 32 00 C1 01 22 00 FE 03 48 00 FD ; .j...2..."...H..
00E848  .dc.b 04 C3 03 80 00 C8 07 09 00 CB 07 08 01 CB 07 08 ; ................
00E858  .dc.b 00 E5 07 04 03 D4 06 14 05 E0 02 00 03 FE 00 00 ; ................
00E868  .dc.b 00 07 01 F8 00 C7 00 00 00 85 00 04 00 E3 00 03 ; ................
00E878  .dc.b 00 F8 00 00 01 FE 00 00 01 3F 00 00 00 19 00 00 ; .........?......
00E888  .dc.b 02 31 02 00 05 60 01 02 18 84 00 83 52 0C 22 05 ; .1...`......R.".
00E898  .dc.b C3 0E A2 0E C6 00 E4 00 44 00 40 00 28 00 20 00 ; ........D.@.(. .
00E8A8  .dc.b 10 00 00 00 00 00 00 00 00 00 00 00 00 00 00 00 ; ................
00E8B8  .dc.b 00 00 00 00 00 00 00 00 00 00 00 00 00 00 00 00 ; ................
00E8C8  .dc.b 00 00 00 00 00 00 00 00 00 00 00 00 00 00 00 00 ; ................
00E8D8  .dc.b 00 00 00 00 00 00 00 00 00 00 00 00 5F E0 40 00 ; ............_.@.
00E8E8  .dc.b 85 50 80 00 40 00 40 00 B1 50 B0 00 93 E0 00 00 ; .P..@.@..P......
00E8F8  .dc.b AC 00 88 00 C4 00 C0 00 A4 00 80 00 78 00 60 00 ; ............x.`.
00E908  .dc.b 00 00 00 00 80 00 00 00 A0 00 80 00 D0 00 00 00 ; ................
00E918  .dc.b 18 00 C0 00 88 00 00 00 28 00 50 00 A0 00 C0 00 ; ........(.P.....
00E928  .dc.b B0 00 E0 00 E0 00 80 00 40 00 C0 00 40 00 80 00 ; ........@...@...
00E938  .dc.b 00 00 00 00 80 00 00 00 00 00 00 00 00 00 00 00 ; ................
00E948  .dc.b 00 00 00 00 00 00 00 00 00 00 00 00 00 00 00 00 ; ................
00E958  .dc.b 00 00 00 00 00 00 00 00 00 00 00 00 00 00 00 00 ; ................
00E968  .dc.b 00 00 00 00 00 00 00 00 00 00 00 00 00 00 00 00 ; ................
00E978  .dc.b 00 00 00 00 00 00 00 00 45 60 BA 80 80 00 7F F0 ; ........E`......
00E988  .dc.b 4C 00 B3 F0 B8 00 47 F0 4D 40 B2 A0 74 00 00 00 ; L.....G.M@..t...
00E998  .dc.b 3C 00 00 00 7C 00 00 00 98 00 60 00 00 00 00 00 ; <...|.....`.....
00E9A8  .dc.b 80 00 00 00 60 00 00 00 F0 00 C0 00 20 00 20 00 ; ....`....... . .
00E9B8  .dc.b 70 00 70 00 A8 00 20 00 30 00 20 00 10 00 00 00 ; p.p... .0. .....
00E9C8  .dc.b 60 00 40 00 00 00 00 00 40 00 00 00 80 00 00 00 ; `.@.....@.......
00E9D8  .dc.b 80 00 00 00 00 00 00 00 00 00 00 00 00 00 00 00 ; ................
00E9E8  .dc.b 00 00 00 00 00 00 00 00 00 00 00 00 00 00 00 00 ; ................
00E9F8  .dc.b 00 A8 00 58 01 5A 00 66 03 16 00 1C 02 0E 00 0C ; ...X.Z.f........
00EA08  .dc.b 02 0F 00 0D 02 95 00 9F 03 53 00 55 01 AA 00 2C ; .........S.U...,
00EA18  .dc.b 01 E2 00 7E 03 CF 00 FF 06 E5 03 BD 04 AA 07 36 ; ...~...........6
00EA28  .dc.b 04 A9 07 35 05 AC 07 35 05 92 07 18 06 EB 06 03 ; ...5...5........
00EA38  .dc.b 06 7D 02 07 03 39 00 01 01 FE 01 F8 00 A4 00 3C ; .}...9.........<
00EA48  .dc.b 00 94 00 1B 00 C9 00 0E 00 A6 00 07 00 B9 00 21 ; ...............!
00EA58  .dc.b 00 D4 00 70 00 69 00 20 04 B0 01 00 13 E0 13 00 ; ...p.i. ........
00EA68  .dc.b 16 40 1F 00 14 80 1E 00 4A 00 0C 00 6C 00 08 00 ; .@......J...l...
00EA78  .dc.b 78 00 00 00 60 00 00 00 40 00 00 00 00 00 00 00 ; x...`...@.......
00EA88  .dc.b 00 00 00 00 00 00 00 00 00 00 00 00 00 A4 00 20 ; ............... 
00EA98  .dc.b 01 98 00 18 03 E1 00 02 03 F1 00 00 03 F0 00 03 ; ................
00EAA8  .dc.b 03 E0 00 00 03 6A 00 82 01 32 00 C1 01 22 00 FE ; .....j...2..."..
00EAB8  .dc.b 03 48 00 FD 04 C3 03 80 00 C8 07 09 00 CB 07 08 ; .H..............
00EAC8  .dc.b 01 CB 07 08 00 E5 07 04 03 D4 06 14 05 E0 02 00 ; ................
00EAD8  .dc.b 03 FE 00 00 00 07 01 F8 00 C3 00 00 00 E4 00 04 ; ................
00EAE8  .dc.b 00 F1 00 01 00 F8 00 00 00 DE 00 00 00 0F 00 00 ; ................
00EAF8  .dc.b 01 98 00 80 06 50 00 40 0C 80 10 80 20 C0 18 00 ; .....P.@.... ...
00EB08  .dc.b 61 80 68 00 32 00 30 00 14 00 10 00 08 00 00 00 ; a.h.2.0.........
00EB18  .dc.b 00 00 00 00 00 00 00 00 00 00 00 00 00 00 00 00 ; ................
00EB28  .dc.b 00 00 00 00 00 00 00 00 00 00 00 00 00 00 00 00 ; ................
00EB38  .dc.b 00 00 00 00 00 00 00 00 00 00 00 00 00 00 00 00 ; ................
00EB48  .dc.b 00 00 00 00 00 00 00 00 00 00 00 00 00 00 00 00 ; ................
00EB58  .dc.b 5F E0 40 00 85 50 80 00 40 00 40 00 B1 50 B0 00 ; _.@..P..@.@..P..
00EB68  .dc.b 93 E0 00 00 AC 00 88 00 C4 00 C0 00 A4 00 80 00 ; ................
00EB78  .dc.b 78 00 60 00 80 00 00 00 40 00 00 00 20 00 80 00 ; x.`.....@... ...
00EB88  .dc.b 50 00 80 00 B8 00 C0 00 E8 00 C0 00 34 00 00 00 ; P...........4...
00EB98  .dc.b A8 00 30 00 28 00 30 00 36 00 3C 00 34 00 38 00 ; ..0.(.0.6.<.4.8.
00EBA8  .dc.b 68 00 7C 00 32 00 38 00 27 00 20 00 4F 80 00 00 ; h.|.2.8.'. .O...
00EBB8  .dc.b 00 00 00 00 00 00 00 00 00 00 00 00 00 00 00 00 ; ................
00EBC8  .dc.b 00 00 00 00 00 00 00 00 00 00 00 00 00 00 00 00 ; ................
00EBD8  .dc.b 00 00 00 00 00 00 00 00 00 00 00 00 00 00 00 00 ; ................
00EBE8  .dc.b 00 00 00 00 00 00 00 00 00 00 00 00 45 60 BA 80 ; ............E`..
00EBF8  .dc.b 80 00 7F F0 4C 00 B3 F0 B8 00 47 F0 4D 40 B2 A0 ; ....L.....G.M@..
00EC08  .dc.b 74 00 00 00 3C 00 00 00 7C 00 00 00 98 00 60 00 ; t...<...|.....`.
00EC18  .dc.b 80 00 00 00 C0 00 00 00 60 00 00 00 70 00 40 00 ; ........`...p.@.
00EC28  .dc.b 20 00 20 00 10 00 10 00 CC 00 C0 00 CC 00 08 00 ;  . .............
00EC38  .dc.b 4C 00 08 00 42 00 00 00 46 00 04 00 02 00 70 00 ; L...B...F.....p.
00EC48  .dc.b 44 00 1C 00 58 00 18 00 70 00 30 00 00 00 00 00 ; D...X...p.0.....
00EC58  .dc.b 00 00 00 00 00 00 00 00 00 00 00 00 00 00 00 00 ; ................
00EC68  .dc.b 00 A8 00 58 01 5A 00 66 03 16 00 1C 02 0E 00 0C ; ...X.Z.f........
00EC78  .dc.b 02 0F 00 0D 02 95 00 9F 03 53 00 55 01 AA 00 2C ; .........S.U...,
00EC88  .dc.b 01 E2 00 7E 03 CF 00 FF 06 E5 03 BD 04 AA 07 36 ; ...~...........6
00EC98  .dc.b 04 A9 07 35 05 AC 07 35 05 92 07 18 06 EB 06 03 ; ...5...5........
00ECA8  .dc.b 06 7D 02 07 03 39 00 01 01 FE 01 F8 00 A5 00 3C ; .}...9.........<
00ECB8  .dc.b 00 94 00 1A 00 4A 00 0D 01 64 00 47 01 BB 00 E3 ; .....J...d.G....
00ECC8  .dc.b 02 AC 00 60 11 51 12 00 87 A0 1E 00 CD C0 1E 80 ; ...`.Q..........
00ECD8  .dc.b E1 00 1C 00 E8 00 20 00 80 00 00 00 00 00 00 00 ; ...... .........
00ECE8  .dc.b 00 00 00 00 00 00 00 00 00 00 00 00 00 00 00 00 ; ................
00ECF8  .dc.b 00 00 00 00 00 00 00 00 00 00 00 00 00 A4 00 20 ; ............... 
00ED08  .dc.b 01 98 00 18 03 E1 00 02 03 F1 00 00 03 F0 00 03 ; ................
00ED18  .dc.b 03 E0 00 00 03 6A 00 82 01 32 00 C1 01 22 00 FE ; .....j...2..."..
00ED28  .dc.b 03 48 00 FD 04 C3 03 80 00 C8 07 09 00 CB 07 08 ; .H..............
00ED38  .dc.b 01 CB 07 08 00 E5 07 04 03 D4 06 14 05 E0 02 00 ; ................
00ED48  .dc.b 03 FE 00 00 00 07 01 F8 00 C3 00 00 00 E5 00 04 ; ................
00ED58  .dc.b 00 F2 00 02 01 B8 00 00 01 1C 00 00 03 1F 01 00 ; ................
00ED68  .dc.b EC B1 D0 80 61 40 79 40 21 00 31 00 03 00 00 00 ; ....a@y@!.1.....
00ED78  .dc.b 18 00 00 00 00 00 00 00 00 00 00 00 00 00 00 00 ; ................
00ED88  .dc.b 00 00 00 00 00 00 00 00 00 00 00 00 00 00 00 00 ; ................
00ED98  .dc.b 00 00 00 00 00 00 00 00 00 00 00 00 00 00 00 00 ; ................
00EDA8  .dc.b 00 00 00 00 00 00 00 00 00 00 00 00 00 00 00 00 ; ................
00EDB8  .dc.b 00 00 00 00 00 00 00 00 00 00 00 00 00 00 00 00 ; ................
00EDC8  .dc.b 5F E0 40 00 85 50 80 00 40 00 40 00 B1 50 B0 00 ; _.@..P..@.@..P..
00EDD8  .dc.b 93 E0 00 00 AC 00 88 00 C4 00 C0 00 A4 00 80 00 ; ................
00EDE8  .dc.b 78 00 60 00 00 00 00 00 80 00 00 00 40 00 00 00 ; x.`.........@...
00EDF8  .dc.b A0 00 00 00 50 00 80 00 A8 00 C0 00 58 00 00 00 ; ....P.......X...
00EE08  .dc.b AC 00 10 00 74 00 3C 00 5E 00 18 00 3C 00 1E 00 ; ....t.<.^...<...
00EE18  .dc.b 24 00 3E 00 29 00 0C 00 03 80 00 00 07 C0 00 00 ; $.>.)...........
00EE28  .dc.b 00 00 00 00 00 00 00 00 00 00 00 00 00 00 00 00 ; ................
00EE38  .dc.b 00 00 00 00 00 00 00 00 00 00 00 00 00 00 00 00 ; ................
00EE48  .dc.b 00 00 00 00 00 00 00 00 00 00 00 00 00 00 00 00 ; ................
00EE58  .dc.b 00 00 00 00 00 00 00 00 00 00 00 00 45 60 BA 80 ; ............E`..
00EE68  .dc.b 80 00 7F F0 4C 00 B3 F0 B8 00 47 F0 4D 40 B2 A0 ; ....L.....G.M@..
00EE78  .dc.b 74 00 00 00 3C 00 00 00 7C 00 00 00 98 00 60 00 ; t...<...|.....`.
00EE88  .dc.b 00 00 00 00 80 00 00 00 C0 00 00 00 E0 00 80 00 ; ................
00EE98  .dc.b 60 00 40 00 10 00 10 00 A8 00 20 00 CC 00 48 00 ; `.@....... ...H.
00EEA8  .dc.b 40 00 00 00 66 00 04 00 20 00 00 00 01 00 38 00 ; @...f... .....8.
00EEB8  .dc.b 32 00 0E 00 1C 00 0C 00 18 00 18 00 00 00 00 00 ; 2...............
00EEC8  .dc.b 00 00 00 00 00 00 00 00 00 00 00 00 00 00 00 00 ; ................
00EED8  .dc.b 00 A8 00 58 01 5A 00 66 03 12 00 18 02 1E 00 18 ; ...X.Z.f........
00EEE8  .dc.b 02 33 00 31 03 2C 01 2F 02 B6 00 BA 03 4A 00 4C ; .3.1.,./.....J.L
00EEF8  .dc.b 01 C4 00 FE 03 9F 01 FD 03 CC 03 78 07 53 07 6B ; ...........x.S.k
00EF08  .dc.b 05 52 07 69 05 5B 06 6B 07 25 06 30 05 D3 04 07 ; .R.i.[.k.%.0....
00EF18  .dc.b 06 F9 00 0F 02 77 00 07 01 FC 01 F0 00 AB 00 38 ; .....w.........8
00EF28  .dc.b 00 AD 00 34 00 56 00 1A 28 2B 00 0D 9E 35 0C 06 ; ...4.V..(+...5..
00EF38  .dc.b D0 BB 1E 23 E6 7D 1F B0 CF A5 0F 00 92 DD 03 01 ; ...#.}..........
00EF48  .dc.b 02 65 00 C1 00 01 00 01 00 01 00 01 00 03 00 03 ; .e..............
00EF58  .dc.b 00 01 00 01 00 01 00 01 00 02 00 00 00 00 00 00 ; ................
00EF68  .dc.b 00 00 00 00 00 00 00 00 00 00 00 00 00 A4 00 20 ; ............... 
00EF78  .dc.b 01 98 00 18 03 E5 00 02 03 E1 00 00 03 C8 00 07 ; ................
00EF88  .dc.b 03 D0 00 00 02 C5 01 04 02 72 01 81 00 44 01 FE ; .........r...D..
00EF98  .dc.b 02 92 01 FB 00 80 03 07 02 93 07 14 00 97 07 12 ; ................
00EFA8  .dc.b 01 97 06 10 03 CA 06 09 03 A8 04 28 07 C0 00 00 ; ...........(....
00EFB8  .dc.b 03 F8 00 00 00 0F 01 F0 00 C7 00 00 00 CB 00 08 ; ................
00EFC8  .dc.b 00 65 00 04 D8 32 C0 02 62 39 64 01 21 DC 2C 00 ; .e...2..b9d.!.,.
00EFD8  .dc.b 00 0E 18 00 30 DE 00 C2 1C AE 00 A0 03 06 00 00 ; ....0...........
00EFE8  .dc.b 00 02 00 00 00 02 00 00 00 00 00 03 00 02 00 00 ; ................
00EFF8  .dc.b 00 02 00 00 00 03 00 01 00 00 00 00 00 00 00 00 ; ................
00F008  .dc.b 00 00 00 00 00 00 00 00 00 00 00 00 00 00 00 00 ; ................
00F018  .dc.b 00 00 00 00 00 00 00 00 00 00 00 00 00 00 00 00 ; ................
00F028  .dc.b 00 00 00 00 00 00 00 00 00 00 00 00 00 00 00 00 ; ................
00F038  .dc.b 9F F0 C0 00 6A A8 60 00 B1 58 B1 58 4E A8 CC 00 ; ....j.`..X.XN...
00F048  .dc.b 23 F0 04 00 98 00 90 00 88 00 80 00 48 00 00 00 ; #...........H...
00F058  .dc.b F0 00 C0 00 00 00 00 00 00 00 00 00 80 00 00 00 ; ................
00F068  .dc.b 80 00 00 00 40 00 00 00 C0 00 00 00 40 00 00 00 ; ....@.......@...
00F078  .dc.b A0 00 40 00 40 00 80 00 40 00 80 00 B0 00 E0 00 ; ..@.@...@.......
00F088  .dc.b A0 00 C0 00 40 00 E0 00 90 00 C0 00 38 00 00 00 ; ....@.......8...
00F098  .dc.b 7C 00 00 00 00 00 00 00 00 00 00 00 00 00 00 00 ; |...............
00F0A8  .dc.b 00 00 00 00 00 00 00 00 00 00 00 00 00 00 00 00 ; ................
00F0B8  .dc.b 00 00 00 00 00 00 00 00 00 00 00 00 00 00 00 00 ; ................
00F0C8  .dc.b 00 00 00 00 00 00 00 00 00 00 00 00 CA A0 35 50 ; ..............5P
00F0D8  .dc.b 60 00 9F F8 BD 58 42 A0 C0 00 33 F8 9A B0 61 40 ; `....XB...3...a@
00F0E8  .dc.b 6C 00 00 00 78 00 00 00 F8 00 00 00 30 00 C0 00 ; l...x.......0...
00F0F8  .dc.b 00 00 00 00 00 00 00 00 80 00 00 00 80 00 00 00 ; ................
00F108  .dc.b C0 00 00 00 00 00 00 00 80 00 80 00 A0 00 80 00 ; ................
00F118  .dc.b 60 00 40 00 60 00 40 00 10 00 00 00 30 00 20 00 ; `.@.`.@.....0. .
00F128  .dc.b 10 00 80 00 20 00 E0 00 C0 00 C0 00 80 00 80 00 ; .... ...........
00F138  .dc.b 00 00 00 00 00 00 00 00 00 00 00 00 00 A8 00 58 ; ...............X
00F148  .dc.b 01 5A 00 66 03 16 00 18 02 16 00 10 02 2B 00 29 ; .Z.f.........+.)
00F158  .dc.b 02 34 02 3F 01 2B 01 36 02 CA 00 CC 03 8D 01 FF ; .4.?.+.6........
00F168  .dc.b 03 3B 03 FD 03 94 00 F0 02 AB 02 D3 02 A6 02 D1 ; .;..............
00F178  .dc.b 02 B7 02 D7 03 4A 00 60 01 A3 00 0F 01 F3 00 1F ; .....J.`........
00F188  .dc.b 01 EE 00 0E 00 F9 00 E1 00 95 00 1C 00 90 00 1C ; ................
00F198  .dc.b 00 57 00 1A 00 49 00 0E 04 2A 00 0C 65 34 06 07 ; .W...I...*..e4..
00F1A8  .dc.b F4 B5 07 86 FA F4 0F 40 F7 7B 07 C0 19 BB 01 C2 ; .......@.{......
00F1B8  .dc.b 01 1A 00 03 00 0A 00 03 00 0B 00 03 00 0B 00 03 ; ................
00F1C8  .dc.b 00 0D 00 0F 00 08 00 02 00 08 00 00 00 09 00 00 ; ................
00F1D8  .dc.b 00 00 00 00 00 00 00 00 00 A4 00 20 01 98 00 18 ; ........... ....
00F1E8  .dc.b 03 E1 00 06 03 E9 00 00 03 D0 00 07 03 C0 00 00 ; ................
00F1F8  .dc.b 01 C9 02 08 00 B2 03 41 00 88 03 FB 01 22 03 F3 ; .......A....."..
00F208  .dc.b 03 08 00 07 01 23 02 2C 01 27 02 2E 01 2F 02 20 ; .....#.,.'.../. 
00F218  .dc.b 03 95 00 12 01 50 00 50 01 80 00 00 01 F1 00 00 ; .....P.P........
00F228  .dc.b 00 1E 00 E1 00 E3 00 00 00 E2 00 00 00 65 00 04 ; .............e..
00F238  .dc.b 00 71 00 00 3C 33 30 02 19 38 1A 00 08 79 0E 01 ; .q..<30..8...y..
00F248  .dc.b 00 9B 04 83 18 14 00 04 1E 1D 00 01 01 FC 00 00 ; ................
00F258  .dc.b 00 0C 00 00 00 0C 00 00 00 0C 00 00 00 00 00 0E ; ................
00F268  .dc.b 00 0D 00 03 00 0F 00 03 00 0E 00 06 00 00 00 00 ; ................
00F278  .dc.b 00 00 00 00 00 00 00 00 00 00 00 00 00 00 00 00 ; ................
00F288  .dc.b 00 00 00 00 00 00 00 00 00 00 00 00 00 00 00 00 ; ................
00F298  .dc.b 00 00 00 00 00 00 00 00 80 00 80 00 9F F0 C0 00 ; ................
00F2A8  .dc.b 65 58 65 50 B1 A8 B1 F8 4F 58 CF 50 45 F0 0C 00 ; eXeP....OX.PE...
00F2B8  .dc.b 3A 00 20 00 30 00 20 00 90 00 00 00 A0 00 80 00 ; :. .0. .........
00F2C8  .dc.b 00 00 00 00 00 00 00 00 00 00 00 00 00 00 00 00 ; ................
00F2D8  .dc.b 00 00 00 00 00 00 00 00 80 00 00 00 80 00 00 00 ; ................
00F2E8  .dc.b 80 00 00 00 00 00 80 00 80 00 00 00 C0 00 00 00 ; ................
00F2F8  .dc.b C0 00 00 00 00 00 80 00 00 00 80 00 40 00 00 00 ; ............@...
00F308  .dc.b E0 00 00 00 F0 00 00 00 00 00 00 00 00 00 00 00 ; ................
00F318  .dc.b 00 00 00 00 00 00 00 00 00 00 00 00 00 00 00 00 ; ................
00F328  .dc.b 00 00 00 00 00 00 00 00 00 00 00 00 00 00 00 00 ; ................
00F338  .dc.b 00 00 00 00 00 00 80 00 C5 50 3A A0 65 50 9A A8 ; .........P:.eP..
00F348  .dc.b BF F8 40 00 C1 50 30 A8 32 50 C1 A0 DE 00 00 00 ; ..@..P0.2P......
00F358  .dc.b D0 00 00 00 F0 00 00 00 60 00 80 00 00 00 00 00 ; ........`.......
00F368  .dc.b 00 00 00 00 00 00 00 00 00 00 00 00 00 00 00 00 ; ................
00F378  .dc.b 00 00 00 00 80 00 00 00 00 00 00 00 00 00 00 00 ; ................
00F388  .dc.b 00 00 00 00 80 00 80 00 C0 00 80 00 C0 00 80 00 ; ................
00F398  .dc.b 40 00 00 00 40 00 00 00 80 00 80 00 00 00 00 00 ; @...@...........
00F3A8  .dc.b 00 00 00 00 00 00 00 00 00 00 00 00 00 A8 00 58 ; ...............X
00F3B8  .dc.b 01 5A 00 66 02 26 00 30 00 2E 00 20 00 5B 00 59 ; .Z.f.&.0... .[.Y
00F3C8  .dc.b 06 54 04 5F 03 5D 02 24 05 CB 01 4D 07 14 03 F7 ; .T._.].$...M....
00F3D8  .dc.b 06 73 07 F5 03 2C 01 E0 01 5B 01 B3 01 46 01 A1 ; .s...,...[...F..
00F3E8  .dc.b 01 6F 01 AF 02 94 00 C0 03 56 00 0E 01 E2 00 3E ; .o.......V.....>
00F3F8  .dc.b 00 DC 00 1C 00 F3 00 C3 01 6A 00 78 01 20 00 3A ; .........j.x. .:
00F408  .dc.b 00 AB 00 32 00 B8 00 30 00 55 00 1D 00 D5 00 99 ; ...2...0.U......
00F418  .dc.b 01 18 01 9C 05 69 00 CC 06 33 00 00 07 2F 00 00 ; .....i...3.../..
00F428  .dc.b 07 D8 00 1C 04 56 00 18 00 B8 00 30 01 64 01 70 ; .....V.....0.d.p
00F438  .dc.b 02 48 01 E0 05 50 01 00 04 E0 00 00 01 F0 00 00 ; .H...P..........
00F448  .dc.b 00 00 00 00 00 00 00 00 00 A4 00 20 01 98 00 18 ; ........... ....
00F458  .dc.b 03 C9 00 06 03 D9 00 00 03 A0 00 0F 07 A0 00 00 ; ................
00F468  .dc.b 03 DB 04 18 01 B3 06 40 01 18 07 F3 02 4A 07 E3 ; .......@.....J..
00F478  .dc.b 02 10 00 0F 02 43 00 4C 02 57 00 4E 02 5F 00 40 ; .....C.L.W.N._.@
00F488  .dc.b 03 2A 00 25 02 B1 00 B0 01 01 00 00 00 E3 00 00 ; .*.%............
00F498  .dc.b 00 3C 00 C3 01 86 00 02 01 C6 00 00 00 CF 00 08 ; .<..............
00F4A8  .dc.b 00 CF 00 08 00 60 00 02 07 66 04 84 06 63 06 80 ; .....`...f...c..
00F4B8  .dc.b 02 32 02 80 01 EC 01 0C 00 F0 00 00 01 E2 00 00 ; .2..............
00F4C8  .dc.b 00 66 00 04 00 CC 00 08 00 8C 01 00 02 18 01 80 ; .f..............
00F4D8  .dc.b 06 B0 00 80 07 00 03 00 06 00 06 00 00 00 00 00 ; ................
00F4E8  .dc.b 00 00 00 00 00 00 00 00 00 00 00 00 00 00 00 00 ; ................
00F4F8  .dc.b 00 00 00 00 00 00 00 00 00 00 00 00 80 00 80 00 ; ................
00F508  .dc.b 80 00 00 00 80 00 80 00 00 00 80 00 BB F8 E0 00 ; ................
00F518  .dc.b 52 A8 72 A8 A8 54 B8 FC 45 A8 C7 A8 99 78 1F 00 ; R.r..T..E....x..
00F528  .dc.b A6 00 EE 00 D8 00 EC 00 50 00 40 00 20 00 00 00 ; ........P.@. ...
00F538  .dc.b 00 00 00 00 00 00 00 00 00 00 00 00 80 00 00 00 ; ................
00F548  .dc.b 80 00 00 00 40 00 00 00 C0 00 80 00 C0 00 00 00 ; ....@...........
00F558  .dc.b C0 00 00 00 80 00 00 00 00 00 00 00 00 00 00 00 ; ................
00F568  .dc.b 00 00 00 00 00 00 00 00 00 00 00 00 00 00 00 00 ; ................
00F578  .dc.b 00 00 00 00 00 00 00 00 00 00 00 00 00 00 00 00 ; ................
00F588  .dc.b 00 00 00 00 00 00 00 00 00 00 00 00 00 00 00 00 ; ................
00F598  .dc.b 00 00 00 00 00 00 80 00 80 00 00 00 00 00 80 00 ; ................
00F5A8  .dc.b 00 00 80 00 00 00 80 00 E2 A8 19 50 72 A8 8D 54 ; ...........Pr..T
00F5B8  .dc.b BF FC 40 00 D8 A8 20 54 60 28 80 D0 11 00 08 00 ; ..@... T`(......
00F5C8  .dc.b 10 00 0C 00 B0 00 00 00 E0 00 00 00 00 00 00 00 ; ................
00F5D8  .dc.b 00 00 00 00 00 00 00 00 80 00 00 00 80 00 00 00 ; ................
00F5E8  .dc.b C0 00 00 00 40 00 00 00 00 00 00 00 00 00 00 00 ; ....@...........
00F5F8  .dc.b 80 00 00 00 00 00 00 00 00 00 00 00 00 00 00 00 ; ................
00F608  .dc.b 00 00 00 00 00 00 00 00 00 00 00 00 00 00 00 00 ; ................
00F618  .dc.b 00 00 00 00 00 00 00 00 00 00 00 00 00 A8 00 58 ; ...............X
00F628  .dc.b 01 5A 00 66 02 27 00 31 00 2E 00 20 00 5B 00 59 ; .Z.f.'.1... .[.Y
00F638  .dc.b 0A A5 08 B6 05 19 04 20 0B CA 02 CC 0E 34 07 F7 ; ....... .....4..
00F648  .dc.b 0C F3 0F F5 06 4C 03 D0 02 B7 03 67 02 87 03 48 ; .....L.....g...H
00F658  .dc.b 02 CF 03 4F 05 29 01 80 06 AC 00 1D 03 C1 00 7D ; ...O.).........}
00F668  .dc.b 01 B9 00 39 00 E6 00 86 01 C6 00 74 00 A7 00 3C ; ...9.......t...<
00F678  .dc.b 00 A8 00 32 00 DE 00 16 00 51 00 1C 00 55 00 18 ; ...2.....Q...U..
00F688  .dc.b 00 2F 00 0A 00 2B 00 0E 00 37 00 02 00 4E 00 10 ; ./...+...7...N..
00F698  .dc.b 00 AF 00 38 01 64 00 70 02 DC 02 F0 06 BC 03 E0 ; ...8.d.p........
00F6A8  .dc.b 0A 60 03 C0 1A C0 01 80 07 80 00 00 0F 80 00 00 ; .`..............
00F6B8  .dc.b 00 00 00 00 00 00 00 00 00 A4 00 20 01 98 00 18 ; ........... ....
00F6C8  .dc.b 03 C8 00 06 03 D9 00 00 03 A0 00 0F 0B 49 00 01 ; .............I..
00F6D8  .dc.b 05 DF 08 18 03 32 0C C1 02 28 0F F3 04 8A 0F C3 ; .....2...(......
00F6E8  .dc.b 04 20 00 0F 04 87 00 98 04 AF 00 97 04 AF 00 90 ; . ..............
00F6F8  .dc.b 06 54 00 4B 05 62 01 60 02 02 00 00 01 C6 00 00 ; .T.K.b.`........
00F708  .dc.b 00 79 00 86 01 86 00 0A 00 C7 00 02 00 CB 00 0C ; .y..............
00F718  .dc.b 00 EB 00 08 00 63 00 00 00 67 00 04 00 35 00 04 ; .....c...g...5..
00F728  .dc.b 00 11 00 10 00 29 00 08 00 61 00 00 00 C1 00 00 ; .....)...a......
00F738  .dc.b 01 8C 00 00 01 08 02 00 04 10 03 00 0C 20 01 00 ; ............. ..
00F748  .dc.b 14 40 04 00 18 80 18 00 30 00 30 00 00 00 00 00 ; .@......0.0.....
00F758  .dc.b 00 00 00 00 00 00 00 00 00 00 00 00 00 00 00 00 ; ................
00F768  .dc.b 00 00 00 00 00 00 00 00 00 00 00 00 40 00 40 00 ; ............@.@.
00F778  .dc.b C0 00 80 00 C0 00 80 00 40 00 C0 00 09 58 60 00 ; ........@....X`.
00F788  .dc.b 93 54 B3 F4 48 00 D8 FC A5 54 E7 F4 29 58 0F 00 ; .T..H....T..)X..
00F798  .dc.b 16 00 DE 00 48 00 8C 00 80 00 C0 00 00 00 00 00 ; ....H...........
00F7A8  .dc.b 00 00 00 00 00 00 00 00 80 00 00 00 40 00 00 00 ; ............@...
00F7B8  .dc.b A0 00 80 00 D0 00 C0 00 B0 00 00 00 70 00 00 00 ; ............p...
00F7C8  .dc.b 90 00 80 00 40 00 00 00 00 00 00 00 00 00 00 00 ; ....@...........
00F7D8  .dc.b 00 00 00 00 00 00 00 00 00 00 00 00 00 00 00 00 ; ................
00F7E8  .dc.b 00 00 00 00 00 00 00 00 00 00 00 00 00 00 00 00 ; ................
00F7F8  .dc.b 00 00 00 00 00 00 00 00 00 00 00 00 00 00 00 00 ; ................
00F808  .dc.b 00 00 00 00 00 00 40 00 40 00 80 00 80 00 40 00 ; ......@.@.....@.
00F818  .dc.b 00 00 C0 00 00 00 C0 00 60 08 9B F0 B3 F4 4C 0A ; ........`.....L.
00F828  .dc.b DF FC 20 00 E8 F4 10 0A D0 08 00 F0 21 00 08 00 ; .. .........!...
00F838  .dc.b 70 00 4C 00 20 00 00 00 C0 00 00 00 00 00 00 00 ; p.L. ...........
00F848  .dc.b 00 00 00 00 80 00 00 00 C0 00 00 00 60 00 00 00 ; ............`...
00F858  .dc.b 30 00 00 00 40 00 40 00 80 00 00 00 70 00 00 00 ; 0...@.@.....p...
00F868  .dc.b C0 00 00 00 00 00 00 00 00 00 00 00 00 00 00 00 ; ................
00F878  .dc.b 00 00 00 00 00 00 00 00 00 00 00 00 00 00 00 00 ; ................
00F888  .dc.b 00 00 00 00 00 00 00 00 00 00 00 00 00 A8 00 58 ; ...............X
00F898  .dc.b 01 5A 00 66 02 27 00 31 00 2E 00 20 00 5B 00 59 ; .Z.f.'.1... .[.Y
00F8A8  .dc.b 12 A5 10 B6 0B 59 08 20 15 CA 04 CC 1C 34 0F F7 ; .....Y. .....4..
00F8B8  .dc.b 19 D2 1F F5 0C AC 07 90 05 77 06 C7 05 17 06 98 ; .........w......
00F8C8  .dc.b 05 AF 06 8F 0A 52 03 00 0D 59 00 3A 07 82 00 FB ; .....R...Y.:....
00F8D8  .dc.b 03 73 00 73 00 8C 00 0C 00 56 00 15 00 72 00 39 ; .s.s.....V...r.9
00F8E8  .dc.b 00 A5 00 3B 00 AA 00 3A 01 45 00 71 00 5E 00 70 ; ...;...:.E.q.^.p
00F8F8  .dc.b 03 A9 01 E0 05 50 00 C0 0A A3 00 03 15 46 06 03 ; .....P.......F..
00F908  .dc.b 6E 8A 2D 03 1F 01 3C 01 1E 0F 38 01 B4 07 38 00 ; n.-...<...8...8.
00F918  .dc.b D8 03 10 00 F0 01 00 00 C0 00 00 00 80 00 00 00 ; ................
00F928  .dc.b 00 00 00 00 00 00 00 00 00 A4 00 20 01 98 00 18 ; ........... ....
00F938  .dc.b 03 C8 00 06 03 D9 00 00 03 A0 00 0F 13 49 00 01 ; .............I..
00F948  .dc.b 0B DF 10 18 05 32 18 C0 04 28 1F F3 09 0A 1F 82 ; .....2...(......
00F958  .dc.b 08 60 00 2F 09 07 01 38 09 5F 01 27 09 4F 01 30 ; .`./...8._.'.O.0
00F968  .dc.b 0C A9 00 96 0A C5 02 C1 04 04 00 00 03 8C 00 00 ; ................
00F978  .dc.b 00 F3 00 0C 00 67 00 0A 00 43 00 06 00 C3 00 04 ; .....g...C......
00F988  .dc.b 00 C6 00 01 01 8E 00 00 01 8F 00 00 00 19 00 00 ; ................
00F998  .dc.b 06 31 02 00 0D 60 01 02 18 84 00 83 52 0C 22 05 ; .1...`......R.".
00F9A8  .dc.b C3 0E A2 0E C6 00 E4 00 44 00 40 00 28 00 20 00 ; ........D.@.(. .
00F9B8  .dc.b 10 00 00 00 00 00 00 00 00 00 00 00 00 00 00 00 ; ................
00F9C8  .dc.b 00 00 00 00 00 00 00 00 00 00 00 00 00 00 00 00 ; ................
00F9D8  .dc.b 00 00 00 00 00 00 00 00 00 00 00 00 20 00 20 00 ; ............ . .
00F9E8  .dc.b 60 00 40 00 60 00 C0 00 A0 00 E0 00 34 AC 50 00 ; `.@.`.......4.P.
00F9F8  .dc.b 94 AA AD FE C8 56 54 28 6A AA AB FE 64 AC 07 80 ; .....VT(j...d...
00FA08  .dc.b 3B 00 9F 00 B4 00 06 00 00 00 80 00 40 00 00 00 ; ;...........@...
00FA18  .dc.b 80 00 00 00 40 00 00 00 A0 00 80 00 50 00 80 00 ; ....@.......P...
00FA28  .dc.b 98 00 C0 00 88 00 00 00 28 00 50 00 A0 00 C0 00 ; ........(.P.....
00FA38  .dc.b B0 00 E0 00 E0 00 80 00 40 00 C0 00 40 00 80 00 ; ........@...@...
00FA48  .dc.b 00 00 00 00 80 00 00 00 00 00 00 00 00 00 00 00 ; ................
00FA58  .dc.b 00 00 00 00 00 00 00 00 00 00 00 00 00 00 00 00 ; ................
00FA68  .dc.b 00 00 00 00 00 00 00 00 00 00 00 00 00 00 00 00 ; ................
00FA78  .dc.b 00 00 00 00 00 00 20 00 20 00 40 00 40 00 A0 00 ; ...... . .@.@...
00FA88  .dc.b 00 00 E0 00 00 00 E0 00 70 04 AD F8 BD FE 52 01 ; ........p.....R.
00FA98  .dc.b DF FE A8 56 EC 7E 50 01 98 04 00 78 40 80 04 00 ; ...V.~P....x@...
00FAA8  .dc.b F8 00 86 00 40 00 00 00 C0 00 00 00 00 00 80 00 ; ....@...........
00FAB8  .dc.b C0 00 00 00 60 00 00 00 70 00 40 00 20 00 20 00 ; ....`...p.@. . .
00FAC8  .dc.b 70 00 70 00 A8 00 20 00 30 00 20 00 10 00 00 00 ; p.p... .0. .....
00FAD8  .dc.b 60 00 40 00 00 00 00 00 40 00 00 00 80 00 00 00 ; `.@.....@.......
00FAE8  .dc.b 80 00 00 00 00 00 00 00 00 00 00 00 00 00 00 00 ; ................
00FAF8  .dc.b 00 00 00 00 00 00 00 00 00 00 00 00 00 00 00 00 ; ................
00FB08  .dc.b 00 00 00 00 00 00 00 00 00 00 00 00 00 00 00 00 ; ................
00FB18  .dc.b 00 00 00 00 00 04 00 04 00 06 00 02 00 06 00 03 ; ................
00FB28  .dc.b 00 05 00 07 35 2C 00 0A 55 29 7F B5 6A 13 14 2A ; ....5,..U)..j..*
00FB38  .dc.b 55 56 7F D5 35 26 01 E0 00 DC 00 F9 00 2D 00 60 ; UV..5&.......-.`
00FB48  .dc.b 00 18 00 01 00 03 00 00 00 01 00 00 00 06 00 00 ; ................
00FB58  .dc.b 00 1B 00 03 00 24 00 07 00 31 00 07 00 3B 00 00 ; .....$...1...;..
00FB68  .dc.b 00 2A 00 0D 00 13 00 03 00 09 00 01 00 06 00 00 ; .*..............
00FB78  .dc.b 00 01 00 00 00 00 00 00 00 00 00 00 00 00 00 00 ; ................
00FB88  .dc.b 00 00 00 00 00 00 00 00 00 00 00 00 00 00 00 00 ; ................
00FB98  .dc.b 00 00 00 00 00 00 00 00 00 00 00 00 00 00 00 00 ; ................
00FBA8  .dc.b 00 00 00 00 00 00 00 00 00 00 00 00 00 00 00 00 ; ................
00FBB8  .dc.b 00 00 00 00 00 00 00 00 00 00 00 00 00 00 00 04 ; ................
00FBC8  .dc.b 00 04 00 02 00 02 00 05 00 00 00 07 00 00 00 07 ; ................
00FBD8  .dc.b 20 0E 1F B5 7F BD 80 4A 7F FB 6A 15 7E 37 80 0A ;  ......J..j.~7..
00FBE8  .dc.b 20 19 1E 00 01 02 00 20 00 1F 00 61 00 06 00 18 ;  ...... ...a....
00FBF8  .dc.b 00 03 00 00 00 01 00 00 00 07 00 00 00 1C 00 00 ; ................
00FC08  .dc.b 00 38 00 00 00 28 00 08 00 05 00 04 00 12 00 02 ; .8...(..........
00FC18  .dc.b 00 1C 00 00 00 0E 00 00 00 07 00 00 00 01 00 00 ; ................
00FC28  .dc.b 00 00 00 00 00 00 00 00 00 00 00 00 00 00 00 00 ; ................
00FC38  .dc.b 00 00 00 00 00 00 00 00 00 00 00 00 00 00 00 00 ; ................
00FC48  .dc.b 00 00 00 00 00 00 00 00 00 00 00 00 00 00 00 00 ; ................
00FC58  .dc.b 00 00 00 00 15 00 1A 00 5A 80 66 00 E4 40 8C 00 ; ........Z.f..@..
00FC68  .dc.b 74 00 04 00 DA 00 9A 00 A5 48 6D 08 9A D0 04 10 ; t........Hm.....
00FC78  .dc.b 53 A8 33 20 2C 38 EF F0 4B 98 AF F8 35 30 09 E0 ; S.3 ,8..K...50..
00FC88  .dc.b EE A0 E3 60 E8 A0 19 60 F5 A0 F1 60 4A 50 00 C0 ; ...`...`...`JP..
00FC98  .dc.b 9A B0 5C 00 41 E0 DF 00 CE C0 CE 00 0F 00 C0 00 ; ..\.A...........
00FCA8  .dc.b 93 00 18 00 6D 00 74 00 29 00 D8 00 32 00 F0 00 ; ....m.t.)...2...
00FCB8  .dc.b 9C 00 80 00 AD 00 0C 00 6A 00 0E 00 59 80 E4 00 ; ........j...Y...
00FCC8  .dc.b B2 00 E1 00 2E C0 63 00 05 20 03 80 B1 A0 01 E0 ; ......c.. ......
00FCD8  .dc.b 7B 90 01 E0 32 88 00 E0 21 88 00 E0 01 48 00 40 ; {...2...!....H.@
00FCE8  .dc.b 00 E0 00 40 00 F8 00 00 00 78 00 00 00 70 00 00 ; ...@.....x...p..
00FCF8  .dc.b 00 70 00 00 00 20 00 00 00 00 00 00 00 00 00 00 ; .p... ..........
00FD08  .dc.b 25 00 04 00 19 80 18 00 13 C0 60 00 9B C0 00 00 ; %.........`.....
00FD18  .dc.b 05 C0 F0 00 92 C8 80 00 FB D0 18 08 4C A0 03 18 ; ............L...
00FD28  .dc.b 14 20 CF F8 50 90 41 F8 06 10 F4 00 E0 90 1C 80 ; . ..P.A.........
00FD38  .dc.b FA 90 E4 80 F2 90 0C 80 95 30 69 00 A3 50 83 40 ; .........0i..P.@
00FD48  .dc.b 20 20 00 00 31 C0 00 00 3C 00 C3 00 E7 00 00 00 ;   ..1...<.......
00FD58  .dc.b 8B 00 08 00 27 00 20 00 0E 00 00 00 7E 00 00 00 ; ....'. .....~...
00FD68  .dc.b B3 00 00 00 F1 00 00 00 02 80 62 00 0C 80 4C 00 ; ..........b...L.
00FD78  .dc.b 90 C0 50 80 F8 60 38 00 CE 00 0C 20 42 10 00 60 ; ..P..`8.... B..`
00FD88  .dc.b 03 18 00 40 01 18 00 40 01 B0 00 30 00 98 00 18 ; ...@...@...0....
00FD98  .dc.b 00 80 00 00 00 00 00 08 00 00 00 00 00 00 00 10 ; ................
00FDA8  .dc.b 00 00 00 00 00 00 00 00 00 00 00 00 00 A8 00 58 ; ...............X
00FDB8  .dc.b 01 5A 00 66 02 27 00 31 00 2E 00 20 00 5B 00 59 ; .Z.f.'.1... .[.Y
00FDC8  .dc.b 12 A5 10 B6 0B 59 08 20 15 CA 04 CC 1C 34 0F F7 ; .....Y. .....4..
00FDD8  .dc.b 19 D2 1F F5 0C AC 07 90 05 77 06 C7 05 17 06 98 ; .........w......
00FDE8  .dc.b 05 AF 06 8F 0A 52 03 00 0D 59 00 3A 07 82 00 FB ; .....R...Y.:....
00FDF8  .dc.b 03 73 00 73 00 F0 00 03 00 C9 00 18 00 B6 00 2E ; .s.s............
00FE08  .dc.b 00 94 00 1B 00 4C 00 0F 00 39 00 01 00 B5 00 30 ; .....L...9.....0
00FE18  .dc.b 00 56 00 70 01 9A 00 27 00 4D 00 87 03 74 00 C6 ; .V.p...'.M...t..
00FE28  .dc.b 04 A0 01 C0 05 8D 07 80 09 DE 07 80 11 4C 07 00 ; .............L..
00FE38  .dc.b 11 84 07 00 12 80 02 00 07 00 02 00 1F 00 00 00 ; ................
00FE48  .dc.b 1E 00 00 00 0E 00 00 00 0E 00 00 00 04 00 00 00 ; ................
00FE58  .dc.b 00 00 00 00 00 00 00 00 00 A4 00 20 01 98 00 18 ; ........... ....
00FE68  .dc.b 03 C8 00 06 03 D9 00 00 03 A0 00 0F 13 49 00 01 ; .............I..
00FE78  .dc.b 0B DF 10 18 05 32 18 C0 04 28 1F F3 09 0A 1F 82 ; .....2...(......
00FE88  .dc.b 08 60 00 2F 09 07 01 38 09 5F 01 27 09 4F 01 30 ; .`./...8._.'.O.0
00FE98  .dc.b 0C A9 00 96 0A C5 02 C1 04 04 00 00 03 8C 00 00 ; ................
00FEA8  .dc.b 00 3C 00 C3 00 E7 00 00 00 D1 00 10 00 E4 00 04 ; .<..............
00FEB8  .dc.b 00 70 00 00 00 7E 00 00 00 CD 00 00 00 8F 00 00 ; .p...~..........
00FEC8  .dc.b 01 40 00 46 01 30 00 32 03 09 01 0A 06 1F 00 1C ; .@.F.0.2........
00FED8  .dc.b 00 73 04 30 08 42 06 00 18 C0 02 00 18 80 02 00 ; .s.0.B..........
00FEE8  .dc.b 0D 80 0C 00 19 00 18 00 01 00 00 00 00 00 10 00 ; ................
00FEF8  .dc.b 00 00 00 00 00 00 08 00 00 00 00 00 00 00 00 00 ; ................
00FF08  .dc.b 00 00 00 00 00 00 00 00 00 00 00 00 00 00 00 00 ; ................
00FF18  .dc.b 00 00 00 00 00 00 00 00 00 00 00 00 20 00 20 00 ; ............ . .
00FF28  .dc.b 60 00 40 00 60 00 C0 00 A0 00 E0 00 34 AC 50 00 ; `.@.`.......4.P.
00FF38  .dc.b 94 AA AD FE C8 56 54 28 6A AA AB FE 64 AC 07 80 ; .....VT(j...d...
00FF48  .dc.b 3B 00 9F 00 B4 00 06 00 18 00 80 00 C0 00 00 00 ; ;...............
00FF58  .dc.b 80 00 00 00 60 00 00 00 D8 00 C0 00 24 00 E0 00 ; ....`.......$...
00FF68  .dc.b 8C 00 E0 00 DC 00 00 00 54 00 B0 00 C8 00 C0 00 ; ........T.......
00FF78  .dc.b 90 00 80 00 60 00 00 00 80 00 00 00 00 00 00 00 ; ....`...........
00FF88  .dc.b 00 00 00 00 00 00 00 00 00 00 00 00 00 00 00 00 ; ................
00FF98  .dc.b 00 00 00 00 00 00 00 00 00 00 00 00 00 00 00 00 ; ................
00FFA8  .dc.b 00 00 00 00 00 00 00 00 00 00 00 00 00 00 00 00 ; ................
00FFB8  .dc.b 00 00 00 00 00 00 00 00 00 00 00 00 00 00 00 00 ; ................
00FFC8  .dc.b 00 00 00 00 00 00 20 00 20 00 40 00 40 00 A0 00 ; ...... . .@.@...
00FFD8  .dc.b 00 00 E0 00 00 00 E0 00 70 04 AD F8 BD FE 52 01 ; ........p.....R.
00FFE8  .dc.b DF FE A8 56 EC 7E 50 01 98 04 00 78 40 80 04 00 ; ...V.~P....x@...
00FFF8  .dc.b F8 00 86 00 60 00 18 00 C0 00 00 00 80 00 00 00 ; ....`...........
010008  .dc.b E0 00 00 00 38 00 00 00 1C 00 00 00 14 00 10 00 ; ....8...........
010018  .dc.b A0 00 20 00 48 00 40 00 38 00 00 00 70 00 00 00 ; .. .H.@.8...p...
010028  .dc.b E0 00 00 00 80 00 00 00 00 00 00 00 00 00 00 00 ; ................
010038  .dc.b 00 00 00 00 00 00 00 00 00 00 00 00 00 00 00 00 ; ................
010048  .dc.b 00 00 00 00 00 00 00 00 00 00 00 00 00 00 00 00 ; ................
010058  .dc.b 00 00 00 00 00 00 00 00 00 00 00 00 00 00 00 00 ; ................
010068  .dc.b 00 02 00 06 00 05 00 07 00 02 00 01 00 01 00 02 ; ................
010078  .dc.b 02 D3 03 32 00 53 00 6A 00 2F 00 32 00 18 00 14 ; ...2.S.j./.2....
010088  .dc.b 00 59 00 68 01 7B 01 80 02 B9 03 78 01 08 03 04 ; .Y.h.{.....x....
010098  .dc.b 00 0F 00 12 00 37 00 2C 00 09 00 3A 00 33 00 12 ; .....7.,...:.3..
0100A8  .dc.b 00 20 00 01 00 01 00 21 00 20 00 20 00 00 00 00 ; . .....!. . ....
0100B8  .dc.b 00 00 00 00 00 00 00 00 00 00 00 00 00 08 00 00 ; ................
0100C8  .dc.b 00 00 00 00 00 02 00 02 01 F1 00 01 00 C9 00 C1 ; ................
0100D8  .dc.b 00 95 00 11 00 0D 00 0D 00 2B 00 0B 00 96 00 16 ; .........+......
0100E8  .dc.b 00 7C 00 7C 00 86 00 86 00 1B 00 0B 02 2D 00 0D ; .|.|.........-..
0100F8  .dc.b 00 53 00 13 00 45 00 01 00 61 00 21 00 72 00 20 ; .S...E...a.!.r. 
010108  .dc.b 00 40 00 00 00 00 00 00 00 00 00 00 00 00 00 00 ; .@..............
010118  .dc.b 00 00 00 00 00 00 00 00 08 00 08 00 00 00 08 00 ; ................
010128  .dc.b 08 00 00 00 98 00 90 00 20 00 B8 00 D8 00 68 00 ; ........ .....h.
010138  .dc.b E0 00 90 00 21 00 41 80 3A 80 3D 80 BD 00 03 00 ; ....!.A.:.=.....
010148  .dc.b 34 00 2C 00 30 00 50 00 E8 00 98 00 94 00 AC 00 ; 4.,.0.P.........
010158  .dc.b 96 80 99 80 00 00 80 00 80 00 00 00 40 00 C0 00 ; ............@...
010168  .dc.b 80 00 C0 00 00 00 00 00 00 00 00 00 00 00 00 00 ; ................
010178  .dc.b 00 00 00 00 00 00 00 00 04 00 00 00 9C 00 08 00 ; ................
010188  .dc.b 0C 00 08 00 44 00 00 00 94 00 90 00 68 80 60 00 ; ....D.......h.`.
010198  .dc.b B0 00 A0 00 C2 00 C2 00 7C 00 7C 00 D2 00 D0 00 ; ........|.|.....
0101A8  .dc.b A8 00 A0 00 60 00 60 00 52 00 10 00 26 00 06 00 ; ....`.`.R...&...
0101B8  .dc.b 1F 00 00 00 80 00 80 00 00 00 00 00 20 00 00 00 ; ............ ...
0101C8  .dc.b 00 00 00 00 00 00 00 00 00 00 00 00 00 00 00 00 ; ................
0101D8  .dc.b 00 08 00 18 00 18 00 14 00 0C 00 0A 00 07 00 05 ; ................
0101E8  .dc.b 00 06 00 05 01 57 01 B4 02 3F 03 C5 00 28 00 34 ; .....W...?...(.4
0101F8  .dc.b 00 1B 00 10 00 5B 00 68 00 7B 00 80 00 F8 01 7C ; .....[.h.{.....|
010208  .dc.b 03 8F 02 81 01 1B 03 16 00 0C 00 15 00 11 00 09 ; ................
010218  .dc.b 00 00 00 18 00 10 00 18 00 08 00 08 00 00 00 00 ; ................
010228  .dc.b 00 00 00 00 00 00 00 00 00 00 00 00 00 20 00 00 ; ............. ..
010238  .dc.b 00 0A 00 08 00 04 00 04 00 02 00 02 00 F2 00 02 ; ................
010248  .dc.b 02 4B 00 43 04 3A 00 3A 04 4B 00 0B 00 2C 00 0C ; .K.C.:.:.K...,..
010258  .dc.b 00 14 00 14 01 7C 00 7C 00 83 00 83 01 1E 01 0E ; .....|.|........
010268  .dc.b 00 29 00 09 02 2A 00 08 00 34 00 10 00 20 00 00 ; .)...*...4... ..
010278  .dc.b 00 00 00 00 00 10 00 00 00 0C 00 00 00 00 00 00 ; ................
010288  .dc.b 00 00 00 00 00 00 00 00 20 00 20 00 10 00 30 00 ; ........ . ...0.
010298  .dc.b 00 00 30 00 10 00 20 00 60 00 50 00 B1 00 D1 80 ; ..0... .`.P.....
0102A8  .dc.b E3 80 02 80 3E 00 7D 00 BC 00 02 00 B4 00 2C 00 ; ....>.}.......,.
0102B8  .dc.b B0 00 10 00 28 00 58 00 F8 80 47 80 D5 00 5B 00 ; ....(.X...G...[.
0102C8  .dc.b C0 00 40 00 C0 00 40 00 60 00 A0 00 30 00 50 00 ; ..@...@.`...0.P.
0102D8  .dc.b 20 00 30 00 00 00 00 00 00 00 00 00 00 00 00 00 ;  .0.............
0102E8  .dc.b 60 00 00 00 10 00 00 00 00 00 00 00 08 00 00 00 ; `...............
0102F8  .dc.b 58 00 10 00 A8 80 20 00 28 00 20 00 F1 00 E1 00 ; X..... .(. .....
010308  .dc.b 82 00 82 00 7D 00 7C 00 50 00 50 00 68 00 60 00 ; ....}.|.P.P.h.`.
010318  .dc.b A4 40 A0 00 B8 40 B8 00 A4 80 84 00 9E 00 80 00 ; .@...@..........
010328  .dc.b 80 00 80 00 40 00 40 00 A0 00 20 00 08 00 00 00 ; ....@.@... .....
010338  .dc.b 00 00 00 00 00 00 00 00 00 00 00 00 00 00 00 00 ; ................
010348  .dc.b 00 00 00 00 00 50 00 70 00 0C 00 14 00 06 00 0A ; .....P.p........
010358  .dc.b 00 0C 00 0A 00 07 00 01 00 8D 00 FB 02 FB 03 04 ; ................
010368  .dc.b 02 2F 02 30 00 1E 00 18 00 57 00 68 00 FB 00 84 ; ./.0.....W.h....
010378  .dc.b 00 AF 00 69 01 05 01 8B 00 06 01 0A 01 04 01 08 ; ...i............
010388  .dc.b 00 0C 00 08 00 00 00 04 00 06 00 06 00 00 00 00 ; ................
010398  .dc.b 00 00 00 00 00 00 00 00 00 00 00 00 00 60 00 00 ; .............`..
0103A8  .dc.b 00 88 00 00 00 28 00 08 00 14 00 04 00 05 00 04 ; .....(..........
0103B8  .dc.b 00 FE 00 06 03 04 00 04 00 F8 00 F8 05 C8 00 08 ; ................
0103C8  .dc.b 00 21 00 01 00 10 00 10 00 78 00 78 01 96 00 86 ; .!.......x.x....
0103D8  .dc.b 00 54 00 04 02 95 00 04 02 16 00 04 01 16 00 04 ; .T..............
0103E8  .dc.b 00 0A 00 00 00 08 00 00 00 02 00 00 00 00 00 00 ; ................
0103F8  .dc.b 00 00 00 00 00 00 00 00 C0 00 C0 00 00 00 40 00 ; ..............@.
010408  .dc.b 60 00 20 00 41 00 21 00 C0 00 A1 00 41 00 A3 00 ; `. .A.!.....A...
010418  .dc.b EA 00 2C 00 BE 00 42 00 D4 00 2C 00 F0 00 30 00 ; ..,...B...,...0.
010428  .dc.b E8 80 18 80 BE 80 41 80 62 00 BE 00 C0 00 00 00 ; ......A.b.......
010438  .dc.b 60 00 A0 00 C0 00 A0 00 60 00 50 00 14 00 1C 00 ; `.......`.P.....
010448  .dc.b 00 00 00 00 00 00 00 00 00 00 00 00 00 00 00 00 ; ................
010458  .dc.b 80 00 00 00 20 00 00 00 A0 00 00 00 D1 00 40 00 ; .... .........@.
010468  .dc.b D0 80 40 00 52 80 40 00 54 00 40 00 D3 00 C2 00 ; ..@.R.@.T.@.....
010478  .dc.b 3C 00 3C 00 10 00 10 00 08 00 00 00 27 40 20 00 ; <.<.........'@ .
010488  .dc.b 3E 00 3E 00 41 80 40 00 FE 00 C0 00 40 00 40 00 ; >.>.A.@.....@.@.
010498  .dc.b 50 00 40 00 28 00 20 00 22 00 00 00 0C 00 00 00 ; P.@.(. .".......
0104A8  .dc.b 00 00 00 00 00 00 00 00 00 00 00 00 00 00 00 00 ; ................
0104B8  .dc.b 00 03 00 03 00 02 00 03 01 41 01 C1 00 A8 00 D8 ; .........A......
0104C8  .dc.b 00 29 00 35 00 07 00 09 00 1F 00 19 00 BB 00 C4 ; .).5............
0104D8  .dc.b 01 E6 01 18 02 BC 03 B8 03 1E 03 00 00 1B 00 24 ; ...............$
0104E8  .dc.b 00 6D 00 5B 00 0D 00 6B 00 67 00 21 00 82 00 C4 ; .m.[...k.g.!....
0104F8  .dc.b 00 47 00 C5 00 82 00 83 00 01 00 01 00 00 00 00 ; .G..............
010508  .dc.b 00 00 00 00 00 00 00 00 00 06 00 00 00 04 00 00 ; ................
010518  .dc.b 00 00 00 00 00 22 00 00 03 25 00 20 00 0A 00 08 ; ....."...%. ....
010528  .dc.b 00 16 00 06 00 26 00 06 01 38 00 38 02 E1 00 E1 ; .....&...8.8....
010538  .dc.b 00 43 00 03 04 B9 00 19 06 58 00 18 00 24 00 24 ; .C.......X...$.$
010548  .dc.b 00 14 00 04 00 CE 00 46 00 03 00 02 00 02 00 02 ; .......F........
010558  .dc.b 00 44 00 00 00 42 00 00 00 00 00 00 00 00 00 00 ; .D...B..........
010568  .dc.b 00 00 00 00 00 00 00 00 00 00 00 00 82 00 82 00 ; ................
010578  .dc.b C4 00 46 00 82 00 46 00 CC 00 08 00 60 00 AC 00 ; ..F...F.....`...
010588  .dc.b 6C 00 B4 00 B0 00 48 00 F1 80 01 80 7A 80 3B 80 ; l.....H.....z.;.
010598  .dc.b CF 00 31 00 BA 00 46 00 F0 00 30 00 C0 00 20 00 ; ..1...F...0... .
0105A8  .dc.b 28 00 58 00 2A 00 36 00 05 00 07 00 80 00 80 00 ; (.X.*.6.........
0105B8  .dc.b 80 00 80 00 00 00 00 00 00 00 00 00 00 00 00 00 ; ................
0105C8  .dc.b 00 00 00 00 84 00 00 00 44 00 00 00 80 00 80 00 ; ........D.......
0105D8  .dc.b 80 00 80 00 E6 00 C4 00 50 00 40 00 48 00 48 00 ; ........P.@.H.H.
0105E8  .dc.b 34 C0 30 00 3A 40 30 00 84 00 80 00 0E 80 0E 00 ; 4.0.:@0.........
0105F8  .dc.b 39 00 38 00 C8 00 C0 00 D0 00 C0 00 A0 00 20 00 ; 9.8........... .
010608  .dc.b 49 80 08 00 88 00 00 00 00 00 00 00 40 00 00 00 ; I...........@...
010618  .dc.b C0 00 00 00 00 00 00 00 30 00 54 00 9C 00 46 00 ; ........0.T...F.
010628  .dc.b 18 00 03 00 00 60 00 00 38 00 7E 00 3F 00 07 80 ; .....`..8.~.?...
010638  .dc.b 00 C0 00 00 78 00 FE 00 FF 00 FF 80 3F C0 07 E0 ; ....x.......?...
010648  .dc.b 00 F0 78 00 FE 00 FF 00 FF 80 3F C0 07 E0 00 F0 ; ..x.......?.....
010658  .dc.b 00 00 44 00 38 00 26 00 07 20 00 00 00 00 00 00 ; ..D.8.&.. ......
010668  .dc.b 38 00 7E 00 1F 80 00 C0 00 00 00 00 78 00 FE 00 ; 8.~.........x...
010678  .dc.b FF 00 7F C0 3F F0 00 00 00 00 78 00 FE 00 FF 00 ; ....?.....x.....
010688  .dc.b 7F C0 3F F0 00 00 00 00 38 00 03 00 FF 20 03 00 ; ..?.....8.... ..
010698  .dc.b 38 00 00 00 00 00 00 00 7C 00 7F C0 7C 00 00 00 ; 8.......|...|...
0106A8  .dc.b 00 00 00 00 7C 00 FF 80 FF F0 FF 80 7C 00 00 00 ; ....|.......|...
0106B8  .dc.b 00 00 7C 00 FF 80 FF F0 FF 80 7C 00 00 00 00 00 ; ..|.......|.....
0106C8  .dc.b 07 20 26 00 38 00 44 00 00 00 00 00 00 00 00 C0 ; . &.8.D.........
0106D8  .dc.b 1F 80 7E 00 38 00 00 00 00 00 00 00 3F F0 7F C0 ; ..~.8.......?...
0106E8  .dc.b FF 00 FE 00 78 00 00 00 00 00 3F F0 7F C0 FF 00 ; ....x.....?.....
0106F8  .dc.b FE 00 78 00 00 00 00 00 00 60 03 00 18 00 46 00 ; ..x......`....F.
010708  .dc.b 9C 00 54 00 30 00 00 00 00 C0 07 80 3F 00 7E 00 ; ..T.0.......?.~.
010718  .dc.b 38 00 00 00 00 F0 07 E0 3F C0 FF 80 FF 00 FE 00 ; 8.......?.......
010728  .dc.b 78 00 00 F0 07 E0 3F C0 FF 80 FF 00 FE 00 78 00 ; x.....?.......x.
010738  .dc.b 00 C0 02 A0 03 90 06 20 01 80 0C 00 60 00 00 00 ; ....... ....`...
010748  .dc.b 01 C0 07 E0 0F C0 1E 00 30 00 00 00 01 E0 07 F0 ; ........0.......
010758  .dc.b 0F F0 1F F0 3F C0 7E 00 F0 00 01 E0 07 F0 0F F0 ; ....?.~.........
010768  .dc.b 1F F0 3F C0 7E 00 F0 00 00 00 02 20 01 C0 06 40 ; ..?.~...... ...@
010778  .dc.b 4E 00 00 00 00 00 00 00 01 C0 07 E0 1F 80 30 00 ; N.............0.
010788  .dc.b 00 00 00 00 01 E0 07 F0 0F F0 3F E0 FF C0 00 00 ; ..........?.....
010798  .dc.b 00 00 01 E0 07 F0 0F F0 3F E0 FF C0 00 00 00 00 ; ........?.......
0107A8  .dc.b 01 C0 0C 00 4F F0 0C 00 01 C0 00 00 00 00 00 00 ; ....O...........
0107B8  .dc.b 03 E0 3F E0 03 E0 00 00 00 00 00 00 03 E0 1F F0 ; ..?.............
0107C8  .dc.b FF F0 1F F0 03 E0 00 00 00 00 03 E0 1F F0 FF F0 ; ................
0107D8  .dc.b 1F F0 03 E0 00 00 00 00 4E 00 06 40 01 C0 02 20 ; ........N..@... 
0107E8  .dc.b 00 00 00 00 00 00 30 00 1F 80 07 E0 01 C0 00 00 ; ......0.........
0107F8  .dc.b 00 00 00 00 FF C0 3F E0 0F F0 07 F0 01 E0 00 00 ; ......?.........
010808  .dc.b 00 00 FF C0 3F E0 0F F0 07 F0 01 E0 00 00 00 00 ; ....?...........
010818  .dc.b 60 00 0C 00 01 80 06 20 03 90 02 A0 00 C0 00 00 ; `...... ........
010828  .dc.b 30 00 1E 00 0F C0 07 E0 01 C0 00 00 F0 00 7E 00 ; 0.............~.
010838  .dc.b 3F C0 1F F0 0F F0 07 F0 01 E0 F0 00 7E 00 3F C0 ; ?...........~.?.
010848  .dc.b 1F F0 0F F0 07 F0 01 E0 08 10 08 10 07 E0 0E 10 ; ................
010858  .dc.b 1E 18 3F 1C 03 C0 08 10 08 10 0B D0 0E 40 1E 40 ; ..?..........@.@
010868  .dc.b 3F C0 3C 00 08 10 00 00 03 C0 03 80 0B 80 1A 00 ; ?.<.............
010878  .dc.b 00 00 08 10 08 10 0F F0 0F F0 1F F8 3F FC 3F FC ; ............?.?.
010888  .dc.b 08 10 08 10 07 E0 0E 10 1E 18 3F 1C 03 C0 08 10 ; ..........?.....
010898  .dc.b 08 10 0B D0 0F C0 1F C0 3F C0 3C 00 08 10 00 00 ; ........?.<.....
0108A8  .dc.b 03 C0 03 80 0B 80 1A 00 00 00 08 10 08 10 0F F0 ; ................
0108B8  .dc.b 0F F0 1F F8 3F FC 3F FC 30 00 58 00 94 00 EC 00 ; ....?.?.0.X.....
0108C8  .dc.b 50 00 00 00 00 00 00 00 60 00 60 00 00 00 08 00 ; P.......`.`.....
0108D8  .dc.b 30 00 00 00 78 00 FC 00 FC 00 FC 00 FC 00 78 00 ; 0...x.........x.
0108E8  .dc.b 00 00 78 00 FC 00 FC 00 FC 00 FC 00 78 00 00 00 ; ..x.........x...
0108F8  .dc.b 48 00 E4 00 68 00 10 00 AC 00 78 00 00 00 30 00 ; H...h.....x...0.
010908  .dc.b 78 00 F4 00 EC 00 58 00 30 00 00 00 00 00 40 00 ; x.....X.0.....@.
010918  .dc.b 00 00 00 00 00 00 00 00 00 00 78 00 FC 00 FC 00 ; ..........x.....
010928  .dc.b FC 00 FC 00 78 00 00 00 7F FF 80 00 7F FF 80 00 ; ....x...........
010938  .dc.b 7F FF 00 00 00 00 00 00 7F FF FF FF 7F FF 00 00 ; ................
010948  .dc.b 00 00 00 00 7F FF FF FF FF FF FF FF 7F FF 00 00 ; ................
010958  .dc.b 00 00 7F FF FF FF FF FF FF FF 7F FF 00 00 00 00 ; ................
010968  .dc.b FF FF 00 00 FF FF 00 00 FF FF 00 00 00 00 00 00 ; ................
010978  .dc.b FF FF FF FF FF FF 00 00 00 00 00 00 FF FF FF FF ; ................
010988  .dc.b FF FF FF FF FF FF 00 00 00 00 FF FF FF FF FF FF ; ................
010998  .dc.b FF FF FF FF 00 00 00 00 FF FE 00 01 FF FE 00 01 ; ................
0109A8  .dc.b FF FE 00 00 00 00 00 00 FF FE FF FF FF FE 00 00 ; ................
0109B8  .dc.b 00 00 00 00 FF FE FF FF FF FF FF FF FF FE 00 00 ; ................
0109C8  .dc.b 00 00 FF FE FF FF FF FF FF FF FF FE 00 00 00 00 ; ................
0109D8  .dc.b 00 00 00 00 00 00 05 00 0A 80 15 40 2F A0 2F 80 ; ...........@/./.
0109E8  .dc.b 13 40 0C 80 01 00 00 00 00 00 00 00 00 00 00 00 ; .@..............
0109F8  .dc.b 00 00 00 00 00 00 00 00 05 00 0F 80 1F C0 1F C0 ; ................
010A08  .dc.b 0F 80 03 00 00 00 00 00 00 00 00 00 00 00 00 00 ; ................
010A18  .dc.b 00 00 00 00 00 00 0F 80 1F C0 3F E0 3F E0 3F E0 ; ..........?.?.?.
010A28  .dc.b 3F C0 1F C0 0F 80 00 00 00 00 00 00 00 00 00 00 ; ?...............
010A38  .dc.b 00 00 00 00 00 00 0F 80 1F C0 3F E0 3F E0 3F E0 ; ..........?.?.?.
010A48  .dc.b 3F C0 1F C0 0F 80 00 00 00 00 00 00 00 00 00 00 ; ?...............
010A58  .dc.b 00 00 00 00 00 80 20 00 26 80 05 00 3E 90 2B 80 ; ...... .&...>.+.
010A68  .dc.b 15 00 0C 00 11 40 00 00 00 00 00 00 00 00 00 00 ; .....@..........
010A78  .dc.b 00 00 00 00 00 00 01 00 19 00 1E C0 0F E0 1F 40 ; ...............@
010A88  .dc.b 0B 80 03 80 00 00 00 00 00 00 00 00 00 00 00 00 ; ................
010A98  .dc.b 00 00 00 80 61 80 3B 80 3F C0 7F F0 7F F8 3F E0 ; ....a.;.?.....?.
010AA8  .dc.b 3F 80 1F C0 1D C0 10 60 00 00 00 00 00 00 00 00 ; ?......`........
010AB8  .dc.b 00 00 00 80 61 80 3B 80 3F C0 7F F0 7F F8 3F E0 ; ....a.;.?.....?.
010AC8  .dc.b 3F 80 1F C0 1D C0 10 60 00 00 00 00 00 00 00 00 ; ?......`........
010AD8  .dc.b 00 00 00 00 00 80 00 80 20 00 28 60 21 90 02 40 ; ........ .(`!..@
010AE8  .dc.b 1D 00 04 80 09 40 10 40 00 00 00 00 00 00 00 00 ; .....@.@........
010AF8  .dc.b 00 00 00 00 00 00 21 00 19 00 10 80 06 60 07 00 ; ......!......`..
010B08  .dc.b 00 00 08 00 10 80 00 00 00 00 00 00 00 00 00 00 ; ................
010B18  .dc.b 00 40 C0 C0 61 80 7B 80 3F C0 7D F0 3F FC 0F E0 ; .@..a.{.?.}.?...
010B28  .dc.b 1F 00 3D C0 1D C0 38 E0 20 40 00 00 00 00 00 00 ; ..=...8. @......
010B38  .dc.b 00 40 C0 C0 61 80 7B 80 3F C0 7D F0 3F FC 0F E0 ; .@..a.{.?.}.?...
010B48  .dc.b 1F 00 3D C0 1D C0 38 E0 20 40 00 00 00 00 00 00 ; ..=...8. @......
010B58  .dc.b 00 00 00 00 00 80 60 80 08 00 20 10 02 28 01 00 ; ......`... ..(..
010B68  .dc.b 00 00 00 00 08 C0 00 40 20 00 00 00 00 00 00 00 ; .......@ .......
010B78  .dc.b 00 00 00 00 00 00 00 00 10 00 00 00 00 10 00 00 ; ................
010B88  .dc.b 01 00 00 00 10 00 00 00 00 00 00 00 00 00 00 00 ; ................
010B98  .dc.b 00 20 00 80 60 C0 F9 C0 58 80 34 38 02 7C 49 20 ; . ..`...X.48.|I 
010BA8  .dc.b 03 00 18 40 1C C0 28 E0 30 60 20 00 00 00 00 00 ; ...@..(.0` .....
010BB8  .dc.b 00 20 00 80 60 C0 F9 C0 58 80 34 38 02 7C 49 20 ; . ..`...X.48.|I 
010BC8  .dc.b 03 00 18 40 1C C0 28 E0 30 60 20 00 00 00 00 00 ; ...@..(.0` .....
010BD8  .dc.b 00 00 00 00 40 40 00 00 00 00 00 00 00 28 00 00 ; ....@@.......(..
010BE8  .dc.b 00 00 00 00 00 00 30 00 00 00 00 00 00 00 00 00 ; ......0.........
010BF8  .dc.b 00 00 00 00 00 00 00 00 00 00 00 00 00 00 00 00 ; ................
010C08  .dc.b 00 00 00 00 00 00 00 00 00 00 00 00 00 00 00 00 ; ................
010C18  .dc.b 00 00 40 40 E0 C0 40 40 00 00 10 28 00 2C 40 00 ; ..@@..@@...(.,@.
010C28  .dc.b 01 00 00 80 10 00 38 00 60 10 40 30 00 00 00 00 ; ......8.`.@0....
010C38  .dc.b 00 00 40 40 E0 C0 40 40 00 00 10 28 00 2C 40 00 ; ..@@..@@...(.,@.
010C48  .dc.b 01 00 00 80 10 00 38 00 60 10 40 30 00 00 00 00 ; ......8.`.@0....
010C58  .dc.b 00 00 00 00 00 18 00 04 00 74 00 CA 02 34 67 FC ; .........t...4g.
010C68  .dc.b 02 34 00 CA 00 74 00 04 00 18 00 00 00 00 00 00 ; .4...t..........
010C78  .dc.b 00 00 00 00 00 00 00 08 00 08 00 34 01 FE 1F FE ; ...........4....
010C88  .dc.b 01 FE 00 34 00 08 00 08 00 00 00 00 00 00 00 00 ; ...4............
010C98  .dc.b 00 20 00 10 00 18 00 AC 00 7C 01 FE 0F FE FF FE ; . .......|......
010CA8  .dc.b 0F FE 01 FE 00 7C 00 AC 00 18 00 10 00 20 00 00 ; .....|....... ..
010CB8  .dc.b 00 20 00 10 00 18 00 AC 00 7C 01 FE 0F FE FF FE ; . .......|......
010CC8  .dc.b 0F FE 01 FE 00 7C 00 AC 00 18 00 10 00 20 00 00 ; .....|....... ..
010CD8  .dc.b 00 00 00 00 30 00 40 00 5C 00 A6 00 58 80 7F CC ; ....0.@.\...X...
010CE8  .dc.b 58 80 A6 00 5C 00 40 00 30 00 00 00 00 00 00 00 ; X...\.@.0.......
010CF8  .dc.b 00 00 00 00 00 00 20 00 20 00 58 00 FF 00 FF F0 ; ...... . .X.....
010D08  .dc.b FF 00 58 00 20 00 20 00 00 00 00 00 00 00 00 00 ; ..X. . .........
010D18  .dc.b 08 00 10 00 30 00 6A 00 7C 00 FF 00 FF E0 FF FE ; ....0.j.|.......
010D28  .dc.b FF E0 FF 00 7C 00 6A 00 30 00 10 00 08 00 00 00 ; ....|.j.0.......
010D38  .dc.b 08 00 10 00 30 00 6A 00 7C 00 FF 00 FF E0 FF FE ; ....0.j.|.......
010D48  .dc.b FF E0 FF 00 7C 00 6A 00 30 00 10 00 08 00 00 00 ; ....|.j.0.......
010D58  .dc.b 46 00 68 B0 46 00 68 C0 76 2C 68 D0 43 00 69 80 ; F.h.F.h.v,h.C.i.
010D68  .dc.b 7A 2C 69 A0 4D 00 61 80 7A 2C 70 C0 6B 00 74 80 ; z,i.M.a.z,p.k.t.
010D78  .dc.b F8 00 FF 40 F8 00 F7 00 FD D0 FF 00 FC 00 F6 00 ; ...@............
010D88  .dc.b FF D0 FE 00 F0 00 FE 00 FF D0 FF 00 F4 00 FF 00 ; ................
010D98  .dc.b FF 80 FF FC FF A0 FF F0 FF FF FF FC FF A0 FF E8 ; ................
010DA8  .dc.b FF FF FF F8 FF C0 FF E8 FF FF FF F8 FF C0 FF E8 ; ................
010DB8  .dc.b FF 80 FF FC FF A0 FF F0 FF FF FF FC FF A0 FF E8 ; ................
010DC8  .dc.b FF FF FF F8 FF C0 FF E8 FF FF FF F8 FF C0 FF E8 ; ................
010DD8  .dc.b 6B 40 70 E0 4A 2C 61 80 4B 00 69 A0 5A 2C 65 80 ; k@p.J,a.K.i.Z,e.
010DE8  .dc.b 43 00 68 D0 76 28 60 C0 42 00 68 B8 56 00 68 D0 ; C.h.v(`.B.h.V.h.
010DF8  .dc.b F4 00 FF 00 FF D0 FE 00 F4 00 FE 00 FF D0 FA 00 ; ................
010E08  .dc.b FC 00 FF 00 FD D0 FF 00 FC 00 FF 40 E8 00 FF 00 ; ...........@....
010E18  .dc.b FF F0 FF FC FF FF FF E8 FF D0 FF F8 FF FE FF E8 ; ................
010E28  .dc.b FF B0 FF FC FF FC FF F0 FF A0 FF FE FF C0 FF F8 ; ................
010E38  .dc.b FF F0 FF FC FF FF FF E8 FF D0 FF F8 FF FE FF E8 ; ................
010E48  .dc.b FF B0 FF FC FF FC FF F0 FF A0 FF FE FF C0 FF F8 ; ................
010E58  .dc.b 00 62 0D 16 00 62 03 16 34 6E 0B 16 00 C2 01 96 ; .b...b..4n......
010E68  .dc.b 34 5E 05 96 00 B2 01 86 34 5E 03 0E 00 D6 01 2E ; 4^......4^......
010E78  .dc.b 00 1F 02 FF 00 1F 00 EF 0B BF 00 FF 00 3F 00 6F ; .............?.o
010E88  .dc.b 0B FF 00 7F 00 0F 00 7F 0B FF 00 FF 00 2F 00 FF ; ............./..
010E98  .dc.b 01 FF 3F FF 05 FF 0F FF FF FF 3F FF 05 FF 17 FF ; ..?.......?.....
010EA8  .dc.b FF FF 1F FF 03 FF 17 FF FF FF 1F FF 03 FF 17 FF ; ................
010EB8  .dc.b 01 FF 3F FF 05 FF 0F FF FF FF 3F FF 05 FF 17 FF ; ..?.......?.....
010EC8  .dc.b FF FF 1F FF 03 FF 17 FF FF FF 1F FF 03 FF 17 FF ; ................
010ED8  .dc.b 02 D6 07 0E 34 52 01 86 00 D2 05 96 34 5A 01 A6 ; ....4R......4Z..
010EE8  .dc.b 00 C2 0B 16 14 6E 03 06 00 42 1D 16 00 6A 0B 16 ; .....n...B...j..
010EF8  .dc.b 00 2F 00 FF 0B FF 00 7F 00 2F 00 7F 0B FF 00 5F ; ./......./....._
010F08  .dc.b 00 3F 00 FF 0B BF 00 FF 00 3F 02 FF 00 17 00 FF ; .?.......?......
010F18  .dc.b 0F FF 3F FF FF FF 17 FF 0B FF 1F FF 7F FF 17 FF ; ..?.............
010F28  .dc.b 0D FF 3F FF 3F FF 0F FF 05 FF 7F FF 03 FF 1F FF ; ..?.?...........
010F38  .dc.b 0F FF 3F FF FF FF 17 FF 0B FF 1F FF 7F FF 17 FF ; ..?.............
010F48  .dc.b 0D FF 3F FF 3F FF 0F FF 05 FF 7F FF 03 FF 1F FF ; ..?.?...........
010F58  .dc.b FF FE FF FC FD 2E F4 BE D2 FA CB EA EF A2 FE 8A ; ................
010F68  .dc.b FA 2E E8 BE E2 F6 CB D6 EF 56 FD 5E BF FE 00 00 ; .........V.^....
010F78  .dc.b FF FF FF FE FE 1C F8 7C E1 FC C7 F0 DF C0 FF 04 ; .......|........
010F88  .dc.b FC 1C F0 7C C1 F8 C7 E0 DF 8C FE 3C C0 00 80 00 ; ...|.......<....
010F98  .dc.b FF FE 80 00 98 04 A0 1C 80 70 81 C0 87 00 9C 00 ; .........p......
010FA8  .dc.b B0 04 80 18 80 60 81 80 86 00 98 0C 80 00 00 00 ; .....`..........
010FB8  .dc.b FF FF FF FF FF FF FF FF FF FF FF FF FF FF FF FF ; ................
010FC8  .dc.b FF FF FF FF FF FF FF FF FF FF FF FF FF FF FF FF ; ................
010FD8  .dc.b 03 C0 0F B8 3C 04 77 A2 EA 02 D0 88 C2 50 81 08 ; ....<.w......P..
010FE8  .dc.b 82 50 90 8A 42 02 45 A4 10 08 0C 30 00 00 00 00 ; .P..B.E....0....
010FF8  .dc.b 07 E0 1F F0 3F F8 78 1C 71 8C E3 06 E4 26 E0 F6 ; ....?.x.q....&..
011008  .dc.b E4 26 E3 0C F1 8C 78 38 2F F0 13 C0 00 00 00 00 ; .&....x8/.......
011018  .dc.b 00 00 0F 00 10 00 21 C0 07 F0 0F F0 1F F8 1F F8 ; ......!.........
011028  .dc.b 1F F8 0F F0 0F F0 03 C0 00 00 00 00 00 00 00 00 ; ................
011038  .dc.b 07 E0 1F F8 3F FC 7F FE FF FF FF FF FF FF FF FF ; ....?...........
011048  .dc.b FF FF FF FF FF FF 7F FE 3F FC 1F F8 07 E0 00 00 ; ........?.......
011058  .dc.b 03 C0 0F B8 3C 04 74 22 E0 02 D0 08 C4 20 97 E8 ; ....<.t"..... ..
011068  .dc.b 84 20 90 0A 40 02 44 24 10 08 0C 30 00 00 00 00 ; . ..@.D$...0....
011078  .dc.b 07 E0 1F F0 3F F8 78 1C 70 0C E0 06 E3 C6 EF F6 ; ....?.x.p.......
011088  .dc.b E3 C6 E0 04 F0 0C 78 18 2F F0 13 C0 00 00 00 00 ; ......x./.......
011098  .dc.b 00 00 0F 00 10 00 20 00 00 00 00 00 0F F0 1F F8 ; ...... .........
0110A8  .dc.b 0F F0 00 00 00 00 00 00 00 00 00 00 00 00 00 00 ; ................
0110B8  .dc.b 07 E0 1F F8 3F FC 7F FE FF FF FF FF FF FF FF FF ; ....?...........
0110C8  .dc.b FF FF FF FF FF FF 7F FE 3F FC 1F F8 07 E0 00 00 ; ........?.......
0110D8  .dc.b 03 C0 0F B8 3C 04 74 22 E0 42 D1 88 C1 00 87 E0 ; ....<.t".B......
0110E8  .dc.b 80 80 91 8A 42 02 44 24 10 08 0C 30 00 00 00 00 ; ....B.D$...0....
0110F8  .dc.b 07 E0 1F F0 3F F8 78 1C 70 4C E0 86 E3 06 E7 E6 ; ....?.x.pL......
011108  .dc.b E0 C6 E1 04 F2 0C 78 18 2F F0 13 C0 00 00 00 00 ; ......x./.......
011118  .dc.b 00 00 0F 00 10 00 20 00 00 C0 01 80 03 00 07 E0 ; ...... .........
011128  .dc.b 00 C0 01 80 03 00 00 00 00 00 00 00 00 00 00 00 ; ................
011138  .dc.b 07 E0 1F F8 3F FC 7F FE FF FF FF FF FF FF FF FF ; ....?...........
011148  .dc.b FF FF FF FF FF FF 7F FE 3F FC 1F F8 07 E0 00 00 ; ........?.......
011158  .dc.b 03 80 0F 70 3C 08 74 44 E0 04 D3 90 C5 40 87 C0 ; ...p<.tD.....@..
011168  .dc.b 85 40 93 94 40 04 44 48 10 10 0C 60 00 00 00 00 ; .@..@.DH...`....
011178  .dc.b 07 C0 1F E0 3F F0 78 38 71 18 E1 0C E3 8C EF EC ; ....?.x8q.......
011188  .dc.b E3 8C E1 08 F1 18 78 30 2F E0 13 80 00 00 00 00 ; ......x0/.......
011198  .dc.b 00 00 0E 00 10 00 21 00 01 00 03 80 07 C0 1F F0 ; ......!.........
0111A8  .dc.b 07 C0 03 80 01 00 01 00 00 00 00 00 00 00 00 00 ; ................
0111B8  .dc.b 07 C0 1F F0 3F F8 7F FC FF FE FF FE FF FE FF FE ; ....?...........
0111C8  .dc.b FF FE FF FE FF FE 7F FC 3F F8 1F F0 07 C0 00 00 ; ........?.......
0111D8  .dc.b 03 C0 0F B8 3C 04 74 22 E0 02 D0 08 C0 00 80 00 ; ....<.t"........
0111E8  .dc.b 80 00 90 0A 40 02 44 24 10 08 0C 30 00 00 00 00 ; ....@.D$...0....
0111F8  .dc.b 07 E0 1F F0 3F F8 7F FC 7C 3C FC 9E FC 9E FC 3E ; ....?...|<.....>
011208  .dc.b FC FE FC FC FC FC 7F F8 2F F0 13 C0 00 00 00 00 ; ......../.......
011218  .dc.b 00 00 0F 00 10 00 23 C0 0F F0 0F F0 1F F8 1F F8 ; ......#.........
011228  .dc.b 1F F8 0F F0 0F F0 03 C0 00 00 00 00 00 00 00 00 ; ................
011238  .dc.b 07 E0 1F F8 3F FC 7F FE FF FF FF FF FF FF FF FF ; ....?...........
011248  .dc.b FF FF FF FF FF FF 7F FE 3F FC 1F F8 07 E0 00 00 ; ........?.......
011258  .dc.b 03 C0 0F B8 3C 04 77 E2 EC 32 D9 98 D9 F8 99 18 ; ....<.w..2......
011268  .dc.b 99 98 99 9A 4C 32 47 E4 10 08 0C 30 00 00 00 00 ; ....L2G....0....
011278  .dc.b 07 E0 1F F0 3F F8 7F FC 7C 3C F9 9E F9 FE F9 1E ; ....?...|<......
011288  .dc.b F9 9E F9 9C FC 3C 7F F8 2F F0 13 C0 00 00 00 00 ; .....<../.......
011298  .dc.b 00 00 0F 00 10 00 23 C0 0F F0 0F F0 1F F8 1F F8 ; ......#.........
0112A8  .dc.b 1F F8 0F F0 0F F0 03 C0 00 00 00 00 00 00 00 00 ; ................
0112B8  .dc.b 07 E0 1F F8 3F FC 7F FE FF FF FF FF FF FF FF FF ; ....?...........
0112C8  .dc.b FF FF FF FF FF FF 7F FE 3F FC 1F F8 07 E0 00 00 ; ........?.......
0112D8  .dc.b 03 C0 0F B8 3C 04 77 E2 EB D2 D9 98 D8 18 99 98 ; ....<.w.........
0112E8  .dc.b 99 98 99 9A 49 92 47 E4 10 08 0C 30 00 00 00 00 ; ....I.G....0....
0112F8  .dc.b 07 E0 1F F0 3F F8 7F FC 7B DC F9 9E F8 1E F9 9E ; ....?...{.......
011308  .dc.b F9 9E F9 9C F9 9C 7F F8 2F F0 13 C0 00 00 00 00 ; ......../.......
011318  .dc.b 00 00 0F 00 10 00 23 C0 0F F0 0F F0 1F F8 1F F8 ; ......#.........
011328  .dc.b 1F F8 0F F0 0F F0 03 C0 00 00 00 00 00 00 00 00 ; ................
011338  .dc.b 07 E0 1F F8 3F FC 7F FE FF FF FF FF FF FF FF FF ; ....?...........
011348  .dc.b FF FF FF FF FF FF 7F FE 3F FC 1F F8 07 E0 00 00 ; ........?.......
011358  .dc.b 03 C0 0F B8 3C 04 77 E2 EC F2 DC F8 DC F8 9C F8 ; ....<.w.........
011368  .dc.b 9C F8 9C FA 4C 32 47 E4 10 08 0C 30 00 00 00 00 ; ....L2G....0....
011378  .dc.b 07 E0 1F F0 3F F8 7F FC 7C FC FC FE FC FE FC FE ; ....?...|.......
011388  .dc.b FC FE FC FC FC 3C 7F F8 2F F0 13 C0 00 00 00 00 ; .....<../.......
011398  .dc.b 00 00 0F 00 10 00 23 C0 0F F0 0F F0 1F F8 1F F8 ; ......#.........
0113A8  .dc.b 1F F8 0F F0 0F F0 03 C0 00 00 00 00 00 00 00 00 ; ................
0113B8  .dc.b 07 E0 1F F8 3F FC 7F FE FF FF FF FF FF FF FF FF ; ....?...........
0113C8  .dc.b FF FF FF FF FF FF 7F FE 3F FC 1F F8 07 E0 00 00 ; ........?.......
0113D8  .dc.b 00 00 00 00 08 24 15 A8 06 00 28 C0 17 20 03 A8 ; .....$....(.. ..
0113E8  .dc.b 17 98 0B A8 0C 48 22 00 04 A0 00 10 00 00 00 00 ; .....H".........
0113F8  .dc.b 00 00 00 00 00 00 00 00 09 50 07 60 0F D0 07 F0 ; .........P.`....
011408  .dc.b 0F E0 07 D0 17 E0 0C B0 00 08 00 00 00 00 00 00 ; ................
011418  .dc.b 00 00 44 42 3D 24 1F B8 1F F2 7F F4 3F FC 8F FA ; ..DB=$......?...
011428  .dc.b 1F FC 2F FE 1F F8 7F FA 3E B8 24 54 41 20 10 00 ; ../.....>.$TA ..
011438  .dc.b 00 00 44 42 3D 24 1F B8 1F F2 7F F4 3F FC 8F FA ; ..DB=$......?...
011448  .dc.b 1F FC 2F FE 1F F8 7F FA 3E B8 24 54 41 20 10 00 ; ../.....>.$TA ..
011458  .dc.b 00 00 00 00 00 00 00 00 08 80 07 20 09 40 08 20 ; ........... .@. 
011468  .dc.b 03 60 08 90 05 20 0B 00 00 00 00 00 00 00 00 00 ; .`... ..........
011478  .dc.b 00 00 00 00 00 00 00 00 00 00 00 00 06 80 07 C0 ; ................
011488  .dc.b 0F 80 07 40 02 80 00 00 00 00 00 00 00 00 00 00 ; ...@............
011498  .dc.b 00 00 01 00 04 20 01 80 5B D0 0F E4 1F F0 4F FC ; ..... ..[.....O.
0114A8  .dc.b 1F F0 3F F8 0F F0 1F A0 4B 12 01 00 04 40 00 00 ; ..?.....K....@..
0114B8  .dc.b 00 00 01 00 04 20 01 80 5B D0 0F E4 1F F0 4F FC ; ..... ..[.....O.
0114C8  .dc.b 1F F0 3F F8 0F F0 1F A0 4B 12 01 00 04 40 00 00 ; ..?.....K....@..
0114D8  .dc.b 00 7A 00 00 00 9C 00 00 06 81 10 00 01 78 C0 00 ; .z...........x..
0114E8  .dc.b 0A 80 50 00 25 08 24 00 9D 4C 39 00 BD 72 3D 00 ; ..P.%.$..L9..r=.
0114F8  .dc.b 5C 26 3A 00 14 09 28 00 06 12 60 00 03 00 C0 00 ; \&:...(...`.....
011508  .dc.b 08 81 00 00 00 7E 00 00 00 00 00 00 00 3C 00 00 ; .....~.......<..
011518  .dc.b 00 E3 00 00 0F 00 E0 00 02 7E 00 00 04 C3 20 00 ; .........~.... .
011528  .dc.b 1D B1 B8 00 7D 30 BE 00 7D 00 BE 00 3D 00 BC 00 ; ....}0..}...=...
011538  .dc.b 0D 85 B0 00 00 CB 00 00 00 7E 00 00 07 00 00 00 ; .........~......
011548  .dc.b 00 80 00 00 00 40 00 00 00 00 00 00 00 00 00 00 ; .....@..........
011558  .dc.b 00 00 00 00 00 00 00 00 00 3C 00 00 00 7E 00 00 ; .........<...~..
011568  .dc.b 04 FF 20 00 0C FF 30 00 04 FF 20 00 00 7E 00 00 ; .. ...0... ..~..
011578  .dc.b 00 3C 00 00 00 00 00 00 00 00 00 00 00 00 00 00 ; .<..............
011588  .dc.b 00 00 00 00 00 7E 00 00 00 FF 00 00 0F FF F0 00 ; .....~..........
011598  .dc.b 03 FF C0 00 0F FF F0 00 3F FF FC 00 FF FF FF 00 ; ........?.......
0115A8  .dc.b FF FF FF 00 FF FF FF 00 3F FF FC 00 0F FF F0 00 ; ........?.......
0115B8  .dc.b 03 FF C0 00 0F FF F0 00 00 FF 00 00 00 7E 00 00 ; .............~..
0115C8  .dc.b 00 01 00 00 00 03 A0 00 00 0F 98 00 00 3F CE 00 ; .............?..
0115D8  .dc.b 00 FF C3 80 03 FF E1 E0 0F FF E0 78 7F F8 1E 00 ; ...........x....
0115E8  .dc.b 0E 07 E0 48 03 87 E1 20 00 C3 C2 80 00 33 CA 00 ; ...H... .....3..
0115F8  .dc.b 00 09 98 00 00 01 A0 00 00 00 00 00 00 01 80 00 ; ................
011608  .dc.b 00 07 C0 00 00 1F E0 00 00 7F F0 00 01 FF FC 00 ; ................
011618  .dc.b 07 FF FE 00 1F FF FF 80 7F FF E0 00 1F F8 00 30 ; ...............0
011628  .dc.b 07 F8 00 C0 01 FC 01 00 00 7C 04 00 00 1E 00 00 ; .........|......
011638  .dc.b 00 06 00 00 00 01 00 00 00 00 00 00 00 02 00 00 ; ................
011648  .dc.b 00 06 00 00 00 0C 00 00 00 3C 00 00 00 78 00 00 ; .........<...x..
011658  .dc.b 01 F8 00 00 3E 00 00 00 00 00 00 00 00 00 00 00 ; ....>...........
011668  .dc.b 00 00 00 00 00 00 00 00 00 00 00 00 00 00 00 00 ; ................
011678  .dc.b 00 00 00 00 00 01 80 00 00 07 E0 00 00 1F F8 00 ; ................
011688  .dc.b 00 7F FE 00 01 FF FF 80 07 FF FF E0 1F FF FF F8 ; ................
011698  .dc.b 7F FF FF FE 1F FF FF F8 07 FF FF E0 01 FF FF 80 ; ................
0116A8  .dc.b 00 7F FE 00 00 1F F8 00 00 07 E0 00 00 01 80 00 ; ................
0116B8  .dc.b 00 F0 00 00 01 98 00 00 03 0C 00 00 06 06 00 00 ; ................
0116C8  .dc.b 0C 03 00 00 18 01 80 00 30 00 C0 00 60 00 60 00 ; ........0...`.`.
0116D8  .dc.b C0 00 20 00 C0 00 20 00 C0 00 20 00 C0 00 20 00 ; .. ... ... ... .
0116E8  .dc.b C0 00 20 00 C0 00 20 00 C0 00 20 00 C0 00 20 00 ; .. ... ... ... .
0116F8  .dc.b C0 00 60 00 30 01 80 00 00 00 00 00 00 E0 00 00 ; ..`.0...........
011708  .dc.b 01 E0 00 00 03 F0 00 00 07 F8 00 00 0F FC 00 00 ; ................
011718  .dc.b 1F FE 00 00 3F FF 00 00 7F FF 80 00 FF FF C0 00 ; ....?...........
011728  .dc.b FF FF C0 00 FF FF C0 00 FF FF C0 00 FF FF C0 00 ; ................
011738  .dc.b FF FF C0 00 FF FF C0 00 FF FF C0 00 FF FF 80 00 ; ................
011748  .dc.b 0F FE 00 00 00 00 00 00 00 80 00 00 01 00 00 00 ; ................
011758  .dc.b 02 00 00 00 04 60 00 00 08 E0 00 00 10 60 00 00 ; .....`.......`..
011768  .dc.b 20 60 00 00 40 60 00 00 80 F0 00 00 80 00 00 00 ;  `..@`..........
011778  .dc.b 99 9F 00 00 99 99 80 00 99 99 80 00 99 9F 00 00 ; ................
011788  .dc.b 99 98 00 00 99 98 00 00 0F 18 00 00 00 00 00 00 ; ................
011798  .dc.b 00 00 00 00 00 F0 00 00 01 F8 00 00 03 FC 00 00 ; ................
0117A8  .dc.b 07 FE 00 00 0F FF 00 00 1F FF 80 00 3F FF C0 00 ; ............?...
0117B8  .dc.b 7F FF E0 00 FF FF F0 00 FF FF F0 00 FF FF F0 00 ; ................
0117C8  .dc.b FF FF F0 00 FF FF F0 00 FF FF F0 00 FF FF F0 00 ; ................
0117D8  .dc.b FF FF F0 00 FF FF F0 00 3F FF C0 00 0F FF 00 00 ; ........?.......
0117E8  .dc.b 00 00 00 00 00 00 00 00 00 00 00 00 00 00 00 00 ; ................
0117F8  .dc.b 00 00 00 00 00 00 00 00 00 00 00 00 00 00 00 00 ; ................
011808  .dc.b 00 00 00 00 00 00 00 00 00 01 00 00 00 03 C0 00 ; ................
011818  .dc.b 00 0C 30 00 00 31 90 00 00 6B D8 00 00 37 CC 00 ; ..0..1...k...7..
011828  .dc.b 00 37 E8 00 00 6B CC 00 00 38 18 00 00 07 30 00 ; .7...k...8....0.
011838  .dc.b 00 02 C0 00 00 00 00 00 00 00 00 00 00 00 00 00 ; ................
011848  .dc.b 00 00 00 00 00 00 00 00 00 00 00 00 00 00 00 00 ; ................
011858  .dc.b 00 00 00 00 00 00 00 00 00 00 00 00 00 00 00 00 ; ................
011868  .dc.b 00 00 00 00 00 00 00 00 00 00 00 00 00 00 00 00 ; ................
011878  .dc.b 00 00 00 00 00 00 00 00 00 00 00 00 00 00 00 00 ; ................
011888  .dc.b 00 00 00 00 00 00 00 00 00 00 00 00 00 00 00 00 ; ................
011898  .dc.b 00 03 C0 00 00 0F E0 00 00 17 E0 00 00 0F F0 00 ; ................
0118A8  .dc.b 00 0F F0 00 00 17 F0 00 00 07 E0 00 00 00 C0 00 ; ................
0118B8  .dc.b 00 00 00 00 00 00 00 00 00 00 00 00 00 00 00 00 ; ................
0118C8  .dc.b 00 00 00 00 00 00 00 00 00 00 00 00 00 00 00 00 ; ................
0118D8  .dc.b 00 00 00 00 00 00 00 00 00 00 00 00 00 00 00 00 ; ................
0118E8  .dc.b 00 00 00 00 00 00 00 00 00 00 00 00 00 00 00 00 ; ................
0118F8  .dc.b 00 00 00 00 00 00 00 00 00 00 00 00 00 00 00 00 ; ................
011908  .dc.b 00 00 00 00 00 03 80 00 00 0F E0 00 00 1F F8 00 ; ................
011918  .dc.b 00 7F FC 00 00 FF FC 00 00 FF FE 00 00 FF FE 00 ; ................
011928  .dc.b 00 7F FE 00 00 7F FE 00 00 FF FC 00 00 3F FC 00 ; .............?..
011938  .dc.b 00 0F F0 00 00 03 E0 00 00 00 00 00 00 00 00 00 ; ................
011948  .dc.b 00 00 00 00 00 00 00 00 00 00 00 00 00 00 00 00 ; ................
011958  .dc.b 00 00 00 00 00 00 00 00 00 00 00 00 00 00 00 00 ; ................
011968  .dc.b 00 00 00 00 00 00 00 00 00 00 00 00 00 00 00 00 ; ................
011978  .dc.b 00 00 00 00 00 00 00 00 00 00 00 00 00 00 00 00 ; ................
011988  .dc.b 00 00 00 00 00 03 80 00 00 0F E0 00 00 1F F8 00 ; ................
011998  .dc.b 00 7F FC 00 00 FF FC 00 00 FF FE 00 00 FF FE 00 ; ................
0119A8  .dc.b 00 7F FE 00 00 7F FE 00 00 FF FC 00 00 3F FC 00 ; .............?..
0119B8  .dc.b 00 0F F0 00 00 03 E0 00 00 00 00 00 00 00 00 00 ; ................
0119C8  .dc.b 00 00 00 00 00 00 00 00 00 00 00 00 00 00 00 00 ; ................
0119D8  .dc.b 00 00 00 00 00 00 00 00 00 00 00 00 00 00 00 00 ; ................
0119E8  .dc.b 00 00 00 00 00 00 00 00 00 00 00 00 00 00 00 00 ; ................
0119F8  .dc.b 00 00 00 00 00 00 00 00 00 00 00 00 00 00 00 00 ; ................
011A08  .dc.b 00 00 1A 00 00 30 33 00 00 DC E4 80 01 2B 53 00 ; .....03......+S.
011A18  .dc.b 00 AC 83 80 00 20 58 00 00 35 FC 80 00 57 9C C0 ; ..... X..5...W..
011A28  .dc.b 03 CF 81 C0 07 54 3B 00 01 0E 80 00 00 F4 EC 00 ; .....T;.........
011A38  .dc.b 00 02 E3 00 00 03 04 00 00 01 38 00 00 00 D0 00 ; ..........8.....
011A48  .dc.b 00 00 00 00 00 00 00 00 00 00 00 00 00 00 00 00 ; ................
011A58  .dc.b 00 00 00 00 00 00 00 00 00 00 00 00 00 00 00 00 ; ................
011A68  .dc.b 00 00 00 00 00 00 00 00 00 00 00 00 00 00 00 00 ; ................
011A78  .dc.b 00 00 00 00 00 00 00 00 00 00 00 00 00 00 00 00 ; ................
011A88  .dc.b 00 00 00 00 00 00 0C 00 00 20 1F 00 00 F4 AC 00 ; ......... ......
011A98  .dc.b 00 7B 7C 00 00 1F FF 00 00 0F FF 00 00 2F FF 00 ; .{|........../..
011AA8  .dc.b 00 3F FE 00 00 FF E4 00 00 F1 FC 00 00 03 F0 00 ; .?..............
011AB8  .dc.b 00 01 FC 00 00 00 F8 00 00 00 C0 00 00 00 00 00 ; ................
011AC8  .dc.b 00 00 00 00 00 00 00 00 00 00 00 00 00 00 00 00 ; ................
011AD8  .dc.b 00 00 00 00 00 00 00 00 00 00 00 00 00 00 00 00 ; ................
011AE8  .dc.b 00 00 00 00 00 00 00 00 00 00 00 00 00 00 00 00 ; ................
011AF8  .dc.b 00 00 00 00 00 00 00 00 00 00 00 00 00 00 1E 00 ; ................
011B08  .dc.b 00 73 7F 80 01 FC FF C0 03 FF FF C0 03 FF FF 80 ; .s..............
011B18  .dc.b 01 FF FF 80 00 FF FF C0 01 7F FF E0 07 FF FF E0 ; ................
011B28  .dc.b 0F FF FF E0 0F FF FF C0 07 FF FE 00 03 FF FF 80 ; ................
011B38  .dc.b 00 F7 FF 80 00 0B FF 00 00 3F FE 00 00 1B FC 00 ; .........?......
011B48  .dc.b 00 01 E0 00 00 00 00 00 00 00 00 00 00 00 00 00 ; ................
011B58  .dc.b 00 00 00 00 00 00 00 00 00 00 00 00 00 00 00 00 ; ................
011B68  .dc.b 00 00 00 00 00 00 00 00 00 00 00 00 00 00 00 00 ; ................
011B78  .dc.b 00 00 00 00 00 00 00 00 00 00 00 00 00 00 1E 00 ; ................
011B88  .dc.b 00 73 7F 80 01 FC FF C0 03 FF FF C0 03 FF FF 80 ; .s..............
011B98  .dc.b 01 FF FF 80 00 FF FF C0 01 7F FF E0 07 FF FF E0 ; ................
011BA8  .dc.b 0F FF FF E0 0F FF FF C0 07 FF FE 00 03 FF FF 80 ; ................
011BB8  .dc.b 00 F7 FF 80 00 0B FF 00 00 3F FE 00 00 1B FC 00 ; .........?......
011BC8  .dc.b 00 01 E0 00 00 00 00 00 00 00 00 00 00 00 00 00 ; ................
011BD8  .dc.b 00 00 00 00 00 00 00 00 00 00 00 00 00 00 00 00 ; ................
011BE8  .dc.b 00 00 00 00 00 00 00 00 00 00 00 00 00 00 00 00 ; ................
011BF8  .dc.b 00 00 00 00 00 00 00 00 00 00 00 00 00 01 B6 00 ; ................
011C08  .dc.b 00 06 61 80 01 A2 0C 80 06 50 CD 80 01 29 83 00 ; ..a......P...)..
011C18  .dc.b 04 96 26 00 01 40 8A 00 00 0F 25 00 00 6F 22 80 ; ..&..@....%..o".
011C28  .dc.b 00 C2 4B 60 06 22 A7 40 04 94 09 80 01 99 57 00 ; ..K`.".@......W.
011C38  .dc.b 05 26 18 00 04 62 42 00 01 84 D9 80 00 02 27 80 ; .&...bB.......'.
011C48  .dc.b 00 01 E2 00 00 00 00 00 00 00 00 00 00 00 00 00 ; ................
011C58  .dc.b 00 00 00 00 00 00 00 00 00 00 00 00 00 00 00 00 ; ................
011C68  .dc.b 00 00 00 00 00 00 00 00 00 00 00 00 00 00 00 00 ; ................
011C78  .dc.b 00 00 00 00 00 00 00 00 00 00 00 00 00 00 08 00 ; ................
011C88  .dc.b 00 01 9E 00 00 41 FF 00 01 E0 3E 00 07 D0 7C 00 ; .....A....>...|.
011C98  .dc.b 03 E9 F8 00 00 BF F4 00 00 7F D8 00 00 1F DD 00 ; ................
011CA8  .dc.b 00 3F BF 80 01 FD 5F 80 03 EF F6 00 01 E6 E8 00 ; .?...._.........
011CB8  .dc.b 03 C1 E0 00 03 81 FC 00 00 03 E6 00 00 01 C0 00 ; ................
011CC8  .dc.b 00 00 00 00 00 00 00 00 00 00 00 00 00 00 00 00 ; ................
011CD8  .dc.b 00 00 00 00 00 00 00 00 00 00 00 00 00 00 00 00 ; ................
011CE8  .dc.b 00 00 00 00 00 00 00 00 00 00 00 00 00 00 00 00 ; ................
011CF8  .dc.b 00 00 00 00 00 00 00 00 00 11 DE 00 00 07 FF 80 ; ................
011D08  .dc.b 01 E7 FF C0 07 FF FF E0 0F F9 FF C0 0F FF FF 80 ; ................
011D18  .dc.b 0F FF FF C0 07 FF FF A0 01 FF FF C0 00 7F FF E0 ; ................
011D28  .dc.b 07 FF FF E0 0F FF FF E0 0F FF FF E0 07 FF FF C0 ; ................
011D38  .dc.b 0F FF FF 00 0F F7 FF C0 07 E7 FF E0 01 87 FF C0 ; ................
011D48  .dc.b 00 17 FF 80 00 58 F6 00 00 00 00 00 00 00 00 00 ; .....X..........
011D58  .dc.b 00 00 00 00 00 00 00 00 00 00 00 00 00 00 00 00 ; ................
011D68  .dc.b 00 00 00 00 00 00 00 00 00 00 00 00 00 00 00 00 ; ................
011D78  .dc.b 00 00 00 00 00 00 00 00 00 11 DE 00 00 07 FF 80 ; ................
011D88  .dc.b 01 E7 FF C0 07 FF FF E0 0F F9 FF C0 0F FF FF 80 ; ................
011D98  .dc.b 0F FF FF C0 07 FF FF A0 01 FF FF C0 00 7F FF E0 ; ................
011DA8  .dc.b 07 FF FF E0 0F FF FF E0 0F FF FF E0 07 FF FF C0 ; ................
011DB8  .dc.b 0F FF FF 00 0F F7 FF C0 07 E7 FF E0 01 87 FF C0 ; ................
011DC8  .dc.b 00 17 FF 80 00 58 F6 00 00 00 00 00 00 00 00 00 ; .....X..........
011DD8  .dc.b 00 00 00 00 00 00 00 00 00 00 00 00 00 00 00 00 ; ................
011DE8  .dc.b 00 00 00 00 00 00 00 00 00 00 00 00 00 00 00 00 ; ................
011DF8  .dc.b 00 00 00 00 00 01 00 00 00 06 C0 00 00 0B 21 00 ; ..............!.
011E08  .dc.b 03 01 42 40 08 C2 41 60 01 41 82 40 03 2C 99 00 ; ..B@..A`.A.@.,..
011E18  .dc.b 00 75 6C 00 00 CE 60 00 01 21 B0 00 01 B3 38 40 ; .ul...`..!....8@
011E28  .dc.b 00 1C F4 20 00 37 4B 40 01 C2 82 40 02 A2 B0 00 ; ... .7K@...@....
011E38  .dc.b 09 A3 C4 00 0A C1 82 00 03 03 4A 40 00 04 02 A0 ; ..........J@....
011E48  .dc.b 00 02 A0 C0 00 01 C0 00 00 00 00 00 00 00 00 00 ; ................
011E58  .dc.b 00 00 00 00 00 00 00 00 00 00 00 00 00 00 00 00 ; ................
011E68  .dc.b 00 00 00 00 00 00 00 00 00 00 00 00 00 00 00 00 ; ................
011E78  .dc.b 00 00 00 00 00 00 00 00 00 01 00 00 00 07 C0 00 ; ................
011E88  .dc.b 00 03 81 80 07 01 83 80 03 80 4F 80 00 C3 06 00 ; ..........O.....
011E98  .dc.b 00 00 90 00 00 31 80 00 00 FF 40 00 00 4F C4 80 ; .....1....@..O..
011EA8  .dc.b 00 03 0F C0 00 00 87 80 00 31 C1 80 01 C1 C0 00 ; .........1......
011EB8  .dc.b 07 C0 08 00 05 00 0C 00 00 00 85 80 00 03 C1 C0 ; ................
011EC8  .dc.b 00 01 C0 00 00 00 00 00 00 00 00 00 00 00 00 00 ; ................
011ED8  .dc.b 00 00 00 00 00 00 00 00 00 00 00 00 00 00 00 00 ; ................
011EE8  .dc.b 00 00 00 00 00 00 00 00 00 00 00 00 00 00 00 00 ; ................
011EF8  .dc.b 00 20 00 00 00 03 C0 00 00 0F F3 00 07 0F F7 C0 ; . ..............
011F08  .dc.b 0F CF F7 F0 0F E3 EF F0 0F F7 DF E0 07 FF FF C0 ; ................
011F18  .dc.b 00 FF FF 80 01 FF F2 00 03 FF FC C0 03 FF FF F0 ; ................
011F28  .dc.b 00 FF FF F0 01 3F FF F0 07 F7 CF E0 0F FB F3 D0 ; .....?..........
011F38  .dc.b 0F F3 FE 00 0F E7 DF C0 0F C7 EF F0 07 0F F3 F0 ; ................
011F48  .dc.b 00 0F F3 F0 00 17 E1 E0 00 41 C0 00 00 60 00 00 ; .........A...`..
011F58  .dc.b 00 00 00 00 00 00 00 00 00 00 00 00 00 00 00 00 ; ................
011F68  .dc.b 00 00 00 00 00 00 00 00 00 00 00 00 00 00 00 00 ; ................
011F78  .dc.b 00 20 00 00 00 03 C0 00 00 0F F3 00 07 0F F7 C0 ; . ..............
011F88  .dc.b 0F CF F7 F0 0F E3 EF F0 0F F7 DF E0 07 FF FF C0 ; ................
011F98  .dc.b 00 FF FF 80 01 FF F2 00 03 FF FC C0 03 FF FF F0 ; ................
011FA8  .dc.b 00 FF FF F0 01 3F FF F0 07 F7 CF E0 0F FB F3 D0 ; .....?..........
011FB8  .dc.b 0F F3 FE 00 0F E7 DF C0 0F C7 EF F0 07 0F F3 F0 ; ................
011FC8  .dc.b 00 0F F3 F0 00 17 E1 E0 00 41 C0 00 00 60 00 00 ; .........A...`..
011FD8  .dc.b 00 00 00 00 00 00 00 00 00 00 00 00 00 00 00 00 ; ................
011FE8  .dc.b 00 00 00 00 00 00 00 00 00 00 00 00 00 00 00 00 ; ................
011FF8  .dc.b 00 07 00 00 00 01 60 00 06 05 C0 00 00 03 01 80 ; ......`.........
012008  .dc.b 15 86 01 00 08 80 00 F8 06 00 02 60 00 E0 11 80 ; ...........`....
012018  .dc.b 00 00 E8 00 00 03 28 00 01 30 90 00 00 D2 30 00 ; ......(..0....0.
012028  .dc.b 00 20 80 B0 00 0C B1 88 00 00 40 28 00 0D 60 B0 ; . ........@(..`.
012038  .dc.b 03 80 A8 00 19 60 B0 00 03 00 41 80 06 00 02 00 ; .....`....A.....
012048  .dc.b 00 00 00 90 00 04 80 60 00 02 E0 00 00 00 80 00 ; .......`........
012058  .dc.b 00 00 00 00 00 00 00 00 00 00 00 00 00 00 00 00 ; ................
012068  .dc.b 00 00 00 00 00 00 00 00 00 00 00 00 00 00 00 00 ; ................
012078  .dc.b 00 01 80 00 00 07 80 00 00 02 00 00 06 00 00 60 ; ...............`
012088  .dc.b 0E 01 90 E0 07 00 01 80 01 80 01 80 00 00 00 00 ; ................
012098  .dc.b 00 00 00 00 00 F0 C0 00 00 C3 E0 00 00 21 C0 00 ; .............!..
0120A8  .dc.b 00 00 00 00 00 00 40 70 00 0C 00 F0 00 00 80 40 ; ......@p.......@
0120B8  .dc.b 00 43 C0 00 06 00 40 00 0C 00 02 00 00 00 01 80 ; .C....@.........
0120C8  .dc.b 00 00 80 60 00 03 C0 00 00 01 00 00 00 00 00 00 ; ...`............
0120D8  .dc.b 00 00 00 00 00 00 00 00 00 00 00 00 00 00 00 00 ; ................
0120E8  .dc.b 00 00 00 00 00 00 00 00 00 00 00 00 00 87 80 00 ; ................
0120F8  .dc.b 00 0F E0 00 06 1F F0 00 0F 0F F1 E0 1F 8F D3 F0 ; ................
012108  .dc.b 1F 87 D3 F8 1F C2 83 F8 1F E0 47 F0 03 E9 FB E0 ; ..........G.....
012118  .dc.b 00 A7 FB 80 01 FF FE 00 03 F7 FC 00 03 FF FB A0 ; ................
012128  .dc.b 01 F5 E5 F8 00 2F FB FC 00 0C F5 FC 03 DF FB FC ; ...../..........
012138  .dc.b 0F EF F8 F0 1F E3 FA 00 1F C0 F3 80 1F 81 0B E0 ; ................
012148  .dc.b 06 07 C1 F0 00 0F F1 F8 00 8F F0 70 00 43 E0 00 ; ...........p.C..
012158  .dc.b 00 00 00 00 00 00 00 00 00 00 00 00 00 00 00 00 ; ................
012168  .dc.b 00 00 00 00 00 00 00 00 00 00 00 00 00 87 80 00 ; ................
012178  .dc.b 00 0F E0 00 06 1F F0 00 0F 0F F1 E0 1F 8F D3 F0 ; ................
012188  .dc.b 1F 87 D3 F8 1F C2 83 F8 1F E0 47 F0 03 E9 FB E0 ; ..........G.....
012198  .dc.b 00 A7 FB 80 01 FF FE 00 03 F7 FC 00 03 FF FB A0 ; ................
0121A8  .dc.b 01 F5 E5 F8 00 2F FB FC 00 0C F5 FC 03 DF FB FC ; ...../..........
0121B8  .dc.b 0F EF F8 F0 1F E3 FA 00 1F C0 F3 80 1F 81 0B E0 ; ................
0121C8  .dc.b 06 07 C1 F0 00 0F F1 F8 00 8F F0 70 00 43 E0 00 ; ...........p.C..
0121D8  .dc.b 00 00 00 00 00 00 00 00 00 00 00 00 00 00 00 00 ; ................
0121E8  .dc.b 00 00 00 00 00 00 00 00 00 00 00 00 00 02 00 00 ; ................
0121F8  .dc.b 00 01 40 00 04 04 C0 00 08 01 00 00 07 03 80 90 ; ..@.............
012208  .dc.b 09 00 00 30 0C 00 01 30 01 C0 80 C0 00 00 C0 00 ; ...0...0........
012218  .dc.b 00 03 20 00 00 00 50 00 00 82 A0 00 03 40 00 00 ; .. ...P......@..
012228  .dc.b 02 80 00 40 00 00 A0 C0 00 00 40 10 00 05 30 58 ; ...@......@...0X
012238  .dc.b 00 00 E0 00 07 80 80 00 0A C0 00 00 0F 00 00 C0 ; ................
012248  .dc.b 04 00 00 00 00 00 00 48 00 00 80 00 00 01 40 00 ; .......H......@.
012258  .dc.b 00 00 00 00 00 00 00 00 00 00 00 00 00 00 00 00 ; ................
012268  .dc.b 00 00 00 00 00 00 00 00 00 00 00 00 00 00 00 00 ; ................
012278  .dc.b 00 02 80 00 00 03 00 00 04 02 00 00 08 00 00 60 ; ...............`
012288  .dc.b 06 00 00 C0 03 00 00 C0 00 00 00 00 00 00 00 00 ; ................
012298  .dc.b 00 00 C0 00 00 01 A0 00 01 00 40 00 00 80 00 00 ; ..........@.....
0122A8  .dc.b 00 00 00 00 00 00 00 20 00 00 00 68 00 00 C0 20 ; ....... ...h... 
0122B8  .dc.b 00 01 00 00 00 00 00 00 04 00 00 00 00 00 00 00 ; ................
0122C8  .dc.b 00 00 00 40 00 00 00 30 00 03 00 00 00 00 80 00 ; ...@...0........
0122D8  .dc.b 00 00 00 00 00 00 00 00 00 00 00 00 00 00 00 00 ; ................
0122E8  .dc.b 00 00 00 00 00 00 00 00 00 00 00 00 00 87 80 00 ; ................
0122F8  .dc.b 00 07 E0 00 0E 0F E0 00 1F 0F C0 F0 1F 07 C9 F8 ; ................
012308  .dc.b 1F 00 19 F8 0F 88 13 F8 07 D9 E1 F0 00 53 F1 C0 ; .............S..
012318  .dc.b 00 07 F8 00 01 83 F9 00 07 C3 F1 00 07 E8 C4 00 ; ................
012328  .dc.b 07 CC 00 F0 00 A3 F1 F8 00 04 F0 FC 00 07 F9 FC ; ................
012338  .dc.b 03 27 F8 60 0F B3 F2 00 1F D8 C6 00 1F 86 00 C0 ; .'.`............
012348  .dc.b 0F 00 08 F0 00 03 80 F8 00 87 E0 78 00 43 E0 00 ; ...........x.C..
012358  .dc.b 00 01 E0 00 00 00 00 00 00 00 00 00 00 00 00 00 ; ................
012368  .dc.b 00 00 00 00 00 00 00 00 00 00 00 00 00 87 80 00 ; ................
012378  .dc.b 00 07 E0 00 0E 0F E0 00 1F 0F C0 F0 1F 07 C9 F8 ; ................
012388  .dc.b 1F 00 19 F8 0F 88 13 F8 07 D9 E1 F0 00 53 F1 C0 ; .............S..
012398  .dc.b 00 07 F8 00 01 83 F9 00 07 C3 F1 00 07 E8 C4 00 ; ................
0123A8  .dc.b 07 CC 00 F0 00 A3 F1 F8 00 04 F0 FC 00 07 F9 FC ; ................
0123B8  .dc.b 03 27 F8 60 0F B3 F2 00 1F D8 C6 00 1F 86 00 C0 ; .'.`............
0123C8  .dc.b 0F 00 08 F0 00 03 80 F8 00 87 E0 78 00 43 E0 00 ; ...........x.C..
0123D8  .dc.b 00 01 E0 00 00 00 00 00 00 00 00 00 00 00 00 00 ; ................
0123E8  .dc.b 00 00 00 00 00 00 00 00 00 00 00 00 00 00 00 00 ; ................
0123F8  .dc.b 08 01 80 00 18 01 00 10 1C 00 00 30 10 00 00 50 ; ...........0...P
012408  .dc.b 00 00 00 60 02 00 00 00 00 00 00 00 00 00 80 00 ; ...`............
012418  .dc.b 00 03 20 00 00 00 E0 00 00 00 00 00 03 00 00 00 ; .. .............
012428  .dc.b 00 00 00 00 00 00 80 20 00 00 40 18 00 01 20 00 ; ....... ..@... .
012438  .dc.b 00 00 C0 00 00 00 00 00 00 00 00 00 04 00 00 00 ; ................
012448  .dc.b 1E 00 00 00 08 00 00 00 00 00 80 00 00 01 40 28 ; ..............@(
012458  .dc.b 00 00 00 00 00 00 00 00 00 00 00 00 00 00 00 00 ; ................
012468  .dc.b 00 00 00 00 00 00 00 00 00 00 00 00 00 00 00 00 ; ................
012478  .dc.b 00 00 00 00 00 00 00 00 00 00 00 00 08 00 00 20 ; ............... 
012488  .dc.b 00 00 00 00 00 00 00 00 00 00 00 00 00 00 00 00 ; ................
012498  .dc.b 00 00 C0 00 00 00 00 00 01 00 00 00 00 00 00 00 ; ................
0124A8  .dc.b 00 00 00 00 00 00 00 10 00 00 00 00 00 00 C0 00 ; ................
0124B8  .dc.b 00 00 00 00 00 00 00 00 00 00 00 00 08 00 00 00 ; ................
0124C8  .dc.b 00 00 00 00 00 00 00 00 00 00 00 00 00 00 80 10 ; ................
0124D8  .dc.b 00 00 00 00 00 00 00 00 00 00 00 00 00 00 00 00 ; ................
0124E8  .dc.b 00 00 00 00 00 00 00 00 00 00 00 00 00 01 80 00 ; ................
0124F8  .dc.b 18 03 C0 00 1C 03 80 30 3E 00 00 78 18 00 08 F8 ; .......0>..x....
012508  .dc.b 1C 00 08 F0 02 08 00 40 00 01 A0 00 00 03 F0 00 ; .......@........
012518  .dc.b 00 03 F0 00 01 03 F1 00 03 01 60 00 07 88 04 00 ; ..........`.....
012528  .dc.b 01 08 00 30 00 01 C0 38 00 00 E0 7C 08 03 F0 1C ; ...0...8...|....
012538  .dc.b 00 01 E0 00 00 10 C0 00 0C 00 02 00 1E 02 00 00 ; ................
012548  .dc.b 1E 00 08 20 1C 01 00 00 00 01 C0 10 01 03 E0 3C ; ... ...........<
012558  .dc.b 00 00 C0 38 00 00 00 08 00 00 00 00 00 00 00 00 ; ...8............
012568  .dc.b 00 00 00 00 00 00 00 00 00 00 00 00 00 03 C0 00 ; ................
012578  .dc.b 1C 03 C0 30 3E 03 C0 78 3E 03 80 F8 3C 00 08 F8 ; ...0>..x>...<...
012588  .dc.b 1F 00 08 F8 07 08 80 60 00 01 F0 00 00 03 F0 00 ; .......`........
012598  .dc.b 00 07 F8 00 01 03 F9 00 07 81 F8 00 07 88 74 00 ; ..............t.
0125A8  .dc.b 03 88 00 38 00 01 C0 7C 00 07 F0 7C 08 03 F0 3E ; ...8...|...|...>
0125B8  .dc.b 00 03 F0 18 00 11 F0 00 1E 00 02 00 1E 02 00 00 ; ................
0125C8  .dc.b 3F 00 08 20 1E 01 C0 30 0C 03 E0 78 01 43 E0 7C ; ?.. ...0...x.C.|
0125D8  .dc.b 00 01 E0 3C 00 00 00 18 00 00 00 00 00 00 00 00 ; ...<............
0125E8  .dc.b 00 00 00 00 00 00 00 00 00 00 00 00 00 00 00 00 ; ................
0125F8  .dc.b 00 00 00 00 00 00 00 00 00 00 00 00 00 00 00 00 ; ................
012608  .dc.b 00 00 00 00 00 00 00 00 00 00 00 00 00 00 00 00 ; ................
012618  .dc.b 00 00 00 00 00 00 00 00 00 00 00 00 00 00 00 00 ; ................
012628  .dc.b 00 00 00 00 00 00 00 00 00 00 00 00 00 00 00 00 ; ................
012638  .dc.b 00 00 00 00 00 00 00 00 00 00 00 00 00 00 00 00 ; ................
012648  .dc.b 00 00 00 00 00 00 00 00 00 00 00 00 00 00 00 00 ; ................
012658  .dc.b 00 00 00 00 00 00 00 00 00 00 00 00 00 00 00 00 ; ................
012668  .dc.b 00 00 00 00 00 00 00 00 00 00 00 00 00 00 00 00 ; ................
012678  .dc.b 00 00 00 00 00 00 00 00 00 00 00 00 00 00 00 00 ; ................
012688  .dc.b 00 00 00 00 00 00 00 00 00 00 00 00 00 00 00 00 ; ................
012698  .dc.b 00 00 00 00 00 00 00 00 00 00 00 00 00 00 00 00 ; ................
0126A8  .dc.b 00 00 00 00 00 00 00 00 00 00 00 00 00 00 00 00 ; ................
0126B8  .dc.b 00 00 00 00 00 00 00 00 00 00 00 00 00 00 00 00 ; ................
0126C8  .dc.b 00 00 00 00 00 00 00 00 00 00 00 00 00 00 00 00 ; ................
0126D8  .dc.b 00 00 00 00 00 00 00 00 00 00 00 00 00 00 00 00 ; ................
0126E8  .dc.b 00 00 00 00 00 00 00 00 00 00 00 00 00 01 80 00 ; ................
0126F8  .dc.b 08 03 40 00 1C 01 00 30 10 00 00 78 18 00 00 10 ; ..@....0...x....
012708  .dc.b 00 00 00 00 00 00 00 00 00 00 00 00 00 01 00 00 ; ................
012718  .dc.b 00 03 10 00 00 01 10 00 02 00 20 00 07 08 00 00 ; .......... .....
012728  .dc.b 00 08 00 00 00 01 00 00 00 00 80 0C 00 00 00 1C ; ................
012738  .dc.b 00 00 E0 00 00 00 40 00 00 00 00 00 0C 00 00 00 ; ......@.........
012748  .dc.b 18 00 00 00 14 00 00 00 00 00 00 00 01 03 60 0C ; ..............`.
012758  .dc.b 00 00 C0 20 00 00 00 00 00 00 00 00 00 00 00 00 ; ... ............
012768  .dc.b 00 00 00 00 00 00 00 00 00 00 00 00 00 03 C0 00 ; ................
012778  .dc.b 1C 43 C0 30 1C 03 40 78 38 00 04 78 38 00 00 78 ; .C.0..@x8..x8..x
012788  .dc.b 10 10 00 10 00 00 00 00 00 03 00 00 00 07 80 00 ; ................
012798  .dc.b 00 07 98 00 00 07 98 00 07 03 38 00 07 08 30 00 ; ..........8...0.
0127A8  .dc.b 02 08 00 00 00 01 80 44 00 00 80 1C 10 00 00 1E ; .......D........
0127B8  .dc.b 00 00 F0 18 00 00 E0 00 10 20 00 00 0C 00 21 00 ; ......... ....!.
0127C8  .dc.b 3C 00 00 00 1E 04 04 00 08 02 00 08 01 43 E0 0C ; <............C..
0127D8  .dc.b 00 01 E0 2C 00 00 00 18 00 00 00 00 00 00 00 00 ; ...,............
0127E8  .dc.b 00 00 00 00 00 00 00 00 01 C0 03 00 06 9A 0B 40 ; ...............@
0127F8  .dc.b E3 32 6C D4 38 67 DB 67 CB B9 36 9E EB 7A 3C 49 ; .2l.8g.g..6..z<I
012808  .dc.b CD 6F DB AE 72 3C EF D5 90 70 33 21 40 00 03 80 ; .o..r<...p3!@...
012818  .dc.b 00 00 00 00 00 00 00 00 00 00 00 00 00 00 00 00 ; ................
012828  .dc.b 00 00 00 00 01 60 07 80 1F CF 9F E3 7F FF FC FF ; .....`..........
012838  .dc.b F0 76 78 7B 87 BC 60 3E FE 9F FC 5F FC 03 1F E3 ; .vx{..`>..._....
012848  .dc.b 60 00 0F C0 00 00 00 00 00 00 00 00 00 00 00 00 ; `...............
012858  .dc.b 00 00 78 00 78 45 86 00 87 F2 17 89 1F FF 0F D2 ; ..x.xE..........
012868  .dc.b FF FF FF F7 FF FF FF FF FF FF FF FF FF FF 7E FF ; ..............~.
012878  .dc.b FF FF FF FF FF 7F FF FF F8 F8 7F F3 E5 10 F7 CA ; ................
012888  .dc.b C2 E2 41 81 00 00 3E 00 00 00 78 00 78 45 86 00 ; ..A...>...x.xE..
012898  .dc.b 87 F2 17 89 1F FF 0F D2 FF FF FF F7 FF FF FF FF ; ................
0128A8  .dc.b FF FF FF FF FF FF 7E FF FF FF FF FF FF 7F FF FF ; ......~.........
0128B8  .dc.b F8 F8 7F F3 E5 10 F7 CA C2 E2 41 81 00 00 3E 00 ; ..........A...>.
0128C8  .dc.b 00 00 00 00 00 00 00 00 00 01 00 00 07 04 C0 E0 ; ................
0128D8  .dc.b 9E 27 52 66 FB 29 BA ED 2F 5A 49 1C 4E E9 BC A6 ; .'Rf.)../ZI.N...
0128E8  .dc.b F3 0E 73 8C A6 63 95 97 2C B0 01 18 01 C0 00 60 ; ..s..c..,......`
0128F8  .dc.b 00 00 00 00 00 00 00 00 00 00 00 00 00 00 00 00 ; ................
012908  .dc.b 00 00 00 00 00 03 00 00 60 1F E1 F8 FC DF FD 1F ; ........`.......
012918  .dc.b 1E E1 BE 03 37 16 6F 1F FF FF 7F FF 79 FC 63 F8 ; ....7.o.....y.c.
012928  .dc.b 03 40 00 E0 00 00 00 00 00 00 00 00 00 00 00 00 ; .@..............
012938  .dc.b 00 00 00 00 03 81 C0 00 04 63 A8 C0 0F 9F E1 F7 ; .........c......
012948  .dc.b FF 7F FF FF FF FF FF FF 7F FF FF FF FF FF FF FF ; ................
012958  .dc.b FF FF FF FF FF FF F7 FF FF FC 25 FC 07 F0 C8 F0 ; ..........%.....
012968  .dc.b 01 0F 00 00 00 00 00 00 00 00 00 00 03 81 C0 00 ; ................
012978  .dc.b 04 63 A8 C0 0F 9F E1 F7 FF 7F FF FF FF FF FF FF ; .c..............
012988  .dc.b 7F FF FF FF FF FF FF FF FF FF FF FF FF FF F7 FF ; ................
012998  .dc.b FF FC 25 FC 07 F0 C8 F0 01 0F 00 00 00 00 00 00 ; ..%.............
0129A8  .dc.b 00 00 00 00 00 00 00 00 00 60 00 00 39 B0 00 00 ; .........`..9...
0129B8  .dc.b 08 E6 00 00 64 0C 80 C0 75 F2 9A C0 65 9D EB 10 ; ....d...u...e...
0129C8  .dc.b 36 BC 9D B4 C9 37 1B 72 40 1F EE 4F 00 70 7D A5 ; 6....7.r@..O.p}.
0129D8  .dc.b 00 00 37 D4 00 00 03 6B 00 00 03 A0 00 00 00 01 ; ..7....k........
0129E8  .dc.b 00 00 00 00 00 00 00 00 00 00 00 00 00 00 00 00 ; ................
0129F8  .dc.b 00 00 00 00 00 40 00 00 3F D8 00 00 7F F3 00 00 ; .....@..?.......
012A08  .dc.b 40 3F E1 C0 7B FB FF E0 7F 5F 3E 78 3E 0E 3C 3F ; @?..{...._>x>.<?
012A18  .dc.b 00 01 F0 3D 00 01 8E 1F 00 00 0F AF 00 00 0F F3 ; ...=............
012A28  .dc.b 00 00 00 43 00 00 00 00 00 00 00 00 00 00 00 00 ; ...C............
012A38  .dc.b 1C 00 00 00 22 00 00 00 01 F1 18 00 3F FC 66 00 ; ....".......?.f.
012A48  .dc.b 7F FF 81 80 7F FF C5 C0 7F FF FB E2 7F FF FF F4 ; ................
012A58  .dc.b 7F FF FF FC FF BF BF FF E8 3F FF 7F C5 7D FF FF ; .........?...}..
012A68  .dc.b 02 90 7F FF 00 60 FF FF 00 02 57 F3 00 00 21 CB ; .....`....W...!.
012A78  .dc.b 00 00 1E 82 00 00 00 01 1C 00 00 00 22 00 00 00 ; ............"...
012A88  .dc.b 01 F1 18 00 3F FC 66 00 7F FF 81 80 7F FF C5 C0 ; ....?.f.........
012A98  .dc.b 7F FF FB E2 7F FF FF F4 7F FF FF FC FF BF BF FF ; ................
012AA8  .dc.b E8 3F FF 7F C5 7D FF FF 02 90 7F FF 00 60 FF FF ; .?...}.......`..
012AB8  .dc.b 00 02 57 F3 00 00 21 CB 00 00 1E 82 00 00 00 01 ; ..W...!.........
012AC8  .dc.b 00 00 00 00 00 00 00 00 00 00 00 00 43 80 00 00 ; ............C...
012AD8  .dc.b 7F 00 80 00 1D 92 60 00 4F 97 A0 00 FE DC C9 70 ; ......`.O......p
012AE8  .dc.b A3 6A 5D 30 26 09 88 F3 0C 66 7D 1C 03 B3 B2 AC ; .j]0&....f}.....
012AF8  .dc.b 00 80 15 86 00 00 01 9C 00 00 00 16 00 00 00 D0 ; ................
012B08  .dc.b 00 00 00 00 00 00 00 00 00 00 00 00 00 00 00 00 ; ................
012B18  .dc.b 00 00 00 00 30 00 00 00 70 00 00 00 0E 0D 80 00 ; ....0...p.......
012B28  .dc.b 3F 6F E0 00 F7 63 F0 00 7F 95 BE F8 19 FE 7F 0C ; ?o...c..........
012B38  .dc.b 03 FF 6E 0F 00 44 7F 12 00 00 23 FE 00 00 01 FE ; ..n..D....#.....
012B48  .dc.b 00 00 01 E8 00 00 00 00 00 00 00 00 00 00 00 00 ; ................
012B58  .dc.b 00 00 00 00 00 C0 00 00 02 00 00 00 77 B0 E0 00 ; ............w...
012B68  .dc.b 7F CD C0 00 3F BF F4 00 FF FF F0 60 FF FF FF F8 ; ....?......`....
012B78  .dc.b FF FF FF FB FF FF FF FF 1F FF FF FF 0F FF FF FE ; ................
012B88  .dc.b 02 E4 37 FE 00 19 85 FE 00 06 11 FE 00 00 01 F8 ; ..7.............
012B98  .dc.b 00 00 00 00 00 00 00 00 00 00 00 00 00 C0 00 00 ; ................
012BA8  .dc.b 02 00 00 00 77 B0 E0 00 7F CD C0 00 3F BF F4 00 ; ....w.......?...
012BB8  .dc.b FF FF F0 60 FF FF FF F8 FF FF FF FB FF FF FF FF ; ...`............
012BC8  .dc.b 1F FF FF FF 0F FF FF FE 02 E4 37 FE 00 19 85 FE ; ..........7.....
012BD8  .dc.b 00 06 11 FE 00 00 01 F8 00 00 00 00 00 00 00 00 ; ................
012BE8  .dc.b 00 00 00 00 00 00 00 00 10 00 00 00 08 B0 00 00 ; ................
012BF8  .dc.b 3E A8 00 00 72 44 00 00 65 9E 80 00 25 D0 80 00 ; >...rD..e...%...
012C08  .dc.b 12 BF 20 00 52 7C F5 C0 00 2A 8E A0 00 7F 35 60 ; .. .R|...*....5`
012C18  .dc.b 00 24 FE 48 00 00 DC A4 00 00 5E 5E 00 00 2F 5F ; .$.H......^^../_
012C28  .dc.b 00 00 07 92 00 00 0E AC 00 00 00 04 00 00 00 04 ; ................
012C38  .dc.b 00 00 00 00 00 00 00 00 00 00 00 00 00 00 00 00 ; ................
012C48  .dc.b 00 00 00 00 16 00 00 00 3F D0 00 00 4F F8 00 00 ; ........?...O...
012C58  .dc.b 70 70 00 00 7F BF 80 00 7F 5B C0 00 00 9F EF 00 ; pp.......[......
012C68  .dc.b 00 1C 3F C0 00 07 7E C0 00 03 E0 F0 00 00 38 7A ; ..?...~.......8z
012C78  .dc.b 00 00 38 3F 00 00 1E B3 00 00 0F FC 00 00 01 4E ; ..8?...........N
012C88  .dc.b 00 00 00 0C 00 00 00 00 00 00 00 00 00 00 00 00 ; ................
012C98  .dc.b 1E 00 00 00 01 00 00 00 12 C0 00 00 3F F8 00 00 ; ............?...
012CA8  .dc.b 3F FE 80 00 7F FC BC 00 7F FF 83 00 7F FF C5 80 ; ?...............
012CB8  .dc.b FF FF E1 80 FB FF FF E0 C4 7F FF E0 03 FF 7F EC ; ................
012CC8  .dc.b 05 3F FF F9 00 E0 FF FE 00 00 FE FF 00 01 FF FF ; .?..............
012CD8  .dc.b 00 01 1F FE 00 00 8F FE 00 00 77 4C 00 00 02 2C ; ..........wL...,
012CE8  .dc.b 00 00 00 08 00 00 00 08 1E 00 00 00 01 00 00 00 ; ................
012CF8  .dc.b 12 C0 00 00 3F F8 00 00 3F FE 80 00 7F FC BC 00 ; ....?...?.......
012D08  .dc.b 7F FF 83 00 7F FF C5 80 FF FF E1 80 FB FF FF E0 ; ................
012D18  .dc.b C4 7F FF E0 03 FF 7F EC 05 3F FF F9 00 E0 FF FE ; .........?......
012D28  .dc.b 00 00 FE FF 00 01 FF FF 00 01 1F FE 00 00 8F FE ; ................
012D38  .dc.b 00 00 77 4C 00 00 02 2C 00 00 00 08 00 00 00 08 ; ..wL...,........
012D48  .dc.b 00 00 00 00 00 00 00 00 14 00 00 00 36 80 00 00 ; ............6...
012D58  .dc.b 0F C0 00 00 FA 80 00 00 77 C9 40 00 DB 35 A0 00 ; ........w.@..5..
012D68  .dc.b 21 EC B0 00 0E 15 C8 00 00 69 39 60 03 A6 AD 30 ; !........i9`...0
012D78  .dc.b 00 A3 79 F0 00 00 35 2F 00 00 2E 9D 00 00 0B 0C ; ..y...5/........
012D88  .dc.b 00 00 03 1C 00 00 00 2A 00 00 01 EC 00 00 00 08 ; .......*........
012D98  .dc.b 00 00 00 04 00 00 00 00 00 00 00 00 00 00 00 00 ; ................
012DA8  .dc.b 08 00 00 00 38 00 00 00 6E 00 00 00 07 00 00 00 ; ....8...n.......
012DB8  .dc.b FB B4 80 00 3F EF C0 00 1F 93 E0 00 01 E8 F0 00 ; ....?...........
012DC8  .dc.b 03 FE D8 00 00 5F 7E C0 00 04 6E 38 00 00 FE 18 ; ....._~...n8....
012DD8  .dc.b 00 00 07 06 00 00 07 F2 00 00 01 FE 00 00 01 FE ; ................
012DE8  .dc.b 00 00 00 04 00 00 00 04 00 00 00 00 00 00 00 00 ; ................
012DF8  .dc.b 00 00 00 00 00 40 00 00 1C B0 00 00 3F 80 00 00 ; .....@......?...
012E08  .dc.b 7F EC 00 00 FF D4 B0 00 FF FF F0 00 FF FF E8 00 ; ................
012E18  .dc.b 7F FF FA 00 1F FF FC 20 07 FF FF E0 07 FF FF F8 ; ....... ........
012E28  .dc.b 02 FF FF FB 00 20 FF FF 00 18 6F FF 00 07 8F FE ; ..... ....o.....
012E38  .dc.b 00 00 2B FE 00 00 03 FE 00 00 01 FC 00 00 00 4C ; ..+............L
012E48  .dc.b 00 00 00 04 00 00 00 00 00 00 00 00 00 40 00 00 ; .............@..
012E58  .dc.b 1C B0 00 00 3F 80 00 00 7F EC 00 00 FF D4 B0 00 ; ....?...........
012E68  .dc.b FF FF F0 00 FF FF E8 00 7F FF FA 00 1F FF FC 20 ; ............... 
012E78  .dc.b 07 FF FF E0 07 FF FF F8 02 FF FF FB 00 20 FF FF ; ............. ..
012E88  .dc.b 00 18 6F FF 00 07 8F FE 00 00 2B FE 00 00 03 FE ; ..o.......+.....
012E98  .dc.b 00 00 01 FC 00 00 00 4C 00 00 00 04 00 00 00 00 ; .......L........
012EA8  .dc.b 00 00 00 00 00 00 00 00 08 00 00 00 06 00 00 00 ; ................
012EB8  .dc.b 1E 50 00 00 33 5C 00 00 3A 30 00 00 76 82 00 00 ; .P..3\..:0..v...
012EC8  .dc.b 4F FC 00 00 52 B0 80 00 00 7F 80 00 00 2D A0 00 ; O...R........-..
012ED8  .dc.b 00 FB 74 00 00 7E 35 80 00 01 38 80 00 03 BE C0 ; ..t..~5...8.....
012EE8  .dc.b 00 00 BC 40 00 00 A9 60 00 00 1F 08 00 00 1E 3C ; ...@...`.......<
012EF8  .dc.b 00 00 3A 3C 00 00 0A E8 00 00 00 70 00 00 00 10 ; ..:<.......p....
012F08  .dc.b 00 00 00 30 00 00 00 00 00 00 00 00 00 00 00 00 ; ...0............
012F18  .dc.b 08 00 00 00 1F 00 00 00 2F E0 00 00 70 E8 00 00 ; ......../...p...
012F28  .dc.b 3D 7C 00 00 3F 9A 00 00 05 5F 00 00 00 9B C0 00 ; =|..?...._......
012F38  .dc.b 00 1F C0 00 00 0C 68 00 00 06 7F 00 00 07 FF C0 ; ......h.........
012F48  .dc.b 00 00 C1 80 00 00 61 E0 00 00 70 C0 00 00 78 F4 ; ......a...p...x.
012F58  .dc.b 00 00 1D EE 00 00 0F EC 00 00 01 74 00 00 00 18 ; ...........t....
012F68  .dc.b 00 00 00 10 00 00 00 00 07 00 00 00 01 80 00 00 ; ................
012F78  .dc.b 08 40 00 00 1F E0 00 00 1F F4 00 00 3F FC 00 00 ; .@..........?...
012F88  .dc.b 7F FE 00 00 7F FE 00 00 FF FF 7C 00 FF FF C2 00 ; ..........|.....
012F98  .dc.b 01 FF C1 00 00 7F E5 80 06 FF FF 80 03 7F 7F C0 ; ................
012FA8  .dc.b 01 D7 FF C0 00 03 FF C0 00 11 FF F0 00 03 FD E1 ; ................
012FB8  .dc.b 00 03 FF FC 00 02 3F FE 00 01 3F FC 00 00 DF FC ; ......?...?.....
012FC8  .dc.b 00 00 0D 78 00 00 00 B0 00 00 00 70 07 00 00 00 ; ...x.......p....
012FD8  .dc.b 01 80 00 00 08 40 00 00 1F E0 00 00 1F F4 00 00 ; .....@..........
012FE8  .dc.b 3F FC 00 00 7F FE 00 00 7F FE 00 00 FF FF 7C 00 ; ?.............|.
012FF8  .dc.b FF FF C2 00 01 FF C1 00 00 7F E5 80 06 FF FF 80 ; ................
013008  .dc.b 03 7F 7F C0 01 D7 FF C0 00 03 FF C0 00 11 FF F0 ; ................
013018  .dc.b 00 03 FD E1 00 03 FF FC 00 02 3F FE 00 01 3F FC ; ..........?...?.
013028  .dc.b 00 00 DF FC 00 00 0D 78 00 00 00 B0 00 00 00 70 ; .......x.......p
013038  .dc.b 00 00 00 00 0A 00 00 00 08 00 00 00 17 E0 00 00 ; ................
013048  .dc.b 25 60 00 00 5B C0 00 00 1F CC 00 00 11 19 20 00 ; %`..[......... .
013058  .dc.b 0F EB A0 00 00 14 F0 00 02 E9 E0 00 01 ED 58 00 ; ..............X.
013068  .dc.b 00 A4 98 00 00 03 EA 60 00 01 7A 60 00 00 42 C0 ; .......`..z`..B.
013078  .dc.b 00 00 1F 18 00 00 06 BA 00 00 0B 10 00 00 00 FC ; ................
013088  .dc.b 00 00 07 A0 00 00 00 30 00 00 00 10 00 00 00 00 ; .......0........
013098  .dc.b 00 00 00 00 00 00 00 00 04 00 00 00 0E 00 00 00 ; ................
0130A8  .dc.b 0E 00 00 00 3B 80 00 00 3D 00 00 00 1D B0 00 00 ; ....;...=.......
0130B8  .dc.b 0F F6 80 00 00 97 C0 00 03 E9 C0 00 01 7C F0 00 ; .............|..
0130C8  .dc.b 00 1E B0 00 00 0B 78 00 00 00 DD 80 00 00 FD C0 ; ......x.........
0130D8  .dc.b 00 00 1C 30 00 00 0C 30 00 00 0F 5C 00 00 07 EE ; ...0...0...\....
0130E8  .dc.b 00 00 07 FC 00 00 00 5C 00 00 00 18 00 00 00 00 ; .......\........
0130F8  .dc.b 00 00 00 00 00 00 00 00 00 00 00 00 0E 00 00 00 ; ................
013108  .dc.b 0E D8 00 00 1F E0 00 00 3F F4 00 00 7F E0 00 00 ; ........?.......
013118  .dc.b 7F FE 20 00 3F FF F8 00 0F FF E0 00 07 FF F8 00 ; .. .?...........
013128  .dc.b 07 FF F2 00 03 FF FC 00 00 FF FE E0 00 0B FF E0 ; ................
013138  .dc.b 00 31 FF F0 00 1A DF F4 00 00 1F FC 00 00 6F FE ; .1............o.
013148  .dc.b 00 00 0F FE 00 00 0F FC 00 00 07 FC 00 00 01 78 ; ...............x
013158  .dc.b 00 00 00 10 00 00 00 00 00 00 00 00 00 00 00 00 ; ................
013168  .dc.b 0E 00 00 00 0E D8 00 00 1F E0 00 00 3F F4 00 00 ; ............?...
013178  .dc.b 7F E0 00 00 7F FE 20 00 3F FF F8 00 0F FF E0 00 ; ...... .?.......
013188  .dc.b 07 FF F8 00 07 FF F2 00 03 FF FC 00 00 FF FE E0 ; ................
013198  .dc.b 00 0B FF E0 00 31 FF F0 00 1A DF F4 00 00 1F FC ; .....1..........
0131A8  .dc.b 00 00 6F FE 00 00 0F FE 00 00 0F FC 00 00 07 FC ; ..o.............
0131B8  .dc.b 00 00 01 78 00 00 00 10 00 00 00 00 00 00 00 00 ; ...x............
0131C8  .dc.b 00 00 00 00 00 00 00 00 02 00 00 00 0B 00 00 00 ; ................
0131D8  .dc.b 1B 00 00 00 1D B8 00 00 53 2C 00 00 4E 84 00 00 ; ........S,..N...
0131E8  .dc.b 13 D0 00 00 03 9E 00 00 00 70 00 00 00 7B 80 00 ; .........p...{..
0131F8  .dc.b 01 DB 00 00 00 F5 C0 00 00 1C E0 00 00 04 2A 00 ; ..............*.
013208  .dc.b 00 06 FF 00 00 02 CA 00 00 02 FE 00 00 03 81 00 ; ................
013218  .dc.b 00 00 67 00 00 00 F5 00 00 00 D1 60 00 00 45 E0 ; ..g........`..E.
013228  .dc.b 00 00 1E 70 00 00 03 40 00 00 00 40 00 00 01 80 ; ...p...@...@....
013238  .dc.b 00 00 01 00 00 00 00 00 00 00 00 00 00 00 00 00 ; ................
013248  .dc.b 00 00 00 00 0E 00 00 00 17 80 00 00 33 C0 00 00 ; ............3...
013258  .dc.b 38 F0 00 00 3D 78 00 00 07 BC 00 00 00 F8 00 00 ; 8...=x..........
013268  .dc.b 00 9E 00 00 00 37 00 00 00 3F 80 00 00 1B 80 00 ; .....7...?......
013278  .dc.b 00 08 C0 00 00 0D F0 00 00 03 FC 00 00 01 36 00 ; ..............6.
013288  .dc.b 00 01 83 00 00 00 C7 00 00 01 C3 80 00 00 E3 80 ; ................
013298  .dc.b 00 00 7F C0 00 00 3B 70 00 00 03 F0 00 00 01 A0 ; ......;p........
0132A8  .dc.b 00 00 01 80 00 00 00 80 00 00 00 00 00 00 00 00 ; ................
0132B8  .dc.b 01 80 00 00 00 40 00 00 06 20 00 00 0F 80 00 00 ; .....@... ......
0132C8  .dc.b 1F F0 00 00 3F F8 00 00 7F FE 00 00 FF FE 00 00 ; ....?...........
0132D8  .dc.b BF FE 00 00 0B FE 00 00 09 FF E8 00 0D FF 8C 00 ; ................
0132E8  .dc.b 01 FF 86 00 06 FF CA 00 03 FF EA 00 00 0D FF 00 ; ................
0132F8  .dc.b 00 07 FF 00 00 67 FF 80 00 0F FF 00 00 1F FF 00 ; .....g..........
013308  .dc.b 00 03 EF E0 00 09 FF 80 00 04 FF FC 00 02 FF F0 ; ................
013318  .dc.b 00 00 FF F0 00 00 0B E0 00 00 09 C0 00 00 03 80 ; ................
013328  .dc.b 00 00 01 00 00 00 06 00 01 80 00 00 00 40 00 00 ; .............@..
013338  .dc.b 06 20 00 00 0F 80 00 00 1F F0 00 00 3F F8 00 00 ; . ..........?...
013348  .dc.b 7F FE 00 00 FF FE 00 00 BF FE 00 00 0B FE 00 00 ; ................
013358  .dc.b 09 FF E8 00 0D FF 8C 00 01 FF 86 00 06 FF CA 00 ; ................
013368  .dc.b 03 FF EA 00 00 0D FF 00 00 07 FF 00 00 67 FF 80 ; .............g..
013378  .dc.b 00 0F FF 00 00 1F FF 00 00 03 EF E0 00 09 FF 80 ; ................
013388  .dc.b 00 04 FF FC 00 02 FF F0 00 00 FF F0 00 00 0B E0 ; ................
013398  .dc.b 00 00 09 C0 00 00 03 80 00 00 01 00 00 00 06 00 ; ................
0133A8  .dc.b 00 00 00 00 00 00 00 00 01 00 00 00 06 00 00 00 ; ................
0133B8  .dc.b 1F A0 00 00 39 F0 00 00 1F 50 00 00 31 E0 00 00 ; ....9....P..1...
0133C8  .dc.b 09 40 00 00 0F E8 00 00 00 25 00 00 05 8D 00 00 ; .@.......%......
0133D8  .dc.b 02 58 E0 00 01 DB E0 00 00 0E 00 00 00 08 F0 00 ; .X..............
0133E8  .dc.b 00 07 B0 00 00 01 ED 00 00 01 A9 80 00 00 2F 80 ; ............../.
0133F8  .dc.b 00 00 3B 00 00 00 38 00 00 00 51 E0 00 00 00 D8 ; ..;...8...Q.....
013408  .dc.b 00 00 2F B0 00 00 0F 80 00 00 01 C0 00 00 01 00 ; ../.............
013418  .dc.b 00 00 00 00 00 00 00 00 00 00 00 00 00 00 00 00 ; ................
013428  .dc.b 06 00 00 00 0F 00 00 00 13 00 00 00 1F 80 00 00 ; ................
013438  .dc.b 1D 80 00 00 0F 80 00 00 07 B0 00 00 01 B4 00 00 ; ................
013448  .dc.b 07 DE 80 00 02 F7 C0 00 01 F3 80 00 00 3D C0 00 ; .............=..
013458  .dc.b 00 1D E0 00 00 05 60 00 00 03 F0 00 00 03 B0 00 ; ......`.........
013468  .dc.b 00 00 F6 00 00 00 71 00 00 00 70 80 00 00 39 C0 ; ......q...p...9.
013478  .dc.b 00 00 3E C0 00 00 3F 60 00 00 17 C0 00 00 01 E0 ; ..>...?`........
013488  .dc.b 00 00 00 C0 00 00 00 80 00 00 00 00 00 00 00 00 ; ................
013498  .dc.b 00 00 00 00 00 00 00 00 07 00 00 00 0F 40 00 00 ; .............@..
0134A8  .dc.b 1F E8 00 00 3F F4 00 00 7F FC 00 00 3F E2 00 00 ; ....?.......?...
0134B8  .dc.b 1F FA 00 00 0F FF 00 00 0F FF E0 00 07 FF F0 00 ; ................
0134C8  .dc.b 07 FF E0 00 01 FF F0 00 00 FF E4 00 00 AF F0 00 ; ................
0134D8  .dc.b 00 47 F8 00 00 23 FF 80 00 0B FF 80 00 00 7F C0 ; .G...#..........
0134E8  .dc.b 00 00 FF C0 00 00 3F F0 00 00 7F F0 00 00 7F F8 ; ......?.........
0134F8  .dc.b 00 00 3F F0 00 00 1F E0 00 00 07 C0 00 00 03 80 ; ..?.............
013508  .dc.b 00 00 01 00 00 00 00 00 00 00 00 00 00 00 00 00 ; ................
013518  .dc.b 07 00 00 00 0F 40 00 00 1F E8 00 00 3F F4 00 00 ; .....@......?...
013528  .dc.b 7F FC 00 00 3F E2 00 00 1F FA 00 00 0F FF 00 00 ; ....?...........
013538  .dc.b 0F FF E0 00 07 FF F0 00 07 FF E0 00 01 FF F0 00 ; ................
013548  .dc.b 00 FF E4 00 00 AF F0 00 00 47 F8 00 00 23 FF 80 ; .........G...#..
013558  .dc.b 00 0B FF 80 00 00 7F C0 00 00 FF C0 00 00 3F F0 ; ..............?.
013568  .dc.b 00 00 7F F0 00 00 7F F8 00 00 3F F0 00 00 1F E0 ; ..........?.....
013578  .dc.b 00 00 07 C0 00 00 03 80 00 00 01 00 00 00 00 00 ; ................
013588  .dc.b 00 00 00 00 01 00 00 00 0D 80 00 00 1D 00 00 00 ; ................
013598  .dc.b 7D A0 00 00 59 B8 00 00 0E 2C 00 00 13 8C 00 00 ; }...Y....,......
0135A8  .dc.b 02 C0 00 00 01 18 00 00 00 F6 00 00 00 70 00 00 ; .............p..
0135B8  .dc.b 01 BF 00 00 01 E6 00 00 00 7E 00 00 00 11 80 00 ; .........~......
0135C8  .dc.b 00 09 00 00 00 1F B0 00 00 0B 6C 00 00 1B 2C 00 ; ..........l...,.
0135D8  .dc.b 00 0E E0 00 00 03 0C 00 00 03 B8 00 00 07 EE 00 ; ................
0135E8  .dc.b 00 02 88 00 00 02 0B 00 00 00 FE 00 00 00 13 00 ; ................
0135F8  .dc.b 00 00 0C 00 00 00 08 00 00 00 10 00 00 00 00 00 ; ................
013608  .dc.b 00 00 00 00 00 00 00 00 0E 00 00 00 13 80 00 00 ; ................
013618  .dc.b 1B C0 00 00 3C E0 00 00 1D 70 00 00 07 70 00 00 ; ....<....p...p..
013628  .dc.b 05 BC 00 00 00 F4 00 00 00 38 00 00 00 3E 00 00 ; .........8...>..
013638  .dc.b 00 76 00 00 00 3F 00 00 00 13 80 00 00 31 00 00 ; .v...?.......1..
013648  .dc.b 00 1B C0 00 00 07 E0 00 00 04 F0 00 00 06 D8 00 ; ................
013658  .dc.b 00 07 1C 00 00 06 18 00 00 07 1C 00 00 03 98 00 ; ................
013668  .dc.b 00 01 FC 00 00 01 FE 00 00 00 1B 80 00 00 1F 00 ; ................
013678  .dc.b 00 00 1A 00 00 00 18 00 00 00 00 00 00 00 00 00 ; ................
013688  .dc.b 00 A0 00 00 03 20 00 00 0F 90 00 00 1F C0 00 00 ; ..... ..........
013698  .dc.b 7F F0 00 00 FF F8 00 00 FF FE 00 00 1F FE 00 00 ; ................
0136A8  .dc.b 07 FE 00 00 03 FE 00 00 10 FE 80 00 03 FF 80 00 ; ................
0136B8  .dc.b 0D FF 20 00 05 FF 98 00 01 FF 88 00 00 3F 94 00 ; .. ..........?..
0136C8  .dc.b 00 1B C0 00 00 9F FC 00 00 3F FC 00 00 7F FC 00 ; .........?......
0136D8  .dc.b 00 1F FC 00 00 47 BC 00 00 2F BC 00 00 37 FE 80 ; .....G.../...7..
0136E8  .dc.b 00 17 FC 00 00 07 FF 80 00 00 FF 80 00 00 3F 00 ; ..............?.
0136F8  .dc.b 00 00 9E 00 00 00 38 00 00 00 10 00 00 00 40 00 ; ......8.......@.
013708  .dc.b 00 A0 00 00 03 20 00 00 0F 90 00 00 1F C0 00 00 ; ..... ..........
013718  .dc.b 7F F0 00 00 FF F8 00 00 FF FE 00 00 1F FE 00 00 ; ................
013728  .dc.b 07 FE 00 00 03 FE 00 00 10 FE 80 00 03 FF 80 00 ; ................
013738  .dc.b 0D FF 20 00 05 FF 98 00 01 FF 88 00 00 3F 94 00 ; .. ..........?..
013748  .dc.b 00 1B C0 00 00 9F FC 00 00 3F FC 00 00 7F FC 00 ; .........?......
013758  .dc.b 00 1F FC 00 00 47 BC 00 00 2F BC 00 00 37 FE 80 ; .....G.../...7..
013768  .dc.b 00 17 FC 00 00 07 FF 80 00 00 FF 80 00 00 3F 00 ; ..............?.
013778  .dc.b 00 00 9E 00 00 00 38 00 00 00 10 00 00 00 40 00 ; ......8.......@.
013788  .dc.b 00 00 00 00 06 00 00 00 12 00 00 00 3B 80 00 00 ; ............;...
013798  .dc.b 09 E0 00 00 3F 60 00 00 03 D0 00 00 1D C0 00 00 ; ....?`..........
0137A8  .dc.b 0F 00 00 00 00 F8 00 00 09 40 00 00 05 5E 00 00 ; .........@...^..
0137B8  .dc.b 05 32 80 00 01 2A 80 00 00 2A 80 00 00 28 00 00 ; .2...*...*...(..
0137C8  .dc.b 00 33 80 00 00 0E 80 00 00 07 80 00 00 0D 60 00 ; .3............`.
0137D8  .dc.b 00 05 48 00 00 05 6C 00 00 03 DC 00 00 03 00 00 ; ..H...l.........
0137E8  .dc.b 00 00 BA 00 00 02 4E 00 00 02 B9 00 00 00 AB 80 ; ......N.........
0137F8  .dc.b 00 00 3C 00 00 00 38 00 00 00 10 00 00 00 10 00 ; ..<...8.........
013808  .dc.b 00 00 00 00 07 00 00 00 13 00 00 00 11 00 00 00 ; ................
013818  .dc.b 1F 00 00 00 1D 80 00 00 0F 80 00 00 03 00 00 00 ; ................
013828  .dc.b 03 E0 00 00 07 60 00 00 07 BC 00 00 03 AC 00 00 ; .....`..........
013838  .dc.b 00 CF 00 00 00 F7 00 00 00 77 00 00 00 17 80 00 ; .........w......
013848  .dc.b 00 05 00 00 00 1F 80 00 00 0D C0 00 00 07 80 00 ; ................
013858  .dc.b 00 03 B0 00 00 03 98 00 00 03 88 00 00 01 8C 00 ; ................
013868  .dc.b 00 03 CC 00 00 01 F4 00 00 00 76 00 00 00 5E 00 ; ..........v...^.
013878  .dc.b 00 00 1F 00 00 00 0C 00 00 00 08 00 00 00 00 00 ; ................
013888  .dc.b 00 00 00 00 07 00 00 00 1F 00 00 00 3F C0 00 00 ; ............?...
013898  .dc.b 7F E8 00 00 3F E4 00 00 1F F4 00 00 1F C4 00 00 ; ....?...........
0138A8  .dc.b 1F F4 00 00 1F FC 00 00 0F FE 00 00 07 FF C0 00 ; ................
0138B8  .dc.b 07 FF C0 00 03 FF A0 00 00 FF 80 00 02 3F C0 00 ; .............?..
0138C8  .dc.b 01 3F 90 00 01 DF C0 00 00 5F E0 00 00 1F FC 00 ; .?......._......
0138D8  .dc.b 00 07 FE 00 00 1F FC 00 00 03 FE 00 00 03 FD 00 ; ................
0138E8  .dc.b 00 07 FF 00 00 03 FF 80 00 03 FF 40 00 01 FF 80 ; ...........@....
0138F8  .dc.b 00 00 7F 00 00 00 7C 00 00 00 38 00 00 00 10 00 ; ......|...8.....
013908  .dc.b 00 00 00 00 07 00 00 00 1F 00 00 00 3F C0 00 00 ; ............?...
013918  .dc.b 7F E8 00 00 3F E4 00 00 1F F4 00 00 1F C4 00 00 ; ....?...........
013928  .dc.b 1F F4 00 00 1F FC 00 00 0F FE 00 00 07 FF C0 00 ; ................
013938  .dc.b 07 FF C0 00 03 FF A0 00 00 FF 80 00 02 3F C0 00 ; .............?..
013948  .dc.b 01 3F 90 00 01 DF C0 00 00 5F E0 00 00 1F FC 00 ; .?......._......
013958  .dc.b 00 07 FE 00 00 1F FC 00 00 03 FE 00 00 03 FD 00 ; ................
013968  .dc.b 00 07 FF 00 00 03 FF 80 00 03 FF 40 00 01 FF 80 ; ...........@....
013978  .dc.b 00 00 7F 00 00 00 7C 00 00 00 38 00 00 00 10 00 ; ......|...8.....
013988  .dc.b 00 00 00 00 02 80 00 00 0E 80 00 00 3D 80 00 00 ; ............=...
013998  .dc.b 68 80 00 00 0B B0 00 00 16 38 00 00 03 A8 00 00 ; h........8......
0139A8  .dc.b 05 C4 00 00 00 60 00 00 01 BC 00 00 04 EC 00 00 ; .....`..........
0139B8  .dc.b 03 60 00 00 03 EE 00 00 00 C8 00 00 00 7C 00 00 ; .`...........|..
0139C8  .dc.b 00 26 00 00 00 66 00 00 00 7E 00 00 00 6F 80 00 ; .&...f...~...o..
0139D8  .dc.b 00 5A E0 00 00 17 60 00 00 1B 40 00 00 3D 60 00 ; .Z....`...@..=`.
0139E8  .dc.b 00 3C C0 00 00 2A 60 00 00 02 80 00 00 0C 90 00 ; .<...*`.........
0139F8  .dc.b 00 01 60 00 00 03 60 00 00 01 C0 00 00 03 00 00 ; ..`...`.........
013A08  .dc.b 00 00 00 00 02 00 00 00 1F 00 00 00 1B C0 00 00 ; ................
013A18  .dc.b 1D C0 00 00 1C C0 00 00 0F 60 00 00 07 70 00 00 ; .........`...p..
013A28  .dc.b 03 38 00 00 01 B8 00 00 00 60 00 00 00 70 00 00 ; .8.......`...p..
013A38  .dc.b 00 D8 00 00 00 FC 00 00 00 7C 00 00 00 CE 00 00 ; .........|......
013A48  .dc.b 00 64 00 00 00 3C 00 00 00 3F 00 00 00 17 00 00 ; .d...<...?......
013A58  .dc.b 00 37 C0 00 00 38 C0 00 00 30 E0 00 00 30 C0 00 ; .7...8...0...0..
013A68  .dc.b 00 19 C0 00 00 1D C0 00 00 0D C0 00 00 03 C0 00 ; ................
013A78  .dc.b 00 01 B0 00 00 01 F0 00 00 03 20 00 00 01 80 00 ; .......... .....
013A88  .dc.b 00 70 00 00 03 90 00 00 1F 90 00 00 7F E8 00 00 ; .p..............
013A98  .dc.b FF E0 00 00 3F F8 00 00 1F F8 00 00 07 F8 00 00 ; ....?...........
013AA8  .dc.b 17 FE 00 00 23 FC 00 00 0D FE 00 00 17 FD 00 00 ; ....#...........
013AB8  .dc.b 0B FC 00 00 0F FF 80 00 01 FE 80 00 00 FE 20 00 ; .............. .
013AC8  .dc.b 00 6E 20 00 00 7E 50 00 01 7F 00 00 01 FF E0 00 ; .n ..~P.........
013AD8  .dc.b 00 FF F0 00 02 FF E0 00 01 3F F0 00 01 7D E0 00 ; .........?...}..
013AE8  .dc.b 00 BF C0 00 00 7F F0 00 00 7F C8 00 00 0F D0 00 ; ................
013AF8  .dc.b 00 0F FC 00 00 0B F4 00 00 03 E0 00 00 07 80 00 ; ................
013B08  .dc.b 00 70 00 00 03 90 00 00 1F 90 00 00 7F E8 00 00 ; .p..............
013B18  .dc.b FF E0 00 00 3F F8 00 00 1F F8 00 00 07 F8 00 00 ; ....?...........
013B28  .dc.b 17 FE 00 00 23 FC 00 00 0D FE 00 00 17 FD 00 00 ; ....#...........
013B38  .dc.b 0B FC 00 00 0F FF 80 00 01 FE 80 00 00 FE 20 00 ; .............. .
013B48  .dc.b 00 6E 20 00 00 7E 50 00 01 7F 00 00 01 FF E0 00 ; .n ..~P.........
013B58  .dc.b 00 FF F0 00 02 FF E0 00 01 3F F0 00 01 7D E0 00 ; .........?...}..
013B68  .dc.b 00 BF C0 00 00 7F F0 00 00 7F C8 00 00 0F D0 00 ; ................
013B78  .dc.b 00 0F FC 00 00 0B F4 00 00 03 E0 00 00 07 80 00 ; ................
013B88  .dc.b 02 00 00 00 04 00 00 00 62 00 00 00 17 00 00 00 ; ........b.......
013B98  .dc.b 73 40 00 00 46 C0 00 00 27 C0 00 00 37 80 00 00 ; s@..F...'...7...
013BA8  .dc.b 0C 00 00 00 22 00 00 00 35 40 00 00 15 80 00 00 ; ...."...5@......
013BB8  .dc.b 08 F8 00 00 05 10 00 00 01 50 00 00 03 D4 00 00 ; .........P......
013BC8  .dc.b 01 4C 00 00 01 38 00 00 00 6C 00 00 00 68 00 00 ; .L...8...l...h..
013BD8  .dc.b 00 90 00 00 00 16 00 00 00 6C 80 00 00 33 80 00 ; .........l...3..
013BE8  .dc.b 00 7B C0 00 00 05 00 00 00 42 00 00 00 53 C0 00 ; .{.......B...S..
013BF8  .dc.b 00 17 40 00 00 0A 80 00 00 0E 80 00 00 00 00 00 ; ..@.............
013C08  .dc.b 00 00 00 00 06 00 00 00 23 00 00 00 3A 00 00 00 ; ........#...:...
013C18  .dc.b 3E 00 00 00 3B 00 00 00 1E 00 00 00 0E 00 00 00 ; >...;...........
013C28  .dc.b 17 80 00 00 1D 80 00 00 0E A0 00 00 0E 60 00 00 ; .............`..
013C38  .dc.b 07 30 00 00 03 B8 00 00 03 BC 00 00 00 B8 00 00 ; .0..............
013C48  .dc.b 00 B8 00 00 00 4C 00 00 00 F8 00 00 00 D8 00 00 ; .....L..........
013C58  .dc.b 00 3C 00 00 00 38 00 00 00 33 00 00 00 39 00 00 ; .<...8...3...9..
013C68  .dc.b 00 31 00 00 00 78 80 00 00 3D 80 00 00 3C 80 00 ; .1...x...=...<..
013C78  .dc.b 00 0E 80 00 00 07 C0 00 00 03 00 00 00 06 00 00 ; ................
013C88  .dc.b 02 00 00 00 06 00 00 00 7F 00 00 00 7F 00 00 00 ; ................
013C98  .dc.b 7F E0 00 00 7F D0 00 00 3F D0 00 00 3F E8 00 00 ; ........?...?...
013CA8  .dc.b 3F 90 00 00 3F C8 00 00 7F F0 00 00 1F F0 00 00 ; ?...?...........
013CB8  .dc.b 1F FC 00 00 0F FE 00 00 17 FF 00 00 17 FD 00 00 ; ................
013CC8  .dc.b 09 FE 00 00 09 FC 00 00 02 FD 00 00 03 FC 00 00 ; ................
013CD8  .dc.b 00 BE 00 00 01 3F 00 00 00 FF C0 00 00 3F C0 00 ; .....?.......?..
013CE8  .dc.b 00 7F C0 00 00 FF E0 00 00 7F D0 00 00 7F E0 00 ; ................
013CF8  .dc.b 00 3F F0 00 00 1F C0 00 00 0F 80 00 00 0E 00 00 ; .?..............
013D08  .dc.b 02 00 00 00 06 00 00 00 7F 00 00 00 7F 00 00 00 ; ................
013D18  .dc.b 7F E0 00 00 7F D0 00 00 3F D0 00 00 3F E8 00 00 ; ........?...?...
013D28  .dc.b 3F 90 00 00 3F C8 00 00 7F F0 00 00 1F F0 00 00 ; ?...?...........
013D38  .dc.b 1F FC 00 00 0F FE 00 00 17 FF 00 00 17 FD 00 00 ; ................
013D48  .dc.b 09 FE 00 00 09 FC 00 00 02 FD 00 00 03 FC 00 00 ; ................
013D58  .dc.b 00 BE 00 00 01 3F 00 00 00 FF C0 00 00 3F C0 00 ; .....?.......?..
013D68  .dc.b 00 7F C0 00 00 FF E0 00 00 7F D0 00 00 7F E0 00 ; ................
013D78  .dc.b 00 3F F0 00 00 1F C0 00 00 0F 80 00 00 0E 00 00 ; .?..............
013D88  .dc.b 00 80 00 00 0E 80 00 00 3E 80 00 00 55 00 00 00 ; ........>...U...
013D98  .dc.b 11 00 00 00 07 20 00 00 04 60 00 00 0B 50 00 00 ; ..... ...`...P..
013DA8  .dc.b 07 30 00 00 01 88 00 00 0B E0 00 00 0F B0 00 00 ; .0..............
013DB8  .dc.b 0D 90 00 00 07 C0 00 00 06 78 00 00 01 E0 00 00 ; .........x......
013DC8  .dc.b 01 20 00 00 03 30 00 00 03 50 00 00 06 F0 00 00 ; . ...0...P......
013DD8  .dc.b 02 DC 00 00 01 EA 00 00 01 36 00 00 07 96 00 00 ; .........6......
013DE8  .dc.b 07 94 00 00 02 EE 00 00 00 88 00 00 01 54 00 00 ; .............T..
013DF8  .dc.b 00 B0 00 00 00 6E 00 00 00 6C 00 00 00 14 00 00 ; .....n...l......
013E08  .dc.b 00 00 00 00 1E 00 00 00 1B 00 00 00 3B 80 00 00 ; ............;...
013E18  .dc.b 3B 80 00 00 0C C0 00 00 0E C0 00 00 06 E0 00 00 ; ;...............
013E28  .dc.b 02 C0 00 00 06 F0 00 00 00 D0 00 00 01 C0 00 00 ; ................
013E38  .dc.b 03 E0 00 00 03 60 00 00 03 F0 00 00 03 30 00 00 ; .....`.......0..
013E48  .dc.b 03 30 00 00 01 60 00 00 01 E0 00 00 01 F8 00 00 ; .0...`..........
013E58  .dc.b 01 B8 00 00 03 9C 00 00 03 8C 00 00 03 0C 00 00 ; ................
013E68  .dc.b 03 0E 00 00 01 9C 00 00 01 FC 00 00 00 B8 00 00 ; ................
013E78  .dc.b 00 78 00 00 00 74 00 00 00 3E 00 00 00 6E 00 00 ; .x...t...>...n..
013E88  .dc.b 00 A0 00 00 1F 90 00 00 FF 90 00 00 FF D0 00 00 ; ................
013E98  .dc.b 7F E8 00 00 1F F0 00 00 0F F0 00 00 2F F0 00 00 ; ............/...
013EA8  .dc.b 4F F0 00 00 37 F8 00 00 2F F8 00 00 2F F8 00 00 ; O...7.../.../...
013EB8  .dc.b 2F F0 00 00 1F F4 00 00 07 FE 00 00 03 FA 00 00 ; /...............
013EC8  .dc.b 13 F1 00 00 0B 71 00 00 0F F1 00 00 1F F8 80 00 ; .....q..........
013ED8  .dc.b 17 FF 00 00 13 FF 00 00 17 FE 00 00 17 FE 00 00 ; ................
013EE8  .dc.b 17 BE 00 00 07 FE 00 00 03 FC 00 00 01 FF 00 00 ; ................
013EF8  .dc.b 01 F8 00 00 02 FF 00 00 00 7E 80 00 01 FE 00 00 ; .........~......
013F08  .dc.b 00 A0 00 00 1F 90 00 00 FF 90 00 00 FF D0 00 00 ; ................
013F18  .dc.b 7F E8 00 00 1F F0 00 00 0F F0 00 00 2F F0 00 00 ; ............/...
013F28  .dc.b 4F F0 00 00 37 F8 00 00 2F F8 00 00 2F F8 00 00 ; O...7.../.../...
013F38  .dc.b 2F F0 00 00 1F F4 00 00 07 FE 00 00 03 FA 00 00 ; /...............
013F48  .dc.b 13 F1 00 00 0B 71 00 00 0F F1 00 00 1F F8 80 00 ; .....q..........
013F58  .dc.b 17 FF 00 00 13 FF 00 00 17 FE 00 00 17 FE 00 00 ; ................
013F68  .dc.b 17 BE 00 00 07 FE 00 00 03 FC 00 00 01 FF 00 00 ; ................
013F78  .dc.b 01 F8 00 00 02 FF 00 00 00 7E 80 00 01 FE 00 00 ; .........~......
013F88  .dc.b 01 00 00 00 32 00 00 00 3A 00 00 00 17 80 00 00 ; ....2...:.......
013F98  .dc.b 29 80 00 00 07 C0 00 00 36 C0 00 00 3F 40 00 00 ; ).......6...?@..
013FA8  .dc.b 19 80 00 00 22 00 00 00 3B 40 00 00 2A 80 00 00 ; ...."...;@..*...
013FB8  .dc.b 11 00 00 00 17 B0 00 00 02 20 00 00 06 A8 00 00 ; ......... ......
013FC8  .dc.b 05 50 00 00 05 78 00 00 01 60 00 00 01 B0 00 00 ; .P...x...`......
013FD8  .dc.b 03 A0 00 00 00 E0 00 00 02 98 00 00 00 80 00 00 ; ................
013FE8  .dc.b 03 B4 00 00 01 DC 00 00 00 1C 00 00 04 50 00 00 ; .............P..
013FF8  .dc.b 07 98 00 00 01 5C 00 00 00 F4 00 00 00 A0 00 00 ; .....\..........
014008  .dc.b 00 00 00 00 13 00 00 00 13 00 00 00 39 00 00 00 ; ............9...
014018  .dc.b 1F 00 00 00 1B 00 00 00 0F 00 00 00 0E 00 00 00 ; ................
014028  .dc.b 2E 00 00 00 1D 80 00 00 0D 80 00 00 1D 40 00 00 ; .............@..
014038  .dc.b 0E C0 00 00 0E 60 00 00 07 70 00 00 03 70 00 00 ; .....`...p...p..
014048  .dc.b 02 E0 00 00 00 E0 00 00 07 B0 00 00 03 E0 00 00 ; ................
014058  .dc.b 01 60 00 00 01 E0 00 00 01 E0 00 00 01 F8 00 00 ; .`..............
014068  .dc.b 01 C8 00 00 03 88 00 00 03 88 00 00 03 8C 00 00 ; ................
014078  .dc.b 00 EC 00 00 00 E8 00 00 00 68 00 00 00 70 00 00 ; .........h...p..
014088  .dc.b 01 00 00 00 3B 00 00 00 7F 00 00 00 7F 80 00 00 ; ....;...........
014098  .dc.b 3F C0 00 00 3F E0 00 00 3F D0 00 00 7F D8 00 00 ; ?...?...?.......
0140A8  .dc.b 7F A8 00 00 7F D0 00 00 3F D0 00 00 3F E0 00 00 ; ........?...?...
0140B8  .dc.b 3F E0 00 00 3F F0 00 00 2F F8 00 00 2F FC 00 00 ; ?...?.../.../...
0140C8  .dc.b 27 FC 00 00 27 FA 00 00 17 FC 00 00 0F F0 00 00 ; '...'...........
0140D8  .dc.b 07 F4 00 00 01 F0 00 00 0B F8 00 00 05 FC 00 00 ; ................
0140E8  .dc.b 03 FE 00 00 03 FE 00 00 07 FC 00 00 07 FE 00 00 ; ................
0140F8  .dc.b 07 FC 00 00 03 FE 00 00 01 FE 00 00 00 F0 00 00 ; ................
014108  .dc.b 01 00 00 00 3B 00 00 00 7F 00 00 00 7F 80 00 00 ; ....;...........
014118  .dc.b 3F C0 00 00 3F E0 00 00 3F D0 00 00 7F D8 00 00 ; ?...?...?.......
014128  .dc.b 7F A8 00 00 7F D0 00 00 3F D0 00 00 3F E0 00 00 ; ........?...?...
014138  .dc.b 3F E0 00 00 3F F0 00 00 2F F8 00 00 2F FC 00 00 ; ?...?.../.../...
014148  .dc.b 27 FC 00 00 27 FA 00 00 17 FC 00 00 0F F0 00 00 ; '...'...........
014158  .dc.b 07 F4 00 00 01 F0 00 00 0B F8 00 00 05 FC 00 00 ; ................
014168  .dc.b 03 FE 00 00 03 FE 00 00 07 FC 00 00 07 FE 00 00 ; ................
014178  .dc.b 07 FC 00 00 03 FE 00 00 01 FE 00 00 00 F0 00 00 ; ................
014188  .dc.b 17 40 00 00 2F 40 00 00 0A C0 00 00 18 80 00 00 ; .@../@..........
014198  .dc.b 07 80 00 00 04 20 00 00 0B 60 00 00 07 50 00 00 ; ..... ...`...P..
0141A8  .dc.b 01 30 00 00 16 90 00 00 1F C0 00 00 1B 60 00 00 ; .0...........`..
0141B8  .dc.b 0F 20 00 00 0C 80 00 00 06 E0 00 00 05 80 00 00 ; . ..............
0141C8  .dc.b 0C 80 00 00 0C C0 00 00 1B 40 00 00 17 80 00 00 ; .........@......
0141D8  .dc.b 0E E0 00 00 0B 40 00 00 3D B0 00 00 3C B0 00 00 ; .....@..=...<...
0141E8  .dc.b 2D 40 00 00 0A E0 00 00 14 80 00 00 09 40 00 00 ; -@...........@..
0141F8  .dc.b 07 00 00 00 0D C0 00 00 05 80 00 00 1A 80 00 00 ; ................
014208  .dc.b 0F 00 00 00 1D 80 00 00 1D 80 00 00 0D C0 00 00 ; ................
014218  .dc.b 0C C0 00 00 0E C0 00 00 06 C0 00 00 02 E0 00 00 ; ................
014228  .dc.b 06 C0 00 00 01 E0 00 00 03 A0 00 00 07 80 00 00 ; ................
014238  .dc.b 06 C0 00 00 07 C0 00 00 0D C0 00 00 0C C0 00 00 ; ................
014248  .dc.b 04 C0 00 00 07 80 00 00 07 80 00 00 0D C0 00 00 ; ................
014258  .dc.b 1D C0 00 00 1C E0 00 00 18 60 00 00 18 60 00 00 ; .........`...`..
014268  .dc.b 18 E0 00 00 1D C0 00 00 0B C0 00 00 07 80 00 00 ; ................
014278  .dc.b 07 80 00 00 06 80 00 00 0F C0 00 00 0D C0 00 00 ; ................
014288  .dc.b 7F D0 00 00 7F C8 00 00 3F C8 00 00 1F E8 00 00 ; ........?.......
014298  .dc.b 1F E8 00 00 2F F0 00 00 4F F0 00 00 2F F0 00 00 ; ..../...O.../...
0142A8  .dc.b 57 F0 00 00 5F F8 00 00 5F F0 00 00 3F F0 00 00 ; W..._..._...?...
0142B8  .dc.b 1F E0 00 00 0F E8 00 00 4F F0 00 00 0F E8 00 00 ; ........O.......
0142C8  .dc.b 2D C8 00 00 7F C4 00 00 BF C4 00 00 BF D4 00 00 ; -...............
0142D8  .dc.b 9F E4 00 00 BF F8 00 00 BF F8 00 00 7D F0 00 00 ; ............}...
0142E8  .dc.b 7F F0 00 00 3F E0 00 00 1F C0 00 00 1F E0 00 00 ; ....?...........
0142F8  .dc.b 2F 90 00 00 0F C0 00 00 3F E0 00 00 5F D0 00 00 ; /.......?..._...
014308  .dc.b 7F D0 00 00 7F C8 00 00 3F C8 00 00 1F E8 00 00 ; ........?.......
014318  .dc.b 1F E8 00 00 2F F0 00 00 4F F0 00 00 2F F0 00 00 ; ..../...O.../...
014328  .dc.b 57 F0 00 00 5F F8 00 00 5F F0 00 00 3F F0 00 00 ; W..._..._...?...
014338  .dc.b 1F E0 00 00 0F E8 00 00 4F F0 00 00 0F E8 00 00 ; ........O.......
014348  .dc.b 2D C8 00 00 7F C4 00 00 BF C4 00 00 BF D4 00 00 ; -...............
014358  .dc.b 9F E4 00 00 BF F8 00 00 BF F8 00 00 7D F0 00 00 ; ............}...
014368  .dc.b 7F F0 00 00 3F E0 00 00 1F C0 00 00 1F E0 00 00 ; ....?...........
014378  .dc.b 2F 90 00 00 0F C0 00 00 3F E0 00 00 5F D0 00 00 ; /.......?..._...
014388  .dc.b 0C C0 00 00 06 80 00 00 1D 80 00 00 04 C0 00 00 ; ................
014398  .dc.b 13 C0 00 00 1B 60 00 00 0F E0 00 00 25 A0 00 00 ; .....`......%...
0143A8  .dc.b 32 00 00 00 2B 00 00 00 1A C0 00 00 11 00 00 00 ; 2...+...........
0143B8  .dc.b 07 80 00 00 04 60 00 00 0D 40 00 00 0A D0 00 00 ; .....`...@......
0143C8  .dc.b 0A A0 00 00 05 60 00 00 06 80 00 00 0E C0 00 00 ; .....`..........
0143D8  .dc.b 03 80 00 00 0A 00 00 00 04 C0 00 00 1D 00 00 00 ; ................
0143E8  .dc.b 0E A0 00 00 20 E0 00 00 22 E0 00 00 19 00 00 00 ; .... ...".......
0143F8  .dc.b 15 80 00 00 0F C0 00 00 0A 40 00 00 08 80 00 00 ; .........@......
014408  .dc.b 04 80 00 00 0C C0 00 00 0E C0 00 00 0F 80 00 00 ; ................
014418  .dc.b 0D 80 00 00 07 80 00 00 17 00 00 00 1E 00 00 00 ; ................
014428  .dc.b 0D 80 00 00 1D 80 00 00 0D 00 00 00 0E C0 00 00 ; ................
014438  .dc.b 0C C0 00 00 0E C0 00 00 06 E0 00 00 05 E0 00 00 ; ................
014448  .dc.b 01 C0 00 00 0E C0 00 00 0F C0 00 00 05 80 00 00 ; ................
014458  .dc.b 07 80 00 00 07 80 00 00 0F 00 00 00 0E C0 00 00 ; ................
014468  .dc.b 1C 40 00 00 1C 40 00 00 1C 40 00 00 0E C0 00 00 ; .@...@...@......
014478  .dc.b 0E C0 00 00 06 80 00 00 07 80 00 00 07 80 00 00 ; ................
014488  .dc.b 1E C0 00 00 1F C0 00 00 1F C0 00 00 1F C0 00 00 ; ................
014498  .dc.b 1F E0 00 00 3F F0 00 00 3F E8 00 00 7F E8 00 00 ; ....?...?.......
0144A8  .dc.b 3F A8 00 00 3F D0 00 00 3F D0 00 00 3F E0 00 00 ; ?...?...?...?...
0144B8  .dc.b 5F E0 00 00 5F E0 00 00 4F F0 00 00 4F F8 00 00 ; _..._...O...O...
0144C8  .dc.b 2F F8 00 00 2F E8 00 00 1F F0 00 00 0F C0 00 00 ; /.../...........
0144D8  .dc.b 27 D0 00 00 1F C0 00 00 0F C0 00 00 1F E0 00 00 ; '...............
0144E8  .dc.b 3F F0 00 00 3F F0 00 00 3F E0 00 00 3F E0 00 00 ; ?...?...?...?...
0144F8  .dc.b 1F C0 00 00 1F E0 00 00 0F E0 00 00 0F E0 00 00 ; ................
014508  .dc.b 1E C0 00 00 1F C0 00 00 1F C0 00 00 1F C0 00 00 ; ................
014518  .dc.b 1F E0 00 00 3F F0 00 00 3F E8 00 00 7F E8 00 00 ; ....?...?.......
014528  .dc.b 3F A8 00 00 3F D0 00 00 3F D0 00 00 3F E0 00 00 ; ?...?...?...?...
014538  .dc.b 5F E0 00 00 5F E0 00 00 4F F0 00 00 4F F8 00 00 ; _..._...O...O...
014548  .dc.b 2F F8 00 00 2F E8 00 00 1F F0 00 00 0F C0 00 00 ; /.../...........
014558  .dc.b 27 D0 00 00 1F C0 00 00 0F C0 00 00 1F E0 00 00 ; '...............
014568  .dc.b 3F F0 00 00 3F F0 00 00 3F E0 00 00 3F E0 00 00 ; ?...?...?...?...
014578  .dc.b 1F C0 00 00 1F E0 00 00 0F E0 00 00 0F E0 00 00 ; ................
014588  .dc.b 00 00 00 00 00 00 00 00 00 00 00 00 00 20 00 00 ; ............. ..
014598  .dc.b 00 00 00 00 01 90 C0 60 01 51 E0 40 00 D3 51 C0 ; .......`.Q.@..Q.
0145A8  .dc.b 00 6A A2 80 00 14 75 00 06 00 2D 00 03 88 96 00 ; .j....u...-.....
0145B8  .dc.b 03 33 83 60 01 C7 E3 C0 00 27 E5 40 00 B3 CE 20 ; .3.`.....'.@... 
0145C8  .dc.b 00 01 E8 00 00 33 E4 00 00 23 C2 00 01 C0 09 40 ; .....3...#.....@
0145D8  .dc.b 02 43 52 C0 05 A6 B1 00 06 9C 20 C0 00 68 50 40 ; .CR....... ..hP@
0145E8  .dc.b 00 30 28 20 00 00 10 00 00 00 00 00 00 00 00 00 ; .0( ............
0145F8  .dc.b 00 00 00 00 00 00 00 00 00 00 00 00 00 00 00 00 ; ................
014608  .dc.b 00 00 00 00 00 00 00 00 00 00 00 00 00 00 00 00 ; ................
014618  .dc.b 00 00 00 00 00 00 00 00 00 80 00 00 00 20 80 00 ; ............. ..
014628  .dc.b 00 11 41 00 00 0B 82 00 00 0F D2 00 00 17 E8 00 ; ..A.............
014638  .dc.b 00 CF FC 00 00 3F FC 00 00 1F FA 80 00 0F F0 00 ; .....?..........
014648  .dc.b 00 1F F0 00 00 0F F8 00 00 5F FD 00 00 3F F6 00 ; ........._...?..
014658  .dc.b 01 BC A1 00 02 58 40 80 00 60 40 00 00 10 20 00 ; .....X@..`@... .
014668  .dc.b 00 00 00 00 00 00 00 00 00 00 00 00 00 00 00 00 ; ................
014678  .dc.b 00 00 00 00 00 00 00 00 00 00 00 00 00 00 00 00 ; ................
014688  .dc.b 00 00 00 00 00 10 48 00 00 34 1C 00 02 34 90 00 ; ......H..4...4..
014698  .dc.b 01 91 E9 28 23 D9 F0 F0 11 FB FB F0 01 FB FB E0 ; ...(#...........
0146A8  .dc.b 00 FF F7 C0 1E 3F FF AC 0F 9F FF D8 27 FF FF 70 ; .....?......'..p
0146B8  .dc.b 07 FF FF F8 1F FF FF E0 35 FF FF F0 03 FF FF FE ; ........5.......
0146C8  .dc.b 00 3F FD 78 01 FF FF 00 07 FF FF C8 03 FF FF E0 ; .?.x............
0146D8  .dc.b 0F FF FF F0 3F FF FB C0 1F FE F9 E0 4F FE FC E0 ; ....?.......O...
0146E8  .dc.b 04 FC 7C F0 03 79 7E 20 02 A8 1C 10 00 41 06 40 ; ..|..y~ .....A.@
0146F8  .dc.b 01 01 86 20 00 13 02 00 00 01 00 00 00 00 00 00 ; ... ............
014708  .dc.b 00 00 00 00 00 10 48 00 00 34 1C 00 02 34 90 00 ; ......H..4...4..
014718  .dc.b 01 91 E9 28 23 D9 F0 F0 11 FB FB F0 01 FB FB E0 ; ...(#...........
014728  .dc.b 00 FF F7 C0 1E 3F FF AC 0F 9F FF D8 27 FF FF 70 ; .....?......'..p
014738  .dc.b 07 FF FF F8 1F FF FF E0 35 FF FF F0 03 FF FF FE ; ........5.......
014748  .dc.b 00 3F FD 78 01 FF FF 00 07 FF FF C8 03 FF FF E0 ; .?.x............
014758  .dc.b 0F FF FF F0 3F FF FB C0 1F FE F9 E0 4F FE FC E0 ; ....?.......O...
014768  .dc.b 04 FC 7C F0 03 79 7E 20 02 A8 1C 10 00 41 06 40 ; ..|..y~ .....A.@
014778  .dc.b 01 01 86 20 00 13 02 00 00 01 00 00 00 00 00 00 ; ... ............
014788  .dc.b 00 00 00 00 00 00 00 00 00 08 00 00 00 18 04 00 ; ................
014798  .dc.b 00 54 04 00 00 10 08 00 00 34 05 00 00 4C 5E 00 ; .T.......4...L^.
0147A8  .dc.b 00 D4 54 00 02 4B 10 30 00 E2 E8 40 00 60 10 80 ; ..T..K.0...@.`..
0147B8  .dc.b 00 30 0A 80 00 12 E1 00 00 67 F2 00 03 E7 E1 00 ; .0.......g......
0147C8  .dc.b 04 CF F1 80 03 66 C2 80 00 20 C1 C0 00 06 16 C0 ; .....f... ......
0147D8  .dc.b 00 4A 8B 80 00 B3 10 00 02 41 E8 00 02 C1 A4 00 ; .J.......A......
0147E8  .dc.b 00 03 18 00 00 07 8C 00 00 02 06 00 00 00 00 00 ; ................
0147F8  .dc.b 00 00 00 00 00 00 00 00 00 00 00 00 00 00 00 00 ; ................
014808  .dc.b 00 00 00 00 00 00 00 00 00 00 00 00 00 00 00 00 ; ................
014818  .dc.b 00 08 00 00 00 08 00 00 00 08 00 00 00 30 00 00 ; .............0..
014828  .dc.b 00 2A 08 00 00 B4 08 00 00 1D 10 20 00 1F E8 40 ; .*......... ...@
014838  .dc.b 00 0F F1 00 00 0F FE 00 00 1F FC 00 00 1F FE 00 ; ................
014848  .dc.b 01 3F FE 00 00 1F FD 00 00 1F FE 00 00 39 E9 00 ; .?...........9..
014858  .dc.b 00 31 70 00 00 40 E0 00 01 80 10 00 00 00 18 00 ; .1p..@..........
014868  .dc.b 00 00 04 00 00 00 00 00 00 00 00 00 00 00 00 00 ; ................
014878  .dc.b 00 00 00 00 00 00 00 00 00 00 00 00 00 00 00 00 ; ................
014888  .dc.b 00 00 00 00 01 0C 02 00 00 9C 0E 00 00 DE 1C 00 ; ................
014898  .dc.b 00 7C 0C 80 00 7E 1D 80 02 FE 5F 80 01 FE FF 06 ; .|...~...._.....
0148A8  .dc.b 13 FF FF 3C 0F FF FE F8 03 FF FF F0 04 FF FB F0 ; ...<............
0148B8  .dc.b 01 FF FF E0 01 3F FF F4 03 FF FF 60 07 FF FF 80 ; .....?.....`....
0148C8  .dc.b 0F FF FF 80 1F FF FF E0 19 FF FF F0 21 7F FF E0 ; ............!...
0148D8  .dc.b 02 FF FF F0 03 FB FB A0 07 FF FC 50 0F E7 FE 00 ; ...........P....
0148E8  .dc.b 0B CF FE 40 02 8F DF 20 00 0F CF 00 00 06 87 00 ; ...@... ........
0148F8  .dc.b 00 09 01 00 00 00 00 80 00 00 00 00 00 00 00 00 ; ................
014908  .dc.b 00 00 00 00 01 0C 02 00 00 9C 0E 00 00 DE 1C 00 ; ................
014918  .dc.b 00 7C 0C 80 00 7E 1D 80 02 FE 5F 80 01 FE FF 06 ; .|...~...._.....
014928  .dc.b 13 FF FF 3C 0F FF FE F8 03 FF FF F0 04 FF FB F0 ; ...<............
014938  .dc.b 01 FF FF E0 01 3F FF F4 03 FF FF 60 07 FF FF 80 ; .....?.....`....
014948  .dc.b 0F FF FF 80 1F FF FF E0 19 FF FF F0 21 7F FF E0 ; ............!...
014958  .dc.b 02 FF FF F0 03 FB FB A0 07 FF FC 50 0F E7 FE 00 ; ...........P....
014968  .dc.b 0B CF FE 40 02 8F DF 20 00 0F CF 00 00 06 87 00 ; ...@... ........
014978  .dc.b 00 09 01 00 00 00 00 80 00 00 00 00 00 00 00 00 ; ................
014988  .dc.b 00 00 00 00 00 00 00 00 00 00 00 00 00 00 00 00 ; ................
014998  .dc.b 00 00 00 00 00 00 04 00 00 00 08 00 00 40 36 00 ; .............@6.
0149A8  .dc.b 00 60 DA 00 00 71 A6 00 00 29 9C 00 04 15 08 00 ; .`...q...)......
0149B8  .dc.b 02 10 00 00 01 83 98 00 07 07 8C 00 02 4F 08 00 ; .............O..
0149C8  .dc.b 00 63 E1 80 00 67 CB C0 02 C5 D0 00 00 60 98 00 ; .c...g.......`..
0149D8  .dc.b 00 B4 04 00 01 9B 32 00 02 36 AD 00 00 09 24 00 ; ......2..6....$.
0149E8  .dc.b 00 31 C0 00 00 41 00 00 00 00 00 00 00 01 00 00 ; .1...A..........
0149F8  .dc.b 00 00 00 00 00 00 00 00 00 00 00 00 00 00 00 00 ; ................
014A08  .dc.b 00 00 00 00 00 00 00 00 00 00 00 00 00 00 00 00 ; ................
014A18  .dc.b 00 00 00 00 00 00 00 00 00 00 00 00 00 00 40 00 ; ..............@.
014A28  .dc.b 00 00 24 00 00 00 58 00 00 10 60 00 00 0A F0 00 ; ..$...X...`.....
014A38  .dc.b 00 0F F0 00 02 1F E0 00 00 FF F0 00 00 BF F0 00 ; ................
014A48  .dc.b 00 1F FE 00 00 1F F0 00 00 3F E0 00 00 9F E0 00 ; .........?......
014A58  .dc.b 00 0B F8 00 00 04 CC 00 00 09 40 00 00 10 C0 00 ; ..........@.....
014A68  .dc.b 00 00 00 00 00 00 00 00 00 00 00 00 00 00 00 00 ; ................
014A78  .dc.b 00 00 00 00 00 00 00 00 00 00 00 00 00 00 00 00 ; ................
014A88  .dc.b 00 00 00 00 00 00 00 00 00 00 00 00 00 04 20 00 ; .............. .
014A98  .dc.b 00 04 6C 00 01 00 7C 00 00 C8 EE C0 11 F1 FF 80 ; ..l...|.........
014AA8  .dc.b 00 F3 FF 00 01 FB FE 08 14 FF FF 30 1E 3F FE 00 ; ...........0.?..
014AB8  .dc.b 07 BF FC 00 0F FF FD 20 07 FF FE 80 07 FF FF C0 ; ....... ........
014AC8  .dc.b 00 FF FF C0 07 FF FF E0 0F FF FB 40 1C FF FE 00 ; ...........@....
014AD8  .dc.b 01 FF FE 10 03 BF FF 80 07 FF FF C0 07 3F FD E0 ; .............?..
014AE8  .dc.b 00 7F EC 00 00 7B EB 00 08 63 A2 00 10 C1 80 00 ; .....{...c......
014AF8  .dc.b 00 81 08 00 00 01 00 00 00 00 00 00 00 00 00 00 ; ................
014B08  .dc.b 00 00 00 00 00 00 00 00 00 00 00 00 00 04 20 00 ; .............. .
014B18  .dc.b 00 04 6C 00 01 00 7C 00 00 C8 EE C0 11 F1 FF 80 ; ..l...|.........
014B28  .dc.b 00 F3 FF 00 01 FB FE 08 14 FF FF 30 1E 3F FE 00 ; ...........0.?..
014B38  .dc.b 07 BF FC 00 0F FF FD 20 07 FF FE 80 07 FF FF C0 ; ....... ........
014B48  .dc.b 00 FF FF C0 07 FF FF E0 0F FF FB 40 1C FF FE 00 ; ...........@....
014B58  .dc.b 01 FF FE 10 03 BF FF 80 07 FF FF C0 07 3F FD E0 ; .............?..
014B68  .dc.b 00 7F EC 00 00 7B EB 00 08 63 A2 00 10 C1 80 00 ; .....{...c......
014B78  .dc.b 00 81 08 00 00 01 00 00 00 00 00 00 00 00 00 00 ; ................
014B88  .dc.b 08 08 38 38 7D 7C 7B 7C FC 7E 23 3C 57 C8 6F B8 ; ..88}|{|.~#<W.o.
014B98  .dc.b 03 70 34 A4 7B 5E 7D BF 7D 3F 3A 7E 0C 1C 00 00 ; .p4.{^}.}?:~....
014BA8  .dc.b 30 30 7C 7C FE FE FC FE 7B FC 7F F8 2F B0 1F C0 ; 00||....{.../...
014BB8  .dc.b 3F 80 7B 18 FC 3C FE 7E FE 7E 7C 3F 30 3E 00 1C ; ?.{..<.~.~|?0>..
014BC8  .dc.b 3C 38 7E 7C FF FE FF FE FF FE FF FE 7F FC 7F FC ; <8~|............
014BD8  .dc.b 7F FC 7F FE FF FF FF FF FF FF FF FF 7E 7E 3C 3C ; ............~~<<
014BE8  .dc.b 3C 38 7E 7C FF FE FF FE FF FE FF FE 7F FC 7F FC ; <8~|............
014BF8  .dc.b 7F FC 7F FE FF FF FF FF FF FF FF FF 7E 7E 3C 3C ; ............~~<<
014C08  .dc.b 18 10 2C 48 52 94 BA B8 D5 52 68 EC 37 38 13 40 ; ..,HR....Rh.78.@
014C18  .dc.b 38 B0 47 2C 52 46 3A BB D2 1A 64 42 38 2C 00 10 ; 8.G,RF:...dB8,..
014C28  .dc.b 00 00 10 30 3C 78 7C 7C 3A 3C 17 10 0F 80 0F 80 ; ...0<x||:<......
014C38  .dc.b 07 00 38 10 3C 38 7C 7C 3C 7C 18 3C 00 10 00 00 ; ..8.<8||<|.<....
014C48  .dc.b 3C 38 7E 7C FF FE FF FE FF FE FF FE 7F FC 7F F8 ; <8~|............
014C58  .dc.b 7F FC FF FE FF FF FF FF FF FF FE FF 7E 7E 3C 3C ; ............~~<<
014C68  .dc.b 3C 38 7E 7C FF FE FF FE FF FE FF FE 7F FC 7F F8 ; <8~|............
014C78  .dc.b 7F FC FF FE FF FF FF FF FF FF FE FF 7E 7E 3C 3C ; ............~~<<
014C88  .dc.b 00 00 50 08 20 10 50 2E 60 18 03 40 04 E0 08 40 ; ..P. .P.`..@...@
014C98  .dc.b 04 C0 13 80 38 0C 64 26 44 2A 28 10 10 08 00 00 ; ....8.d&D*(.....
014CA8  .dc.b 00 00 20 00 00 08 20 10 00 04 00 00 03 00 07 80 ; .. ... .........
014CB8  .dc.b 03 00 00 00 00 00 18 08 38 14 10 08 00 00 00 00 ; ........8.......
014CC8  .dc.b 70 1C F8 3C F0 7F F8 7F FB BE 77 EC 0F F0 1F E0 ; p..<......w.....
014CD8  .dc.b 0F E0 3F DC 7F BE FE 7F FE 7F 7E 7F 3C 3C 18 18 ; ..?.......~.<<..
014CE8  .dc.b 70 1C F8 3C F0 7F F8 7F FB BE 77 EC 0F F0 1F E0 ; p..<......w.....
014CF8  .dc.b 0F E0 3F DC 7F BE FE 7F FE 7F 7E 7F 3C 3C 18 18 ; ..?.......~.<<..
014D08  .dc.b 00 00 50 1C 20 28 00 00 60 01 40 06 03 00 04 80 ; ..P. (..`.@.....
014D18  .dc.b 06 80 11 00 38 1C 2C 0A 34 6A 18 56 00 30 00 00 ; ....8.,.4j.V.0..
014D28  .dc.b 00 00 20 00 00 10 00 00 00 02 20 00 00 00 03 00 ; .. ....... .....
014D38  .dc.b 01 00 00 00 00 00 10 04 08 04 00 20 00 00 00 00 ; ........... ....
014D48  .dc.b 70 1C F8 3E F0 7C 70 33 F8 0F F3 0F 67 86 0F C0 ; p..>.|p3....g...
014D58  .dc.b 0F C0 3F DC 7D 3E 7E 5F 7E FF 3C FF 18 7A 00 38 ; ..?.}>~_~.<..z.8
014D68  .dc.b 70 1C F8 3E F0 7C 70 33 F8 0F F3 0F 67 86 0F C0 ; p..>.|p3....g...
014D78  .dc.b 0F C0 3F DC 7D 3E 7E 5F 7E FF 3C FF 18 7A 00 38 ; ..?.}>~_~.<..z.8
014D88  .dc.b 00 00 20 20 00 00 00 00 00 00 20 00 00 04 01 80 ; ..  ...... .....
014D98  .dc.b 03 00 00 00 00 04 18 04 18 00 10 60 00 20 00 00 ; ...........`. ..
014DA8  .dc.b 00 00 00 00 00 00 00 00 00 00 00 00 00 00 00 00 ; ................
014DB8  .dc.b 00 00 00 00 00 00 00 00 00 00 00 00 00 00 00 00 ; ................
014DC8  .dc.b 00 20 70 70 30 20 00 08 30 00 70 06 21 8E 03 C4 ; . pp0 ..0.p.!...
014DD8  .dc.b 07 C0 03 84 18 0E 3C 0E 3C 66 38 F0 10 78 00 30 ; ......<.<f8..x.0
014DE8  .dc.b 00 20 70 70 30 20 00 08 30 00 70 06 21 8E 03 C4 ; . pp0 ..0.p.!...
014DF8  .dc.b 07 C0 03 84 18 0E 3C 0E 3C 66 38 F0 10 78 00 30 ; ......<.<f8..x.0
014E08  .dc.b E9 80 17 80 FD 2C 02 FC F1 80 0F 80 FC 30 03 F0 ; .....,.......0..
014E18  .dc.b FB 53 04 BF FE 2C 01 FC F4 A0 0B A0 FE 68 01 E8 ; .S...,.......h..
014E28  .dc.b FD 23 02 DF E8 58 17 F8 F2 C0 0F C0 FE 68 01 E8 ; .#...X.......h..
014E38  .dc.b FB 53 04 BF EE 38 11 F8 F8 C0 07 C0 EA 68 15 E8 ; .S...8.......h..
014E48  .dc.b EC B0 13 F0 FB 1C 04 FC EE 57 11 BF FC 68 03 E8 ; .........W...h..
014E58  .dc.b FB D0 04 D0 FD D8 02 78 F8 16 07 FE F7 68 08 E8 ; .......x.....h..
014E68  .dc.b FC B0 03 B0 EE 28 11 F8 F9 44 06 FC EC 30 13 F0 ; .....(...D...0..
014E78  .dc.b FF A0 01 A0 F2 96 0D 7E D9 C0 27 C0 E2 68 1D F8 ; .......~..'..h..
014E88  .dc.b 01 97 01 E8 34 BF 3F 40 01 8F 01 F0 0C 3F 0F C0 ; ....4.?@.....?..
014E98  .dc.b CA DF FD 20 34 7B 3F 84 05 2F 05 D0 16 7F 17 80 ; ... 4{?../......
014EA8  .dc.b C4 BF FB 40 1A 17 1F E8 03 4F 03 F0 16 7F 17 80 ; ...@.....O......
014EB8  .dc.b CA DF FD 20 1C 77 1F 88 03 1F 03 E0 16 57 17 A8 ; ... .w.......W..
014EC8  .dc.b 0D 37 0F C8 38 DF 3F 20 EA 77 FD 88 16 3F 17 C0 ; .7..8.? .w...?..
014ED8  .dc.b 0B DF 0B 20 1B BF 1E 40 68 1F 7F E0 16 EF 17 10 ; ... ...@h.......
014EE8  .dc.b 0D 3F 0D C0 14 77 1F 88 22 9F 3F 60 0C 37 0F C8 ; .?...w..".?`.7..
014EF8  .dc.b 05 FF 05 80 69 4F 7E B0 03 9F 03 E0 16 47 1F B8 ; ....iO~......G..
014F08  .dc.b 00 00 00 00 00 00 00 00 00 00 00 00 00 00 00 00 ; ................
014F18  .dc.b 00 00 00 00 04 00 04 00 0E 00 0A 00 04 00 04 10 ; ................
014F28  .dc.b 00 38 00 28 00 38 00 44 00 38 00 28 00 00 00 10 ; .8.(.8.D.8.(....
014F38  .dc.b 00 00 00 10 00 38 00 28 00 10 00 28 00 BA 00 C6 ; .....8.(...(....
014F48  .dc.b 00 FE 01 01 00 BA 00 C6 00 10 00 28 00 38 00 28 ; ...........(.8.(
014F58  .dc.b 00 01 00 11 00 00 00 00 00 00 00 00 00 00 00 00 ; ................
014F68  .dc.b 00 00 00 00 00 00 00 04 00 0E 00 0A 00 0E 00 11 ; ................
014F78  .dc.b 00 0E 00 0A 00 00 00 04 00 00 00 00 00 10 00 10 ; ................
014F88  .dc.b 00 38 00 28 00 10 00 10 00 00 02 00 07 00 05 00 ; .8.(............
014F98  .dc.b 07 00 08 80 07 00 05 00 00 00 02 00 00 00 00 00 ; ................
014FA8  .dc.b 00 00 00 00 00 00 00 00 00 00 00 00 00 00 00 00 ; ................
014FB8  .dc.b 00 00 00 00 00 00 00 00 00 00 00 00 00 00 00 00 ; ................
014FC8  .dc.b 04 00 04 00 0E 00 0E 00 04 10 04 10 00 38 00 38 ; .............8.8
014FD8  .dc.b 00 7C 00 7C 00 38 00 38 00 10 00 10 00 10 00 10 ; .|.|.8.8........
014FE8  .dc.b 00 38 00 38 00 38 00 38 00 FE 00 FE 01 FF 01 FF ; .8.8.8.8........
014FF8  .dc.b 00 FE 00 FE 00 38 00 38 00 38 00 38 00 11 00 11 ; .....8.8.8.8....
015008  .dc.b 00 00 00 00 00 00 00 00 00 00 00 00 00 00 00 00 ; ................
015018  .dc.b 00 04 00 04 00 0E 00 0E 00 1F 00 1F 00 0E 00 0E ; ................
015028  .dc.b 00 04 00 04 00 00 00 00 00 10 00 10 00 38 00 38 ; .............8.8
015038  .dc.b 00 10 00 10 02 00 02 00 07 00 07 00 0F 80 0F 80 ; ................
015048  .dc.b 07 00 07 00 02 00 02 00 00 00 00 00 00 00 00 00 ; ................
015058  .dc.b 00 00 00 00 00 00 00 00 00 00 00 00 00 00 00 00 ; ................
015068  .dc.b 00 00 00 00 00 00 00 00 04 00 04 00 0E 00 0A 00 ; ................
015078  .dc.b 04 00 04 00 00 00 00 00 00 00 00 00 00 00 00 00 ; ................
015088  .dc.b 00 00 00 00 00 00 10 00 38 00 28 00 54 00 6C 00 ; ........8.(.T.l.
015098  .dc.b 7C 00 82 00 54 00 6C 80 39 C0 29 40 00 80 11 40 ; |...T.l.9.)@...@
0150A8  .dc.b 01 C0 02 20 8B E8 8C 18 CF F8 50 04 BB E8 AC 18 ; ... ......P.....
0150B8  .dc.b 55 C0 6E 20 7C 80 83 40 55 C0 6D 40 38 00 28 80 ; U.n |..@U.m@8.(.
0150C8  .dc.b 00 00 10 00 00 00 00 00 00 00 00 40 00 E0 00 A0 ; ...........@....
0150D8  .dc.b 00 E0 01 10 00 E0 00 A0 00 00 04 40 0E 00 0A 00 ; ...........@....
0150E8  .dc.b 04 00 0A 00 2E 80 31 80 3F 80 40 40 2E 80 31 80 ; ......1.?.@@..1.
0150F8  .dc.b 04 00 0A 00 0E 00 0A 00 00 00 04 00 00 00 00 00 ; ................
015108  .dc.b 00 00 00 00 00 00 00 00 00 00 00 00 00 00 00 00 ; ................
015118  .dc.b 00 00 00 00 04 00 04 00 0E 00 0E 00 04 00 04 00 ; ................
015128  .dc.b 00 00 00 00 00 00 00 00 00 00 00 00 00 00 00 00 ; ................
015138  .dc.b 10 00 10 00 38 00 38 00 7C 00 7C 00 FE 00 FE 00 ; ....8.8.|.|.....
015148  .dc.b 7C 80 7C 80 39 C0 39 C0 11 C0 11 C0 03 E0 03 E0 ; |.|.9.9.........
015158  .dc.b 8F F8 8F F8 DF FC DF FC BF F8 BF F8 7F E0 7F E0 ; ................
015168  .dc.b FF C0 FF C0 7D C0 7D C0 38 80 38 80 10 00 10 00 ; ....}.}.8.8.....
015178  .dc.b 00 00 00 00 00 40 00 40 00 E0 00 E0 01 F0 01 F0 ; .....@.@........
015188  .dc.b 00 E0 00 E0 04 40 04 40 0E 00 0E 00 0E 00 0E 00 ; .....@.@........
015198  .dc.b 3F 80 3F 80 7F C0 7F C0 3F 80 3F 80 0E 00 0E 00 ; ?.?.....?.?.....
0151A8  .dc.b 0E 00 0E 00 04 00 04 00 00 00 00 00 00 00 00 00 ; ................
0151B8  .dc.b 00 00 00 00 00 00 00 00 00 00 00 00 00 00 00 00 ; ................
0151C8  .dc.b 00 00 04 00 0E 00 0A 00 0E 00 11 10 0E 38 0A 28 ; .............8.(
0151D8  .dc.b 00 54 04 6C 00 7C 00 82 00 54 00 6C 00 38 00 28 ; .T.l.|...T.l.8.(
0151E8  .dc.b 08 00 08 10 1C 00 14 10 08 38 08 29 00 54 00 6C ; .........8.).T.l
0151F8  .dc.b 00 7C 00 82 00 54 00 6C 00 38 00 28 00 01 00 11 ; .|...T.l.8.(....
015208  .dc.b 00 01 00 02 00 01 00 01 00 80 00 80 01 C0 01 41 ; ...............A
015218  .dc.b 00 80 00 84 04 0E 04 0A 0E 15 0A 1B 04 1F 04 20 ; ............... 
015228  .dc.b 00 15 00 1B 00 0E 00 0A 00 00 00 24 00 71 00 51 ; ...........$.q.Q
015238  .dc.b 00 73 00 8A 00 71 02 51 07 00 05 20 0A 80 0D 80 ; .s...q.Q... ....
015248  .dc.b 0F 80 10 40 0A 80 0D 80 07 00 05 00 00 00 02 00 ; ...@............
015258  .dc.b 00 00 00 00 00 00 00 00 00 00 00 00 00 00 00 00 ; ................
015268  .dc.b 00 00 00 00 00 00 00 00 00 00 00 00 04 00 04 00 ; ................
015278  .dc.b 0E 00 0E 00 1F 10 1F 10 0E 38 0E 38 04 7C 04 7C ; .........8.8.|.|
015288  .dc.b 00 FE 00 FE 00 7C 00 7C 00 38 00 38 08 10 08 10 ; .....|.|.8.8....
015298  .dc.b 1C 10 1C 10 08 39 08 39 00 7C 00 7C 00 FE 00 FE ; .....9.9.|.|....
0152A8  .dc.b 00 7C 00 7C 00 38 00 38 00 11 00 11 00 03 00 03 ; .|.|.8.8........
0152B8  .dc.b 00 01 00 01 00 80 00 80 01 C1 01 C1 00 84 00 84 ; ................
0152C8  .dc.b 04 0E 04 0E 0E 1F 0E 1F 04 3F 04 3F 00 1F 00 1F ; .........?.?....
0152D8  .dc.b 00 0E 00 0E 00 24 00 24 00 71 00 71 00 FB 00 FB ; .....$.$.q.q....
0152E8  .dc.b 02 71 02 71 07 20 07 20 0F 80 0F 80 1F C0 1F C0 ; .q.q. . ........
0152F8  .dc.b 0F 80 0F 80 07 00 07 00 02 00 02 00 00 00 00 00 ; ................
015308  .dc.b 00 00 00 00 00 00 00 00 00 00 00 00 00 00 00 00 ; ................
015318  .dc.b 00 00 00 00 00 00 04 00 0E 00 0A 00 0E 00 11 00 ; ................
015328  .dc.b 0E 00 0A 00 00 00 04 00 00 00 00 00 00 80 00 80 ; ................
015338  .dc.b 01 C0 11 40 38 80 28 80 10 00 28 00 BA 00 C6 00 ; ...@8.(...(.....
015348  .dc.b FE 00 01 00 BA 00 C6 00 10 00 28 80 39 C0 29 40 ; ..........(.9.)@
015358  .dc.b 00 80 91 40 C5 D0 56 30 DF F0 28 08 D5 D0 6E 30 ; ...@..V0..(...n0
015368  .dc.b 3A 80 C7 40 FE C0 01 40 BA 00 C6 80 10 00 28 00 ; :..@...@......(.
015378  .dc.b 38 00 28 00 00 00 90 40 00 E0 00 A0 01 50 01 B0 ; 8.(....@.....P..
015388  .dc.b 01 F0 02 08 01 50 01 B0 80 E0 80 A0 00 00 04 40 ; .....P.........@
015398  .dc.b 0E 00 0A 00 15 00 1B 00 1F 00 20 80 15 00 1B 00 ; .......... .....
0153A8  .dc.b 0E 00 0A 00 00 00 04 00 00 00 00 00 00 00 00 00 ; ................
0153B8  .dc.b 00 00 00 00 00 00 00 00 00 00 00 00 00 00 00 00 ; ................
0153C8  .dc.b 04 00 04 00 0E 00 0E 00 1F 00 1F 00 0E 00 0E 00 ; ................
0153D8  .dc.b 04 00 04 00 00 00 00 00 00 80 00 80 11 C0 11 C0 ; ................
0153E8  .dc.b 38 80 38 80 38 00 38 00 FE 00 FE 00 FF 00 FF 00 ; 8.8.8.8.........
0153F8  .dc.b FE 00 FE 00 38 80 38 80 39 C0 39 C0 91 C0 91 C0 ; ....8.8.9.9.....
015408  .dc.b D7 F0 D7 F0 FF F8 FF F8 FF F0 FF F0 FF C0 FF C0 ; ................
015418  .dc.b FF C0 FF C0 FE 80 FE 80 38 00 38 00 38 00 38 00 ; ........8.8.8.8.
015428  .dc.b 90 40 90 40 00 E0 00 E0 01 F0 01 F0 03 F8 03 F8 ; .@.@............
015438  .dc.b 01 F0 01 F0 80 E0 80 E0 04 40 04 40 0E 00 0E 00 ; .........@.@....
015448  .dc.b 1F 00 1F 00 3F 80 3F 80 1F 00 1F 00 0E 00 0E 00 ; ....?.?.........
015458  .dc.b 04 00 04 00 00 00 00 00 00 00 00 00 00 00 00 00 ; ................
015468  .dc.b 00 00 00 00 00 00 00 00 00 00 00 00 00 00 04 00 ; ................
015478  .dc.b 0E 00 0A 00 15 00 1B 10 1F 38 20 A8 15 10 1B 28 ; .........8 ....(
015488  .dc.b 0E BA 0A C6 00 FE 05 01 00 BA 00 C6 00 10 08 28 ; ...............(
015498  .dc.b 1C 38 14 28 1C 01 22 11 1C 01 14 12 00 39 08 29 ; .8.(.."......9.)
0154A8  .dc.b 00 38 00 44 00 38 00 28 00 01 00 11 00 02 00 03 ; .8.D.8.(........
0154B8  .dc.b 00 03 00 04 00 02 00 83 01 C1 01 41 01 C1 02 26 ; ...........A...&
0154C8  .dc.b 01 CF 05 4B 0E 04 0A 8A 0E 2E 11 31 0E 3F 0A 40 ; ...K.......1.?.@
0154D8  .dc.b 00 2E 04 31 00 04 00 2A 00 7E 00 5B 00 AB 00 DE ; ...1...*.~.[....
0154E8  .dc.b 00 FB 03 04 07 AB 05 DA 02 70 05 51 17 40 18 E0 ; .........p.Q.@..
0154F8  .dc.b 1F C0 20 20 17 40 18 C0 02 00 05 00 07 00 05 00 ; ..  .@..........
015508  .dc.b 00 00 02 00 00 00 00 00 00 00 00 00 00 00 00 00 ; ................
015518  .dc.b 00 00 00 00 00 00 00 00 04 00 04 00 0E 00 0E 00 ; ................
015528  .dc.b 1F 10 1F 10 3F B8 3F B8 1F 38 1F 38 0E FE 0E FE ; ....?.?..8.8....
015538  .dc.b 05 FF 05 FF 00 FE 00 FE 08 38 08 38 1C 38 1C 38 ; .........8.8.8.8
015548  .dc.b 3E 11 3E 11 1C 13 1C 13 08 39 08 39 00 7C 00 7C ; >.>......9.9.|.|
015558  .dc.b 00 38 00 38 00 11 00 11 00 03 00 03 00 07 00 07 ; .8.8............
015568  .dc.b 00 83 00 83 01 C1 01 C1 03 E7 03 E7 05 CF 05 CF ; ................
015578  .dc.b 0E 8E 0E 8E 1F 3F 1F 3F 0E 7F 0E 7F 04 3F 04 3F ; .....?.?.....?.?
015588  .dc.b 00 2E 00 2E 00 7F 00 7F 00 FF 00 FF 03 FF 03 FF ; ................
015598  .dc.b 07 FB 07 FB 07 71 07 71 1F E0 1F E0 3F E0 3F E0 ; .....q.q....?.?.
0155A8  .dc.b 1F C0 1F C0 07 00 07 00 07 00 07 00 02 00 02 00 ; ................
0155B8  .dc.b 00 00 00 00 00 00 00 00 00 00 00 00 00 00 00 00 ; ................
0155C8  .dc.b 00 00 04 00 0E 00 0A 00 15 00 1B 00 1F 00 20 80 ; .............. .
0155D8  .dc.b 15 00 1B 00 0E 00 0A 00 00 00 04 80 01 C0 11 40 ; ...............@
0155E8  .dc.b 39 C0 2A 20 11 C0 29 40 38 00 44 80 7D 00 83 00 ; 9.* ..)@8.D.}...
0155F8  .dc.b FF 00 00 80 7D 00 83 00 38 00 44 00 10 00 A8 80 ; ....}...8.D.....
015608  .dc.b E9 C0 79 40 BA A0 6B 60 E3 E0 1C 10 BA A0 67 60 ; ..y@..k`......g`
015618  .dc.b FD C0 43 40 7F 00 80 80 7D 00 83 00 38 00 44 00 ; ..C@....}...8.D.
015628  .dc.b 90 00 A8 40 B8 E0 68 A0 80 40 90 A0 02 E8 03 18 ; ...@..h..@......
015638  .dc.b 03 F8 04 04 82 E8 83 18 80 40 40 A0 80 E0 80 A0 ; .........@@.....
015648  .dc.b 00 00 04 40 0E 00 0A 00 0E 00 11 00 0E 00 0A 00 ; ...@............
015658  .dc.b 00 00 04 00 00 00 00 00 00 00 00 00 00 00 00 00 ; ................
015668  .dc.b 00 00 00 00 00 00 00 00 00 00 00 00 04 00 04 00 ; ................
015678  .dc.b 0E 00 0E 00 1F 00 1F 00 3F 80 3F 80 1F 00 1F 00 ; ........?.?.....
015688  .dc.b 0E 00 0E 00 04 80 04 80 11 C0 11 C0 3B E0 3B E0 ; ............;.;.
015698  .dc.b 39 C0 39 C0 7C 80 7C 80 FF 00 FF 00 FF 80 FF 80 ; 9.9.|.|.........
0156A8  .dc.b FF 00 FF 00 7C 00 7C 00 B8 80 B8 80 F9 C0 F9 C0 ; ....|.|.........
0156B8  .dc.b FB E0 FB E0 FF F0 FF F0 FF E0 FF E0 FF C0 FF C0 ; ................
0156C8  .dc.b FF 80 FF 80 FF 00 FF 00 7C 00 7C 00 B8 40 B8 40 ; ........|.|..@.@
0156D8  .dc.b F8 E0 F8 E0 90 E0 90 E0 03 F8 03 F8 07 FC 07 FC ; ................
0156E8  .dc.b 83 F8 83 F8 C0 E0 C0 E0 80 E0 80 E0 04 40 04 40 ; .............@.@
0156F8  .dc.b 0E 00 0E 00 1F 00 1F 00 0E 00 0E 00 04 00 04 00 ; ................
015708  .dc.b 00 00 00 00 00 00 00 00 00 00 00 00 00 00 00 00 ; ................
015718  .dc.b 00 00 00 00 00 00 00 00 00 00 04 00 0E 00 0A 00 ; ................
015728  .dc.b 04 00 0A 10 2E B8 31 A8 3F 90 40 68 2E B8 31 C4 ; ......1.?.@h..1.
015738  .dc.b 05 7D 0B 83 0D FF 0A 00 01 7D 0D 83 1C 38 14 44 ; .}.......}...8.D
015748  .dc.b 2A 10 36 28 3E 38 41 28 2A 00 36 11 1C 10 14 10 ; *.6(>8A(*.6.....
015758  .dc.b 00 38 08 28 00 11 00 11 00 00 00 01 00 05 00 06 ; .8.(............
015768  .dc.b 00 07 00 88 01 C5 01 46 02 A0 03 65 03 EF 04 1B ; .......F...e....
015778  .dc.b 0E A4 0B 6A 15 CE 1B 51 1F 5F 20 E0 15 7F 1B 80 ; ...j...Q._ .....
015788  .dc.b 0E 5F 0A 60 00 6E 04 51 00 27 00 5A 01 7D 03 8E ; ._.`.n.Q.'.Z.}..
015798  .dc.b 07 F7 05 08 02 75 05 8E 07 23 08 D2 2F B0 30 71 ; .....u...#../.0q
0157A8  .dc.b 3F E0 40 10 2F A0 30 60 07 00 08 80 02 00 05 00 ; ?.@./.0`........
0157B8  .dc.b 07 00 05 00 00 00 02 00 00 00 00 00 00 00 00 00 ; ................
0157C8  .dc.b 00 00 00 00 04 00 04 00 0E 00 0E 00 0E 10 0E 10 ; ................
0157D8  .dc.b 3F B8 3F B8 7F F8 7F F8 3F FC 3F FC 0F FF 0F FF ; ?.?.....?.?.....
0157E8  .dc.b 0F FF 0F FF 0D FF 0D FF 1C 7C 1C 7C 3E 38 3E 38 ; .........|.|>8>8
0157F8  .dc.b 7F 38 7F 38 3E 11 3E 11 1C 10 1C 10 08 38 08 38 ; .8.8>.>......8.8
015808  .dc.b 00 11 00 11 00 01 00 01 00 07 00 07 00 8F 00 8F ; ................
015818  .dc.b 01 C7 01 C7 03 E5 03 E5 07 FF 07 FF 0F EE 0F EE ; ................
015828  .dc.b 1F DF 1F DF 3F FF 3F FF 1F FF 1F FF 0E 7F 0E 7F ; ....?.?.........
015838  .dc.b 04 7F 04 7F 00 7F 00 7F 03 FF 03 FF 07 FF 07 FF ; ................
015848  .dc.b 07 FF 07 FF 0F F3 0F F3 3F F1 3F F1 7F F0 7F F0 ; ........?.?.....
015858  .dc.b 3F E0 3F E0 0F 80 0F 80 07 00 07 00 07 00 07 00 ; ?.?.............
015868  .dc.b 02 00 02 00 00 00 00 00 00 00 00 00 00 00 04 00 ; ................
015878  .dc.b 0E 00 0A 00 04 00 0A 00 2E 80 31 80 3F 80 40 40 ; ..........1.?.@@
015888  .dc.b 2E 80 31 80 04 00 0A 80 0F C0 0B 40 02 A0 87 60 ; ..1........@...`
015898  .dc.b 03 E0 14 10 3A A0 2B 60 11 C0 29 40 BA 00 C6 80 ; ....:.+`..)@....
0158A8  .dc.b FE 00 01 00 BA 00 C6 00 10 00 A8 00 F8 00 68 00 ; ..............h.
0158B8  .dc.b 80 00 50 80 D1 C0 31 40 F1 C0 0A 20 D1 C0 39 40 ; ..P...1@... ..9@
0158C8  .dc.b BA 00 46 80 FE 00 41 00 3A 00 C6 00 10 00 28 40 ; ..F...A.:.....(@
0158D8  .dc.b 78 E0 E8 A0 C0 40 30 A0 40 E0 C1 10 01 F4 02 0C ; x....@0.@.......
0158E8  .dc.b 87 FC 88 02 45 F4 C6 0C C0 E0 21 10 40 40 C0 A0 ; ....E.....!.@@..
0158F8  .dc.b 80 E0 80 A0 04 00 04 40 0E 00 0A 00 04 00 04 00 ; .......@........
015908  .dc.b 00 00 00 00 00 00 00 00 00 00 00 00 00 00 00 00 ; ................
015918  .dc.b 00 00 00 00 00 00 00 00 04 00 04 00 0E 00 0E 00 ; ................
015928  .dc.b 0E 00 0E 00 3F 80 3F 80 7F C0 7F C0 3F 80 3F 80 ; ....?.?.....?.?.
015938  .dc.b 0E 80 0E 80 0F C0 0F C0 87 E0 87 E0 17 F0 17 F0 ; ................
015948  .dc.b 3B E0 3B E0 39 C0 39 C0 FE 80 FE 80 FF 00 FF 00 ; ;.;.9.9.........
015958  .dc.b FE 00 FE 00 B8 00 B8 00 F8 00 F8 00 D0 80 D0 80 ; ................
015968  .dc.b F1 C0 F1 C0 FB E0 FB E0 F9 C0 F9 C0 FE 80 FE 80 ; ................
015978  .dc.b FF 00 FF 00 FE 00 FE 00 38 40 38 40 F8 E0 F8 E0 ; ........8@8@....
015988  .dc.b F0 E0 F0 E0 C1 F0 C1 F0 03 FC 03 FC 8F FE 8F FE ; ................
015998  .dc.b C7 FC C7 FC E1 F0 E1 F0 C0 E0 C0 E0 80 E0 80 E0 ; ................
0159A8  .dc.b 04 40 04 40 0E 00 0E 00 04 00 04 00 00 00 00 00 ; .@.@............
0159B8  .dc.b 00 00 00 00 00 00 00 00 00 00 00 00 00 00 00 00 ; ................
0159C8  .dc.b 00 00 00 00 00 00 04 00 0E 00 0A 00 04 00 0A 00 ; ................
0159D8  .dc.b 0E 00 11 00 5F 40 60 D0 7F F8 80 28 5F 50 60 E8 ; ...._@`....(_P`.
0159E8  .dc.b 0E BA 11 C6 04 FE 0B 01 1E BA 16 C6 08 10 14 28 ; ...............(
0159F8  .dc.b 5D 38 63 28 7F 00 80 90 5D 00 63 10 08 38 14 28 ; ]8c(....].c..8.(
015A08  .dc.b 1C 39 14 45 00 38 08 29 00 01 00 12 00 0B 00 0C ; .9.E.8.)........
015A18  .dc.b 00 0F 00 10 00 0B 00 8C 01 C1 05 42 0F C0 0A 25 ; ...........B...%
015A28  .dc.b 05 CF 0B 4B 2E 84 31 8A 3F AE 40 71 2E BF 31 C0 ; ...K..1.?.@q..1.
015A38  .dc.b 04 6E 0A 71 0E 24 0A 5A 00 7E 04 8B 02 FB 03 06 ; .n.q.$.Z.~......
015A48  .dc.b 01 FB 06 04 07 FB 05 06 02 70 05 89 17 60 18 D0 ; .........p...`..
015A58  .dc.b 1F D0 20 30 17 40 18 E0 02 00 05 00 07 00 05 00 ; .. 0.@..........
015A68  .dc.b 00 00 02 00 00 00 00 00 00 00 00 00 00 00 00 00 ; ................
015A78  .dc.b 04 00 04 00 0E 00 0E 00 0E 00 0E 00 1F 00 1F 00 ; ................
015A88  .dc.b 7F D0 7F D0 FF F8 FF F8 7F F8 7F F8 1F FE 1F FE ; ................
015A98  .dc.b 0F FF 0F FF 1E FE 1E FE 1C 38 1C 38 7F 38 7F 38 ; .........8.8.8.8
015AA8  .dc.b FF 90 FF 90 7F 10 7F 10 1C 38 1C 38 1C 7D 1C 7D ; .........8.8.}.}
015AB8  .dc.b 08 39 08 39 00 13 00 13 00 0F 00 0F 00 1F 00 1F ; .9.9............
015AC8  .dc.b 00 8F 00 8F 05 C3 05 C3 0F E5 0F E5 0F CF 0F CF ; ................
015AD8  .dc.b 3F 8E 3F 8E 7F FF 7F FF 3F FF 3F FF 0E 7F 0E 7F ; ?.?.....?.?.....
015AE8  .dc.b 0E 7E 0E 7E 04 FF 04 FF 03 FF 03 FF 07 FF 07 FF ; .~.~............
015AF8  .dc.b 07 FF 07 FF 07 F9 07 F9 1F F0 1F F0 3F F0 3F F0 ; ............?.?.
015B08  .dc.b 1F E0 1F E0 07 00 07 00 07 00 07 00 02 00 02 00 ; ................
015B18  .dc.b 00 00 00 00 00 00 00 00 00 00 00 00 00 00 00 00 ; ................
015B28  .dc.b 00 00 04 00 0E 00 0A 00 15 00 1B 00 1F 00 20 80 ; .............. .
015B38  .dc.b 15 00 1B 00 0E 00 0A 00 00 00 04 80 01 C0 01 40 ; ...............@
015B48  .dc.b 01 C0 02 20 01 C0 11 40 38 00 28 80 54 00 6C 00 ; ... ...@8.(.T.l.
015B58  .dc.b 7C 00 82 00 54 00 EC 00 F8 00 68 00 80 00 50 00 ; |...T.....h...P.
015B68  .dc.b C0 00 20 00 E8 80 18 80 FD C0 05 40 E8 80 18 80 ; .. ........@....
015B78  .dc.b D4 00 2C 00 BC 00 42 00 D4 00 6C 00 38 00 A8 00 ; ..,...B...l.8...
015B88  .dc.b 80 00 90 40 80 E0 40 A0 80 40 80 A0 02 E8 03 18 ; ...@..@..@......
015B98  .dc.b 03 F8 04 04 82 E8 83 18 80 40 40 A0 80 E0 80 A0 ; .........@@.....
015BA8  .dc.b 00 00 04 40 0E 00 0A 00 0E 00 11 00 0E 00 0A 00 ; ...@............
015BB8  .dc.b 00 00 04 00 00 00 00 00 00 00 00 00 00 00 00 00 ; ................
015BC8  .dc.b 00 00 00 00 00 00 00 00 00 00 00 00 04 00 04 00 ; ................
015BD8  .dc.b 0E 00 0E 00 1F 00 1F 00 3F 80 3F 80 1F 00 1F 00 ; ........?.?.....
015BE8  .dc.b 0E 00 0E 00 04 80 04 80 01 C0 01 C0 03 E0 03 E0 ; ................
015BF8  .dc.b 11 C0 11 C0 38 80 38 80 7C 00 7C 00 FE 00 FE 00 ; ....8.8.|.|.....
015C08  .dc.b FC 00 FC 00 F8 00 F8 00 D0 00 D0 00 E0 00 E0 00 ; ................
015C18  .dc.b F8 80 F8 80 FD C0 FD C0 F8 80 F8 80 FC 00 FC 00 ; ................
015C28  .dc.b FE 00 FE 00 FC 00 FC 00 B8 00 B8 00 90 40 90 40 ; .............@.@
015C38  .dc.b C0 E0 C0 E0 80 E0 80 E0 03 F8 03 F8 07 FC 07 FC ; ................
015C48  .dc.b 83 F8 83 F8 C0 E0 C0 E0 80 E0 80 E0 04 40 04 40 ; .............@.@
015C58  .dc.b 0E 00 0E 00 1F 00 1F 00 0E 00 0E 00 04 00 04 00 ; ................
015C68  .dc.b 00 00 00 00 00 00 00 00 00 00 00 00 00 00 00 00 ; ................
015C78  .dc.b 00 00 00 00 00 00 00 00 00 00 04 00 0E 00 0A 00 ; ................
015C88  .dc.b 04 00 0A 00 2E 80 31 80 3F 80 40 50 2E B8 31 A8 ; ......1.?.@P..1.
015C98  .dc.b 04 54 0A 6C 0E 7C 0A 82 00 54 0C 6C 1C 38 14 28 ; .T.l.|...T.l.8.(
015CA8  .dc.b 2A 00 36 10 3E 00 41 10 2A 38 36 28 1C 54 14 6C ; *.6.>.A.*86(.T.l
015CB8  .dc.b 00 7C 08 82 00 55 00 6D 00 38 00 29 00 05 00 16 ; .|...U.m.8.)....
015CC8  .dc.b 00 07 00 08 00 05 00 06 00 80 00 81 01 C1 05 41 ; ...............A
015CD8  .dc.b 0E 80 0A 84 15 0E 1B 0A 1F 15 20 9B 15 1F 1B 20 ; .......... .... 
015CE8  .dc.b 0E 15 0A 3B 00 7E 04 5A 00 20 00 54 01 75 01 8D ; ...;.~.Z. .T.u..
015CF8  .dc.b 01 FF 02 02 01 75 03 8D 07 20 05 50 0A F0 0D D0 ; .....u... .P....
015D08  .dc.b 0F 80 10 60 0A 80 0D 80 07 00 05 00 00 00 02 00 ; ...`............
015D18  .dc.b 00 00 00 00 00 00 00 00 00 00 00 00 00 00 00 00 ; ................
015D28  .dc.b 00 00 00 00 04 00 04 00 0E 00 0E 00 0E 00 0E 00 ; ................
015D38  .dc.b 3F 80 3F 80 7F D0 7F D0 3F B8 3F B8 0E 7C 0E 7C ; ?.?.....?.?..|.|
015D48  .dc.b 0E FE 0E FE 0C 7C 0C 7C 1C 38 1C 38 3E 10 3E 10 ; .....|.|.8.8>.>.
015D58  .dc.b 7F 10 7F 10 3E 38 3E 38 1C 7C 1C 7C 08 FE 08 FE ; ....>8>8.|.|....
015D68  .dc.b 00 7D 00 7D 00 39 00 39 00 17 00 17 00 0F 00 0F ; .}.}.9.9........
015D78  .dc.b 00 07 00 07 00 81 00 81 05 C1 05 C1 0E 84 0E 84 ; ................
015D88  .dc.b 1F 0E 1F 0E 3F 9F 3F 9F 1F 3F 1F 3F 0E 3F 0E 3F ; ....?.?..?.?.?.?
015D98  .dc.b 04 7E 04 7E 00 74 00 74 01 FD 01 FD 03 FF 03 FF ; .~.~.t.t........
015DA8  .dc.b 03 FD 03 FD 07 70 07 70 0F F0 0F F0 1F E0 1F E0 ; .....p.p........
015DB8  .dc.b 0F 80 0F 80 07 00 07 00 02 00 02 00 00 00 00 00 ; ................
015DC8  .dc.b 00 00 00 00 00 00 00 00 00 00 00 00 00 00 00 00 ; ................
015DD8  .dc.b 00 00 00 00 00 00 04 00 0E 00 0A 00 0E 00 11 00 ; ................
015DE8  .dc.b 0E 00 0A 00 00 00 04 00 00 00 00 00 00 80 00 80 ; ................
015DF8  .dc.b 01 C0 01 40 00 80 00 80 00 00 10 00 38 00 28 00 ; ...@........8.(.
015E08  .dc.b 38 00 44 00 38 00 28 00 00 00 90 00 C0 00 40 00 ; 8.D.8.(.......@.
015E18  .dc.b 80 00 40 80 D1 C0 31 40 F1 C0 0A 20 D1 C0 31 40 ; ..@...1@... ..1@
015E28  .dc.b B8 00 68 80 F8 00 44 00 38 00 A8 00 00 00 10 00 ; ..h...D.8.......
015E38  .dc.b 00 00 00 00 00 00 80 40 00 E0 00 A0 01 50 01 B0 ; .......@.....P..
015E48  .dc.b 01 F0 02 08 01 50 01 B0 80 E0 80 A0 00 00 04 40 ; .....P.........@
015E58  .dc.b 0E 00 0A 00 15 00 1B 00 1F 00 20 80 15 00 1B 00 ; .......... .....
015E68  .dc.b 0E 00 0A 00 00 00 04 00 00 00 00 00 00 00 00 00 ; ................
015E78  .dc.b 00 00 00 00 00 00 00 00 00 00 00 00 00 00 00 00 ; ................
015E88  .dc.b 04 00 04 00 0E 00 0E 00 1F 00 1F 00 0E 00 0E 00 ; ................
015E98  .dc.b 04 00 04 00 00 00 00 00 00 80 00 80 01 C0 01 C0 ; ................
015EA8  .dc.b 00 80 00 80 10 00 10 00 38 00 38 00 7C 00 7C 00 ; ........8.8.|.|.
015EB8  .dc.b 38 00 38 00 90 00 90 00 C0 00 C0 00 C0 80 C0 80 ; 8.8.............
015EC8  .dc.b F1 C0 F1 C0 FB E0 FB E0 F1 C0 F1 C0 F8 80 F8 80 ; ................
015ED8  .dc.b FC 00 FC 00 B8 00 B8 00 10 00 10 00 00 00 00 00 ; ................
015EE8  .dc.b 80 40 80 40 00 E0 00 E0 01 F0 01 F0 03 F8 03 F8 ; .@.@............
015EF8  .dc.b 01 F0 01 F0 80 E0 80 E0 04 40 04 40 0E 00 0E 00 ; .........@.@....
015F08  .dc.b 1F 00 1F 00 3F 80 3F 80 1F 00 1F 00 0E 00 0E 00 ; ....?.?.........
015F18  .dc.b 04 00 04 00 00 00 00 00 00 00 00 00 00 00 00 00 ; ................
015F28  .dc.b 00 00 00 00 00 00 00 00 00 00 00 00 00 00 04 00 ; ................
015F38  .dc.b 0E 00 0A 00 15 00 1B 00 1F 00 20 80 15 00 1B 10 ; .......... .....
015F48  .dc.b 0E 38 0A 28 00 38 04 44 00 38 00 28 00 00 08 10 ; .8.(.8.D.8.(....
015F58  .dc.b 1C 00 14 10 1C 38 22 28 1C 10 14 28 00 BA 08 C6 ; .....8"(...(....
015F68  .dc.b 00 FE 01 01 00 BA 00 C6 00 11 00 29 00 3A 00 2B ; ...........).:.+
015F78  .dc.b 00 03 00 14 00 02 00 03 00 01 00 01 00 00 00 00 ; ................
015F88  .dc.b 00 00 04 00 0E 00 0A 04 0E 0E 11 0A 0E 0E 0A 11 ; ................
015F98  .dc.b 00 0E 04 0A 00 00 00 24 00 70 00 50 00 A8 00 D8 ; .......$.p.P....
015FA8  .dc.b 00 F8 01 04 00 A8 00 D8 00 70 02 50 07 00 05 20 ; .........p.P... 
015FB8  .dc.b 07 00 08 80 07 00 05 00 00 00 02 00 00 00 00 00 ; ................
015FC8  .dc.b 00 00 00 00 00 00 00 00 00 00 00 00 00 00 00 00 ; ................
015FD8  .dc.b 00 00 00 00 00 00 00 00 04 00 04 00 0E 00 0E 00 ; ................
015FE8  .dc.b 1F 00 1F 00 3F 80 3F 80 1F 10 1F 10 0E 38 0E 38 ; ....?.?......8.8
015FF8  .dc.b 04 7C 04 7C 00 38 00 38 08 10 08 10 1C 10 1C 10 ; .|.|.8.8........
016008  .dc.b 3E 38 3E 38 1C 38 1C 38 08 FE 08 FE 01 FF 01 FF ; >8>8.8.8........
016018  .dc.b 00 FE 00 FE 00 39 00 39 00 3B 00 3B 00 17 00 17 ; .....9.9.;.;....
016028  .dc.b 00 03 00 03 00 01 00 01 00 00 00 00 04 00 04 00 ; ................
016038  .dc.b 0E 04 0E 04 1F 0E 1F 0E 0E 1F 0E 1F 04 0E 04 0E ; ................
016048  .dc.b 00 24 00 24 00 70 00 70 00 F8 00 F8 01 FC 01 FC ; .$.$.p.p........
016058  .dc.b 00 F8 00 F8 02 70 02 70 07 20 07 20 0F 80 0F 80 ; .....p.p. . ....
016068  .dc.b 07 00 07 00 02 00 02 00 00 00 00 00 00 00 00 00 ; ................
016078  .dc.b 00 00 00 00 00 00 00 00 00 00 00 00 00 00 00 00 ; ................
016088  .dc.b 00 00 00 00 00 00 00 00 04 00 04 00 0E 00 0A 00 ; ................
016098  .dc.b 04 00 04 00 00 00 00 00 00 00 00 00 00 00 00 00 ; ................
0160A8  .dc.b 00 00 00 00 00 00 00 00 00 00 00 00 10 00 10 00 ; ................
0160B8  .dc.b 38 00 28 00 10 00 10 00 00 00 00 00 00 00 80 80 ; 8.(.............
0160C8  .dc.b C1 C0 41 40 A2 A0 63 60 E3 E0 14 10 A2 A0 63 60 ; ..A@..c`......c`
0160D8  .dc.b D1 C0 51 40 38 00 A8 80 10 00 10 00 00 00 00 00 ; ..Q@8...........
0160E8  .dc.b 00 00 00 00 00 00 00 00 00 00 00 40 00 E0 00 A0 ; ...........@....
0160F8  .dc.b 00 E0 01 10 00 E0 00 A0 00 00 04 40 0E 00 0A 00 ; ...........@....
016108  .dc.b 04 00 0A 00 2E 80 31 80 3F 80 40 40 2E 80 31 80 ; ......1.?.@@..1.
016118  .dc.b 04 00 0A 00 0E 00 0A 00 00 00 04 00 00 00 00 00 ; ................
016128  .dc.b 00 00 00 00 00 00 00 00 00 00 00 00 00 00 00 00 ; ................
016138  .dc.b 00 00 00 00 04 00 04 00 0E 00 0E 00 04 00 04 00 ; ................
016148  .dc.b 00 00 00 00 00 00 00 00 00 00 00 00 00 00 00 00 ; ................
016158  .dc.b 00 00 00 00 00 00 00 00 10 00 10 00 38 00 38 00 ; ............8.8.
016168  .dc.b 10 00 10 00 00 00 00 00 80 80 80 80 C1 C0 C1 C0 ; ................
016178  .dc.b E3 E0 E3 E0 F7 F0 F7 F0 E3 E0 E3 E0 D1 C0 D1 C0 ; ................
016188  .dc.b B8 80 B8 80 10 00 10 00 00 00 00 00 00 00 00 00 ; ................
016198  .dc.b 00 00 00 00 00 40 00 40 00 E0 00 E0 01 F0 01 F0 ; .....@.@........
0161A8  .dc.b 00 E0 00 E0 04 40 04 40 0E 00 0E 00 0E 00 0E 00 ; .....@.@........
0161B8  .dc.b 3F 80 3F 80 7F C0 7F C0 3F 80 3F 80 0E 00 0E 00 ; ?.?.....?.?.....
0161C8  .dc.b 0E 00 0E 00 04 00 04 00 00 00 00 00 00 00 00 00 ; ................
0161D8  .dc.b 00 00 00 00 00 00 00 00 00 00 00 00 00 00 00 00 ; ................
0161E8  .dc.b 00 00 04 00 0E 00 0A 00 0E 00 11 00 0E 00 0A 00 ; ................
0161F8  .dc.b 00 10 04 10 00 38 00 28 00 10 00 10 00 00 00 10 ; .....8.(........
016208  .dc.b 08 38 08 28 1C 10 14 28 08 38 08 44 01 7D 01 83 ; .8.(...(.8.D.}..
016218  .dc.b 01 FF 02 00 01 7D 01 83 00 38 00 44 00 11 00 29 ; .....}...8.D...)
016228  .dc.b 00 39 00 2A 00 01 00 11 00 00 00 00 00 00 00 00 ; .9.*............
016238  .dc.b 00 00 00 00 04 00 04 00 0E 04 0A 04 04 0E 04 0A ; ................
016248  .dc.b 00 04 00 04 00 00 00 00 00 00 00 20 00 70 00 50 ; ........... .p.P
016258  .dc.b 00 70 00 88 00 70 00 50 00 00 00 20 02 00 02 00 ; .p...p.P... ....
016268  .dc.b 07 00 05 00 02 00 02 00 00 00 00 00 00 00 00 00 ; ................
016278  .dc.b 00 00 00 00 00 00 00 00 00 00 00 00 00 00 00 00 ; ................
016288  .dc.b 00 00 00 00 00 00 00 00 00 00 00 00 04 00 04 00 ; ................
016298  .dc.b 0E 00 0E 00 1F 00 1F 00 0E 00 0E 00 04 10 04 10 ; ................
0162A8  .dc.b 00 38 00 38 00 10 00 10 00 10 00 10 08 38 08 38 ; .8.8.........8.8
0162B8  .dc.b 1C 38 1C 38 08 7C 08 7C 01 FF 01 FF 03 FF 03 FF ; .8.8.|.|........
0162C8  .dc.b 01 FF 01 FF 00 7C 00 7C 00 39 00 39 00 3B 00 3B ; .....|.|.9.9.;.;
0162D8  .dc.b 00 11 00 11 00 00 00 00 00 00 00 00 00 00 00 00 ; ................
0162E8  .dc.b 04 00 04 00 0E 04 0E 04 04 0E 04 0E 00 04 00 04 ; ................
0162F8  .dc.b 00 00 00 00 00 20 00 20 00 70 00 70 00 F8 00 F8 ; ..... . .p.p....
016308  .dc.b 00 70 00 70 00 20 00 20 02 00 02 00 07 00 07 00 ; .p.p. . ........
016318  .dc.b 02 00 02 00 00 00 00 00 00 00 00 00 00 00 00 00 ; ................
016328  .dc.b 00 00 00 00 00 00 00 00 00 00 00 00 00 00 00 00 ; ................
016338  .dc.b 00 00 00 00 00 00 00 00 00 00 00 00 00 00 00 00 ; ................
016348  .dc.b 00 00 00 00 00 00 00 00 00 00 00 00 00 00 00 00 ; ................
016358  .dc.b 00 00 00 00 00 00 00 00 00 00 10 00 38 00 28 00 ; ............8.(.
016368  .dc.b 38 00 44 00 38 00 28 00 00 00 90 80 01 C0 01 40 ; 8.D.8.(........@
016378  .dc.b 00 80 81 40 C5 D0 46 30 C7 F0 28 08 C5 D0 56 30 ; ...@..F0..(...V0
016388  .dc.b 38 80 A9 40 39 C0 45 40 38 00 28 80 00 00 10 00 ; 8..@9.E@8.(.....
016398  .dc.b 00 00 00 00 00 00 00 00 00 00 00 00 00 40 00 40 ; .............@.@
0163A8  .dc.b 00 E0 00 A0 00 40 04 40 0E 00 0A 00 04 00 0A 00 ; .....@.@........
0163B8  .dc.b 0E 00 11 00 5F 40 60 C0 7F C0 80 20 5F 40 60 C0 ; ...._@`.... _@`.
0163C8  .dc.b 0E 00 11 00 04 00 0A 00 0E 00 0A 00 00 00 04 00 ; ................
0163D8  .dc.b 00 00 00 00 00 00 00 00 00 00 00 00 00 00 00 00 ; ................
0163E8  .dc.b 00 00 00 00 00 00 00 00 00 00 00 00 00 00 00 00 ; ................
0163F8  .dc.b 00 00 00 00 00 00 00 00 00 00 00 00 00 00 00 00 ; ................
016408  .dc.b 00 00 00 00 10 00 10 00 38 00 38 00 7C 00 7C 00 ; ........8.8.|.|.
016418  .dc.b 38 00 38 00 90 80 90 80 01 C0 01 C0 81 C0 81 C0 ; 8.8.............
016428  .dc.b C7 F0 C7 F0 EF F8 EF F8 D7 F0 D7 F0 B9 C0 B9 C0 ; ................
016438  .dc.b 7D C0 7D C0 38 80 38 80 10 00 10 00 00 00 00 00 ; }.}.8.8.........
016448  .dc.b 00 00 00 00 00 00 00 00 00 40 00 40 00 E0 00 E0 ; .........@.@....
016458  .dc.b 04 40 04 40 0E 00 0E 00 0E 00 0E 00 1F 00 1F 00 ; .@.@............
016468  .dc.b 7F C0 7F C0 FF E0 FF E0 7F C0 7F C0 1F 00 1F 00 ; ................
016478  .dc.b 0E 00 0E 00 0E 00 0E 00 04 00 04 00 00 00 00 00 ; ................
016488  .dc.b FE 00 00 00 7D FF FF FF FF FE FE FF FF FE FE FF ; ....}...........
016498  .dc.b FF FE FE FF FF FE FE FF FF FE FE FF FF FE 00 00 ; ................
0164A8  .dc.b 00 00 00 00 00 7F C5 FF FF FF 83 00 00 01 80 01 ; ................
0164B8  .dc.b 7F 00 00 01 7F 00 00 01 7F 00 00 01 7F 00 00 01 ; ................
0164C8  .dc.b 7F 00 01 85 FF FF FF FF FF FF FF C2 BA 00 00 00 ; ................
0164D8  .dc.b 3B 79 FF 3D BF FF 7F 7F FF FF 7F 7F FF FF 7F 7F ; ;y.=............
0164E8  .dc.b FF FF 7F 7F FF FF 7F 7F FD BA 00 00 00 00 00 00 ; ................
0164F8  .dc.b 00 5D BA 00 00 00 1B 7C FE 7D BF FD 81 3F FF FD ; .].....|.}...?..
016508  .dc.b 81 3F FF FD 81 3F FF FD 81 3F FF FD 81 3F FD BA ; .?...?...?...?..
016518  .dc.b 00 00 00 00 00 00 00 5D BA 00 00 00 1B 7E 7C FD ; .......].....~|.
016528  .dc.b BF F3 7F 4F FF F3 7F 4F FF F3 7F 4F FF F3 7F 4F ; ...O...O...O...O
016538  .dc.b FF F3 7F 4F FD BA 00 00 00 00 00 00 00 5D BA 00 ; ...O.........]..
016548  .dc.b 00 00 0B 7F 01 FD BF CC 00 53 FF CC 1C 53 FF CC ; .........S...S..
016558  .dc.b 00 53 FF CC 00 53 FF CC 00 53 FD BA 00 00 00 00 ; .S...S...S......
016568  .dc.b 00 00 00 5D BA 00 00 00 0B 9F FF F3 BF 33 FF F4 ; ...].........3..
016578  .dc.b FF 30 7C 14 FF 30 7E 14 FF 30 00 14 FF 30 00 14 ; .0|..0~..0...0..
016588  .dc.b FD BA 00 00 00 00 00 00 00 5D BA 00 00 00 1A E7 ; .........]......
016598  .dc.b FF CC BC CF FF FD 3C C0 7E 05 3C C1 83 85 3C C1 ; ......<.~.<...<.
0165A8  .dc.b 00 45 3C C1 00 85 3D BA 00 00 00 00 00 00 00 5D ; .E<...=........]
0165B8  .dc.b BA 00 00 00 1A 39 FF 30 BD 3F FF FF BD 00 FF 11 ; .....9.0.?......
0165C8  .dc.b BD 00 49 81 BD 02 00 81 BD 08 24 11 BD BA 00 00 ; ..I.......$.....
0165D8  .dc.b 00 00 00 00 00 5D BA 00 00 00 02 0E 7C C0 BD 7F ; .....]......|...
0165E8  .dc.b FF FF BD 01 FF 84 BD 02 B5 C0 BD 01 5A 40 BD 11 ; ............Z@..
0165F8  .dc.b 00 88 BD BA 00 00 00 00 00 00 00 5D BB FF FF FF ; ...........]....
016608  .dc.b BD FC BB FF BD 41 17 43 BD 03 FF C2 BD 01 34 80 ; .....A.C......4.
016618  .dc.b BD 03 7E C0 BD 18 42 18 BD BB FF FF FF FF FF FF ; ..~...B.........
016628  .dc.b FF DD BA 00 98 00 00 00 BA 00 BD 77 B2 5F BD FF ; ...........w._..
016638  .dc.b F0 3F BD 01 8A 80 BD 01 E7 80 BD 11 00 88 BD BA ; .?..............
016648  .dc.b 00 00 00 00 00 00 00 5D BA 00 78 00 00 00 BA 00 ; .......]..x.....
016658  .dc.b BD 77 B0 5F BD C3 F0 38 BD 00 F5 00 BD 03 3C C0 ; .w._...8......<.
016668  .dc.b BD 18 24 18 BD BA 00 00 00 00 00 00 00 5D FC 00 ; ..$..........]..
016678  .dc.b 78 00 38 38 FC 38 FE 77 B5 47 FE 31 F0 70 FE 02 ; x.88.8.w.G.1.p..
016688  .dc.b 0A 40 7E 07 99 E0 7E 11 00 88 FE FC 38 38 38 38 ; .@~...~.....8888
016698  .dc.b 38 38 38 7E C4 11 FB 00 7C 7C C4 7C C2 77 B7 5F ; 888~....||.|.w._
0166A8  .dc.b C2 08 F0 E0 C2 03 E5 40 C2 0B A5 D0 C2 18 42 18 ; .......@......B.
0166B8  .dc.b C2 C4 7C 7C 7C 7C 7C 7C 7C 62 BA 2F FF 00 C6 C6 ; ..|||||||b./....
0166C8  .dc.b BA C6 BD 77 B7 5F BD 02 71 80 BD 01 14 80 BD 09 ; ...w._..q.......
0166D8  .dc.b 5A 90 BD 11 00 88 BD BA C6 C6 C6 C6 C6 C6 C6 5D ; Z..............]
0166E8  .dc.b BA 3C FC 00 C6 C6 BA C6 BD 77 17 43 BD 00 33 00 ; .<.......w.C..3.
0166F8  .dc.b BD 01 D5 80 BD 06 A5 60 BD 08 24 10 BD BA C6 C6 ; .......`..$.....
016708  .dc.b C6 C6 C6 C6 C6 5D BA 02 F0 00 CE CE BA CE BD 7F ; .....]..........
016718  .dc.b FF FF BD 00 14 00 BD 00 7E 00 BD 1F BD F8 BD 01 ; ........~.......
016728  .dc.b 00 80 BD BA CE CE CE CE CE CE CE 5D BA 05 F0 00 ; ...........]....
016738  .dc.b DE DE BA DE BD 00 00 00 BD 00 00 00 BD 00 00 00 ; ................
016748  .dc.b BD 00 00 00 BD 00 00 00 BD BA DE DE DE DE DE DE ; ................
016758  .dc.b DE 5D BA 0B F0 00 F6 F6 BA F6 BD 18 18 18 BD 18 ; .]..............
016768  .dc.b 18 18 BD 18 18 18 BD 18 18 18 BD 18 18 18 BD BA ; ................
016778  .dc.b F6 F6 F6 F6 F6 F6 F6 5D BA 17 F0 00 E6 E6 BA E6 ; .......]........
016788  .dc.b BD 24 24 24 BD 24 24 24 BD 24 24 24 BD 24 24 24 ; .$$$.$$$.$$$.$$$
016798  .dc.b BD 24 24 24 BD BA E6 E6 E6 E6 E6 E6 E6 5D FC 0F ; .$$$.........]..
0167A8  .dc.b 58 00 C6 C6 FC C6 FE 66 66 66 FE 66 66 66 FE 66 ; X......fff.fff.f
0167B8  .dc.b 66 66 7E 66 66 66 7E 66 66 66 FE FC C6 C6 C6 C6 ; ff~fff~fff......
0167C8  .dc.b C6 C6 C6 7E C4 7C 1C 00 C6 C6 C4 C6 C2 6E 6E 6E ; ...~.|.......nnn
0167D8  .dc.b C2 6E 6E 6E C2 6E 6E 6E C2 6E 6E 6E C2 6E 6E 6E ; .nnn.nnn.nnn.nnn
0167E8  .dc.b C2 C4 C6 C6 C6 C6 C6 C6 C6 62 BA 00 2C 00 7C 7C ; .........b..,.||
0167F8  .dc.b BA 7C BD 76 76 76 BD 76 76 76 BD 76 76 76 BD 76 ; .|.vvv.vvv.vvv.v
016808  .dc.b 76 76 BD 76 76 76 BD BA 7C 7C 7C 7C 7C 7C 7C 5D ; vv.vvv..|||||||]
016818  .dc.b BA 00 0C 00 38 38 BA 38 BD 66 66 66 BD 66 66 66 ; ....88.8.fff.fff
016828  .dc.b BD 66 66 66 BD 66 66 66 BD 66 66 66 BD BA 38 38 ; .fff.fff.fff..88
016838  .dc.b 38 38 38 38 38 5D BA 00 0C 00 00 00 BA 00 BD 24 ; 88888].........$
016848  .dc.b 24 24 BD 24 24 24 BD 24 24 24 BD 24 24 24 BD 24 ; $$.$$$.$$$.$$$.$
016858  .dc.b 24 24 BD BA 00 00 00 00 00 00 00 5D BA 00 00 00 ; $$.........]....
016868  .dc.b 00 00 BA 00 BD 18 18 18 BD 18 18 18 BD 18 18 18 ; ................
016878  .dc.b BD 18 18 18 BD 18 18 18 BD BA 00 00 00 00 00 00 ; ................
016888  .dc.b 00 5D BD FF FF FF FB FF 7D FE 3D 00 00 00 BD 00 ; .]......}.=.....
016898  .dc.b 00 00 BD 00 00 00 BD 00 00 00 BD 00 00 00 BD BB ; ................
0168A8  .dc.b FF FD FF FF FF FB FF BD BE 80 00 00 04 02 FE 80 ; ................
0168B8  .dc.b DC FF FF FF 3C FF FF FF 3C FF FF FF 3C FF FF FF ; ....<...<...<...
0168C8  .dc.b 3C FF FF FF 3B 7D 00 46 00 00 00 8C 01 7D BF 4F ; <...;}.F.....}.O
0168D8  .dc.b FF FE 75 E5 FF 4E 6F 30 18 0C C7 30 18 0C C7 30 ; ..u..No0...0...0
0168E8  .dc.b 18 0C C7 30 18 0C C7 30 18 0C 76 FE 9F 3A FB FF ; ...0...0..v..:..
0168F8  .dc.b BE 75 F2 FD 87 A7 FF FE 35 CB C7 A7 37 CF A5 F3 ; .u......5...7...
016908  .dc.b DF CF A5 F3 DF CF A5 F3 DF CF A5 F3 DF CF A5 F3 ; ................
016918  .dc.b ED EF 4F 3A FD FF 7E 75 E5 E2 BB D3 FF FE 35 97 ; ..O:..~u......5.
016928  .dc.b BB D3 9B F3 24 CF A7 F3 24 CF A7 F3 24 CF A7 F3 ; ....$...$...$...
016938  .dc.b 24 CF A7 F3 24 CF DB D7 A7 3A FE FE FE 75 CB DD ; $...$....:...u..
016948  .dc.b BD E9 FF FE 35 2F 7D E9 CD FD A5 BF 43 FD A5 BF ; ....5/}.....C...
016958  .dc.b 43 FD A5 BF 43 FD A5 BF 43 FD A5 BF B7 BB D3 3A ; C...C...C......:
016968  .dc.b FF 7D FE 75 97 BD BE F4 00 00 04 5E FE F4 06 FD ; .}.u.......^....
016978  .dc.b 24 BE 99 FD 24 BE 99 FD 24 BE 99 FD 24 BE 99 FD ; $...$...$...$...
016988  .dc.b 24 BF 6F 7D E8 02 00 00 00 04 2F 7D 40 83 FF FF ; $.o}....../}@...
016998  .dc.b FB 41 00 83 FF FF A5 BD 3C FF A5 BD 3C FF A5 BD ; .A......<...<...
0169A8  .dc.b 3C FF A5 BD 3C FF A5 BF A0 82 07 BD FF FF FF 7B ; <...<..........{
0169B8  .dc.b A0 81 03 FF FF FF 82 10 00 21 FF FE FE FF FF FE ; .........!......
0169C8  .dc.b FE FF FF FE FE FF FF FE FE FF FF FE FE FF FD 03 ; ................
0169D8  .dc.b FF FF FF FF FF FF FF 81 3D FF FF FF F8 F7 FF BC ; ........=.......
0169E8  .dc.b 80 01 01 00 00 01 01 00 00 01 01 00 00 01 01 00 ; ................
0169F8  .dc.b 00 01 01 00 03 7D FF FF FF FF FF FF FF BE 78 06 ; .....}........x.
016A08  .dc.b 06 06 78 FB FF 7C 80 01 01 00 00 01 01 00 00 01 ; ..x..|..........
016A18  .dc.b 01 00 00 01 01 00 00 01 01 00 03 78 00 00 00 00 ; ...........x....
016A28  .dc.b 00 00 00 3C 68 8C 8C 8C 38 CD C6 E4 80 03 7F 00 ; ...<h...8.......
016A38  .dc.b 00 03 7F 00 00 03 7F 00 00 03 7F 00 00 03 7F 00 ; ................
016A48  .dc.b 03 68 00 00 00 00 00 00 00 34 68 D8 D8 D8 38 CE ; .h.......4h...8.
016A58  .dc.b FD E4 80 0F 7F 40 00 0F 7F 40 00 0F 7F 40 00 0F ; .....@...@...@..
016A68  .dc.b 7F 40 00 0F 7F 40 03 68 00 00 00 00 00 00 00 34 ; .@...@.h.......4
016A78  .dc.b 68 7C 7C 7C 18 FF 03 FC 80 3C 00 10 00 3C 28 10 ; h|||.....<...<(.
016A88  .dc.b 00 3C 00 10 00 3C 00 10 00 3C 00 10 03 68 00 00 ; .<...<...<...h..
016A98  .dc.b 00 00 00 00 00 34 68 3E 3E 3E 18 7F FF F0 80 F0 ; .....4h>>>......
016AA8  .dc.b 00 04 00 F0 CC 04 00 F0 00 04 00 F0 00 04 00 F0 ; ................
016AB8  .dc.b 00 04 03 68 00 00 00 00 00 00 00 34 68 1B 1B 1B ; ...h.......4h...
016AC8  .dc.b 38 9E 00 C0 83 C0 00 01 03 C3 8E 01 03 C0 00 01 ; 8...............
016AD8  .dc.b 03 C3 00 C1 03 CE 00 71 03 68 00 00 00 00 00 00 ; .......q.h......
016AE8  .dc.b 00 34 68 31 31 31 38 27 83 00 83 00 00 00 83 0F ; .4h1118'........
016AF8  .dc.b 0F 10 83 00 78 00 83 02 18 80 83 17 C3 E8 83 68 ; ....x..........h
016B08  .dc.b FF FF FF FF FF FF FF 34 68 60 60 60 40 09 EC 00 ; .......4h```@...
016B18  .dc.b 83 00 00 00 83 3E 0F 84 83 00 CC 00 83 00 18 00 ; .....>..........
016B28  .dc.b 83 0E 00 70 83 68 00 00 00 00 00 00 00 34 68 00 ; ...p.h.......4h.
016B38  .dc.b 00 00 40 01 68 00 83 3E E8 BC 83 FC 0F C3 83 01 ; ..@.h..>........
016B48  .dc.b CC 00 83 00 42 00 83 07 81 E0 83 68 00 00 00 00 ; ....B......h....
016B58  .dc.b 00 00 00 34 68 00 60 00 00 00 68 00 83 08 4D A0 ; ...4h.`...h...M.
016B68  .dc.b 83 00 0F FF 83 01 F8 00 83 00 18 00 83 0E 00 70 ; ...............p
016B78  .dc.b 83 68 00 00 00 00 00 00 00 34 78 00 80 00 00 00 ; .h.......4x.....
016B88  .dc.b 68 00 83 08 4F A0 83 C3 F0 00 83 00 F0 00 83 03 ; h...O...........
016B98  .dc.b 00 C0 83 07 C3 E0 83 78 00 00 00 00 00 00 00 3C ; .......x.......<
016BA8  .dc.b 40 00 83 00 44 44 40 44 BE 08 4A B8 BE 31 F0 00 ; @...DD@D..J..1..
016BB8  .dc.b BE 00 00 00 3E 04 99 20 3E 0E 00 70 BE 40 44 44 ; ....>.. >..p.@DD
016BC8  .dc.b 44 44 44 44 44 20 3C 0E 04 00 82 82 3C 82 C1 08 ; DDDDD <.....<...
016BD8  .dc.b 48 A0 C1 08 F0 00 C1 00 01 00 41 0C 81 30 41 07 ; H.........A..0A.
016BE8  .dc.b 81 E0 C1 3C 82 82 82 82 82 82 82 1E 78 10 00 00 ; ...<........x...
016BF8  .dc.b 00 00 78 00 83 08 48 A0 83 02 70 00 83 00 06 00 ; ..x...H...p.....
016C08  .dc.b 83 0F 18 F0 83 0E 00 70 83 78 00 00 00 00 00 00 ; .......p.x......
016C18  .dc.b 00 3C 68 01 00 00 00 00 68 00 83 08 E8 BC 83 00 ; .<h.....h.......
016C28  .dc.b 30 00 83 00 1C 00 83 06 00 60 83 17 C3 E8 83 68 ; 0........`.....h
016C38  .dc.b 00 00 00 00 00 00 00 34 68 01 00 00 00 00 68 00 ; .......4h.....h.
016C48  .dc.b 83 00 00 00 83 00 10 00 83 00 00 00 83 00 00 00 ; ................
016C58  .dc.b 83 0E 00 70 83 68 00 00 00 00 00 00 00 34 68 02 ; ...p.h.......4h.
016C68  .dc.b 00 00 00 00 68 00 83 00 00 00 83 00 00 00 83 00 ; ....h...........
016C78  .dc.b 00 00 83 00 00 00 83 00 00 00 83 68 00 00 00 00 ; ...........h....
016C88  .dc.b 00 00 00 34 68 04 00 00 00 00 68 00 83 24 24 24 ; ...4h.....h..$$$
016C98  .dc.b 83 24 24 24 83 24 24 24 83 24 24 24 83 24 24 24 ; .$$$.$$$.$$$.$$$
016CA8  .dc.b 83 68 00 00 00 00 00 00 00 34 78 08 00 00 00 00 ; .h.......4x.....
016CB8  .dc.b 78 00 83 42 42 42 83 42 42 42 83 42 42 42 83 42 ; x..BBB.BBB.BBB.B
016CC8  .dc.b 42 42 83 42 42 42 83 78 00 00 00 00 00 00 00 3C ; BB.BBB.x.......<
016CD8  .dc.b 40 70 20 00 00 00 40 00 BE 00 00 00 BE 00 00 00 ; @p ...@.........
016CE8  .dc.b BE 00 00 00 3E 00 00 00 3E 00 00 00 BE 40 00 00 ; ....>...>....@..
016CF8  .dc.b 00 00 00 00 00 20 3C 00 20 00 00 00 3C 00 C1 00 ; ..... <. ...<...
016D08  .dc.b 00 00 C1 00 00 00 C1 00 00 00 41 00 00 00 41 00 ; ..........A...A.
016D18  .dc.b 00 00 C1 3C 00 00 00 00 00 00 00 1E 78 00 10 00 ; ...<........x...
016D28  .dc.b 82 82 78 82 83 00 00 00 83 00 00 00 83 00 00 00 ; ..x.............
016D38  .dc.b 83 00 00 00 83 00 00 00 83 78 82 82 82 82 82 82 ; .........x......
016D48  .dc.b 82 3C 68 00 10 00 44 44 68 44 83 00 00 00 83 00 ; .<h...DDhD......
016D58  .dc.b 00 00 83 00 00 00 83 00 00 00 83 00 00 00 83 68 ; ...............h
016D68  .dc.b 44 44 44 44 44 44 44 34 68 00 10 00 00 00 68 00 ; DDDDDDD4h.....h.
016D78  .dc.b 83 42 42 42 83 42 42 42 83 42 42 42 83 42 42 42 ; .BBB.BBB.BBB.BBB
016D88  .dc.b 83 42 42 42 83 68 00 00 00 00 00 00 00 34 68 00 ; .BBB.h.......4h.
016D98  .dc.b 00 00 00 00 68 00 83 24 24 24 83 24 24 24 83 24 ; ....h..$$$.$$$.$
016DA8  .dc.b 24 24 83 24 24 24 83 24 24 24 83 68 00 00 00 00 ; $$.$$$.$$$.h....
016DB8  .dc.b 00 00 00 34 64 FF FF FF 07 FE C4 FE 03 00 00 00 ; ...4d...........
016DC8  .dc.b 83 00 00 00 83 00 00 00 83 00 00 00 83 00 00 00 ; ................
016DD8  .dc.b 83 69 FF 83 FF FF FF 07 FF 64 72 00 00 00 F0 01 ; .i.......dr.....
016DE8  .dc.b 82 00 03 FF FF FF 03 FF FF FF 03 FF FF FF 03 FF ; ................
016DF8  .dc.b FF FF 03 FF FF FF 06 C4 00 3C 00 00 00 78 00 CC ; .........<...x..
016E08  .dc.b 79 0F FF FE F1 E3 39 0E 00 F0 18 0C 3C F0 18 0C ; y.....9.....<...
016E18  .dc.b 3C F0 18 0C 3C F0 18 0C 3C F0 18 0C 0D 92 1F 78 ; <...<...<......x
016E28  .dc.b FB FF BE F1 F1 9C 7C 87 FF FE 71 C6 7C 87 00 3C ; ......|...q.|..<
016E38  .dc.b 3C 30 38 3C 3C 30 38 3C 3C 30 38 3C 3C 30 38 3C ; <08<<08<<08<<08<
016E48  .dc.b 3C 30 1B 39 0F 78 FD FF 7E F1 E3 3E 7A 43 FF FE ; <0.9.x..~..>zC..
016E58  .dc.b 71 8C FA 43 80 0F 00 C0 60 0F 00 C0 60 0F 00 C0 ; q..C....`...`...
016E68  .dc.b 60 0F 00 C0 60 0F 00 C0 36 74 87 78 FE FE FE F1 ; `...`...6t.x....
016E78  .dc.b C6 7C 6D 21 FF FE 71 19 ED 21 C0 03 3C 80 C0 03 ; .|m!..q..!..<...
016E88  .dc.b 3C 80 C0 03 3C 80 C0 03 3C 80 C0 03 3C 80 6C FA ; <...<...<...<.l.
016E98  .dc.b 43 78 FF 7D FE F1 8C F4 7E F0 00 00 80 3F FE F0 ; Cx.}....~....?..
016EA8  .dc.b 00 03 00 81 98 03 00 81 98 03 00 81 98 03 00 81 ; ................
016EB8  .dc.b 98 03 00 80 DF FD E0 40 00 00 00 80 1F FC C0 00 ; .......@........
016EC8  .dc.b 00 00 80 C1 00 00 00 FF 3C 7F 3C 3F 3C 7F 3C 3F ; ........<.<?<.<?
016ED8  .dc.b 3C 7F 3C 3F 3C 7F 3C 3F 3C 7F E0 80 00 00 00 00 ; <.<?<.<?<.......
016EE8  .dc.b 00 00 60 80 00 00 00 00 00 00 00 00 00 01 01 00 ; ..`.............
016EF8  .dc.b 00 01 01 00 00 01 01 00 00 01 01 00 00 01 01 00 ; ................
016F08  .dc.b 03 00 00 00 00 00 00 00 00 00 02 00 00 00 06 08 ; ................
016F18  .dc.b 00 43 7F FF FF FF FF FF FF FF FF FF FF FF FF FF ; .C..............
016F28  .dc.b FF FF FF FF FF FF FF 02 00 00 00 00 00 00 00 01 ; ................
016F38  .dc.b 07 FF FF FF 86 04 00 83 7F FF FF FF FF FF FF FF ; ................
016F48  .dc.b FF FF FF FF FF FF FF FF FF FF FF FF FF 07 FF FF ; ................
016F58  .dc.b FF FF FF FF FF 83 07 FF FF FF C6 02 01 03 60 1F ; ..............`.
016F68  .dc.b FF F8 00 1F FF F8 00 1F FF F8 00 1F FF F8 00 1F ; ................
016F78  .dc.b FF F8 07 07 00 00 00 00 00 00 00 83 07 FF FF FF ; ................
016F88  .dc.b C6 01 02 03 60 7F 7F BE 00 7F 7F BE 00 7F 7F BE ; ....`...........
016F98  .dc.b 00 7F 7F BE 00 7F 7F BE 07 07 00 00 00 00 00 00 ; ................
016FA8  .dc.b 00 83 07 FF FF FF E6 00 FC 03 61 FC 00 6F 81 FC ; ..........a..o..
016FB8  .dc.b 04 6F 81 FC 00 6F 81 FC 00 6F 81 FC 00 6F 87 07 ; .o...o...o...o..
016FC8  .dc.b 00 00 00 00 00 00 00 83 07 FF FF FF E6 00 00 0F ; ................
016FD8  .dc.b 67 F3 FF FB E7 F0 03 1B E7 F0 7E 1B E7 F0 00 1B ; g.........~.....
016FE8  .dc.b E7 F0 00 1B E7 07 00 00 00 00 00 00 00 83 07 FF ; ................
016FF8  .dc.b FF FF C7 00 00 3F 67 CF FF FE E7 C0 01 C6 E7 C1 ; .....?g.........
017008  .dc.b FF 86 E7 C0 00 06 E7 CC 00 36 E7 07 00 00 00 00 ; .........6......
017018  .dc.b 00 00 00 83 07 FF FF FF C7 C0 00 FF 67 3F FF FF ; ............g?..
017028  .dc.b 67 00 00 E1 67 01 87 81 67 01 00 41 67 17 00 E9 ; g...g...g..Ag...
017038  .dc.b 67 07 00 00 00 00 00 00 00 83 07 FF FF FF BF F0 ; g...............
017048  .dc.b 03 FF 67 7F FF FF 67 00 00 78 67 03 03 C0 67 03 ; ..g...g..xg...g.
017058  .dc.b 66 C0 67 0C 00 30 67 07 FF FF FF FF FF FF FF 83 ; f.g..0g.........
017068  .dc.b 07 FF FF FF BD FE 07 FF 67 7F FF FF 67 00 00 3C ; ........g...g..<
017078  .dc.b 67 02 02 C0 67 03 81 C0 67 06 00 60 67 07 FF FF ; g...g...g..`g...
017088  .dc.b FF FF FF FF FF 83 06 00 80 00 00 00 06 00 67 7F ; ..............g.
017098  .dc.b FF FF 67 00 00 00 67 02 06 C0 67 03 DB C0 67 0C ; ..g...g...g...g.
0170A8  .dc.b 00 30 67 06 00 00 00 00 00 00 00 03 06 00 00 00 ; .0g.............
0170B8  .dc.b 00 00 06 00 7F 7F FF FF 7F 3C 0F FF 7F 03 0D C0 ; .........<......
0170C8  .dc.b 7F 04 C3 20 7F 07 00 E0 7F 06 00 00 00 00 00 00 ; ... ............
0170D8  .dc.b 00 03 3C 00 08 00 00 00 3C 00 7E 7F FF FF 7E 0E ; ..<.....<.~...~.
0170E8  .dc.b 0F FC 7E 03 FB C0 FE 08 66 10 FE 0C 00 30 7E 3C ; ..~.....f....0~<
0170F8  .dc.b 00 00 00 00 00 00 00 1E 02 10 10 00 00 00 02 00 ; ................
017108  .dc.b 3F 7F FF FF 3F 07 0F F0 3F 03 E6 C0 3F 10 7E 08 ; ?...?...?...?.~.
017118  .dc.b 3F 06 00 60 3F 02 00 00 00 00 00 00 00 01 06 00 ; ?..`?...........
017128  .dc.b 01 00 00 00 06 00 7F 7F FF FF 7F 01 8F C0 7F 01 ; ................
017138  .dc.b 19 80 7F 10 E7 08 7F 0C 00 30 7F 06 00 00 00 00 ; .........0......
017148  .dc.b 00 00 00 03 06 24 04 00 00 00 06 00 67 7F FF FF ; .....$......g...
017158  .dc.b 67 00 CF 00 67 01 E3 80 67 19 BD 98 67 17 00 E8 ; g...g...g...g...
017168  .dc.b 67 06 00 00 00 00 00 00 00 03 06 02 10 00 00 00 ; g...............
017178  .dc.b 06 00 67 7F FF FF 67 00 2C 00 67 00 7E 00 67 1F ; ..g...g.,.g.~.g.
017188  .dc.b BD F8 67 0C 00 30 67 06 00 00 00 00 00 00 00 03 ; ..g..0g.........
017198  .dc.b 06 04 10 00 00 00 06 00 67 00 00 00 67 00 00 00 ; ........g...g...
0171A8  .dc.b 67 00 00 00 67 00 00 00 67 00 00 00 67 06 00 00 ; g...g...g...g...
0171B8  .dc.b 00 00 00 00 00 03 06 08 10 00 00 00 06 00 67 00 ; ..............g.
0171C8  .dc.b 00 00 67 00 00 00 67 00 00 00 67 00 00 00 67 00 ; ..g...g...g...g.
0171D8  .dc.b 00 00 67 06 00 00 00 00 00 00 00 03 06 10 00 00 ; ..g.............
0171E8  .dc.b 00 00 06 00 7F 00 00 00 7F 00 00 00 7F 00 00 00 ; ................
0171F8  .dc.b 7F 00 00 00 7F 00 00 00 7F 06 00 00 00 00 00 00 ; ................
017208  .dc.b 00 03 3C 01 48 00 00 00 3C 00 7E 00 00 00 7E 00 ; ..<.H...<.~...~.
017218  .dc.b 00 00 7E 00 00 00 FE 00 00 00 FE 00 00 00 7E 3C ; ..~...........~<
017228  .dc.b 00 00 00 00 00 00 00 1E 02 04 04 00 00 00 02 00 ; ................
017238  .dc.b 3F 00 00 00 3F 00 00 00 3F 00 00 00 3F 00 00 00 ; ?...?...?...?...
017248  .dc.b 3F 00 00 00 3F 02 00 00 00 00 00 00 00 01 06 00 ; ?...?...........
017258  .dc.b 24 00 00 00 06 00 7F 00 00 00 7F 00 00 00 7F 00 ; $...............
017268  .dc.b 00 00 7F 00 00 00 7F 00 00 00 7F 06 00 00 00 00 ; ................
017278  .dc.b 00 00 00 03 06 00 04 00 00 00 06 00 67 00 00 00 ; ............g...
017288  .dc.b 67 00 00 00 67 00 00 00 67 00 00 00 67 00 00 00 ; g...g...g...g...
017298  .dc.b 67 06 00 00 00 00 00 00 00 03 06 00 04 00 00 00 ; g...............
0172A8  .dc.b 06 00 67 00 00 00 67 00 00 00 67 00 00 00 67 00 ; ..g...g...g...g.
0172B8  .dc.b 00 00 67 00 00 00 67 06 00 00 00 00 00 00 00 03 ; ..g...g.........
0172C8  .dc.b 06 00 00 00 00 00 06 00 67 00 00 00 67 00 00 00 ; ........g...g...
0172D8  .dc.b 67 00 00 00 67 00 00 00 67 00 00 00 67 06 00 00 ; g...g...g...g...
0172E8  .dc.b 00 00 00 00 00 03 03 00 00 00 00 00 03 01 E7 00 ; ................
0172F8  .dc.b 00 00 67 00 00 00 67 00 00 00 67 00 00 00 67 00 ; ..g...g...g...g.
017308  .dc.b 00 00 67 06 00 00 00 00 00 00 00 03 01 FF FF FF ; ..g.............
017318  .dc.b 0F FC 01 FF FF C0 00 00 FF C0 00 00 FF C0 00 00 ; ................
017328  .dc.b FF C0 00 00 FF C0 00 00 FE 03 FF 83 FF FF FF 07 ; ................
017338  .dc.b FE 03 00 FF FF FF 0F F8 00 FF FF FF E7 F3 C3 FF ; ................
017348  .dc.b E7 F3 C3 FF E7 F3 C3 FF E7 F3 C3 FF E7 F3 FC 01 ; ................
017358  .dc.b FF 87 FF FF FF 0F FC 03 00 7F FF FF 8F F0 00 7F ; ................
017368  .dc.b FF FF C3 CF C7 FF C3 CF C7 FF C3 CF C7 FF C3 CF ; ................
017378  .dc.b C7 FF C3 CF F8 00 FF 87 FF FF FF 0F F8 01 04 3F ; ...............?
017388  .dc.b FF FF 8F E0 04 3F FF FF 3C 3F 9F FF 3C 3F 9F FF ; .....?..<?..<?..
017398  .dc.b 3C 3F 9F FF 3C 3F 9F FF 3C 3F F0 08 7F 87 FF FF ; <?..<?..<?......
0173A8  .dc.b FF 0F F0 03 02 1F FF FF 8F C0 02 1F FF FF C3 7F ; ................
0173B8  .dc.b 3F FF C3 7F 3F FF C3 7F 3F FF C3 7F 3F FF C3 7F ; ?...?...?...?...
0173C8  .dc.b E0 04 3F 87 FF FF FF 0F E0 03 01 0F FF FF 7F 80 ; ..?.............
0173D8  .dc.b 01 0F FF FF 3C 7E 7F FF 3C 7E 7F FF 3C 7E 7F FF ; ....<~..<~..<~..
0173E8  .dc.b 3C 7E 7F FF 3C 7F C0 02 1F BF FF FF FF 7F C0 03 ; <~..<...........
0173F8  .dc.b 3F FF FF FF 7B 3E FF FF FF FF C3 FC FF FF C3 FC ; ?...{>..........
017408  .dc.b FF FF C3 FC FF FF C3 FC FF FF C3 FF 9F 7F FF FD ; ................
017418  .dc.b FF FF FF FB 9F 7F 00 00 00 00 00 00 00 00 FF FF ; ................
017428  .dc.b FF FF FF FF FF FF FF FF FF FF FF FF FF FF FF FF ; ................
017438  .dc.b FF FF FF 00 00 00 00 00 00 00 00 00 00 00 00 00 ; ................
017448  .dc.b 00 00 00 00 FF FF FF FF FF FF FF FF FF FF FF FF ; ................
017458  .dc.b FF FF FF FF FF FF FF FF FF 00 00 00 00 00 00 00 ; ................
017468  .dc.b 00 00 00 00 00 00 00 00 00 00 FF FF FF FF FF FF ; ................
017478  .dc.b FF FF FF FF FF FF FF FF FF FF FF FF FF FF FF 00 ; ................
017488  .dc.b 00 00 00 00 00 00 00 00 10 00 00 00 00 30 38 18 ; .............08.
017498  .dc.b FF FF FF FF FF FF FF FF FF FF FF FF FF FF FF FF ; ................
0174A8  .dc.b FF FF FF FF FF 10 FF FF FF FF FF FF FF 08 10 00 ; ................
0174B8  .dc.b 00 00 00 30 00 18 FF FF 7F FF FF FF 7F FF FF FF ; ...0............
0174C8  .dc.b 7F FF FF FF 7F FF FF FF 7F FF FF 10 FF FF FF FF ; ................
0174D8  .dc.b FF FF FF 08 10 00 00 00 00 00 00 00 FF FC 00 3F ; ...............?
0174E8  .dc.b FF FC 00 3F FF FC 00 3F FF FC 00 3F FF FC 00 3F ; ...?...?...?...?
0174F8  .dc.b FF 10 FF FF FF FF FF FF FF 08 10 00 00 00 00 00 ; ................
017508  .dc.b 00 00 FF F0 00 0F FF F0 00 0F FF F0 00 0F FF F0 ; ................
017518  .dc.b 00 0F FF F0 00 0F FF 10 FF FF FF FF FF FF FF 08 ; ................
017528  .dc.b 10 00 00 00 00 01 FF 00 FF C0 00 03 FF C0 00 03 ; ................
017538  .dc.b FF C0 00 03 FF C0 00 03 FF C3 00 C3 FF 10 FF FF ; ................
017548  .dc.b FF FF FF FF FF 08 10 00 00 00 00 00 7C 00 FF 00 ; ............|...
017558  .dc.b 00 00 FF 00 00 00 FF 00 00 00 FF 00 00 00 FF 00 ; ................
017568  .dc.b E7 00 FF 10 00 00 00 00 00 00 00 08 10 00 00 00 ; ................
017578  .dc.b 00 00 10 00 FF 00 00 00 FF 00 00 00 FF 00 00 00 ; ................
017588  .dc.b FF 00 00 00 FF 03 00 C0 FF 10 00 00 00 00 00 00 ; ................
017598  .dc.b 00 08 10 00 00 00 00 00 10 00 FF 00 00 00 FF 00 ; ................
0175A8  .dc.b 00 00 FF 00 00 00 FF 00 3C 00 FF 01 C3 80 FF 10 ; ........<.......
0175B8  .dc.b 00 00 00 00 00 00 00 08 10 00 78 00 00 00 10 00 ; ..........x.....
0175C8  .dc.b FF 00 00 00 FF 00 00 00 FF 00 00 00 FF 00 24 00 ; ..............$.
0175D8  .dc.b FF 03 00 C0 FF 10 00 00 00 00 00 00 00 08 00 00 ; ................
0175E8  .dc.b F8 00 00 00 10 00 FF 00 00 00 FF 00 00 00 FF 00 ; ................
0175F8  .dc.b 00 00 FF 00 3C 00 FF 00 E7 00 FF 00 00 00 00 00 ; ....<...........
017608  .dc.b 00 00 00 00 00 00 F3 00 00 00 00 00 FE 00 00 00 ; ................
017618  .dc.b FE 00 00 00 FE 00 00 00 FE 00 00 00 FE 03 00 C0 ; ................
017628  .dc.b FE 00 00 00 00 00 00 00 00 00 00 0F EF 00 00 00 ; ................
017638  .dc.b 00 00 FF 00 00 00 FF 00 00 00 FF 00 00 00 7F 00 ; ................
017648  .dc.b 00 00 7F 01 C3 80 FF 00 00 00 00 00 00 00 00 00 ; ................
017658  .dc.b 00 3F FE 20 00 00 00 00 FF 00 00 00 FF 00 00 00 ; .?. ............
017668  .dc.b FF 00 00 00 FF 00 00 00 FF 03 00 C0 FF 00 00 00 ; ................
017678  .dc.b 00 00 00 00 00 00 10 19 F8 30 00 00 10 00 FF 00 ; .........0......
017688  .dc.b 00 00 FF 00 00 00 FF 00 00 00 FF 00 00 00 FF 00 ; ................
017698  .dc.b E7 00 FF 10 00 00 00 00 00 00 00 08 10 01 E0 38 ; ...............8
0176A8  .dc.b 00 00 10 00 FF 00 00 00 FF 00 00 00 FF 00 00 00 ; ................
0176B8  .dc.b FF 00 00 00 FF 03 00 C0 FF 10 00 00 00 00 00 00 ; ................
0176C8  .dc.b 00 08 10 03 E1 FC 00 00 10 00 FF 00 00 00 FF 00 ; ................
0176D8  .dc.b 00 00 FF 00 00 00 FF 00 00 00 FF 00 00 00 FF 10 ; ................
0176E8  .dc.b 00 00 00 00 00 00 00 08 10 07 E1 FC 00 00 10 00 ; ................
0176F8  .dc.b FF 00 00 00 FF 00 00 00 FF 00 00 00 FF 00 00 00 ; ................
017708  .dc.b FF 00 00 00 FF 10 00 00 00 00 00 00 00 08 00 0F ; ................
017718  .dc.b F0 38 00 00 00 00 FF 00 00 00 FF 00 00 00 FF 00 ; .8..............
017728  .dc.b 00 00 FF 00 00 00 FF 00 00 00 FF 00 00 00 00 00 ; ................
017738  .dc.b 00 00 00 00 00 7E 30 30 00 00 00 00 FE 00 00 00 ; .....~00........
017748  .dc.b FE 00 00 00 FE 00 00 00 FE 00 00 00 FE 00 00 00 ; ................
017758  .dc.b FE 00 00 00 00 00 00 00 00 00 00 78 38 20 00 00 ; ...........x8 ..
017768  .dc.b 00 00 FF 00 00 00 FF 00 00 00 FF 00 00 00 7F 00 ; ................
017778  .dc.b 00 00 7F 00 00 00 FF 00 00 00 00 00 00 00 00 00 ; ................
017788  .dc.b 00 00 18 00 00 00 00 00 FF 00 00 00 FF 00 00 00 ; ................
017798  .dc.b FF 00 00 00 FF 00 00 00 FF 00 00 00 FF 00 00 00 ; ................
0177A8  .dc.b 00 00 00 00 00 00 10 00 18 00 00 00 10 00 FF 00 ; ................
0177B8  .dc.b 00 00 FF 00 00 00 FF 00 00 00 FF 00 00 00 FF 00 ; ................
0177C8  .dc.b 00 00 FF 10 00 00 00 00 00 00 00 08 10 00 18 00 ; ................
0177D8  .dc.b 00 00 10 00 FF 00 00 00 FF 00 00 00 FF 00 00 00 ; ................
0177E8  .dc.b FF 00 00 00 FF 00 00 00 FF 10 00 00 00 00 00 00 ; ................
0177F8  .dc.b 00 08 10 00 00 00 00 00 10 00 FF 00 00 00 FF 00 ; ................
017808  .dc.b 00 00 FF 00 00 00 FF 00 00 00 FF 00 00 00 FF 10 ; ................
017818  .dc.b 00 00 00 00 00 00 00 08 18 00 00 00 00 00 38 00 ; ..............8.
017828  .dc.b 7F 00 00 00 FF 00 00 00 FF 00 00 00 FF 00 00 00 ; ................
017838  .dc.b FF 00 00 00 FF 10 00 00 00 00 00 00 00 18 0C 00 ; ................
017848  .dc.b 00 00 00 00 7C 00 3F C0 00 03 FF C0 00 03 FF C0 ; ....|.?.........
017858  .dc.b 00 03 FF C0 00 03 FF C0 00 03 FE 38 00 00 00 00 ; ...........8....
017868  .dc.b 00 00 00 30 06 00 00 00 00 00 C6 00 1F F0 00 0F ; ...0............
017878  .dc.b C3 F0 00 0F C3 F0 00 0F C3 F0 00 0F C3 F0 00 0F ; ................
017888  .dc.b FC 6C 00 00 00 00 00 00 00 60 03 00 00 00 00 01 ; .l.......`......
017898  .dc.b 83 00 0F FC 00 3F C3 FC 00 3F C3 FC 00 3F C3 FC ; .....?...?...?..
0178A8  .dc.b 00 3F C3 FC 00 3F F8 C6 00 00 00 00 00 00 00 C0 ; .?...?..........
0178B8  .dc.b 01 80 00 00 00 03 01 80 07 FF 00 FF 81 FF 00 FF ; ................
0178C8  .dc.b 81 FF 00 FF 81 FF 00 FF 81 FF 00 FF F1 83 00 00 ; ................
0178D8  .dc.b 00 00 00 00 01 80 10 C0 00 00 00 06 10 C0 03 FF ; ................
0178E8  .dc.b 00 FF 00 FF 00 FF 00 FF 00 FF 00 FF 00 FF 00 FF ; ................
0178F8  .dc.b 00 FF E3 01 80 00 00 00 00 00 03 08 00 00 00 00 ; ................
017908  .dc.b 00 00 00 00 01 FF 00 FE 00 7F 00 FE 00 7F 00 FE ; ................
017918  .dc.b 00 7F 00 FE 00 7F 00 FF C0 00 00 00 00 00 00 00 ; ................
017928  .dc.b 00 00 00 00 00 00 00 00 00 00 00 FF 00 FC 00 3F ; ...............?
017938  .dc.b 00 FC 00 3F 00 FC 00 3F 00 FC 00 3F 00 FF 80 00 ; ...?...?...?....
017948  .dc.b 00 00 00 00 00 00 00 00 06 8C D8 7C 3E 1B 31 60 ; ...........|>.1`
017958  .dc.b FF FF FF FF FF FF FF FF 18 24 66 6E 76 66 24 18 ; .........$fnvf$.
017968  .dc.b 18 18 38 18 18 18 18 3C 18 26 66 0C 30 20 66 7E ; ..8....<.&f.0 f~
017978  .dc.b 18 24 06 1C 06 06 24 18 60 66 66 66 7F 06 06 06 ; .$....$.`fff....
017988  .dc.b 7E 66 60 78 04 66 24 18 18 26 60 78 64 66 24 18 ; ~f`x.f$..&`xdf$.
017998  .dc.b 7E 66 66 0C 08 18 18 18 18 24 66 3C 66 66 24 18 ; ~ff......$f<ff$.
0179A8  .dc.b 18 24 66 26 1E 06 64 18 24 42 00 00 00 00 42 24 ; .$f&..d.$B....B$
0179B8  .dc.b 00 20 00 00 00 00 00 00 24 40 00 00 08 40 00 00 ; . ......$@...@..
0179C8  .dc.b 24 42 00 00 00 00 42 24 00 00 00 00 00 00 00 00 ; $B....B$........
0179D8  .dc.b 00 00 00 04 02 00 42 24 24 40 00 04 02 00 42 24 ; ......B$$@....B$
0179E8  .dc.b 00 00 00 00 10 00 00 00 24 42 00 00 00 00 42 24 ; ........$B....B$
0179F8  .dc.b 24 42 00 40 20 00 02 24 38 7C C6 C6 CE DE F6 E6 ; $B.@ ..$8|......
017A08  .dc.b C6 C6 7C 38 08 18 38 78 18 18 18 18 18 18 7E 7E ; ..|8..8x......~~
017A18  .dc.b 38 7C C6 06 04 08 10 20 40 C2 FE FE 38 7C C6 06 ; 8|..... @...8|..
017A28  .dc.b 0C 3C 3C 0C 06 C6 7C 38 0C 1C 1C 3C 2C 4C 4C FE ; .<<...|8...<,LL.
017A38  .dc.b FE 0C 0C 0C FE FE C0 C0 C0 F8 FC 06 06 C6 7C 38 ; ..............|8
017A48  .dc.b 38 7C C6 C0 C0 F8 FC C6 C6 C6 7C 38 FE FE C6 04 ; 8|........|8....
017A58  .dc.b 04 08 08 18 18 18 18 18 38 7C C6 C6 44 7C 7C C6 ; ........8|..D||.
017A68  .dc.b C6 C6 7C 38 38 7C C6 C6 C6 7E 3E 06 06 C6 7C 38 ; ..|88|...~>...|8
017A78  .dc.b 44 82 00 00 00 00 00 00 00 00 82 44 10 20 40 00 ; D..........D. @.
017A88  .dc.b 00 00 00 00 00 00 00 00 44 82 00 00 0A 14 28 50 ; ........D.....(P
017A98  .dc.b A0 00 00 00 44 82 00 00 02 00 00 02 00 00 82 44 ; ....D..........D
017AA8  .dc.b 10 00 20 00 40 20 80 00 00 00 00 00 00 00 00 00 ; .. .@ ..........
017AB8  .dc.b 00 04 02 00 00 00 82 44 44 82 00 00 00 04 02 00 ; .......DD.......
017AC8  .dc.b 00 00 82 44 00 00 00 02 08 04 10 00 00 00 00 00 ; ...D............
017AD8  .dc.b 44 82 00 00 82 00 82 00 00 00 82 44 44 82 00 00 ; D..........DD...
017AE8  .dc.b 00 80 40 00 00 00 82 44 FF FE FF FF FF FE FF FF ; ..@....D........
017AF8  .dc.b FF FC FF FE 80 00 FF FF FD 2E FE 1C 98 04 FF FF ; ................
017B08  .dc.b F4 BE F8 7C A0 1C FF FF D2 FA E1 FC 80 70 FF FF ; ...|.........p..
017B18  .dc.b CB EA C7 F0 81 C0 FF FF EF A2 DF C0 87 00 FF FF ; ................
017B28  .dc.b FE 8A FF 04 9C 00 FF FF FA 2E FC 1C B0 04 FF FF ; ................
017B38  .dc.b E8 BE F0 7C 80 18 FF FF E2 F6 C1 F8 80 60 FF FF ; ...|.........`..
017B48  .dc.b CB D6 C7 E0 81 80 FF FF EF 56 DF 8C 86 00 FF FF ; .........V......
017B58  .dc.b BF FE C0 00 80 00 FF FF 00 00 80 00 00 00 FF FF ; ................
017B68  .dc.b 00 00 00 00 00 00 00 00 00 00 00 00 75 5C 00 00 ; ............u\..
017B78  .dc.b 45 48 00 00 62 48 00 00 45 48 40 00 75 48 80 00 ; EH..bH..EH@.uH..
017B88  .dc.b 00 01 00 00 7F F2 00 00 00 04 00 00 00 08 00 00 ; ................
017B98  .dc.b 00 00 00 00 00 00 00 00 00 00 00 00 75 5C 00 00 ; ............u\..
017BA8  .dc.b 45 48 00 00 62 48 00 00 45 48 00 00 75 48 00 00 ; EH..bH..EH..uH..
017BB8  .dc.b 00 00 00 00 00 00 00 00 00 00 00 00 00 00 00 00 ; ................
017BC8  .dc.b 00 08 00 00 00 0C 00 00 FF FE 00 00 FF FF 00 00 ; ................
017BD8  .dc.b FF FF 80 00 FF FF C0 00 FF FF 80 00 FF FF 00 00 ; ................
017BE8  .dc.b FF FE 00 00 00 0C 00 00 00 08 00 00 00 00 00 00 ; ................
017BF8  .dc.b 00 08 00 00 00 0C 00 00 FF FE 00 00 FF FF 00 00 ; ................
017C08  .dc.b FF FF 80 00 FF FF C0 00 FF FF C0 00 FF FF 80 00 ; ................
017C18  .dc.b FF FF 00 00 7F FE 00 00 00 0C 00 00 00 08 00 00 ; ................
017C28  .dc.b 3F F0 3F E0 F0 38 FF C3 FF 03 C0 E3 80 E3 FF D0 ; ?.?..8..........
017C38  .dc.b 0F F4 7F F8 7F F0 E0 3C FF D3 FF 43 80 F3 C0 F3 ; .......<...C....
017C48  .dc.b FE 30 1F FA FF B0 FF F4 E8 3C FC 13 F0 43 A0 F3 ; .0.......<...C..
017C58  .dc.b C0 F3 F2 F0 3E 0D EF E4 EF 94 F0 3C B5 F2 D7 C3 ; ....>......<....
017C68  .dc.b C0 F3 C0 F3 FF F0 3B F5 F0 0C F0 04 F4 34 0D 00 ; ......;......4..
017C78  .dc.b 34 03 D0 D3 40 D3 40 00 36 07 F0 1C F0 04 E8 34 ; 4...@.@.6......4
017C88  .dc.b 0D 00 34 03 A0 D3 40 D3 40 00 34 05 F0 00 F0 14 ; ..4...@.@.4.....
017C98  .dc.b CA 3C 0D 00 34 03 28 F3 C0 F3 40 00 0C 07 F0 00 ; .<..4.(...@.....
017CA8  .dc.b F0 14 EC 3C 0D 00 34 03 B0 F3 C0 F3 40 00 3C 07 ; ...<..4.....@.<.
017CB8  .dc.b D0 00 D0 34 D5 34 0D 00 34 03 54 D3 40 D3 40 00 ; ...4.4..4.T.@.@.
017CC8  .dc.b 00 1F D0 00 D0 34 DE 34 0D 00 34 03 78 D3 40 D3 ; .....4.4..4.x.@.
017CD8  .dc.b C0 00 00 2B F0 00 F0 34 D2 B4 0D 00 34 03 4A D3 ; ...+...4....4.J.
017CE8  .dc.b C0 D3 7F 40 00 72 F0 00 F0 34 D7 34 0D 00 34 03 ; ...@.r...4.4..4.
017CF8  .dc.b 5C D3 40 D3 FF C0 00 F6 D0 00 D0 34 D1 74 0D 00 ; \.@........4.t..
017D08  .dc.b 34 03 45 D3 40 D3 CB C0 01 CC D0 00 D0 34 D2 B4 ; 4.E.@........4..
017D18  .dc.b 0D 00 34 03 4A D3 40 D3 FF C0 03 D8 F0 00 D0 34 ; ..4.J.@........4
017D28  .dc.b D0 B4 0D 00 34 03 42 D3 40 D3 40 00 01 B0 D0 00 ; ....4.B.@.@.....
017D38  .dc.b D0 34 D1 74 0D 00 34 03 45 D3 40 D3 40 00 03 A0 ; .4.t..4.E.@.@...
017D48  .dc.b F0 00 F0 34 D0 74 0D 00 34 03 41 D3 C0 D3 40 00 ; ...4.t..4.A...@.
017D58  .dc.b 01 60 70 00 F0 34 D0 B4 0D 00 34 03 42 D3 40 D3 ; .`p..4....4.B.@.
017D68  .dc.b 40 00 03 E0 F0 38 70 34 D0 34 0D 00 34 03 40 D1 ; @....8p4.4..4.@.
017D78  .dc.b 40 D3 C0 00 00 00 70 34 70 34 90 64 0D 00 34 02 ; @.....p4p4.d..4.
017D88  .dc.b 41 91 C0 D3 C0 00 00 00 5B F4 5F FC D0 34 0D 03 ; A.......[._..4..
017D98  .dc.b FF 43 40 D1 7F F3 FF 90 03 A0 9F CC 8F EC 90 24 ; .C@............$
017DA8  .dc.b 0D 03 FC C2 40 92 3F B3 FF 30 03 60 40 38 40 38 ; ....@.?..0.`@8@8
017DB8  .dc.b 30 0C 03 03 9B C0 C0 31 00 E2 09 F0 02 E0 3F F0 ; 0......1......?.
017DC8  .dc.b 3F F0 F0 3C 0F 01 FF C3 C0 F0 FF C3 FF F0 03 E0 ; ?..<............
017DD8  .dc.b 00 00 00 00 00 00 00 00 00 00 00 00 00 00 00 00 ; ................
017DE8  .dc.b 00 00 00 00 00 00 00 00 00 00 00 00 00 00 00 00 ; ................
017DF8  .dc.b 00 00 00 00 00 00 00 00 00 00 00 00 00 00 00 00 ; ................
017E08  .dc.b 00 00 00 00 00 00 00 00 00 00 00 00 00 00 00 00 ; ................
017E18  .dc.b 00 00 00 00 00 00 00 00 00 00 00 3C 3C FF 10 FF ; ...........<<...
017E28  .dc.b 80 00 30 F0 38 3F C0 00 00 00 00 00 00 3C 34 EF ; ..0.8?.......<4.
017E38  .dc.b F1 BF 60 00 68 F8 3C 79 E0 00 00 00 00 00 00 3C ; ..`.h.<y.......<
017E48  .dc.b 34 F0 03 C0 90 00 D8 FC 34 E0 10 00 00 00 00 00 ; 4.......4.......
017E58  .dc.b 00 3C 3C D0 03 40 70 01 B0 DE 30 E0 1C 00 00 00 ; .<<..@p...0.....
017E68  .dc.b 00 00 00 34 3C D0 03 40 00 03 60 EF 34 D0 34 00 ; ...4<..@..`.4.4.
017E78  .dc.b 00 00 00 00 00 3A 6C D0 03 00 00 06 C0 DE BC F0 ; .....:l.........
017E88  .dc.b 34 00 00 00 00 00 00 16 58 FE 40 FF 80 0D 80 D7 ; 4.......X.@.....
017E98  .dc.b 74 D0 34 00 00 00 00 00 00 0B B0 EF C0 97 C0 1B ; t.4.............
017EA8  .dc.b 00 D3 A4 D0 24 00 00 00 00 00 00 07 60 D0 00 00 ; ....$.......`...
017EB8  .dc.b 70 36 00 B1 F4 D0 34 00 00 00 00 00 00 03 C0 D0 ; p6....4.........
017EC8  .dc.b 00 00 D0 6C 00 D0 EC D0 3C 00 00 00 00 00 00 03 ; ...l....<.......
017ED8  .dc.b C0 D0 03 80 D0 D8 00 B0 6C D0 2C 00 00 00 00 00 ; ........l.,.....
017EE8  .dc.b 00 02 C0 D0 03 80 B1 B0 00 B0 2C D0 2C 00 00 00 ; ..........,.,...
017EF8  .dc.b 00 00 00 02 C0 FF B0 FF 63 60 00 70 1C 3F 98 00 ; ........c`.p.?..
017F08  .dc.b 00 00 00 00 00 03 C0 FF F0 3F C2 C0 00 F0 3C 09 ; .........?....<.
017F18  .dc.b F0 00 00 00 3F F0 3F F0 F0 3C FF F3 FF C3 C0 F3 ; ....?.?..<......
017F28  .dc.b C0 F3 FF E0 0F F8 7F F8 7F F8 F0 38 FF E3 FF 83 ; ...........8....
017F38  .dc.b C0 E3 80 E3 FF C0 1F FC FF FC FF F8 F0 38 FF E3 ; .............8..
017F48  .dc.b FF 83 C0 E3 80 E3 FD 00 3F FE F0 18 F0 78 F8 38 ; ........?....x.8
017F58  .dc.b CE 03 38 03 E0 E3 80 E3 80 00 3C 0E E0 30 E0 38 ; ..8.......<..0.8
017F68  .dc.b F8 38 0E 00 38 03 E0 E3 80 E3 80 00 38 0C E0 20 ; .8..8.......8.. 
017F78  .dc.b E0 38 FC 38 0E 00 38 03 F0 E3 80 E3 80 00 38 0E ; .8.8..8.......8.
017F88  .dc.b E0 00 E0 38 FC 38 0E 00 38 03 F0 E3 80 E3 80 00 ; ...8.8..8.......
017F98  .dc.b 30 0C E0 00 E0 38 FE 38 0E 00 38 03 F8 E3 80 E3 ; 0....8.8..8.....
017FA8  .dc.b 80 00 00 0C E0 00 E0 38 EE 38 0E 00 38 03 B8 E3 ; .......8.8..8...
017FB8  .dc.b 80 E3 80 00 00 0C E0 00 E0 38 E7 38 0E 00 38 03 ; .........8.8..8.
017FC8  .dc.b 9C E3 80 E3 00 00 00 1C E0 00 E0 38 E7 38 0E 00 ; ...........8.8..
017FD8  .dc.b 38 03 9C E3 80 E3 FF 80 00 3C E0 00 E0 38 E3 B8 ; 8........<...8..
017FE8  .dc.b 0E 00 38 03 8E E3 80 E3 FF 00 00 78 E0 00 E0 38 ; ..8........x...8
017FF8  .dc.b E3 B8 0E 00 38 03 8E E3 80 E3 F4 00 00 F0 E0 00 ; ....8...........
018008  .dc.b E0 38 E1 F8 0E 00 38 03 87 E3 80 E3 80 00 01 E0 ; .8....8.........
018018  .dc.b C0 00 E0 38 E1 F8 0E 00 38 03 87 E3 80 E3 80 00 ; ...8....8.......
018028  .dc.b 03 C0 E0 00 E0 38 E0 F8 0E 00 38 03 83 E3 80 E3 ; .....8....8.....
018038  .dc.b 80 00 03 C0 C0 00 C0 38 E0 F8 0E 00 38 03 83 E3 ; .......8....8...
018048  .dc.b 00 E3 80 00 03 80 C0 00 C0 38 E0 78 0E 00 38 03 ; .........8.x..8.
018058  .dc.b 81 E3 80 E3 80 00 00 00 C0 3C C0 38 E0 78 0E 00 ; .........<.8.x..
018068  .dc.b 38 03 81 E3 80 E3 00 00 00 00 C0 38 C0 38 E0 38 ; 8..........8.8.8
018078  .dc.b 0E 00 38 03 80 E3 00 E3 00 00 00 00 EF F8 EF F0 ; ..8.............
018088  .dc.b E0 38 0E 03 FF 83 80 E3 BF C3 FF E0 03 C0 7F F0 ; .8..............
018098  .dc.b 7F F0 E0 38 0E 03 FF 03 80 E1 FF C3 FF C0 03 80 ; ...8............
0180A8  .dc.b 3F C0 3F C0 C0 30 0C 03 E4 03 00 C0 FF 03 F6 00 ; ?.?..0..........
0180B8  .dc.b 03 00 00 00 00 00 00 00 00 02 00 00 00 00 00 00 ; ................
0180C8  .dc.b 00 00 00 00 00 00 00 00 00 00 00 00 00 00 00 00 ; ................
0180D8  .dc.b 00 00 00 00 00 00 00 00 00 00 00 00 00 00 00 00 ; ................
0180E8  .dc.b 00 00 00 00 00 00 00 00 00 00 00 00 00 00 00 00 ; ................
0180F8  .dc.b 00 00 00 00 00 00 00 00 00 00 00 00 00 00 00 00 ; ................
018108  .dc.b 00 00 00 00 00 00 00 00 00 00 00 00 00 00 00 38 ; ...............8
018118  .dc.b 38 FF E0 FF C0 00 38 F0 3C 3F F0 00 00 00 00 00 ; 8.....8.<?......
018128  .dc.b 00 30 38 F0 01 C0 C0 00 70 F0 38 7E 18 00 00 00 ; .08.....p.8~....
018138  .dc.b 00 00 00 30 38 E0 03 80 E0 00 E0 F8 38 F0 3C 00 ; ...08.......8.<.
018148  .dc.b 00 00 00 00 00 30 30 E0 03 80 80 01 C0 FC 3C F0 ; .....00.......<.
018158  .dc.b 38 00 00 00 00 00 00 38 30 E0 03 80 00 03 80 FE ; 8......80.......
018168  .dc.b 38 E0 38 00 00 00 00 00 00 1C 30 E0 03 C0 00 07 ; 8.8.......0.....
018178  .dc.b 00 E7 38 E0 38 00 00 00 00 00 00 0F E0 FF 81 FF ; ..8.8...........
018188  .dc.b C0 0E 00 E3 B8 E0 38 00 00 00 00 00 00 07 C0 F0 ; ......8.........
018198  .dc.b 00 68 60 1C 00 E1 F8 E0 38 00 00 00 00 00 00 03 ; .h`.....8.......
0181A8  .dc.b 80 E0 00 00 E0 38 00 C0 F8 E0 38 00 00 00 00 00 ; .....8....8.....
0181B8  .dc.b 00 03 00 E0 00 00 E0 70 00 E0 70 E0 30 00 00 00 ; .......p..p.0...
0181C8  .dc.b 00 00 00 03 00 E0 03 C0 E0 E0 00 C0 30 E0 30 00 ; ............0.0.
0181D8  .dc.b 00 00 00 00 00 03 00 E0 03 C0 C1 C0 00 C0 30 E0 ; ..............0.
0181E8  .dc.b 30 00 00 00 00 00 00 03 00 FF C1 FF 83 80 00 80 ; 0...............
0181F8  .dc.b 20 7F E0 00 00 00 00 00 00 00 00 80 00 C0 03 00 ;  ...............
018208  .dc.b 00 00 00 36 00 00 00 00 1F 40 1F 40 C0 30 FF 83 ; ...6.....@.@.0..
018218  .dc.b FE 03 00 C3 00 C3 FB 00 03 D0 3F E0 3F E0 C0 30 ; ..........?.?..0
018228  .dc.b FA 03 E8 03 00 C3 00 C3 B0 00 0E 80 60 00 60 00 ; ............`.`.
018238  .dc.b C0 30 80 02 00 03 00 C3 00 C3 00 00 18 00 C0 00 ; .0..............
018248  .dc.b C0 00 C0 30 00 00 00 03 00 C3 00 C3 00 00 30 04 ; ...0..........0.
018258  .dc.b C0 00 C0 00 D0 30 04 00 10 03 40 C3 00 C3 00 00 ; .....0....@.....
018268  .dc.b 20 00 C0 00 C0 00 C0 30 04 00 10 03 00 C3 00 C2 ;  ......0........
018278  .dc.b 00 00 20 00 C0 00 C0 00 C8 30 04 00 10 03 20 C3 ; .. ......0.... .
018288  .dc.b 00 C2 00 00 00 04 C0 00 C0 00 C0 30 0C 00 30 03 ; ...........0..0.
018298  .dc.b 00 C3 00 C3 00 00 00 04 C0 00 C0 00 C4 30 04 00 ; .............0..
0182A8  .dc.b 10 03 10 C3 00 43 00 00 00 00 C0 00 C0 00 C0 30 ; .....C.........0
0182B8  .dc.b 04 00 10 03 00 C3 00 41 00 00 00 08 C0 00 40 20 ; .......A......@ 
0182C8  .dc.b 40 10 0C 00 30 01 00 41 00 83 32 00 00 10 C0 00 ; @...0..A..2.....
0182D8  .dc.b C0 20 C0 30 0C 00 30 03 00 C3 00 83 FC 00 00 60 ; . .0..0........`
0182E8  .dc.b C0 00 40 00 40 30 04 00 10 01 00 C1 00 41 00 00 ; ..@.@0.......A..
0182F8  .dc.b 00 C0 00 00 40 20 40 10 04 00 10 01 00 41 00 81 ; ....@ @......A..
018308  .dc.b 00 00 01 80 80 00 00 30 00 00 0C 00 30 00 00 00 ; .......0....0...
018318  .dc.b 00 C3 00 00 01 00 00 00 00 20 40 10 04 00 10 01 ; ......... @.....
018328  .dc.b 00 40 00 81 00 00 03 00 00 00 00 30 00 20 04 00 ; .@.........0. ..
018338  .dc.b 10 00 00 80 00 C0 00 00 00 00 00 00 00 30 00 20 ; .............0. 
018348  .dc.b 00 00 00 00 00 80 00 C1 00 00 00 00 00 10 00 30 ; ...............0
018358  .dc.b 00 20 04 00 10 00 00 80 00 C1 00 00 00 00 00 30 ; . .............0
018368  .dc.b 00 20 00 00 04 00 10 00 00 00 00 80 00 00 00 00 ; . ..............
018378  .dc.b 00 E0 00 E0 00 00 00 03 FA 00 00 00 03 82 FE 00 ; ................
018388  .dc.b 03 00 00 00 02 80 00 00 00 02 80 00 00 00 0A 02 ; ................
018398  .dc.b B0 00 02 00 00 00 00 00 00 00 00 02 00 00 00 00 ; ................
0183A8  .dc.b 00 00 00 00 00 00 00 00 00 00 00 00 00 00 00 00 ; ................
0183B8  .dc.b 00 00 00 00 00 00 00 00 00 00 00 00 00 00 00 00 ; ................
0183C8  .dc.b 00 00 00 00 00 00 00 00 00 00 00 00 00 00 00 00 ; ................
0183D8  .dc.b 00 00 00 00 00 00 00 00 00 00 00 00 00 00 00 00 ; ................
0183E8  .dc.b 00 00 00 00 00 00 00 00 00 00 00 00 00 00 00 00 ; ................
0183F8  .dc.b 00 00 00 00 00 00 00 00 00 00 00 00 00 00 00 00 ; ................
018408  .dc.b 00 00 00 30 30 F4 00 7D 00 00 20 E0 38 1F 00 00 ; ...00..}.. .8...
018418  .dc.b 00 00 00 00 00 20 20 C0 01 80 00 00 40 E0 30 60 ; .....  .....@.0`
018428  .dc.b 00 00 00 00 00 00 00 20 20 80 01 00 00 00 80 90 ; .......  .......
018438  .dc.b 20 40 10 00 00 00 00 00 00 20 20 80 03 00 00 01 ;  @.......  .....
018448  .dc.b 00 88 30 C0 10 00 00 00 00 00 00 10 20 80 02 00 ; ..0......... ...
018458  .dc.b 00 02 00 C4 20 80 10 00 00 00 00 00 00 00 00 80 ; .... ...........
018468  .dc.b 00 00 00 04 00 82 20 C0 30 00 00 00 00 00 00 04 ; ...... .0.......
018478  .dc.b 40 AC 00 BD 00 08 00 80 00 80 20 00 00 00 00 00 ; @......... .....
018488  .dc.b 00 01 00 40 00 00 00 10 00 80 00 C0 20 00 00 00 ; ...@........ ...
018498  .dc.b 00 00 00 02 00 80 00 00 40 20 00 00 60 80 00 00 ; ........@ ..`...
0184A8  .dc.b 00 00 00 00 00 03 00 80 00 00 40 40 00 00 20 80 ; ..........@@.. .
0184B8  .dc.b 20 00 00 00 00 00 00 02 00 80 03 80 80 80 00 80 ;  ...............
0184C8  .dc.b 00 00 20 00 00 00 00 00 00 02 00 00 02 00 01 00 ; .. .............
0184D8  .dc.b 00 80 00 00 00 00 00 00 00 00 00 00 00 E4 00 BC ; ................
0184E8  .dc.b 02 00 00 00 00 0F 00 00 00 00 00 00 00 00 00 80 ; ................
0184F8  .dc.b 00 00 00 00 00 00 00 00 00 00 00 00 3F F0 3F F0 ; ............?.?.
018508  .dc.b F0 3C FF F3 FF C3 C0 F3 C0 F3 FF F0 0F FC 7F F8 ; .<..............
018518  .dc.b 7F F8 F0 3C FF F3 FF C3 C0 F3 C0 F3 FF F0 1F FE ; ...<............
018528  .dc.b FF FC FF FC F8 3C FF F3 FF C3 E0 F3 C0 F3 FF F0 ; .....<..........
018538  .dc.b 3F FF FF FC FF FC F8 3C FF F3 FF C3 E0 F3 C0 F3 ; ?......<........
018548  .dc.b FF F0 3F FF F0 3C F0 3C FC 3C 0F 00 3C 03 F0 F3 ; ..?..<.<.<..<...
018558  .dc.b C0 F3 C0 00 3E 0F F0 3C F0 3C FC 3C 0F 00 3C 03 ; ....>..<.<.<..<.
018568  .dc.b F0 F3 C0 F3 C0 00 3C 0F F0 00 F0 3C FE 3C 0F 00 ; ......<....<.<..
018578  .dc.b 3C 03 F8 F3 C0 F3 C0 00 3C 0F F0 00 F0 3C FE 3C ; <.......<....<.<
018588  .dc.b 0F 00 3C 03 F8 F3 C0 F3 C0 00 3C 0F F0 00 F0 3C ; ..<.......<....<
018598  .dc.b FF 3C 0F 00 3C 03 FC F3 C0 F3 C0 00 00 1F F0 00 ; .<..<...........
0185A8  .dc.b F0 3C FF 3C 0F 00 3C 03 FC F3 C0 F3 C0 00 00 3F ; .<.<..<........?
0185B8  .dc.b F0 00 F0 3C F7 BC 0F 00 3C 03 DE F3 C0 F3 FF C0 ; ...<....<.......
0185C8  .dc.b 00 7E F0 00 F0 3C F7 BC 0F 00 3C 03 DE F3 C0 F3 ; .~...<....<.....
0185D8  .dc.b FF C0 00 FE F0 00 F0 3C F3 FC 0F 00 3C 03 CF F3 ; .......<....<...
0185E8  .dc.b C0 F3 FF C0 01 FC F0 00 F0 3C F3 FC 0F 00 3C 03 ; .........<....<.
0185F8  .dc.b CF F3 C0 F3 FF C0 03 F8 F0 00 F0 3C F1 FC 0F 00 ; ...........<....
018608  .dc.b 3C 03 C7 F3 C0 F3 C0 00 03 F0 F0 00 F0 3C F1 FC ; <............<..
018618  .dc.b 0F 00 3C 03 C7 F3 C0 F3 C0 00 03 E0 F0 00 F0 3C ; ..<............<
018628  .dc.b F0 FC 0F 00 3C 03 C3 F3 C0 F3 C0 00 03 E0 F0 00 ; ....<...........
018638  .dc.b F0 3C F0 FC 0F 00 3C 03 C3 F3 C0 F3 C0 00 03 E0 ; .<....<.........
018648  .dc.b F0 3C F0 3C F0 7C 0F 00 3C 03 C1 F3 C0 F3 C0 00 ; .<.<.|..<.......
018658  .dc.b 00 00 F0 3C F0 3C F0 7C 0F 00 3C 03 C1 F3 C0 F3 ; ...<.<.|..<.....
018668  .dc.b C0 00 00 00 FF FC FF FC F0 3C 0F 03 FF C3 C0 F3 ; .........<......
018678  .dc.b FF F3 FF F0 03 E0 FF FC FF FC F0 3C 0F 03 FF C3 ; ...........<....
018688  .dc.b C0 F3 FF F3 FF F0 03 E0 7F F8 7F F8 F0 3C 0F 03 ; .............<..
018698  .dc.b FF C3 C0 F1 FF E3 FF F0 03 E0 3F F0 3F F0 F0 3C ; ..........?.?..<
0186A8  .dc.b 0F 03 FF C3 C0 F0 FF C3 FF F0 03 E0 00 00 00 00 ; ................
0186B8  .dc.b 00 00 00 00 00 00 00 00 00 00 00 00 00 00 00 00 ; ................
0186C8  .dc.b 00 00 00 00 00 00 00 00 00 00 00 00 00 00 00 00 ; ................
0186D8  .dc.b 00 00 00 00 00 00 00 00 00 00 00 00 00 00 00 00 ; ................
0186E8  .dc.b 00 00 00 00 00 00 00 00 00 00 00 00 00 00 00 00 ; ................
0186F8  .dc.b 00 00 00 00 00 00 00 3C 3C FF F0 FF C0 00 38 F0 ; .......<<.....8.
018708  .dc.b 3C 3F F0 00 00 00 00 00 00 3C 3C FF F1 FF E0 00 ; <?.......<<.....
018718  .dc.b 78 F8 3C 7F F8 00 00 00 00 00 00 3C 3C F0 03 C0 ; x.<........<<...
018728  .dc.b F0 00 F8 FC 3C F0 3C 00 00 00 00 00 00 3C 3C F0 ; ....<.<......<<.
018738  .dc.b 03 C0 F0 01 F0 FE 3C F0 3C 00 00 00 00 00 00 3C ; ......<.<......<
018748  .dc.b 3C F0 03 C0 00 03 E0 FF 3C F0 3C 00 00 00 00 00 ; <.......<.<.....
018758  .dc.b 00 3E 7C F0 03 C0 00 07 C0 FF BC F0 3C 00 00 00 ; .>|.........<...
018768  .dc.b 00 00 00 1F F8 FF C1 FF C0 0F 80 F7 FC F0 3C 00 ; ..............<.
018778  .dc.b 00 00 00 00 00 0F F0 FF C0 FF E0 1F 00 F3 FC F0 ; ................
018788  .dc.b 3C 00 00 00 00 00 00 07 E0 F0 00 00 F0 3E 00 F1 ; <............>..
018798  .dc.b FC F0 3C 00 00 00 00 00 00 03 C0 F0 00 00 F0 7C ; ..<............|
0187A8  .dc.b 00 F0 FC F0 3C 00 00 00 00 00 00 03 C0 F0 03 C0 ; ....<...........
0187B8  .dc.b F0 F8 00 F0 7C F0 3C 00 00 00 00 00 00 03 C0 F0 ; ....|.<.........
0187C8  .dc.b 03 C0 F1 F0 00 F0 3C F0 3C 00 00 00 00 00 00 03 ; ......<.<.......
0187D8  .dc.b C0 FF F1 FF E3 E0 00 F0 3C 7F F8 00 00 00 00 00 ; ........<.......
0187E8  .dc.b 00 03 C0 FF F0 FF C3 C0 00 F0 3C 3F F0 00 00 00 ; ..........<?....
0187F8  .dc.b 3F F0 FF C0 F0 38 FF F4 00 00 3F E0 E0 38 3F F0 ; ?....8....?..8?.
018808  .dc.b 00 E0 3F F4 FF D0 E0 3C FF 8C 00 00 7F F0 F0 3C ; ..?....<.......<
018818  .dc.b 3F F4 00 F0 3F 04 FC 10 E8 7C FC BC 00 00 FF F4 ; ?...?....|......
018828  .dc.b F0 3C 3F 04 00 F0 2D 7C B5 F0 F0 7C FF FC 00 00 ; .<?...-|...|....
018838  .dc.b EF 94 F0 3C 2D 7C 00 F0 03 40 0D 00 FC F4 D0 00 ; ...<-|...@......
018848  .dc.b 00 00 F0 04 D0 34 03 40 00 D0 03 40 0D 00 E8 F4 ; .....4.@...@....
018858  .dc.b D0 00 00 00 F0 04 D0 34 03 40 00 D0 03 40 0D 00 ; .......4.@...@..
018868  .dc.b CF BC D0 00 00 00 F0 14 F0 3C 03 40 00 F0 03 40 ; .........<.@...@
018878  .dc.b 0D 00 E5 FC D0 00 00 00 F0 14 F0 3C 03 40 00 F0 ; ...........<.@..
018888  .dc.b 03 40 0D 00 D7 74 D0 00 00 00 D0 34 D0 34 03 40 ; .@...t.....4.4.@
018898  .dc.b 00 D0 03 40 0D 00 D3 B4 F0 00 00 00 D0 34 D0 34 ; ...@.........4.4
0188A8  .dc.b 03 40 00 D0 03 40 0D 00 D6 B4 DF D0 00 00 F0 34 ; .@...@.........4
0188B8  .dc.b F0 34 03 40 00 D0 03 40 0D 00 D1 34 FF F0 00 00 ; .4.@...@...4....
0188C8  .dc.b F0 34 D0 34 03 40 00 D0 03 40 0D 00 D3 34 F2 F0 ; .4.4.@...@...4..
0188D8  .dc.b 00 00 D0 34 D0 34 03 40 00 D0 03 40 0D 00 D0 34 ; ...4.4.@...@...4
0188E8  .dc.b FF F0 00 00 D0 34 D0 34 03 40 00 D0 03 40 0D 00 ; .....4.4.@...@..
0188F8  .dc.b D0 34 D0 00 00 00 D0 34 D0 34 03 40 00 D0 03 40 ; .4.....4.4.@...@
018908  .dc.b 0D 00 D0 34 D0 00 00 00 D0 34 D0 34 03 40 00 D0 ; ...4.....4.4.@..
018918  .dc.b 03 40 0D 00 D0 34 D0 00 00 00 F0 34 F0 34 03 40 ; .@...4.....4.4.@
018928  .dc.b 00 90 03 40 0D 00 D0 34 D0 00 00 00 F0 34 D0 34 ; ...@...4.....4.4
018938  .dc.b 03 40 00 70 03 40 0D 00 D0 34 F0 00 00 00 70 34 ; .@.p.@...4....p4
018948  .dc.b 50 34 03 40 00 00 03 40 0D 00 90 24 F0 00 00 00 ; P4.@...@...$....
018958  .dc.b 70 34 70 34 03 40 00 00 03 40 FF D0 D0 34 FF E4 ; p4p4.@...@...4..
018968  .dc.b 00 00 5F FC 5F FC 03 40 00 E0 03 40 FF 30 90 24 ; .._._..@...@.0.$
018978  .dc.b FF CC 00 00 8F EC 8F EC 03 40 00 D0 00 C0 E6 F0 ; .........@......
018988  .dc.b 30 0C 82 7C 00 00 40 38 40 38 00 C0 00 B0 03 C0 ; 0..|..@8@8......
018998  .dc.b 7F F0 F0 3C FF FC 00 00 3F F0 3F F0 03 C0 00 F0 ; ...<....?.?.....
0189A8  .dc.b 3F FC FF F0 F0 3C FF F8 00 00 3F F0 F0 3C 3F FC ; ?....<....?..<?.
0189B8  .dc.b 00 F0 3F F8 FF E0 F0 38 FF F0 00 00 7F F8 E0 38 ; ..?....8.......8
0189C8  .dc.b 3F F8 00 E0 3F F8 FF E0 F0 38 FF 40 00 00 FF F8 ; ?...?....8.@....
0189D8  .dc.b E0 38 3F F8 00 E0 33 80 CE 00 F8 78 E0 00 00 00 ; .8?...3....x....
0189E8  .dc.b F0 78 E0 38 33 80 00 E0 03 80 0E 00 F8 78 E0 00 ; .x.83........x..
0189F8  .dc.b 00 00 E0 38 E0 38 03 80 00 E0 03 80 0E 00 FC F8 ; ...8.8..........
018A08  .dc.b E0 00 00 00 E0 38 E0 38 03 80 00 E0 03 80 0E 00 ; .....8.8........
018A18  .dc.b FC F8 E0 00 00 00 E0 38 E0 38 03 80 00 E0 03 80 ; .......8.8......
018A28  .dc.b 0E 00 FF B8 E0 00 00 00 E0 38 E0 38 03 80 00 E0 ; .........8.8....
018A38  .dc.b 03 80 0E 00 EF B8 E0 00 00 00 E0 38 E0 38 03 80 ; ...........8.8..
018A48  .dc.b 00 E0 03 80 0E 00 E7 38 C0 00 00 00 E0 38 E0 38 ; .......8.....8.8
018A58  .dc.b 03 80 00 E0 03 80 0E 00 E3 38 FF E0 00 00 E0 38 ; .........8.....8
018A68  .dc.b E0 38 03 80 00 E0 03 80 0E 00 E2 38 FF C0 00 00 ; .8.........8....
018A78  .dc.b E0 38 E0 38 03 80 00 E0 03 80 0E 00 E0 38 FD 00 ; .8.8.........8..
018A88  .dc.b 00 00 E0 38 E0 38 03 80 00 E0 03 80 0E 00 E0 38 ; ...8.8.........8
018A98  .dc.b E0 00 00 00 E0 38 E0 38 03 80 00 E0 03 80 0E 00 ; .....8.8........
018AA8  .dc.b E0 38 E0 00 00 00 E0 38 E0 38 03 80 00 E0 03 80 ; .8.....8.8......
018AB8  .dc.b 0E 00 E0 38 E0 00 00 00 E0 38 E0 38 03 80 00 E0 ; ...8.....8.8....
018AC8  .dc.b 03 80 0E 00 E0 38 E0 00 00 00 C0 38 C0 38 03 80 ; .....8.....8.8..
018AD8  .dc.b 00 E0 03 80 0E 00 E0 38 E0 00 00 00 C0 38 E0 38 ; .......8.....8.8
018AE8  .dc.b 03 80 00 80 03 80 0E 00 E0 38 C0 00 00 00 C0 38 ; .........8.....8
018AF8  .dc.b E0 38 03 80 00 00 03 80 0E 00 E0 38 C0 00 00 00 ; .8.........8....
018B08  .dc.b C0 38 C0 38 03 80 00 00 03 80 FF E0 E0 38 FF F8 ; .8.8.........8..
018B18  .dc.b 00 00 EF F0 EF F0 03 80 00 F0 03 80 FF C0 E0 38 ; ...............8
018B28  .dc.b FF F0 00 00 7F F0 7F F0 03 80 00 E0 03 00 F9 00 ; ................
018B38  .dc.b C0 30 FD 80 00 00 3F C0 3F C0 03 00 00 C0 00 00 ; .0....?.?.......
018B48  .dc.b 80 00 00 00 00 00 00 00 00 00 00 00 00 00 00 00 ; ................
018B58  .dc.b 3F E0 FF 80 E0 30 FE C0 00 00 1F 40 C0 30 3F E0 ; ?....0.....@.0?.
018B68  .dc.b 00 C0 3E 80 FA 00 C0 30 EC 00 00 00 3F E0 C0 30 ; ..>....0....?..0
018B78  .dc.b 3E 80 00 C0 20 00 80 00 E0 30 C0 00 00 00 60 00 ; >... ....0....`.
018B88  .dc.b C0 30 20 00 00 C0 00 00 00 00 C0 30 C0 00 00 00 ; .0 ........0....
018B98  .dc.b C0 00 C0 30 00 00 00 C0 01 00 04 00 D0 70 C0 00 ; ...0.........p..
018BA8  .dc.b 00 00 C0 00 C0 30 01 00 00 C0 01 00 04 00 C0 30 ; .....0.........0
018BB8  .dc.b 80 00 00 00 C0 00 C0 30 01 00 00 C0 01 00 04 00 ; .......0........
018BC8  .dc.b C0 B0 80 00 00 00 C0 00 C0 30 01 00 00 C0 03 00 ; .........0......
018BD8  .dc.b 0C 00 C0 30 C0 00 00 00 C0 00 C0 30 03 00 00 C0 ; ...0.......0....
018BE8  .dc.b 01 00 04 00 C1 30 C0 00 00 00 C0 00 C0 10 01 00 ; .....0..........
018BF8  .dc.b 00 40 01 00 04 00 C0 30 40 00 00 00 C0 00 C0 10 ; .@.....0@.......
018C08  .dc.b 01 00 00 40 03 00 0C 00 40 10 CC 80 00 00 40 20 ; ...@....@.....@ 
018C18  .dc.b 40 20 03 00 00 80 03 00 0C 00 C0 30 FF 00 00 00 ; @ .........0....
018C28  .dc.b C0 20 C0 20 03 00 00 80 01 00 04 00 40 30 40 00 ; . . ........@0@.
018C38  .dc.b 00 00 40 00 40 10 01 00 00 40 01 00 04 00 40 10 ; ..@.@....@....@.
018C48  .dc.b 40 00 00 00 40 20 40 20 01 00 00 80 03 00 0C 00 ; @...@ @ ........
018C58  .dc.b 00 00 C0 00 00 00 00 30 00 30 03 00 00 C0 01 00 ; .......0.0......
018C68  .dc.b 04 00 40 10 40 00 00 00 00 20 00 20 01 00 00 80 ; ..@.@.... . ....
018C78  .dc.b 01 00 04 00 00 20 00 00 00 00 00 30 00 30 01 00 ; ..... .....0.0..
018C88  .dc.b 00 80 00 00 00 00 00 20 40 00 00 00 00 30 00 30 ; ....... @....0.0
018C98  .dc.b 00 00 00 00 01 00 04 00 00 20 40 00 00 00 00 30 ; ......... @....0
018CA8  .dc.b 00 30 01 00 00 00 01 00 04 00 00 00 00 00 00 00 ; .0..............
018CB8  .dc.b 00 20 00 20 01 00 00 00 00 00 FE 80 00 00 BF 80 ; . . ............
018CC8  .dc.b 00 00 00 E0 00 E0 00 00 00 C0 00 00 A0 00 00 00 ; ................
018CD8  .dc.b AC 00 00 00 02 80 02 80 00 00 00 80 00 00 80 00 ; ................
018CE8  .dc.b 00 00 00 00 00 00 00 00 00 00 00 00 00 00 00 00 ; ................
018CF8  .dc.b 00 00 00 00 00 00 00 00 00 00 00 00 00 00 00 00 ; ................
018D08  .dc.b 3F FC FF F0 F0 3C FF FC 00 00 3F F0 F0 3C 3F FC ; ?....<....?..<?.
018D18  .dc.b 00 F0 3F FC FF F0 F8 7C FF FC 00 00 7F F8 F0 3C ; ..?....|.......<
018D28  .dc.b 3F FC 00 F0 3F FC FF F0 F8 7C FF FC 00 00 FF FC ; ?...?....|......
018D38  .dc.b F0 3C 3F FC 00 F0 3F FC FF F0 FC FC FF FC 00 00 ; .<?...?.........
018D48  .dc.b FF FC F0 3C 3F FC 00 F0 03 C0 0F 00 FC FC F0 00 ; ...<?...........
018D58  .dc.b 00 00 F0 3C F0 3C 03 C0 00 F0 03 C0 0F 00 FF FC ; ...<.<..........
018D68  .dc.b F0 00 00 00 F0 3C F0 3C 03 C0 00 F0 03 C0 0F 00 ; .....<.<........
018D78  .dc.b FF FC F0 00 00 00 F0 3C F0 3C 03 C0 00 F0 03 C0 ; .......<.<......
018D88  .dc.b 0F 00 FF FC F0 00 00 00 F0 3C F0 3C 03 C0 00 F0 ; .........<.<....
018D98  .dc.b 03 C0 0F 00 FF FC F0 00 00 00 F0 3C F0 3C 03 C0 ; ...........<.<..
018DA8  .dc.b 00 F0 03 C0 0F 00 FF FC F0 00 00 00 F0 3C F0 3C ; .............<.<
018DB8  .dc.b 03 C0 00 F0 03 C0 0F 00 F7 BC FF F0 00 00 F0 3C ; ...............<
018DC8  .dc.b F0 3C 03 C0 00 F0 03 C0 0F 00 F7 BC FF F0 00 00 ; .<..............
018DD8  .dc.b F0 3C F0 3C 03 C0 00 F0 03 C0 0F 00 F3 3C FF F0 ; .<.<.........<..
018DE8  .dc.b 00 00 F0 3C F0 3C 03 C0 00 F0 03 C0 0F 00 F3 3C ; ...<.<.........<
018DF8  .dc.b FF F0 00 00 F0 3C F0 3C 03 C0 00 F0 03 C0 0F 00 ; .....<.<........
018E08  .dc.b F0 3C F0 00 00 00 F0 3C F0 3C 03 C0 00 F0 03 C0 ; .<.....<.<......
018E18  .dc.b 0F 00 F0 3C F0 00 00 00 F0 3C F0 3C 03 C0 00 F0 ; ...<.....<.<....
018E28  .dc.b 03 C0 0F 00 F0 3C F0 00 00 00 F0 3C F0 3C 03 C0 ; .....<.....<.<..
018E38  .dc.b 00 F0 03 C0 0F 00 F0 3C F0 00 00 00 F0 3C F0 3C ; .......<.....<.<
018E48  .dc.b 03 C0 00 F0 03 C0 0F 00 F0 3C F0 00 00 00 F0 3C ; .........<.....<
018E58  .dc.b F0 3C 03 C0 00 00 03 C0 0F 00 F0 3C F0 00 00 00 ; .<.........<....
018E68  .dc.b F0 3C F0 3C 03 C0 00 00 03 C0 FF F0 F0 3C FF FC ; .<.<.........<..
018E78  .dc.b 00 00 FF FC FF FC 03 C0 00 F0 03 C0 FF F0 F0 3C ; ...............<
018E88  .dc.b FF FC 00 00 FF FC FF FC 03 C0 00 F0 03 C0 FF F0 ; ................
018E98  .dc.b F0 3C FF FC 00 00 7F F8 7F F8 03 C0 00 F0 03 C0 ; .<..............
018EA8  .dc.b FF F0 F0 3C FF FC 00 00 3F F0 3F F0 03 C0 00 F0 ; ...<....?.?.....
018EB8  .dc.b 3F F0 3F E0 F0 38 FF F4 00 00 3F E0 E0 38 FF F4 ; ?.?..8....?..8..
018EC8  .dc.b FF E0 7F F8 7F F0 E0 3C FF 8C 00 00 7F F0 F0 3C ; .......<.......<
018ED8  .dc.b FF 8C FF C0 FF B0 FF F4 E8 7C FC BC 00 00 FF F4 ; .........|......
018EE8  .dc.b F0 3C FC BC FC 34 EF E4 EF 94 F0 7C FF FC 00 00 ; .<...4.....|....
018EF8  .dc.b EF 94 F0 3C FF FC EF B0 F0 0C F0 04 FC F4 D0 00 ; ...<............
018F08  .dc.b 00 00 F0 04 D0 34 D0 00 F0 3C F0 1C F0 04 E8 F4 ; .....4...<......
018F18  .dc.b D0 00 00 00 F0 04 D0 34 D0 00 F0 38 F0 00 F0 14 ; .......4...8....
018F28  .dc.b CF BC D0 00 00 00 F0 14 F0 3C D0 00 D0 3C F0 00 ; .........<...<..
018F38  .dc.b F0 14 E5 FC D0 00 00 00 F0 14 F0 3C D0 00 F0 34 ; ...........<...4
018F48  .dc.b D0 00 D0 34 D7 74 D0 00 00 00 D0 34 D0 34 D0 00 ; ...4.t.....4.4..
018F58  .dc.b D0 3C D0 00 D0 34 D3 B4 F0 00 00 00 D0 34 D0 34 ; .<...4.......4.4
018F68  .dc.b F0 00 D0 34 F3 FC FF F4 D6 B4 DF D0 00 00 F0 34 ; ...4...........4
018F78  .dc.b F0 34 DF D0 FF F4 F3 F8 FF F4 D1 34 FF F0 00 00 ; .4.........4....
018F88  .dc.b F0 34 D0 34 FF F0 FF E4 D3 90 EC 34 D3 34 F2 F0 ; .4.4.......4.4..
018F98  .dc.b 00 00 D0 34 D0 34 F2 F0 EF 18 D2 F4 C7 F4 D0 34 ; ...4.4.........4
018FA8  .dc.b FF F0 00 00 D0 34 D0 34 FF F0 CD F0 F0 10 D0 34 ; .....4.4.......4
018FB8  .dc.b D0 34 D0 00 00 00 D0 34 D0 34 D0 00 D2 E0 D0 14 ; .4.....4.4......
018FC8  .dc.b D0 34 D0 34 D0 00 00 00 D0 34 68 74 D0 00 D1 70 ; .4.4.....4ht...p
018FD8  .dc.b F0 3C D0 34 D0 34 D0 00 00 00 F0 34 28 28 D0 00 ; .<.4.4.....4((..
018FE8  .dc.b D0 B8 70 34 D0 34 D0 34 D0 00 00 00 F0 34 74 E8 ; ..p4.4.4.....4t.
018FF8  .dc.b D0 00 D0 50 F0 3C D0 34 D0 34 F0 00 00 00 70 34 ; ...P.<.4.4....p4
019008  .dc.b 14 F0 F0 00 D0 34 70 34 90 24 90 24 F0 00 00 00 ; .....4p4.$.$....
019018  .dc.b 70 34 3F D0 F0 00 90 34 5B F4 D0 34 D0 34 FF E4 ; p4?....4[..4.4..
019028  .dc.b 00 00 5F FC 0F E0 FF E4 D0 34 9F CC 90 24 90 24 ; .._......4...$.$
019038  .dc.b FF CC 00 00 8F EC 13 A0 FF CC 90 34 40 38 30 0C ; ...........4@80.
019048  .dc.b 30 0C 82 7C 00 00 40 38 08 40 82 7C 30 0C 3F F0 ; 0..|..@8.@.|0.?.
019058  .dc.b F0 3C F0 3C FF FC 00 00 3F F0 0F C0 FF FC F0 3C ; .<.<....?......<
019068  .dc.b 3F F0 3F F0 F0 3C FF F8 00 00 3F F0 F0 3C FF F8 ; ?.?..<....?..<..
019078  .dc.b FF F0 7F F8 7F F8 F0 38 FF F0 00 00 7F F8 E0 38 ; .......8.......8
019088  .dc.b FF F0 FF F8 FF FC FF F8 F0 38 FF 40 00 00 FF F8 ; .........8.@....
019098  .dc.b E0 38 FF 40 FF F8 F0 18 F0 78 F8 78 E0 00 00 00 ; .8.@.....x.x....
0190A8  .dc.b F0 78 E0 38 E0 00 F0 7C E0 30 E0 38 F8 78 E0 00 ; .x.8...|.0.8.x..
0190B8  .dc.b 00 00 E0 38 E0 38 E0 00 E0 38 E0 20 E0 38 FC F8 ; ...8.8...8. .8..
0190C8  .dc.b E0 00 00 00 E0 38 E0 38 E0 00 E0 3C E0 00 E0 38 ; .....8.8...<...8
0190D8  .dc.b FC F8 E0 00 00 00 E0 38 E0 38 E0 00 E0 38 E0 00 ; .......8.8...8..
0190E8  .dc.b E0 38 FF B8 E0 00 00 00 E0 38 E0 38 E0 00 E0 38 ; .8.......8.8...8
0190F8  .dc.b E0 00 E0 38 EF B8 E0 00 00 00 E0 38 E0 38 E0 00 ; ...8.......8.8..
019108  .dc.b E0 38 E0 00 E0 38 E7 38 C0 00 00 00 E0 38 E0 38 ; .8...8.8.....8.8
019118  .dc.b C0 00 E0 38 E3 FC FF F8 E3 38 FF E0 00 00 E0 38 ; ...8.....8.....8
019128  .dc.b E0 38 FF E0 FF F8 E3 FC FF F8 E2 38 FF C0 00 00 ; .8.........8....
019138  .dc.b E0 38 E0 38 FF C0 FF F8 E3 FC FF F8 E0 38 FD 00 ; .8.8.........8..
019148  .dc.b 00 00 E0 38 E0 38 FD 00 FF E0 E3 18 F8 38 E0 38 ; ...8.8.......8.8
019158  .dc.b E0 00 00 00 E0 38 E0 38 E0 00 F3 80 C0 3C E0 38 ; .....8.8.....<.8
019168  .dc.b E0 38 E0 00 00 00 E0 38 E0 38 E0 00 E1 C0 E0 38 ; .8.....8.8.....8
019178  .dc.b E0 38 E0 38 E0 00 00 00 E0 38 F0 38 E0 00 E0 E0 ; .8.8.....8.8....
019188  .dc.b C0 38 E0 38 E0 38 E0 00 00 00 C0 38 70 70 E0 00 ; .8.8.8.....8pp..
019198  .dc.b E0 70 C0 38 E0 38 E0 38 E0 00 00 00 C0 38 38 70 ; .p.8.8.8.....88p
0191A8  .dc.b E0 00 E0 38 C0 38 E0 38 E0 38 C0 00 00 00 C0 38 ; ...8.8.8.8.....8
0191B8  .dc.b 38 E0 C0 00 E0 38 C0 38 E0 38 E0 38 C0 00 00 00 ; 8....8.8.8.8....
0191C8  .dc.b C0 38 1F E0 C0 00 E0 38 EF F8 E0 38 E0 38 FF F8 ; .8.....8...8.8..
0191D8  .dc.b 00 00 EF F0 1F C0 FF F8 E0 38 7F F0 E0 38 E0 38 ; .........8...8.8
0191E8  .dc.b FF F0 00 00 7F F0 0F C0 FF F0 E0 38 3F C0 C0 30 ; ...........8?..0
0191F8  .dc.b C0 30 FD 80 00 00 3F C0 07 80 FD 80 C0 30 00 00 ; .0....?......0..
019208  .dc.b 00 00 00 00 00 00 00 00 00 00 00 00 00 00 00 00 ; ................
019218  .dc.b 1F 40 1F 40 E0 30 FE C0 00 00 1F 40 C0 30 FE C0 ; .@.@.0.....@.0..
019228  .dc.b FF C0 3F E0 3F E0 C0 30 EC 00 00 00 3F E0 C0 30 ; ..?.?..0....?..0
019238  .dc.b EC 00 F4 00 60 00 60 00 E0 30 C0 00 00 00 60 00 ; ....`.`..0....`.
019248  .dc.b C0 30 C0 00 E0 00 C0 00 C0 00 C0 30 C0 00 00 00 ; .0.........0....
019258  .dc.b C0 00 C0 30 C0 00 C0 00 C0 00 C0 00 D0 70 C0 00 ; ...0.........p..
019268  .dc.b 00 00 C0 00 C0 30 C0 00 80 30 C0 00 C0 00 C0 30 ; .....0...0.....0
019278  .dc.b 80 00 00 00 C0 00 C0 30 80 00 C0 30 C0 00 C0 00 ; .......0...0....
019288  .dc.b C0 B0 80 00 00 00 C0 00 C0 30 80 00 C0 20 C0 00 ; .........0... ..
019298  .dc.b C0 00 C0 30 C0 00 00 00 C0 00 C0 30 C0 00 C0 20 ; ...0.......0... 
0192A8  .dc.b C0 00 C0 00 C1 30 C0 00 00 00 C0 00 C0 10 C0 00 ; .....0..........
0192B8  .dc.b C0 30 C0 00 C0 00 C0 30 40 00 00 00 C0 00 C0 10 ; .0.....0@.......
0192C8  .dc.b 40 00 C0 20 C3 D8 7F 20 40 10 CC 80 00 00 40 20 ; @.. ... @.....@ 
0192D8  .dc.b 40 20 CC 80 7D 80 C3 60 E8 20 C0 30 FF 00 00 00 ; @ ..}..`. .0....
0192E8  .dc.b C0 20 C0 20 FF 00 E8 00 C2 00 40 00 40 30 40 00 ; . . ......@.@0@.
0192F8  .dc.b 00 00 40 00 40 10 40 00 42 00 00 00 40 20 40 10 ; ..@.@.@.B...@ @.
019308  .dc.b 40 00 00 00 40 20 40 20 40 00 41 00 80 10 00 00 ; @...@ @ @.A.....
019318  .dc.b 00 00 C0 00 00 00 00 30 00 30 C0 00 80 80 00 00 ; .......0.0......
019328  .dc.b 40 10 40 10 40 00 00 00 00 20 40 20 40 00 40 00 ; @.@.@.... @ @.@.
019338  .dc.b 00 10 00 20 00 20 00 00 00 00 00 30 20 20 00 00 ; ... . .....0  ..
019348  .dc.b 80 20 00 30 00 20 00 20 40 00 00 00 00 30 00 60 ; . .0. . @....0.`
019358  .dc.b 40 00 80 00 00 10 00 20 00 20 40 00 00 00 00 30 ; @...... . @....0
019368  .dc.b 10 40 40 00 00 30 00 30 00 00 00 00 00 00 00 00 ; .@@..0.0........
019378  .dc.b 00 20 00 C0 00 00 00 20 00 E0 00 00 00 00 BF 80 ; . ..... ........
019388  .dc.b 00 00 00 E0 07 80 BF 80 80 20 00 00 00 00 00 00 ; ......... ......
019398  .dc.b AC 00 00 00 02 80 00 00 AC 00 00 00 00 00 00 00 ; ................
0193A8  .dc.b 00 00 00 00 00 00 00 00 00 00 00 00 00 00 00 00 ; ................
0193B8  .dc.b 00 00 00 00 00 00 00 00 00 00 00 00 00 00 00 00 ; ................
0193C8  .dc.b 3F F0 3F F0 F0 3C FF FC 00 00 3F F0 F0 3C FF FC ; ?.?..<....?..<..
0193D8  .dc.b FF F0 7F F8 7F F8 F8 7C FF FC 00 00 7F F8 F0 3C ; .......|.......<
0193E8  .dc.b FF FC FF F8 FF FC FF FC F8 7C FF FC 00 00 FF FC ; .........|......
0193F8  .dc.b F0 3C FF FC FF FC FF FC FF FC FC FC FF FC 00 00 ; .<..............
019408  .dc.b FF FC F0 3C FF FC FF FC F0 3C F0 3C FC FC F0 00 ; ...<.....<.<....
019418  .dc.b 00 00 F0 3C F0 3C F0 00 F0 3C F0 3C F0 3C FF FC ; ...<.<...<.<.<..
019428  .dc.b F0 00 00 00 F0 3C F0 3C F0 00 F0 3C F0 00 F0 3C ; .....<.<...<...<
019438  .dc.b FF FC F0 00 00 00 F0 3C F0 3C F0 00 F0 3C F0 00 ; .......<.<...<..
019448  .dc.b F0 3C FF FC F0 00 00 00 F0 3C F0 3C F0 00 F0 3C ; .<.......<.<...<
019458  .dc.b F0 00 F0 3C FF FC F0 00 00 00 F0 3C F0 3C F0 00 ; ...<.......<.<..
019468  .dc.b F0 3C F0 00 F0 3C FF FC F0 00 00 00 F0 3C F0 3C ; .<...<.......<.<
019478  .dc.b F0 00 F0 3C F3 FC FF FC F7 BC FF F0 00 00 F0 3C ; ...<...........<
019488  .dc.b F0 3C FF F0 FF FC F3 FC FF FC F7 BC FF F0 00 00 ; .<..............
019498  .dc.b F0 3C F0 3C FF F0 FF FC F3 FC FF FC F3 3C FF F0 ; .<.<.........<..
0194A8  .dc.b 00 00 F0 3C F0 3C FF F0 FF F8 F3 FC FF FC F3 3C ; ...<.<.........<
0194B8  .dc.b FF F0 00 00 F0 3C F0 3C FF F0 FF F0 F0 3C F0 3C ; .....<.<.....<.<
0194C8  .dc.b F0 3C F0 00 00 00 F0 3C F0 3C F0 00 F3 E0 F0 3C ; .<.....<.<.....<
0194D8  .dc.b F0 3C F0 3C F0 00 00 00 F0 3C F8 7C F0 00 F1 F0 ; .<.<.....<.|....
0194E8  .dc.b F0 3C F0 3C F0 3C F0 00 00 00 F0 3C 78 78 F0 00 ; .<.<.<.....<xx..
0194F8  .dc.b F0 F8 F0 3C F0 3C F0 3C F0 00 00 00 F0 3C 7C F8 ; ...<.<.<.....<|.
019508  .dc.b F0 00 F0 78 F0 3C F0 3C F0 3C F0 00 00 00 F0 3C ; ...x.<.<.<.....<
019518  .dc.b 3C F0 F0 00 F0 3C F0 3C F0 3C F0 3C F0 00 00 00 ; <....<.<.<.<....
019528  .dc.b F0 3C 3F F0 F0 00 F0 3C FF FC F0 3C F0 3C FF FC ; .<?....<...<.<..
019538  .dc.b 00 00 FF FC 1F E0 FF FC F0 3C FF FC F0 3C F0 3C ; .........<...<.<
019548  .dc.b FF FC 00 00 FF FC 1F E0 FF FC F0 3C 7F F8 F0 3C ; ...........<...<
019558  .dc.b F0 3C FF FC 00 00 7F F8 0F C0 FF FC F0 3C 3F F0 ; .<...........<?.
019568  .dc.b F0 3C F0 3C FF FC 00 00 3F F0 0F C0 FF FC F0 3C ; .<.<....?......<
019578  .dc.b 00 30 30 F4 E0 7D 40 00 00 20 28 D0 01 C0 80 00 ; .00..}@.. (.....
019588  .dc.b 00 20 28 80 01 00 60 00 00 20 20 A0 03 80 80 01 ; . (...`..  .....
019598  .dc.b 00 18 20 A0 02 80 00 03 00 04 10 A0 00 C0 00 06 ; .. .............
0195A8  .dc.b 00 0D E0 AD 81 BD 40 0D 00 05 40 50 00 68 20 1B ; ......@...@P.h .
0195B8  .dc.b 00 02 80 A0 00 00 C0 36 00 03 00 A0 00 00 60 6C ; .......6......`l
0195C8  .dc.b 00 02 00 A0 03 C0 A0 D8 00 03 00 20 02 40 41 B0 ; ........... .@A.
0195D8  .dc.b 00 01 00 E4 41 BC 83 60 00 00 00 80 00 C0 02 C0 ; ....A..`........
0195E8  .dc.b 00 38 38 FF 00 FF 80 00 00 30 30 E0 01 80 40 00 ; .88......00...@.
0195F8  .dc.b 00 30 30 E0 03 80 80 00 00 30 30 C0 03 00 00 01 ; .00......00.....
019608  .dc.b 00 30 30 C0 03 00 00 03 00 18 20 C0 03 00 00 07 ; .00....... .....
019618  .dc.b 00 06 40 FE 00 FF 80 0E 00 03 80 E0 00 00 40 1C ; ..@...........@.
019628  .dc.b 00 03 00 C0 00 00 60 38 00 03 00 C0 00 00 C0 70 ; ......`8.......p
019638  .dc.b 00 03 00 C0 03 80 C0 E0 00 02 00 C0 03 80 81 C0 ; ................
019648  .dc.b 00 02 00 FF 80 FF 03 80 00 00 00 80 00 00 03 00 ; ................
019658  .dc.b 00 3C 3C FF F0 FF C0 00 00 3C 3C FF F1 FF E0 00 ; .<<......<<.....
019668  .dc.b 00 3C 3C F0 03 C0 F0 00 00 3C 3C F0 03 C0 F0 01 ; .<<......<<.....
019678  .dc.b 00 3C 3C F0 03 C0 00 02 00 3E 7C F0 03 C0 00 04 ; .<<......>|.....
019688  .dc.b 00 1F F8 FF C1 FF C0 08 00 0F F0 FF C0 FF E0 10 ; ................
019698  .dc.b 00 07 E0 F0 00 00 F0 20 00 03 C0 F0 00 00 F0 40 ; ....... .......@
0196A8  .dc.b 00 03 C0 F0 03 C0 F0 80 00 03 C0 F0 03 C0 F1 00 ; ................
0196B8  .dc.b 00 03 C0 FF F1 FF E2 00 00 03 C0 FF F0 FF C0 00 ; ................
0196C8  .dc.b 00 3C 3C FF F0 FF C0 00 00 3C 3C FF F1 FF E0 00 ; .<<......<<.....
0196D8  .dc.b 00 3C 3C F0 03 C0 F0 00 00 3C 3C F0 03 C0 F0 01 ; .<<......<<.....
0196E8  .dc.b 00 3C 3C F0 03 C0 00 03 00 3E 7C F0 03 C0 00 07 ; .<<......>|.....
0196F8  .dc.b 00 1F F8 FF C1 FF C0 0F 00 0F F0 FF C0 FF E0 1F ; ................
019708  .dc.b 00 07 E0 F0 00 00 F0 3E 00 03 C0 F0 00 00 F0 7C ; .......>.......|
019718  .dc.b 00 03 C0 F0 03 C0 F0 F8 00 03 C0 F0 03 C0 F1 F0 ; ................
019728  .dc.b 00 03 C0 FF F1 FF E3 E0 00 03 C0 FF F0 FF C3 C0 ; ................
019738  .dc.b 00 3C 3C FF 10 FF 80 00 00 3C 34 EF F1 BF 60 00 ; .<<......<4...`.
019748  .dc.b 00 3C 34 F0 03 C0 90 00 00 3C 3C D0 03 40 70 01 ; .<4......<<..@p.
019758  .dc.b 00 34 3C D0 03 40 00 03 00 3A 6C D0 03 00 00 06 ; .4<..@...:l.....
019768  .dc.b 00 16 58 FE 40 FF 80 0D 00 0B B0 EF C0 97 C0 1B ; ..X.@...........
019778  .dc.b 00 07 60 D0 00 00 70 36 00 03 C0 D0 00 00 D0 6C ; ..`...p6.......l
019788  .dc.b 00 03 C0 D0 03 80 D0 D8 00 02 C0 D0 03 80 B1 B0 ; ................
019798  .dc.b 00 02 C0 FF B0 FF 63 60 00 03 C0 FF F0 3F C2 C0 ; ......c`.....?..
0197A8  .dc.b 00 38 38 FF E0 FF C0 00 00 30 38 F0 01 C0 C0 00 ; .88......08.....
0197B8  .dc.b 00 30 38 E0 03 80 E0 00 00 30 30 E0 03 80 80 01 ; .08......00.....
0197C8  .dc.b 00 38 30 E0 03 80 00 03 00 1C 30 E0 03 C0 00 07 ; .80.......0.....
0197D8  .dc.b 00 0F E0 FF 81 FF C0 0E 00 07 C0 F0 00 68 60 1C ; .............h`.
0197E8  .dc.b 00 03 80 E0 00 00 E0 38 00 03 00 E0 00 00 E0 70 ; .......8.......p
0197F8  .dc.b 00 03 00 E0 03 C0 E0 E0 00 03 00 E0 03 C0 C1 C0 ; ................
019808  .dc.b 00 03 00 FF C1 FF 83 80 00 00 00 80 00 C0 03 00 ; ................
019818  .dc.b 00 30 30 F4 00 7D 00 00 00 20 20 C0 01 80 00 00 ; .00..}...  .....
019828  .dc.b 00 20 20 80 01 00 00 00 00 20 20 80 03 00 00 01 ; .  ......  .....
019838  .dc.b 00 10 20 80 02 00 00 02 00 00 00 80 00 00 00 04 ; .. .............
019848  .dc.b 00 04 40 AC 00 BD 00 08 00 01 00 40 00 00 00 10 ; ..@........@....
019858  .dc.b 00 02 00 80 00 00 40 20 00 03 00 80 00 00 40 40 ; ......@ ......@@
019868  .dc.b 00 02 00 80 03 80 80 80 00 02 00 00 02 00 01 00 ; ................
019878  .dc.b 00 00 00 E4 00 BC 02 00 00 00 00 80 00 00 00 00 ; ................
019888  .dc.b 00 3C 3C FF F0 FF C0 00 00 3C 3C FF F1 FF E0 00 ; .<<......<<.....
019898  .dc.b 00 3C 3C F0 03 C0 F0 00 00 3C 3C F0 03 C0 F0 01 ; .<<......<<.....
0198A8  .dc.b 00 3C 3C F0 03 C0 00 03 00 3E 7C F0 03 C0 00 07 ; .<<......>|.....
0198B8  .dc.b 00 1F F8 FF C1 FF C0 0F 00 0F F0 FF C0 FF E0 1F ; ................
0198C8  .dc.b 00 07 E0 F0 00 00 F0 3E 00 03 C0 F0 00 00 F0 7C ; .......>.......|
0198D8  .dc.b 00 03 C0 F0 03 C0 F0 F8 00 03 C0 F0 03 C0 F1 F0 ; ................
0198E8  .dc.b 00 03 C0 FF F1 FF E3 E0 00 03 C0 FF F0 FF C3 C0 ; ................
0198F8  .dc.b 30 E0 3C 1F 30 00 68 E0 30 66 18 00 D8 90 28 50 ; 0.<.0.h.0f....(P
019908  .dc.b 3C 00 B0 A8 3C D0 30 00 60 D4 28 A0 18 00 C0 A3 ; <...<.0.`.(.....
019918  .dc.b 20 C0 38 00 80 A0 88 A0 28 00 00 A0 58 E0 38 00 ;  .8.....(...X.8.
019928  .dc.b 00 40 68 A0 08 00 00 20 30 A0 20 00 00 C0 10 20 ; .@h.... 0. .... 
019938  .dc.b 30 00 00 C0 10 20 10 00 00 80 20 4F 60 00 00 00 ; 0.... .... O`...
019948  .dc.b 00 36 00 00 38 F0 38 3F C0 00 70 F0 38 78 00 00 ; .6..8.8?..p.8x..
019958  .dc.b E0 F8 30 E0 10 00 C0 DC 30 E0 18 00 80 EE 30 C0 ; ..0.....0.....0.
019968  .dc.b 30 00 00 C6 38 E0 30 00 00 C3 30 C0 30 00 00 C1 ; 0...8.0...0.0...
019978  .dc.b A0 C0 20 00 00 80 F0 C0 30 00 00 C0 60 C0 30 00 ; .. .....0...`.0.
019988  .dc.b 00 80 20 C0 20 00 00 80 20 C0 20 00 00 00 00 3F ; .. . ... . ....?
019998  .dc.b 80 00 00 00 00 00 00 00 20 F0 3C 3F F0 00 40 F8 ; ........ .<?..@.
0199A8  .dc.b 3C 7F F8 00 80 FC 3C F0 3C 00 00 FE 3C F0 3C 00 ; <.....<.<...<.<.
0199B8  .dc.b 00 FF 3C F0 3C 00 00 FF BC F0 3C 00 00 F7 FC F0 ; ..<.<.....<.....
0199C8  .dc.b 3C 00 00 F3 FC F0 3C 00 00 F1 FC F0 3C 00 00 F0 ; <.....<.....<...
0199D8  .dc.b FC F0 3C 00 00 F0 7C F0 3C 00 00 F0 3C F0 3C 00 ; ..<...|.<...<.<.
0199E8  .dc.b 00 F0 3C 7F F8 00 00 F0 3C 3F F0 00 38 F0 3C 3F ; ..<.....<?..8.<?
0199F8  .dc.b F0 00 78 F8 3C 7F F8 00 F8 FC 3C F0 3C 00 F0 FE ; ..x.<.....<.<...
019A08  .dc.b 3C F0 3C 00 E0 FF 3C F0 3C 00 C0 FF BC F0 3C 00 ; <.<...<.<.....<.
019A18  .dc.b 80 F7 FC F0 3C 00 00 F3 FC F0 3C 00 00 F1 FC F0 ; ....<.....<.....
019A28  .dc.b 3C 00 00 F0 FC F0 3C 00 00 F0 7C F0 3C 00 00 F0 ; <.....<...|.<...
019A38  .dc.b 3C F0 3C 00 00 F0 3C 7F F8 00 00 F0 3C 3F F0 00 ; <.<...<.....<?..
019A48  .dc.b 30 F0 38 3F C0 00 68 F8 3C 79 E0 00 D8 FC 34 E0 ; 0.8?..h.<y....4.
019A58  .dc.b 10 00 B0 DE 30 E0 1C 00 60 EF 34 D0 34 00 C0 DE ; ....0...`.4.4...
019A68  .dc.b BC F0 34 00 80 D7 74 D0 34 00 00 D3 A4 D0 24 00 ; ..4...t.4.....$.
019A78  .dc.b 00 B1 F4 D0 34 00 00 D0 EC D0 3C 00 00 B0 6C D0 ; ....4.....<...l.
019A88  .dc.b 2C 00 00 B0 2C D0 2C 00 00 70 1C 3F 98 00 00 F0 ; ,...,.,..p.?....
019A98  .dc.b 3C 09 F0 00 38 F0 3C 3F F0 00 70 F0 38 7E 18 00 ; <...8.<?..p.8~..
019AA8  .dc.b E0 F8 38 F0 3C 00 C0 FC 3C F0 38 00 80 FE 38 E0 ; ..8.<...<.8...8.
019AB8  .dc.b 38 00 00 E7 38 E0 38 00 00 E3 B8 E0 38 00 00 E1 ; 8...8.8.....8...
019AC8  .dc.b F8 E0 38 00 00 C0 F8 E0 38 00 00 E0 70 E0 30 00 ; ..8.....8...p.0.
019AD8  .dc.b 00 C0 30 E0 30 00 00 C0 30 E0 30 00 00 80 20 7F ; ..0.0...0.0... .
019AE8  .dc.b E0 00 00 00 00 36 00 00 20 E0 38 1F 00 00 40 E0 ; .....6.. .8...@.
019AF8  .dc.b 30 60 00 00 80 90 20 40 10 00 00 88 30 C0 10 00 ; 0`.... @....0...
019B08  .dc.b 00 C4 20 80 10 00 00 82 20 C0 30 00 00 80 00 80 ; .. ..... .0.....
019B18  .dc.b 20 00 00 80 00 C0 20 00 00 00 60 80 00 00 00 00 ;  ..... ...`.....
019B28  .dc.b 20 80 20 00 00 80 00 00 20 00 00 80 00 00 00 00 ;  . ..... .......
019B38  .dc.b 00 00 00 0F 00 00 00 00 00 00 00 00 38 F0 3C 3F ; ............8.<?
019B48  .dc.b F0 00 78 F8 3C 7F F8 00 F8 FC 3C F0 3C 00 F0 FE ; ..x.<.....<.<...
019B58  .dc.b 3C F0 3C 00 E0 FF 3C F0 3C 00 C0 FF BC F0 3C 00 ; <.<...<.<.....<.
019B68  .dc.b 80 F7 FC F0 3C 00 00 F3 FC F0 3C 00 00 F1 FC F0 ; ....<.....<.....
019B78  .dc.b 3C 00 00 F0 FC F0 3C 00 00 F0 7C F0 3C 00 00 F0 ; <.....<...|.<...
019B88  .dc.b 3C F0 3C 00 00 F0 3C 7F F8 00 00 F0 3C 3F F0 00 ; <.<...<.....<?..
019B98  .dc.b 3F E1 C0 70 7F E1 C0 70 00 00 F0 34 3F E0 E0 38 ; ?..p...p...4?..8
019BA8  .dc.b 00 E0 7F F1 E0 78 FF F1 E0 78 00 00 D0 34 7F F0 ; .....x...x...4..
019BB8  .dc.b F0 3C 00 F0 FF F5 E0 79 FF 61 E0 78 00 00 D0 34 ; .<.....y.a.x...4
019BC8  .dc.b FF F4 F0 3C 00 F0 EF F9 E0 79 DF C9 E0 78 00 00 ; ...<.....y...x..
019BD8  .dc.b F0 34 EF 94 F0 3C 00 F0 F0 01 A0 69 E0 19 A0 68 ; .4...<.....i...h
019BE8  .dc.b 00 00 D0 34 F0 04 D0 34 00 D0 F0 01 A0 69 E0 39 ; ...4...4.....i.9
019BF8  .dc.b A0 68 00 00 D0 34 F0 04 D0 34 00 D0 F0 01 E0 79 ; .h...4...4.....y
019C08  .dc.b E0 01 E0 E8 00 00 D0 34 F0 14 F0 3C 00 F0 F0 01 ; .......4...<....
019C18  .dc.b E0 79 E0 01 E0 50 00 00 D0 34 F0 14 F0 3C 00 F0 ; .y...P...4...<..
019C28  .dc.b D0 01 A0 69 A0 01 A1 D0 00 00 68 74 D0 34 D0 34 ; ...i......ht.4.4
019C38  .dc.b 00 D0 D0 01 A0 69 A0 01 A5 E0 00 00 28 28 D0 34 ; .....i......((.4
019C48  .dc.b D0 34 00 D0 FF 81 E0 69 E0 01 FF A0 00 00 74 E8 ; .4.....i......t.
019C58  .dc.b F0 34 F0 34 00 D0 FF C1 A0 69 E0 01 FF C0 00 00 ; .4.4.....i......
019C68  .dc.b 14 F0 F0 34 D0 34 00 D0 ED D1 A0 69 A0 01 DE 00 ; ...4.4.....i....
019C78  .dc.b 00 00 3F D0 D0 34 D0 34 00 D0 C7 E1 A0 69 A0 01 ; ..?..4.4.....i..
019C88  .dc.b 9B 80 00 00 0F E0 D0 34 D0 34 00 D0 D0 01 A0 69 ; .......4.4.....i
019C98  .dc.b E0 01 A5 C0 00 00 13 A0 D0 34 D0 34 00 D0 D0 01 ; .........4.4....
019CA8  .dc.b A0 69 A0 01 A2 E0 00 00 08 40 D0 34 D0 34 00 D0 ; .i.......@.4.4..
019CB8  .dc.b D0 01 E0 69 E0 01 A1 70 00 00 06 80 F0 34 F0 34 ; ...i...p.....4.4
019CC8  .dc.b 00 90 D0 01 A0 68 E0 01 A0 A0 00 00 06 80 F0 34 ; .....h.........4
019CD8  .dc.b D0 34 00 70 D0 00 A0 69 E0 71 A0 68 00 00 06 80 ; .4.p...i.q.h....
019CE8  .dc.b 70 34 50 34 00 00 90 00 E0 68 E0 69 20 68 00 00 ; p4P4.....h.i h..
019CF8  .dc.b 04 80 70 34 70 34 00 00 D0 00 BF F8 B7 E9 A0 68 ; ..p4p4.........h
019D08  .dc.b 00 00 06 80 5F FC 5F FC 00 E0 90 01 1F D9 3F 99 ; ...._._.......?.
019D18  .dc.b 20 68 00 00 04 80 8F EC 8F EC 00 D0 30 00 80 70 ;  h..........0..p
019D28  .dc.b 80 70 60 18 00 00 01 80 40 38 40 38 00 B0 F0 00 ; .p`.....@8@8....
019D38  .dc.b 7F E0 7F E1 E0 78 00 00 07 80 3F F0 3F F0 00 F0 ; .....x....?.?...
019D48  .dc.b 3F F1 E0 78 7F E1 E0 78 00 00 E0 38 3F F0 F0 3C ; ?..x...x...8?..<
019D58  .dc.b 00 F0 7F F9 C0 70 FF F1 C0 70 00 00 E0 38 7F F8 ; .....p...p...8..
019D68  .dc.b E0 38 00 E0 FF F9 C0 71 FF F9 C0 70 00 00 E0 38 ; .8.....q...p...8
019D78  .dc.b FF F8 E0 38 00 E0 F0 01 C0 71 E0 31 C0 70 00 00 ; ...8.....q.1.p..
019D88  .dc.b E0 38 F0 78 E0 38 00 E0 E0 01 C0 71 C0 61 C0 70 ; .8.x.8.....q.a.p
019D98  .dc.b 00 00 E0 38 E0 38 E0 38 00 E0 E0 01 C0 71 C0 41 ; ...8.8.8.....q.A
019DA8  .dc.b C0 70 00 00 E0 38 E0 38 E0 38 00 E0 E0 01 C0 71 ; .p...8.8.8.....q
019DB8  .dc.b C0 01 C0 70 00 00 E0 38 E0 38 E0 38 00 E0 E0 01 ; ...p...8.8.8....
019DC8  .dc.b C0 71 C0 01 C0 E0 00 00 E0 38 E0 38 E0 38 00 E0 ; .q.......8.8.8..
019DD8  .dc.b E0 01 C0 71 C0 01 C0 E0 00 00 F0 38 E0 38 E0 38 ; ...q.......8.8.8
019DE8  .dc.b 00 E0 E0 01 C0 71 C0 01 C3 C0 00 00 70 70 E0 38 ; .....q......pp.8
019DF8  .dc.b E0 38 00 E0 FF C1 C0 71 C0 01 FF C0 00 00 38 70 ; .8.....q......8p
019E08  .dc.b E0 38 E0 38 00 E0 FF E1 C0 71 C0 01 FF 80 00 00 ; .8.8.....q......
019E18  .dc.b 38 E0 E0 38 E0 38 00 E0 FF E1 C0 71 C0 01 FF 00 ; 8..8.8.....q....
019E28  .dc.b 00 00 1F E0 E0 38 E0 38 00 E0 F8 01 C0 71 C0 01 ; .....8.8.....q..
019E38  .dc.b E7 00 00 00 1F C0 E0 38 E0 38 00 E0 E0 01 C0 71 ; .......8.8.....q
019E48  .dc.b 80 01 C3 80 00 00 0F C0 E0 38 E0 38 00 E0 E0 01 ; .........8.8....
019E58  .dc.b C0 71 C0 01 C1 C0 00 00 07 80 E0 38 E0 38 00 E0 ; .q.........8.8..
019E68  .dc.b E0 01 80 71 80 01 C0 E0 00 00 07 00 C0 38 C0 38 ; ...q.........8.8
019E78  .dc.b 00 E0 E0 01 C0 71 80 01 C0 70 00 00 07 00 C0 38 ; .....q...p.....8
019E88  .dc.b E0 38 00 80 E0 01 C0 71 80 79 C0 70 00 00 07 00 ; .8.....q.y.p....
019E98  .dc.b C0 38 E0 38 00 00 E0 01 80 71 80 71 C0 70 00 00 ; .8.8.....q.q.p..
019EA8  .dc.b 07 00 C0 38 C0 38 00 00 E0 01 DF E1 DF F1 C0 70 ; ...8.8.........p
019EB8  .dc.b 00 00 07 00 EF F0 EF F0 00 F0 E0 00 FF E0 FF E1 ; ................
019EC8  .dc.b C0 70 00 00 07 00 7F F0 7F F0 00 E0 C0 00 7F 80 ; .p..............
019ED8  .dc.b 7F 81 80 60 00 00 06 00 3F C0 3F C0 00 C0 00 00 ; ...`....?.?.....
019EE8  .dc.b 00 00 00 00 00 00 00 00 00 00 00 00 00 00 00 00 ; ................
019EF8  .dc.b 1F 41 80 60 3E 81 80 60 00 00 40 20 1F 40 C0 30 ; .A.`>..`..@ .@.0
019F08  .dc.b 00 C0 3F E1 80 60 7F C1 80 60 00 00 C0 20 3F E0 ; ..?..`...`... ?.
019F18  .dc.b C0 30 00 C0 60 01 80 60 C0 01 80 60 00 00 40 10 ; .0..`..`...`..@.
019F28  .dc.b 60 00 C0 30 00 C0 C0 01 80 61 80 01 80 60 00 00 ; `..0.....a...`..
019F38  .dc.b 40 20 C0 00 C0 30 00 C0 C0 01 80 61 80 01 80 60 ; @ ...0.....a...`
019F48  .dc.b 00 00 C0 20 C0 00 C0 30 00 C0 C0 01 80 61 80 01 ; ... ...0.....a..
019F58  .dc.b 80 60 00 00 40 10 C0 00 C0 30 00 C0 C0 01 80 61 ; .`..@....0.....a
019F68  .dc.b 80 01 80 40 00 00 40 20 C0 00 C0 30 00 C0 C0 01 ; ...@..@ ...0....
019F78  .dc.b 80 61 80 01 80 40 00 00 00 30 C0 00 C0 30 00 C0 ; .a...@...0...0..
019F88  .dc.b C0 01 80 21 80 01 80 C0 00 00 40 20 C0 00 C0 10 ; ...!......@ ....
019F98  .dc.b 00 40 C0 01 80 21 80 01 80 80 00 00 20 20 C0 00 ; .@...!......  ..
019FA8  .dc.b C0 10 00 40 7F 00 80 41 80 00 FB 80 00 00 00 60 ; ...@...A.......`
019FB8  .dc.b 40 20 40 20 00 80 E9 81 80 41 80 01 D1 00 00 00 ; @ @ .....A......
019FC8  .dc.b 10 40 C0 20 C0 20 00 80 40 00 80 21 80 00 84 00 ; .@. . ..@..!....
019FD8  .dc.b 00 00 00 C0 40 00 40 10 00 40 40 00 80 40 00 00 ; ....@.@..@@..@..
019FE8  .dc.b 82 00 00 00 07 80 40 20 40 20 00 80 00 00 00 61 ; ......@ @ .....a
019FF8  .dc.b 00 01 01 00 00 00 00 00 00 30 00 30 00 C0 40 00 ; .........0.0..@.
01A008  .dc.b 00 40 00 00 80 00 00 00 00 00 00 20 00 20 00 80 ; .@......... . ..
01A018  .dc.b 00 00 00 60 00 01 00 40 00 00 04 00 00 30 00 30 ; ...`...@.....0.0
01A028  .dc.b 00 80 00 00 00 60 00 01 00 00 00 00 04 00 00 30 ; .....`.........0
01A038  .dc.b 00 30 00 00 00 00 00 60 00 20 00 60 00 00 00 00 ; .0.....`. .`....
01A048  .dc.b 00 30 00 30 00 00 00 00 00 40 00 60 00 40 00 00 ; .0.0.....@.`.@..
01A058  .dc.b 00 00 00 20 00 20 00 00 00 00 01 C0 01 C1 00 40 ; ... . .........@
01A068  .dc.b 00 00 04 00 00 E0 00 E0 00 C0 00 00 05 00 00 00 ; ................
01A078  .dc.b 00 00 00 00 00 00 02 80 02 80 00 80 00 00 00 00 ; ................
01A088  .dc.b 00 00 00 00 00 00 00 00 00 00 00 00 00 00 00 00 ; ................
01A098  .dc.b 00 00 00 00 00 00 00 00 00 00 00 00 00 00 00 00 ; ................
01A0A8  .dc.b 3F F1 E0 78 7F E1 E0 78 00 00 F0 3C 3F F0 F0 3C ; ?..x...x...<?..<
01A0B8  .dc.b 00 F0 7F F9 E0 78 FF F1 E0 78 00 00 F0 3C 7F F8 ; .....x...x...<..
01A0C8  .dc.b F0 3C 00 F0 FF FD E0 79 FF F9 E0 78 00 00 F0 3C ; .<.....y...x...<
01A0D8  .dc.b FF FC F0 3C 00 F0 FF F9 E0 79 FF F9 E0 78 00 00 ; ...<.....y...x..
01A0E8  .dc.b F0 3C FF FC F0 3C 00 F0 F0 01 E0 79 E0 79 E0 78 ; .<...<.....y.y.x
01A0F8  .dc.b 00 00 F0 3C F0 3C F0 3C 00 F0 F0 01 E0 79 E0 79 ; ...<.<.<.....y.y
01A108  .dc.b E0 78 00 00 F0 3C F0 3C F0 3C 00 F0 F0 01 E0 79 ; .x...<.<.<.....y
01A118  .dc.b E0 01 E0 F8 00 00 F0 3C F0 3C F0 3C 00 F0 F0 01 ; .......<.<.<....
01A128  .dc.b E0 79 E0 01 E0 F0 00 00 F0 3C F0 3C F0 3C 00 F0 ; .y.......<.<.<..
01A138  .dc.b F0 01 E0 79 E0 01 E1 F0 00 00 F8 7C F0 3C F0 3C ; ...y.......|.<.<
01A148  .dc.b 00 F0 F0 01 E0 79 E0 01 E7 E0 00 00 78 78 F0 3C ; .....y......xx.<
01A158  .dc.b F0 3C 00 F0 FF C1 E0 79 E0 01 FF E0 00 00 7C F8 ; .<.....y......|.
01A168  .dc.b F0 3C F0 3C 00 F0 FF E1 E0 79 E0 01 FF C0 00 00 ; .<.<.....y......
01A178  .dc.b 3C F0 F0 3C F0 3C 00 F0 FF F1 E0 79 E0 01 FF 00 ; <..<.<.....y....
01A188  .dc.b 00 00 3F F0 F0 3C F0 3C 00 F0 FF E1 E0 79 E0 01 ; ..?..<.<.....y..
01A198  .dc.b FF 80 00 00 1F E0 F0 3C F0 3C 00 F0 F0 01 E0 79 ; .......<.<.....y
01A1A8  .dc.b E0 01 E7 C0 00 00 1F E0 F0 3C F0 3C 00 F0 F0 01 ; .........<.<....
01A1B8  .dc.b E0 79 E0 01 E3 E0 00 00 0F C0 F0 3C F0 3C 00 F0 ; .y.........<.<..
01A1C8  .dc.b F0 01 E0 79 E0 01 E1 F0 00 00 07 80 F0 3C F0 3C ; ...y.........<.<
01A1D8  .dc.b 00 F0 F0 01 E0 79 E0 01 E0 F0 00 00 07 80 F0 3C ; .....y.........<
01A1E8  .dc.b F0 3C 00 F0 F0 01 E0 79 E0 79 E0 78 00 00 07 80 ; .<.....y.y.x....
01A1F8  .dc.b F0 3C F0 3C 00 00 F0 01 E0 79 E0 79 E0 78 00 00 ; .<.<.....y.y.x..
01A208  .dc.b 07 80 F0 3C F0 3C 00 00 F0 01 FF F9 FF F9 E0 78 ; ...<.<.........x
01A218  .dc.b 00 00 07 80 FF FC FF FC 00 F0 F0 01 FF F9 FF F9 ; ................
01A228  .dc.b E0 78 00 00 07 80 FF FC FF FC 00 F0 F0 00 FF F0 ; .x..............
01A238  .dc.b FF F1 E0 78 00 00 07 80 7F F8 7F F8 00 F0 F0 00 ; ...x............
01A248  .dc.b 7F E0 7F E1 E0 78 00 00 07 80 3F F0 3F F0 00 F0 ; .....x....?.?...
01A258  .dc.b 00 00 00 00 00 00 00 00 00 00 00 00 00 00 00 00 ; ................
01A268  .dc.b 00 00 00 00 00 00 00 00 00 00 00 00 00 00 00 00 ; ................
01A278  .dc.b 00 00 00 00 00 00 00 00 00 00 03 F3 00 00 00 00 ; ................
01A288  .dc.b 00 00 00 01 00 00 00 00 00 00 00 00 00 00 05 01 ; ................
01A298  .dc.b 00 00 03 E9 00 00 05 01 60 00 0F 90 60 00 00 52 ; ........`...`..R

; ==== sound_api  $01A2A8  (3 callers) — BRA jump table = the resident sound driver's public API (init / play / stop / config). level_setup JSRs $1A2A8/$1A2AC/$1A2B4/$1A2DC to set it up; inactive slots BRA sound_silence ($1B232). ====
01A2A8  60 00 0F 88                   BRA $01B232

; ==== sub_01A2AC (4 callers) ====
01A2AC  60 00 0F 58                   BRA $01B206
01A2B0  .dc.b 60 00 0B E2                                     ; `...

; ==== sub_01A2B4 (3 callers) ====
01A2B4  60 00 0F D2                   BRA $01B288
01A2B8  .dc.b 60 00 0F 78 60 00 0F 74 60 00 0C EE 60 00 0F 3C ; `..x`..t`...`..<

; ==== sub_01A2C8 (4 callers) ====
01A2C8  60 00 0E 3C                   BRA $01B106

; ==== sub_01A2CC (2 callers) ====
01A2CC  60 00 0E 88                   BRA $01B156
01A2D0  .dc.b 60 00 0F 60 60 00 0F 5C 60 00 0F 58             ; `..``..\`..X

; ==== sub_01A2DC (21 callers) ====
01A2DC  60 00 0E 96                   BRA $01B174
01A2E0  .dc.b 60 00 0F 3A 60 00 0F 4C 60 00 0F 48 60 00 0F 44 ; `..:`..L`..H`..D
01A2F0  .dc.b 60 00 0F 40 60 00 0F 3C                         ; `..@`..<

; --- sound_update  $01A2F8 — Per-frame update of the resident player (same shape as the overlay's sound_tick): a6 = sound_state ($1B2D8); steps the sequencer/voices and calls sound_update_voices. ---
01A2F8  48 E7 FF FE                   MOVEM.l d0-d7/a0-a6,-(a7)
01A2FC  4D FA 0F DA                   LEA $01B2D8(pc),a6
01A300  4A 2E 00 3D                   TST.b $3D(a6)
01A304  6B 06                         BMI $01A30C
01A306  61 00 0C CE                   BSR $01AFD6
01A30A  60 1E                         BRA $01A32A
01A30C  4A 6E 00 08                   TST.w $8(a6)
01A310  67 06                         BEQ $01A318
01A312  4A 2E 00 2E                   TST.b $2E(a6)
01A316  66 0C                         BNE $01A324
01A318  41 FA 12 D4                   LEA $01B5EE(pc),a0
01A31C  42 68 00 00                   CLR.w $0(a0)
01A320  60 00 00 08                   BRA $01A32A
01A324  61 0A                         BSR $01A330
01A326  61 00 05 4E                   BSR $01A876
01A32A  4C DF                         .dc.w $4CDF
01A32C  .dc.b 7F FF 4E 75                                     ; ..Nu

; ==== sub_01A330 (1 caller) ====
01A330  4B FA 11 74                   LEA $01B4A6(pc),a5
01A334  28 6E 00 00                   MOVEA.l $0(a6),a4
01A338  4A 6E 00 2C                   TST.w $2C(a6)
01A33C  67 08                         BEQ $01A346
01A33E  04 6E 00 01 00 2C             SUBI.w #$1,$2C(a6)
01A344  4E 75                         RTS
01A346  3D 6D 00 06 00 2C             MOVE.w $6(a5),$2C(a6)
01A34C  4A 6E 00 3E                   TST.w $3E(a6)
01A350  67 00 00 1A                   BEQ $01A36C
01A354  4A 6E 00 0A                   TST.w $A(a6)
01A358  67 00 00 12                   BEQ $01A36C
01A35C  42 6E 00 2C                   CLR.w $2C(a6)
01A360  42 6E 00 0A                   CLR.w $A(a6)
01A364  3D 7C 00 01 00 44             MOVE.w #$1,$44(a6)
01A36A  4E 75                         RTS
01A36C  20 4D                         MOVEA.l a5,a0
01A36E  42 2E 00 0A                   CLR.b $A(a6)
01A372  61 4E                         BSR $01A3C2
01A374  4A 2E 00 0A                   TST.b $A(a6)
01A378  66 D2                         BNE $01A34C
01A37A  58 88                         ADDQ.l #4,a0
01A37C  61 44                         BSR $01A3C2
01A37E  4A 2E 00 0A                   TST.b $A(a6)
01A382  66 C8                         BNE $01A34C
01A384  58 88                         ADDQ.l #4,a0
01A386  61 3A                         BSR $01A3C2
01A388  4A 2E 00 0A                   TST.b $A(a6)
01A38C  66 BE                         BNE $01A34C
01A38E  58 88                         ADDQ.l #4,a0
01A390  61 30                         BSR $01A3C2
01A392  4A 2E 00 0A                   TST.b $A(a6)
01A396  66 B4                         BNE $01A34C
01A398  58 88                         ADDQ.l #4,a0
01A39A  61 26                         BSR $01A3C2
01A39C  4A 2E 00 0A                   TST.b $A(a6)
01A3A0  66 AA                         BNE $01A34C
01A3A2  58 88                         ADDQ.l #4,a0
01A3A4  61 1C                         BSR $01A3C2
01A3A6  4A 2E 00 0A                   TST.b $A(a6)
01A3AA  66 A0                         BNE $01A34C
01A3AC  58 88                         ADDQ.l #4,a0
01A3AE  61 12                         BSR $01A3C2
01A3B0  4A 2E 00 0A                   TST.b $A(a6)
01A3B4  66 96                         BNE $01A34C
01A3B6  58 88                         ADDQ.l #4,a0
01A3B8  61 08                         BSR $01A3C2
01A3BA  4A 2E 00 0A                   TST.b $A(a6)
01A3BE  66 8C                         BNE $01A34C
01A3C0  4E 75                         RTS

; ==== sub_01A3C2 (8 callers) ====
01A3C2  0C 28 00 90 00 48             CMPI.b #$90,$48(a0)
01A3C8  65 1C                         BCS $01A3E6
01A3CA  0C 28 00 FE 00 48             CMPI.b #$FE,$48(a0)
01A3D0  66 20                         BNE $01A3F2
01A3D2  11 7C 00 FF 00 48             MOVE.b #$FF,$48(a0)
01A3D8  10 28 00 49                   MOVE.b $49(a0),d0
01A3DC  4A 68 00 08                   TST.w $8(a0)
01A3E0  67 00 0B CE                   BEQ $01AFB0
01A3E4  4E 75                         RTS
01A3E6  4A 68 00 6A                   TST.w $6A(a0)
01A3EA  67 08                         BEQ $01A3F4
01A3EC  04 68 00 01 00 6A             SUBI.w #$1,$6A(a0)
01A3F2  4E 75                         RTS
01A3F4  30 28 00 68                   MOVE.w $68(a0),d0
01A3F8  E5 48                         LSL.w #2,d0
01A3FA  22 68 00 28                   MOVEA.l $28(a0),a1
01A3FE  2D 71 00 00 00 28             MOVE.l $0(a1,d0.w),$28(a6)
01A404  0C 2E 00 F0 00 28             CMPI.b #$F0,$28(a6)
01A40A  64 4A                         BCC $01A456
01A40C  0C 2E 00 C0 00 28             CMPI.b #$C0,$28(a6)
01A412  64 14                         BCC $01A428
01A414  0C 2E 00 7F 00 28             CMPI.b #$7F,$28(a6)
01A41A  65 0C                         BCS $01A428
01A41C  11 6E 00 2B 00 6B             MOVE.b $2B(a6),$6B(a0)
01A422  02 6E FF 00 00 2A             ANDI.w #$FF00,$2A(a6)
01A428  10 28 00 49                   MOVE.b $49(a0),d0
01A42C  D1 2E 00 28                   ADD.b d0,$28(a6)
01A430  20 2E 00 28                   MOVE.l $28(a6),d0
01A434  4A 68 00 08                   TST.w $8(a0)
01A438  66 04                         BNE $01A43E
01A43A  61 00 0A 58                   BSR $01AE94
01A43E  0C 2E 00 C0 00 28             CMPI.b #$C0,$28(a6)
01A444  64 2A                         BCC $01A470
01A446  0C 2E 00 7F 00 28             CMPI.b #$7F,$28(a6)
01A44C  65 22                         BCS $01A470
01A44E  06 68 00 01 00 68             ADDI.w #$1,$68(a0)
01A454  4E 75                         RTS
01A456  10 2E 00 28                   MOVE.b $28(a6),d0
01A45A  02 40 00 0F                   ANDI.w #$F,d0
01A45E  E5 48                         LSL.w #2,d0
01A460  43 FA 01 A2                   LEA $01A604(pc),a1
01A464  22 31 00 00                   MOVE.l $0(a1,d0.w),d1
01A468  43 FA FE 36                   LEA $01A2A0(pc),a1
01A46C  D3 C1                         ADDA.l d1,a1
01A46E  4E D1                         JMP (a1)
01A470  06 68 00 01 00 68             ADDI.w #$1,$68(a0)
01A476  60 00 FF 7C                   BRA $01A3F4
01A47A  .dc.b 0C 28 00 81 00 48 67 00 00 8E 30 2D 00 04 B0 6D ; .(...Hg...0-...m
01A48A  .dc.b 00 02 66 08 3B 6D 00 00 00 04 60 06 06 6D 00 01 ; ..f.;m....`..m..
01A49A  .dc.b 00 04 61 00 01 A6 3D 7C FF FF 00 0A 4E 75 4A 28 ; ..a...=|....NuJ(
01A4AA  .dc.b 00 4A 67 10 0C 28 00 FF 00 4A 67 10 04 28 00 01 ; .Jg..(...Jg..(..
01A4BA  .dc.b 00 4A 60 14 11 7C 00 FF 00 4A 60 AA 10 2E 00 29 ; .J`..|...J`....)
01A4CA  .dc.b 04 00 00 01 11 40 00 4A 31 6E 00 2A 00 68 60 00 ; .....@.J1n.*.h`.
01A4DA  .dc.b FF 1A 10 2E 00 29 02 40 00 7F 11 40 00 48 E5 48 ; .....).@...@.H.H
01A4EA  .dc.b 22 4C D3 FC 00 00 04 00 20 31 00 00 D0 8C 21 40 ; "L...... 1....!@
01A4FA  .dc.b 00 28 31 6E 00 2A 00 68 60 00 FE F0 11 6E 00 29 ; .(1n.*.h`....n.)
01A50A  .dc.b 00 6B 60 00 FF 40 11 7C 00 FF 00 48 4E 75 20 2E ; .k`..@.|...HNu .
01A51A  .dc.b 00 28 4A 68 00 08 66 04 61 00 09 70 60 00 FF 48 ; .(Jh..f.a..p`..H
01A52A  .dc.b 21 68 00 28 00 88 31 68 00 68 00 A8 10 2E 00 29 ; !h.(..1h.h.....)
01A53A  .dc.b 02 40 00 7F 11 40 00 48 E5 48 22 4C D3 FC 00 00 ; .@...@.H.H"L....
01A54A  .dc.b 04 00 20 31 00 00 D0 8C 21 40 00 28 31 6E 00 2A ; .. 1....!@.(1n.*
01A55A  .dc.b 00 68 60 00 FE 96 2B 6D 00 88 00 28 3B 6D 00 A8 ; .h`...+m...(;m..
01A56A  .dc.b 00 68 60 00 FF 02 43 FA 10 7C 4A 69 00 00 66 00 ; .h`...C..|Ji..f.
01A57A  .dc.b FE F6 33 7C 00 01 00 00 1D 6E 00 2B 00 51 1D 6E ; ..3|.....n.+.Q.n
01A58A  .dc.b 00 29 00 52 1D 6E 00 29 00 53 67 1C 1D 7C 00 01 ; .).R.n.).Sg..|..
01A59A  .dc.b 00 1C 10 2E 00 50 B0 2E 00 51 67 12 65 00 FE C8 ; .....P...Qg.e...
01A5AA  .dc.b 44 2E 00 1C 60 00 FE C0 1D 6E 00 51 00 50 1D 7C ; D...`....n.Q.P.|
01A5BA  .dc.b 00 00 00 1C 42 69 00 00 60 00 FE AC 12 2E 00 2A ; ....Bi..`......*
01A5CA  .dc.b 02 41 00 07 E5 49 10 2E 00 29 1B 80 10 48 1B AE ; .A...I...)...H..
01A5DA  .dc.b 00 2B 10 49 02 40 00 7F E5 48 22 4C D3 FC 00 00 ; .+.I.@...H"L....
01A5EA  .dc.b 04 00 20 31 00 00 D0 8C 2B 80 10 28 42 B5 10 68 ; .. 1....+..(B..h
01A5FA  .dc.b 3B BC FF FF 10 4A 60 00 FE 6E 00 00 01 DA 00 00 ; ;....J`..n......
01A60A  .dc.b 02 08 00 00 02 3C 00 00 02 66 00 00 02 70 00 00 ; .....<...f...p..
01A61A  .dc.b 02 78 00 00 02 78 00 00 02 78 00 00 02 8A 00 00 ; .x...x...x......
01A62A  .dc.b 02 C0 00 00 02 D0 00 00 03 26 00 00 01 AE 00 00 ; .........&......
01A63A  .dc.b 01 AE 00 00 02 70 00 00 01 D0                   ; .....p....

; ==== sub_01A644 (1 caller) ====
01A644  48 E7 80 C0                   MOVEM.l d0/a0-a1,-(a7)
01A648  70 00                         MOVEQ #$0,d0
01A64A  30 2D 00 04                   MOVE.w $4(a5),d0
01A64E  E9 48                         LSL.w #4,d0
01A650  D0 8C                         ADD.l a4,d0
01A652  06 80 00 00 08 00             ADDI.l #$800,d0
01A658  20 40                         MOVEA.l d0,a0
01A65A  22 4C                         MOVEA.l a4,a1
01A65C  D3 FC 00 00 04 00             ADDA.l #$400,a1
01A662  30 18                         MOVE.w (a0)+,d0
01A664  B0 7C EF FE                   CMP.w #$EFFE,d0
01A668  66 1C                         BNE $01A686
01A66A  30 18                         MOVE.w (a0)+,d0
01A66C  B0 7C 00 05                   CMP.w #$5,d0
01A670  65 02                         BCS $01A674
01A672  70 00                         MOVEQ #$0,d0
01A674  E5 48                         LSL.w #2,d0
01A676  43 FA 01 EA                   LEA $01A862(pc),a1
01A67A  20 31 00 00                   MOVE.l $0(a1,d0.w),d0
01A67E  43 FA FC 20                   LEA $01A2A0(pc),a1
01A682  D3 C0                         ADDA.l d0,a1
01A684  4E D1                         JMP (a1)
01A686  3B 40 00 48                   MOVE.w d0,$48(a5)
01A68A  6B 1A                         BMI $01A6A6
01A68C  02 40 7F 00                   ANDI.w #$7F00,d0
01A690  EC 48                         LSR.w #6,d0
01A692  20 31 00 00                   MOVE.l $0(a1,d0.w),d0
01A696  D0 8C                         ADD.l a4,d0
01A698  2B 40 00 28                   MOVE.l d0,$28(a5)
01A69C  42 AD 00 68                   CLR.l $68(a5)
01A6A0  3B 7C FF FF 00 4A             MOVE.w #$FFFF,$4A(a5)
01A6A6  30 18                         MOVE.w (a0)+,d0
01A6A8  3B 40 00 4C                   MOVE.w d0,$4C(a5)
01A6AC  6B 1A                         BMI $01A6C8
01A6AE  02 40 7F 00                   ANDI.w #$7F00,d0
01A6B2  EC 48                         LSR.w #6,d0
01A6B4  20 31 00 00                   MOVE.l $0(a1,d0.w),d0
01A6B8  D0 8C                         ADD.l a4,d0
01A6BA  2B 40 00 2C                   MOVE.l d0,$2C(a5)
01A6BE  42 AD 00 6C                   CLR.l $6C(a5)
01A6C2  3B 7C FF FF 00 4E             MOVE.w #$FFFF,$4E(a5)
01A6C8  30 18                         MOVE.w (a0)+,d0
01A6CA  3B 40 00 50                   MOVE.w d0,$50(a5)
01A6CE  6B 1A                         BMI $01A6EA
01A6D0  02 40 7F 00                   ANDI.w #$7F00,d0
01A6D4  EC 48                         LSR.w #6,d0
01A6D6  20 31 00 00                   MOVE.l $0(a1,d0.w),d0
01A6DA  D0 8C                         ADD.l a4,d0
01A6DC  2B 40 00 30                   MOVE.l d0,$30(a5)
01A6E0  42 AD 00 70                   CLR.l $70(a5)
01A6E4  3B 7C FF FF 00 52             MOVE.w #$FFFF,$52(a5)
01A6EA  30 18                         MOVE.w (a0)+,d0
01A6EC  3B 40 00 54                   MOVE.w d0,$54(a5)
01A6F0  6B 1A                         BMI $01A70C
01A6F2  02 40 7F 00                   ANDI.w #$7F00,d0
01A6F6  EC 48                         LSR.w #6,d0
01A6F8  20 31 00 00                   MOVE.l $0(a1,d0.w),d0
01A6FC  D0 8C                         ADD.l a4,d0
01A6FE  2B 40 00 34                   MOVE.l d0,$34(a5)
01A702  42 AD 00 74                   CLR.l $74(a5)
01A706  3B 7C FF FF 00 56             MOVE.w #$FFFF,$56(a5)
01A70C  30 18                         MOVE.w (a0)+,d0
01A70E  3B 40 00 58                   MOVE.w d0,$58(a5)
01A712  6B 1A                         BMI $01A72E
01A714  02 40 7F 00                   ANDI.w #$7F00,d0
01A718  EC 48                         LSR.w #6,d0
01A71A  20 31 00 00                   MOVE.l $0(a1,d0.w),d0
01A71E  D0 8C                         ADD.l a4,d0
01A720  2B 40 00 38                   MOVE.l d0,$38(a5)
01A724  42 AD 00 78                   CLR.l $78(a5)
01A728  3B 7C FF FF 00 5A             MOVE.w #$FFFF,$5A(a5)
01A72E  30 18                         MOVE.w (a0)+,d0
01A730  3B 40 00 5C                   MOVE.w d0,$5C(a5)
01A734  6B 1A                         BMI $01A750
01A736  02 40 7F 00                   ANDI.w #$7F00,d0
01A73A  EC 48                         LSR.w #6,d0
01A73C  20 31 00 00                   MOVE.l $0(a1,d0.w),d0
01A740  D0 8C                         ADD.l a4,d0
01A742  2B 40 00 3C                   MOVE.l d0,$3C(a5)
01A746  42 AD 00 7C                   CLR.l $7C(a5)
01A74A  3B 7C FF FF 00 5E             MOVE.w #$FFFF,$5E(a5)
01A750  30 18                         MOVE.w (a0)+,d0
01A752  3B 40 00 60                   MOVE.w d0,$60(a5)
01A756  6B 1A                         BMI $01A772
01A758  02 40 7F 00                   ANDI.w #$7F00,d0
01A75C  EC 48                         LSR.w #6,d0
01A75E  20 31 00 00                   MOVE.l $0(a1,d0.w),d0
01A762  D0 8C                         ADD.l a4,d0
01A764  2B 40 00 40                   MOVE.l d0,$40(a5)
01A768  42 AD 00 80                   CLR.l $80(a5)
01A76C  3B 7C FF FF 00 62             MOVE.w #$FFFF,$62(a5)
01A772  30 18                         MOVE.w (a0)+,d0
01A774  3B 40 00 64                   MOVE.w d0,$64(a5)
01A778  6B 1A                         BMI $01A794
01A77A  02 40 7F 00                   ANDI.w #$7F00,d0
01A77E  EC 48                         LSR.w #6,d0
01A780  20 31 00 00                   MOVE.l $0(a1,d0.w),d0
01A784  D0 8C                         ADD.l a4,d0
01A786  2B 40 00 44                   MOVE.l d0,$44(a5)
01A78A  42 AD 00 84                   CLR.l $84(a5)
01A78E  3B 7C FF FF 00 66             MOVE.w #$FFFF,$66(a5)
01A794  4C DF                         .dc.w $4CDF
01A796  .dc.b 03 01 4E 75 61 00 09 C0 42 2E 00 2E 43 FA 0E 4A ; ..Nua...B...C..J
01A7A6  .dc.b 33 7C 00 02 00 02 4C DF 03 01 4E 75 3B 50 00 04 ; 3|....L...Nu;P..
01A7B6  .dc.b 60 00 FE 90 3B 50 00 06 3D 50 00 2C 1D 6E 00 5C ; `...;P..=P.,.n.\
01A7C6  .dc.b 00 4A 30 28 00 02 6B 00 00 20 02 40 01 FF 4A 40 ; .J0(..k.. .@..J@
01A7D6  .dc.b 67 00 00 16 22 3C 00 00 1C 00 82 C0 13 C1 00 BF ; g..."<..........
01A7E6  .dc.b D7 00 1D 7C 00 01 00 4A 06 6D 00 01 00 04 60 00 ; ...|...J.m....`.
01A7F6  .dc.b FE 52 3D 50 00 3E 06 6D 00 01 00 04 60 00 FE 44 ; .R=P.>.m....`..D
01A806  .dc.b 06 6D 00 01 00 04 43 FA 0D E0 4A 69 00 00 66 00 ; .m....C...Ji..f.
01A816  .dc.b FE 32 33 7C 00 01 00 00 1D 68 00 03 00 51 1D 68 ; .23|.....h...Q.h
01A826  .dc.b 00 01 00 52 1D 68 00 01 00 53 67 1C 1D 7C 00 01 ; ...R.h...Sg..|..
01A836  .dc.b 00 1C 10 2E 00 50 B0 2E 00 51 67 12 65 00 FE 04 ; .....P...Qg.e...
01A846  .dc.b 44 2E 00 1C 60 00 FD FC 1D 6E 00 51 00 50 1D 7C ; D...`....n.Q.P.|
01A856  .dc.b 00 00 00 1C 42 69 00 00 60 00 FD E8 00 00 04 FE ; ....Bi..`.......
01A866  .dc.b 00 00 05 12 00 00 05 1A 00 00 05 58 00 00 05 66 ; ...........X...f

; ==== sound_update_voices  $01A876  (1 caller) — Update the three voices (sound_update_voice x3, a5 walks voice_table $1B332). ====
01A876  4D FA 0A 60                   LEA $01B2D8(pc),a6
01A87A  4B FA 0A B6                   LEA $01B332(pc),a5
01A87E  61 06                         BSR $01A886
01A880  61 04                         BSR $01A886
01A882  61 00 00 02                   BSR $01A886

; ==== sound_update_voice  $01A886  (3 callers) — Update one voice: a4 = voice.$160 (its $DFF0Ax hardware channel), then the vibrato/portamento/envelope steps — identical to the overlay's update_voice. ====
01A886  DB FC 00 00 00 04             ADDA.l #$4,a5
01A88C  28 6D 01 60                   MOVEA.l $160(a5),a4
01A890  4A 6D 00 02                   TST.w $2(a5)
01A894  67 02                         BEQ $01A898
01A896  6A 70                         BPL $01A908
01A898  4A 6D 01 00                   TST.w $100(a5)
01A89C  6B 08                         BMI $01A8A6
01A89E  04 6D 00 01 01 00             SUBI.w #$1,$100(a5)
01A8A4  60 04                         BRA $01A8AA
01A8A6  42 2D 01 03                   CLR.b $103(a5)
01A8AA  61 00 05 08                   BSR $01ADB4
01A8AE  61 00 05 42                   BSR $01ADF2
01A8B2  61 00 05 8C                   BSR $01AE40
01A8B6  4A 2E 00 1C                   TST.b $1C(a6)
01A8BA  67 2C                         BEQ $01A8E8
01A8BC  04 2E 00 01 00 52             SUBI.b #$1,$52(a6)
01A8C2  66 24                         BNE $01A8E8
01A8C4  1D 6E 00 53 00 52             MOVE.b $53(a6),$52(a6)
01A8CA  10 2E 00 1C                   MOVE.b $1C(a6),d0
01A8CE  D1 2E 00 50                   ADD.b d0,$50(a6)
01A8D2  10 2E 00 51                   MOVE.b $51(a6),d0
01A8D6  B0 2E 00 50                   CMP.b $50(a6),d0
01A8DA  66 0C                         BNE $01A8E8
01A8DC  42 2E 00 1C                   CLR.b $1C(a6)
01A8E0  41 FA 0D 0C                   LEA $01B5EE(pc),a0
01A8E4  42 68 00 00                   CLR.w $0(a0)
01A8E8  72 00                         MOVEQ #$0,d1
01A8EA  12 2E 00 50                   MOVE.b $50(a6),d1
01A8EE  70 00                         MOVEQ #$0,d0
01A8F0  10 2D 00 60                   MOVE.b $60(a5),d0
01A8F4  B2 7C 00 40                   CMP.w #$40,d1
01A8F8  67 0A                         BEQ $01A904
01A8FA  E5 48                         LSL.w #2,d0
01A8FC  C0 C1                         MULU.W d1,d0
01A8FE  E0 48                         LSR.w #8,d0
01A900  02 40 00 7F                   ANDI.w #$7F,d0
01A904  39 40 00 08                   MOVE.w d0,$8(a4)
01A908  4A 6D 00 02                   TST.w $2(a5)
01A90C  67 34                         BEQ $01A942
01A90E  6B 26                         BMI $01A936
01A910  42 6D 00 40                   CLR.w $40(a5)
01A914  3B 6E 00 44 00 42             MOVE.w $44(a6),$42(a5)
01A91A  3B 7C FF FF 00 02             MOVE.w #$FFFF,$2(a5)
01A920  3B 7C FF FF 00 62             MOVE.w #$FFFF,$62(a5)
01A926  33 ED 01 12 00 DF F0 9A       MOVE.w $112(a5),$DFF09A.l
01A92E  33 ED 01 12 00 DF F0 9C       MOVE.w $112(a5),$DFF09C.l
01A936  4A 6D 00 42                   TST.w $42(a5)
01A93A  67 08                         BEQ $01A944
01A93C  04 6D 00 01 00 42             SUBI.w #$1,$42(a5)
01A942  4E 75                         RTS
01A944  20 6D 00 30                   MOVEA.l $30(a5),a0
01A948  30 2D 00 40                   MOVE.w $40(a5),d0
01A94C  E5 48                         LSL.w #2,d0
01A94E  2D 70 00 00 00 28             MOVE.l $0(a0,d0.w),$28(a6)
01A954  10 2E 00 28                   MOVE.b $28(a6),d0
01A958  42 2E 00 28                   CLR.b $28(a6)
01A95C  02 40 00 FF                   ANDI.w #$FF,d0
01A960  B0 7C 00 23                   CMP.w #$23,d0
01A964  64 12                         BCC $01A978
01A966  E5 48                         LSL.w #2,d0
01A968  41 FA 03 B6                   LEA $01AD20(pc),a0
01A96C  22 30 00 00                   MOVE.l $0(a0,d0.w),d1
01A970  41 FA F9 2E                   LEA $01A2A0(pc),a0
01A974  D1 C1                         ADDA.l d1,a0
01A976  4E D0                         JMP (a0)
01A978  06 6D 00 01 00 40             ADDI.w #$1,$40(a5)
01A97E  4E 75                         RTS
01A980  .dc.b 06 6D 00 01 00 40 60 BC 42 2D 00 70 42 2D 00 92 ; .m...@`.B-.pB-..
01A990  .dc.b 42 6D 00 C0 33 ED 01 12 00 DF F0 9A 33 ED 01 12 ; Bm..3.......3...
01A9A0  .dc.b 00 DF F0 9C 33 ED 00 52 00 DF F0 96 60 D2 33 ED ; ....3..R....`.3.
01A9B0  .dc.b 00 50 00 DF F0 96 60 C8 20 2E 00 28 D0 AE 00 04 ; .P....`. ..(....
01A9C0  .dc.b 2B 40 00 B0 28 80 60 B8 32 2E 00 2A 48 C1 20 2D ; +@..(.`.2..*H. -
01A9D0  .dc.b 00 B0 D0 81 60 EA 30 2E 00 2A 32 2D 00 D0 D2 40 ; ....`.0..*2-...@
01A9E0  .dc.b 3B 41 00 D0 39 41 00 04 60 96 3B 6E 00 2A 00 D0 ; ;A..9A..`.;n.*..
01A9F0  .dc.b 39 6E 00 2A 00 04 60 88 3B 6E 00 2A 00 42 60 00 ; 9n.*..`.;n.*.B`.
01AA00  .dc.b FF 78 20 2E 00 28 60 00 FF 78 60 00 FF 74 60 00 ; .x ..(`..x`..t`.
01AA10  .dc.b FF 70 60 00 FF 6C 60 00 FF 68 42 6D 00 02 33 ED ; .p`..l`..hBm..3.
01AA20  .dc.b 01 10 00 DF F0 9A 60 00 FF 50 48 E7 80 04 4B FA ; ......`..PH...K.
01AA30  .dc.b 09 06 30 39 00 DF F0 1E 08 00 00 07 66 00 00 24 ; ..09........f..$
01AA40  .dc.b DB FC 00 00 00 04 08 00 00 08 66 00 00 16 DB FC ; ..........f.....
01AA50  .dc.b 00 00 00 04 08 00 00 09 66 00 00 08 DB FC 00 00 ; ........f.......
01AA60  .dc.b 00 04 33 ED 01 12 00 DF F0 9A 33 ED 01 12 00 DF ; ..3.......3.....
01AA70  .dc.b F0 9C 3B 7C FF FF 00 02 4C DF 20 01 4E 73 10 2E ; ..;|....L. .Ns..
01AA80  .dc.b 00 29 B0 2D 00 11 64 00 FE F8 3B 6E 00 2A 00 40 ; .).-..d...;n.*.@
01AA90  .dc.b 60 00 FE B2 10 2E 00 29 B0 2D 00 60 64 00 FE E2 ; `......).-.`d...
01AAA0  .dc.b 3B 6E 00 2A 00 40 60 00 FE 9C 60 00 FE D4 4A 2D ; ;n.*.@`...`...J-
01AAB0  .dc.b 00 62 67 10 0C 2D 00 FF 00 62 67 12 04 2D 00 01 ; .bg..-...bg..-..
01AAC0  .dc.b 00 62 60 16 1B 7C 00 FF 00 62 60 00 FE B4 10 2E ; .b`..|...b`.....
01AAD0  .dc.b 00 29 04 00 00 01 1B 40 00 62 3B 6E 00 2A 00 40 ; .).....@.b;n.*.@
01AAE0  .dc.b 60 00 FE 62 4A 2D 00 D2 66 C4 60 00 FE 94 10 2E ; `..bJ-..f.`.....
01AAF0  .dc.b 00 29 02 80 00 00 00 7F 20 6E 00 00 E5 48 D1 C0 ; .)...... n...H..
01AB00  .dc.b 20 28 06 00 D0 AE 00 00 2B 40 00 30 3B 6E 00 2A ;  (......+@.0;n.*
01AB10  .dc.b 00 40 3B 7C FF FF 00 62 60 00 FD EE 42 6D 00 02 ; .@;|...b`...Bm..
01AB20  .dc.b 4E 75 0C 2E 00 FE 00 2A 66 00 00 14 14 2D 00 11 ; Nu.....*f....-..
01AB30  .dc.b 1F 2E 00 2B 42 6E 00 2A 61 50 1D 5F 00 2B 30 2D ; ...+Bn.*aP._.+0-
01AB40  .dc.b 00 20 E3 48 D0 6D 00 20 D0 6E 00 2A 1B 40 00 60 ; . .H.m. .n.*.@.`
01AB50  .dc.b 60 00 FE 2E 0C 2E 00 FE 00 2A 66 12 14 2D 00 11 ; `........*f..-..
01AB60  .dc.b 1F 2E 00 2B 42 6E 00 2A 61 20 1D 5F 00 2B 1B 6E ; ...+Bn.*a ._.+.n
01AB70  .dc.b 00 2B 00 60 60 00 FE 0A 14 2D 00 11 61 0C 60 00 ; .+.``....-..a.`.
01AB80  .dc.b FD F8 74 00 61 04 60 00 FD F0 10 2E 00 29 D0 02 ; ..t.a.`......)..
01AB90  .dc.b 48 80 E3 48 41 FA 0A 8E 32 2D 00 22 48 81 30 30 ; H..HA...2-."H.00
01ABA0  .dc.b 00 00 D0 41 D0 6E 00 2A 3B 40 00 A0 4A 6D 00 C0 ; ...A.n.*;@..Jm..
01ABB0  .dc.b 66 00 00 06 39 40 00 06 4E 75 3B 6E 00 2A 00 A0 ; f...9@..Nu;n.*..
01ABC0  .dc.b 4A 6D 00 C0 66 00 FD BA 39 6E 00 2A 00 06 60 00 ; Jm..f...9n.*..`.
01ABD0  .dc.b FD B0 1B 6E 00 29 00 82 1B 7C 00 01 00 83 3B 6E ; ...n.)...|....;n
01ABE0  .dc.b 00 2A 00 C0 3B 6D 00 A0 00 C2 60 00 FD 94 10 2E ; .*..;m....`.....
01ABF0  .dc.b 00 29 1B 40 00 92 E2 08 1B 40 00 93 1B 6E 00 2B ; .).@.....@...n.+
01AC00  .dc.b 00 80 1B 7C 00 01 00 81 4A 6D 00 C0 66 00 FD 72 ; ...|....Jm..f..r
01AC10  .dc.b 39 6D 00 A0 00 06 42 6D 00 90 60 00 FD 64 1B 6E ; 9m....Bm..`..d.n
01AC20  .dc.b 00 2A 00 70 1B 6E 00 29 00 73 1B 6E 00 2A 00 71 ; .*.p.n.).s.n.*.q
01AC30  .dc.b 1B 6E 00 2B 00 72 60 00 FD 48 42 2D 00 70 42 2D ; .n.+.r`..HB-.pB-
01AC40  .dc.b 00 92 42 6D 00 C0 60 00 FD 38 33 ED 01 12 00 DF ; ..Bm..`..83.....
01AC50  .dc.b F0 9A 33 ED 01 12 00 DF F0 9C 33 ED 00 52 00 DF ; ..3.......3..R..
01AC60  .dc.b F0 96 60 00 FD 1C 4A 2D 00 D2 67 00 FD 14 4A 2D ; ..`...J-..g...J-
01AC70  .dc.b 00 62 67 10 0C 2D 00 FF 00 62 67 12 04 2D 00 01 ; .bg..-...bg..-..
01AC80  .dc.b 00 62 60 16 1B 7C 00 FF 00 62 60 00 FC F4 10 2E ; .b`..|...b`.....
01AC90  .dc.b 00 2B 04 00 00 01 1B 40 00 62 4E 75 2B 6D 00 30 ; .+.....@.bNu+m.0
01ACA0  .dc.b 00 E0 3B 6D 00 40 00 F0 10 2E 00 29 02 80 00 00 ; ..;m.@.....)....
01ACB0  .dc.b 00 7F 20 6E 00 00 E5 48 D1 C0 20 28 06 00 D0 AE ; .. n...H.. (....
01ACC0  .dc.b 00 00 2B 40 00 30 3B 6E 00 2A 00 40 60 00 FC 3A ; ..+@.0;n.*.@`..:
01ACD0  .dc.b 2B 6D 00 E0 00 30 3B 6D 00 F0 00 40 60 00 FC A2 ; +m...0;m...@`...
01ACE0  .dc.b 20 2E 00 28 02 80 00 00 FF FF D1 AD 00 B0 28 AD ;  ..(..........(.
01ACF0  .dc.b 00 B0 E2 48 91 6D 00 D0 39 6D 00 D0 00 04 60 00 ; ...H.m..9m....`.
01AD00  .dc.b FC 80 2B 6E 00 04 00 B0 28 AE 00 04 3B 7C 00 01 ; ..+n....(...;|..
01AD10  .dc.b 00 D0 39 7C 00 01 00 04 60 00 FC 66 60 00 FC 62 ; ..9|....`..f`..b
01AD20  .dc.b 00 00 06 E8 00 00 07 0E 00 00 07 18 00 00 07 4A ; ...............J
01AD30  .dc.b 00 00 07 58 00 00 08 0E 00 00 08 4E 00 00 08 7C ; ...X.......N...|
01AD40  .dc.b 00 00 08 D8 00 00 08 E2 00 00 09 9A 00 00 09 32 ; ...............2
01AD50  .dc.b 00 00 09 4E 00 00 08 82 00 00 08 B4 00 00 09 7E ; ...N...........~
01AD60  .dc.b 00 00 08 44 00 00 07 28 00 00 07 36 00 00 09 AA ; ...D...(...6....
01AD70  .dc.b 00 00 09 C6 00 00 09 FC 00 00 0A 30 00 00 09 1A ; ...........0....
01AD80  .dc.b 00 00 0A 40 00 00 0A 62 00 00 07 7A 00 00 08 0A ; ...@...b...z....
01AD90  .dc.b 00 00 07 DE 00 00 07 F4 00 00 0A 7C 00 00 0A 7C ; ...........|...|
01ADA0  .dc.b 00 00 07 62 00 00 07 6A 00 00 07 6E 00 00 07 72 ; ...b...j...n...r
01ADB0  .dc.b 00 00 07 76                                     ; ...v

; ==== sub_01ADB4 (1 caller) ====
01ADB4  4A 2D 00 92                   TST.b $92(a5)
01ADB8  67 36                         BEQ $01ADF0
01ADBA  10 2D 00 80                   MOVE.b $80(a5),d0
01ADBE  48 80                         EXT.W d0
01ADC0  D1 6D 00 90                   ADD.w d0,$90(a5)
01ADC4  30 2D 00 90                   MOVE.w $90(a5),d0
01ADC8  D0 6D 00 A0                   ADD.w $A0(a5),d0
01ADCC  4A 6D 00 C0                   TST.w $C0(a5)
01ADD0  66 04                         BNE $01ADD6
01ADD2  39 40 00 06                   MOVE.w d0,$6(a4)
01ADD6  04 2D 00 01 00 93             SUBI.b #$1,$93(a5)
01ADDC  66 12                         BNE $01ADF0
01ADDE  1B 6D 00 92 00 93             MOVE.b $92(a5),$93(a5)
01ADE4  0A 2D 00 FF 00 80             EORI.b #$FF,$80(a5)
01ADEA  06 2D 00 01 00 80             ADDI.b #$1,$80(a5)
01ADF0  4E 75                         RTS

; ==== sub_01ADF2 (1 caller) ====
01ADF2  4A 6D 00 C0                   TST.w $C0(a5)
01ADF6  67 F8                         BEQ $01ADF0
01ADF8  04 2D 00 01 00 83             SUBI.b #$1,$83(a5)
01ADFE  66 F0                         BNE $01ADF0
01AE00  1B 6D 00 82 00 83             MOVE.b $82(a5),$83(a5)
01AE06  32 2D 00 A0                   MOVE.w $A0(a5),d1
01AE0A  30 2D 00 C2                   MOVE.w $C2(a5),d0
01AE0E  B0 41                         CMP.w d1,d0
01AE10  67 DE                         BEQ $01ADF0
01AE12  65 20                         BCS $01AE34
01AE14  90 6D 00 C0                   SUB.w $C0(a5),d0
01AE18  B0 41                         CMP.w d1,d0
01AE1A  67 02                         BEQ $01AE1E
01AE1C  64 08                         BCC $01AE26
01AE1E  42 6D 00 C0                   CLR.w $C0(a5)
01AE22  30 2D 00 A0                   MOVE.w $A0(a5),d0
01AE26  02 40 07 FF                   ANDI.w #$7FF,d0
01AE2A  3B 40 00 C2                   MOVE.w d0,$C2(a5)
01AE2E  39 40 00 06                   MOVE.w d0,$6(a4)
01AE32  4E 75                         RTS
01AE34  D0 6D 00 C0                   ADD.w $C0(a5),d0
01AE38  B0 41                         CMP.w d1,d0
01AE3A  67 E2                         BEQ $01AE1E
01AE3C  64 E0                         BCC $01AE1E
01AE3E  60 E6                         BRA $01AE26

; ==== sub_01AE40 (1 caller) ====
01AE40  4A 2D 00 70                   TST.b $70(a5)
01AE44  67 0C                         BEQ $01AE52
01AE46  4A 2D 00 71                   TST.b $71(a5)
01AE4A  67 08                         BEQ $01AE54
01AE4C  04 2D 00 01 00 71             SUBI.b #$1,$71(a5)
01AE52  4E 75                         RTS
01AE54  1B 6D 00 70 00 71             MOVE.b $70(a5),$71(a5)
01AE5A  10 2D 00 72                   MOVE.b $72(a5),d0
01AE5E  B0 2D 00 60                   CMP.b $60(a5),d0
01AE62  6E 20                         BGT $01AE84
01AE64  12 2D 00 73                   MOVE.b $73(a5),d1
01AE68  93 2D 00 60                   SUB.b d1,$60(a5)
01AE6C  6B 00 00 0A                   BMI $01AE78
01AE70  B0 2D 00 60                   CMP.b $60(a5),d0
01AE74  6C 02                         BGE $01AE78
01AE76  4E 75                         RTS
01AE78  1B 6D 00 72 00 60             MOVE.b $72(a5),$60(a5)
01AE7E  42 2D 00 70                   CLR.b $70(a5)
01AE82  4E 75                         RTS
01AE84  12 2D 00 73                   MOVE.b $73(a5),d1
01AE88  D3 2D 00 60                   ADD.b d1,$60(a5)
01AE8C  B0 2D 00 60                   CMP.b $60(a5),d0
01AE90  6F E6                         BLE $01AE78
01AE92  4E 75                         RTS

; ==== sub_01AE94 (2 callers) ====
01AE94  48 E7 80 0E                   MOVEM.l d0/a4-a6,-(a7)
01AE98  4D FA 04 3E                   LEA $01B2D8(pc),a6
01AE9C  2F 2E 00 28                   MOVE.l $28(a6),-(a7)
01AEA0  4B FA 04 94                   LEA $01B336(pc),a5
01AEA4  2D 40 00 28                   MOVE.l d0,$28(a6)
01AEA8  10 2E 00 2A                   MOVE.b $2A(a6),d0
01AEAC  02 80 00 00 00 03             ANDI.l #$3,d0
01AEB2  E5 48                         LSL.w #2,d0
01AEB4  DB C0                         ADDA.l d0,a5
01AEB6  4A 2D 01 03                   TST.b $103(a5)
01AEBA  66 00 00 B0                   BNE $01AF6C
01AEBE  0C 2E 00 F7 00 28             CMPI.b #$F7,$28(a6)
01AEC4  66 1C                         BNE $01AEE2
01AEC6  1B 7C 00 01 00 70             MOVE.b #$1,$70(a5)
01AECC  1B 6E 00 29 00 73             MOVE.b $29(a6),$73(a5)
01AED2  1B 7C 00 01 00 71             MOVE.b #$1,$71(a5)
01AED8  1B 6E 00 2B 00 72             MOVE.b $2B(a6),$72(a5)
01AEDE  60 00 00 8C                   BRA $01AF6C
01AEE2  0C 2E 00 F6 00 28             CMPI.b #$F6,$28(a6)
01AEE8  66 24                         BNE $01AF0E
01AEEA  10 2E 00 29                   MOVE.b $29(a6),d0
01AEEE  02 00 00 FE                   ANDI.b #$FE,d0
01AEF2  1B 40 00 92                   MOVE.b d0,$92(a5)
01AEF6  E2 08                         LSR.b #1,d0
01AEF8  1B 40 00 93                   MOVE.b d0,$93(a5)
01AEFC  1B 6E 00 2B 00 80             MOVE.b $2B(a6),$80(a5)
01AF02  1B 7C 00 01 00 81             MOVE.b #$1,$81(a5)
01AF08  42 6D 00 90                   CLR.w $90(a5)
01AF0C  60 5E                         BRA $01AF6C
01AF0E  0C 2E 00 F5 00 28             CMPI.b #$F5,$28(a6)
01AF14  66 06                         BNE $01AF1C
01AF16  42 2D 00 D2                   CLR.b $D2(a5)
01AF1A  60 50                         BRA $01AF6C
01AF1C  0C 2E 00 BF 00 28             CMPI.b #$BF,$28(a6)
01AF22  64 52                         BCC $01AF76
01AF24  02 6E 3F FF 00 28             ANDI.w #$3FFF,$28(a6)
01AF2A  1B 6E 00 2B 00 23             MOVE.b $2B(a6),$23(a5)
01AF30  10 2E 00 2A                   MOVE.b $2A(a6),d0
01AF34  E8 08                         LSR.b #4,d0
01AF36  02 00 00 0F                   ANDI.b #$F,d0
01AF3A  1B 40 00 21                   MOVE.b d0,$21(a5)
01AF3E  10 2E 00 29                   MOVE.b $29(a6),d0
01AF42  1B 40 00 13                   MOVE.b d0,$13(a5)
01AF46  1B 6E 00 28 00 11             MOVE.b $28(a6),$11(a5)
01AF4C  28 6E 00 00                   MOVEA.l $0(a6),a4
01AF50  E5 48                         LSL.w #2,d0
01AF52  D9 C0                         ADDA.l d0,a4
01AF54  28 6C 06 00                   MOVEA.l $600(a4),a4
01AF58  D9 EE 00 00                   ADDA.l $0(a6),a4
01AF5C  2B 4C 00 30                   MOVE.l a4,$30(a5)
01AF60  3B 7C 00 01 00 02             MOVE.w #$1,$2(a5)
01AF66  1B 7C 00 01 00 D2             MOVE.b #$1,$D2(a5)
01AF6C  2D 5F 00 28                   MOVE.l (a7)+,$28(a6)
01AF70  4C DF                         .dc.w $4CDF
01AF72  .dc.b 70 01 4E 75                                     ; p.Nu
01AF76  2F 01                         MOVE.l d1,-(a7)
01AF78  1B 6E 00 29 00 82             MOVE.b $29(a6),$82(a5)
01AF7E  1B 7C 00 01 00 83             MOVE.b #$1,$83(a5)
01AF84  42 2D 00 C0                   CLR.b $C0(a5)
01AF88  1B 6E 00 2B 00 C1             MOVE.b $2B(a6),$C1(a5)
01AF8E  3B 6D 00 A0 00 C2             MOVE.w $A0(a5),$C2(a5)
01AF94  10 2E 00 28                   MOVE.b $28(a6),d0
01AF98  02 40 00 3F                   ANDI.w #$3F,d0
01AF9C  1B 40 00 11                   MOVE.b d0,$11(a5)
01AFA0  E3 48                         LSL.w #1,d0
01AFA2  49 FA 06 80                   LEA $01B624(pc),a4
01AFA6  3B 74 00 00 00 A0             MOVE.w $0(a4,d0.w),$A0(a5)
01AFAC  22 1F                         MOVE.l (a7)+,d1
01AFAE  60 BC                         BRA $01AF6C
01AFB0  48 E7 00 04                   MOVEM.l a5,-(a7)
01AFB4  4B FA 03 80                   LEA $01B336(pc),a5
01AFB8  02 40 00 03                   ANDI.w #$3,d0
01AFBC  E5 48                         LSL.w #2,d0
01AFBE  DA C0                         ADDA.w d0,a5
01AFC0  33 ED 00 52 00 DF F0 96       MOVE.w $52(a5),$DFF096.l
01AFC8  42 6D 00 02                   CLR.w $2(a5)
01AFCC  42 2D 01 23                   CLR.b $123(a5)
01AFD0  4C DF                         .dc.w $4CDF
01AFD2  .dc.b 20 00 4E 75                                     ;  .Nu

; ==== sub_01AFD6 (1 caller) ====
01AFD6  08 2E 00 05 00 3D             BTST.b #$5,$3D(a6)
01AFDC  66 04                         BNE $01AFE2
01AFDE  61 00 02 52                   BSR $01B232
01AFE2  42 2E 00 2E                   CLR.b $2E(a6)
01AFE6  3D 7C 00 01 00 44             MOVE.w #$1,$44(a6)
01AFEC  28 6E 00 04                   MOVEA.l $4(a6),a4
01AFF0  42 94                         CLR.l (a4)
01AFF2  28 6E 00 00                   MOVEA.l $0(a6),a4
01AFF6  30 2E 00 3C                   MOVE.w $3C(a6),d0
01AFFA  02 80 00 00 00 1F             ANDI.l #$1F,d0
01B000  E3 88                         LSL.l #1,d0
01B002  D9 C0                         ADDA.l d0,a4
01B004  4B FA 04 A0                   LEA $01B4A6(pc),a5
01B008  41 FA 05 64                   LEA $01B56E(pc),a0
01B00C  32 2E 00 0C                   MOVE.w $C(a6),d1
01B010  02 41 00 1F                   ANDI.w #$1F,d1
01B014  E3 49                         LSL.w #1,d1
01B016  31 AD 00 04 10 00             MOVE.w $4(a5),$0(a0,d1.w)
01B01C  11 AE 00 3F 10 40             MOVE.b $3F(a6),$40(a0,d1.w)
01B022  11 AD 00 07 10 41             MOVE.b $7(a5),$41(a0,d1.w)
01B028  42 6E 00 3E                   CLR.w $3E(a6)
01B02C  3B 6C 01 00 00 04             MOVE.w $100(a4),$4(a5)
01B032  3B 6C 01 00 00 00             MOVE.w $100(a4),$0(a5)
01B038  3B 6C 01 40 00 02             MOVE.w $140(a4),$2(a5)
01B03E  3B 6C 01 80 00 06             MOVE.w $180(a4),$6(a5)
01B044  32 3C 00 1C                   MOVE.w #$1C,d1
01B048  08 2E 00 06 00 3D             BTST.b #$6,$3D(a6)
01B04E  67 12                         BEQ $01B062
01B050  3B 70 00 00 00 04             MOVE.w $0(a0,d0.w),$4(a5)
01B056  1D 70 00 40 00 3F             MOVE.b $40(a0,d0.w),$3F(a6)
01B05C  1B 70 00 41 00 07             MOVE.b $41(a0,d0.w),$7(a5)
01B062  1D 6E 00 5C 00 4A             MOVE.b $5C(a6),$4A(a6)
01B068  0C 6D 00 0F 00 06             CMPI.w #$F,$6(a5)
01B06E  63 12                         BLS $01B082
01B070  3D 7C 00 01 00 3E             MOVE.w #$1,$3E(a6)
01B076  04 6D 00 10 00 06             SUBI.w #$10,$6(a5)
01B07C  3D 7C 00 02 00 44             MOVE.w #$2,$44(a6)
01B082  2B BA 05 80 10 28             MOVE.l $01B604(pc),$28(a5,d1.w)
01B088  3B BC FF 00 10 48             MOVE.w #$FF00,$48(a5,d1.w)
01B08E  42 B5 10 68                   CLR.l $68(a5,d1.w)
01B092  04 41 00 04                   SUBI.w #$4,d1
01B096  6A CA                         BPL $01B062
01B098  0C 6D 01 FF 00 00             CMPI.w #$1FF,$0(a5)
01B09E  67 08                         BEQ $01B0A8
01B0A0  28 6E 00 00                   MOVEA.l $0(a6),a4
01B0A4  61 00 F5 9E                   BSR $01A644
01B0A8  42 6E 00 0A                   CLR.w $A(a6)
01B0AC  42 6E 00 2C                   CLR.w $2C(a6)
01B0B0  08 F9 00 01 00 BF E0 01       BSET.b #$1,$BFE001.l
01B0B8  33 FC 00 FF 00 DF F0 9E       MOVE.w #$FF,$DFF09E.l
01B0C0  30 2E 00 3C                   MOVE.w $3C(a6),d0
01B0C4  02 40 00 1F                   ANDI.w #$1F,d0
01B0C8  3D 40 00 0C                   MOVE.w d0,$C(a6)
01B0CC  1D 7C 00 FF 00 3D             MOVE.b #$FF,$3D(a6)
01B0D2  49 FA 05 1A                   LEA $01B5EE(pc),a4
01B0D6  42 6C 00 02                   CLR.w $2(a4)
01B0DA  4B FA 02 5A                   LEA $01B336(pc),a5
01B0DE  42 2D 01 03                   CLR.b $103(a5)
01B0E2  42 2D 01 07                   CLR.b $107(a5)
01B0E6  42 2D 01 0B                   CLR.b $10B(a5)
01B0EA  42 2D 01 0F                   CLR.b $10F(a5)
01B0EE  42 6D 01 00                   CLR.w $100(a5)
01B0F2  42 6D 01 04                   CLR.w $104(a5)
01B0F6  42 6D 01 08                   CLR.w $108(a5)
01B0FA  42 6D 01 0C                   CLR.w $10C(a5)
01B0FE  1D 7C 00 01 00 2E             MOVE.b #$1,$2E(a6)
01B104  4E 75                         RTS
01B106  48 E7 00 06                   MOVEM.l a5-a6,-(a7)
01B10A  4D FA 01 CC                   LEA $01B2D8(pc),a6
01B10E  4B FA 04 DE                   LEA $01B5EE(pc),a5
01B112  3B 7C 00 01 00 00             MOVE.w #$1,$0(a5)
01B118  1D 40 00 51                   MOVE.b d0,$51(a6)
01B11C  48 40                         SWAP d0
01B11E  1D 40 00 52                   MOVE.b d0,$52(a6)
01B122  1D 40 00 53                   MOVE.b d0,$53(a6)
01B126  67 18                         BEQ $01B140
01B128  10 2E 00 50                   MOVE.b $50(a6),d0
01B12C  1D 7C 00 01 00 1C             MOVE.b #$1,$1C(a6)
01B132  B0 2E 00 51                   CMP.b $51(a6),d0
01B136  67 0E                         BEQ $01B146
01B138  65 16                         BCS $01B150
01B13A  44 2E 00 1C                   NEG.b $1C(a6)
01B13E  60 10                         BRA $01B150
01B140  1D 6E 00 51 00 50             MOVE.b $51(a6),$50(a6)
01B146  1D 7C 00 00 00 1C             MOVE.b #$0,$1C(a6)
01B14C  42 6D 00 00                   CLR.w $0(a5)
01B150  4C DF                         .dc.w $4CDF
01B152  .dc.b 60 00 4E 75                                     ; `.Nu
01B156  41 FA 04 96                   LEA $01B5EE(pc),a0
01B15A  4E 75                         RTS
01B15C  .dc.b 2F 08 41 FA 04 8E 31 7C 00 01 00 02 42 68 00 00 ; /.A...1|....Bh..
01B16C  .dc.b 42 2E 00 2E 20 5F 4E 75                         ; B... _Nu
01B174  48 E7 70 0E                   MOVEM.l d1-d3/a4-a6,-(a7)
01B178  4D FA 01 5E                   LEA $01B2D8(pc),a6
01B17C  49 FA 01 B8                   LEA $01B336(pc),a4
01B180  34 00                         MOVE.w d0,d2
01B182  2A 6E 00 00                   MOVEA.l $0(a6),a5
01B186  DB FC 00 00 05 FC             ADDA.l #$5FC,a5
01B18C  2A 55                         MOVEA.l (a5),a5
01B18E  DB EE 00 00                   ADDA.l $0(a6),a5
01B192  02 42 00 3F                   ANDI.w #$3F,d2
01B196  E7 4A                         LSL.w #3,d2
01B198  12 35 20 02                   MOVE.b $2(a5,d2.w),d1
01B19C  0C 2E 00 1F 00 0D             CMPI.b #$1F,$D(a6)
01B1A2  66 00 00 06                   BNE $01B1AA
01B1A6  12 35 20 04                   MOVE.b $4(a5,d2.w),d1
01B1AA  02 81 00 00 00 03             ANDI.l #$3,d1
01B1B0  E5 49                         LSL.w #2,d1
01B1B2  26 01                         MOVE.l d1,d3
01B1B4  ED 4B                         LSL.w #6,d3
01B1B6  D9 C1                         ADDA.l d1,a4
01B1B8  B4 2C 01 02                   CMP.b $102(a4),d2
01B1BC  66 0A                         BNE $01B1C8
01B1BE  08 35 00 07 20 05             BTST.b #$7,$5(a5,d2.w)
01B1C4  66 36                         BNE $01B1FC
01B1C6  60 10                         BRA $01B1D8
01B1C8  12 35 20 05                   MOVE.b $5(a5,d2.w),d1
01B1CC  B2 2C 01 03                   CMP.b $103(a4),d1
01B1D0  6C 06                         BGE $01B1D8
01B1D2  4A 6C 01 00                   TST.w $100(a4)
01B1D6  6A 24                         BPL $01B1FC
01B1D8  42 2C 01 03                   CLR.b $103(a4)
01B1DC  20 35 20 00                   MOVE.l $0(a5,d2.w),d0
01B1E0  02 80 FF FF F0 FF             ANDI.l #$FFFFF0FF,d0
01B1E6  80 83                         OR.l d3,d0
01B1E8  61 00 FC AA                   BSR $01AE94
01B1EC  19 75 20 05 01 03             MOVE.b $5(a5,d2.w),$103(a4)
01B1F2  39 75 20 06 01 00             MOVE.w $6(a5,d2.w),$100(a4)
01B1F8  19 42 01 02                   MOVE.b d2,$102(a4)
01B1FC  4C DF                         .dc.w $4CDF
01B1FE  .dc.b 70 0E 4E 75 08 C0 00 05                         ; p.Nu....
01B206  48 E7 00 06                   MOVEM.l a5-a6,-(a7)
01B20A  4D FA 00 CC                   LEA $01B2D8(pc),a6
01B20E  3D 40 00 3C                   MOVE.w d0,$3C(a6)
01B212  42 2E 00 4A                   CLR.b $4A(a6)
01B216  4C DF                         .dc.w $4CDF
01B218  .dc.b 60 00 4E 75 48 E7 00 06 4D FA 00 B6 08 C0 00 06 ; `.NuH...M.......
01B228  .dc.b 3D 40 00 3C 4C DF 60 00 4E 75                   ; =@.<L.`.Nu

; ==== sound_silence  $01B232  (1 caller) — Zero the four AUDxVOL registers ($DFF0A8/B8/C8/D8); the default sound_api slot. ====
01B232  48 E7 80 0E                   MOVEM.l d0/a4-a6,-(a7)
01B236  4D FA 00 A0                   LEA $01B2D8(pc),a6
01B23A  42 2E 00 2E                   CLR.b $2E(a6)
01B23E  42 79 00 DF F0 A8             CLR.w $DFF0A8.l
01B244  42 79 00 DF F0 B8             CLR.w $DFF0B8.l
01B24A  42 79 00 DF F0 C8             CLR.w $DFF0C8.l
01B250  42 79 00 DF F0 D8             CLR.w $DFF0D8.l
01B256  33 FC 00 0F 00 DF F0 96       MOVE.w #$F,$DFF096.l
01B25E  4B FA 00 D6                   LEA $01B336(pc),a5
01B262  42 6D 00 02                   CLR.w $2(a5)
01B266  42 6D 00 06                   CLR.w $6(a5)
01B26A  42 6D 00 0A                   CLR.w $A(a5)
01B26E  42 6D 00 0E                   CLR.w $E(a5)
01B272  42 2D 01 23                   CLR.b $123(a5)
01B276  42 2D 01 27                   CLR.b $127(a5)
01B27A  42 2D 01 2B                   CLR.b $12B(a5)
01B27E  42 2D 01 2F                   CLR.b $12F(a5)
01B282  4C DF                         .dc.w $4CDF
01B284  .dc.b 70 01 4E 75                                     ; p.Nu
01B288  48 E7 00 0E                   MOVEM.l a4-a6,-(a7)
01B28C  4D FA 00 4A                   LEA $01B2D8(pc),a6
01B290  2D 7C 40 40 00 00 00 50       MOVE.l #$40400000,$50(a6)
01B298  2D 40 00 00                   MOVE.l d0,$0(a6)
01B29C  2D 41 00 04                   MOVE.l d1,$4(a6)
01B2A0  3D 7C 00 01 00 08             MOVE.w #$1,$8(a6)
01B2A6  2A 40                         MOVEA.l d0,a5
01B2A8  28 40                         MOVEA.l d0,a4
01B2AA  DB FC 00 00 01 00             ADDA.l #$100,a5
01B2B0  D9 FC 00 00 01 80             ADDA.l #$180,a4
01B2B6  4D FA 02 B6                   LEA $01B56E(pc),a6
01B2BA  30 3C 00 1F                   MOVE.w #$1F,d0
01B2BE  3D 5C 00 40                   MOVE.w (a4)+,$40(a6)
01B2C2  3C DD                         MOVE.w (a5)+,(a6)+
01B2C4  51 C8 FF F8                   DBRA d0,$01B2BE
01B2C8  49 FA F7 60                   LEA $01AA2A(pc),a4
01B2CC  23 CC 00 00 00 70             MOVE.l a4,$70.l
01B2D2  4C DF                         .dc.w $4CDF
01B2D4  .dc.b 70 00 4E 75                                     ; p.Nu

; --- sound_state  $01B2D8 — Resident sound-driver state struct (counterpart of the overlay's player_state $1CC22). (data) ---
01B2D8  .dc.b 00 00 00 00 00 00 00 00 00 00 00 00 00 00 00 00 ; ................
01B2E8  .dc.b 00 00 00 00 00 00 00 00 00 00 00 00 00 00 00 00 ; ................
01B2F8  .dc.b 00 00 00 00 00 00 00 00 00 00 00 00 00 00 00 00 ; ................
01B308  .dc.b 00 00 00 00 00 00 00 00 00 00 00 00 FF FF 00 00 ; ................
01B318  .dc.b 00 00 00 00 00 01 00 00 00 00 00 00 00 00 00 00 ; ................
01B328  .dc.b 40 40 00 00 00 00 00 00 00 00                   ; @@........

; --- voice_table2  $01B332 — Resident per-voice state array (counterpart of the overlay's voice_table $1CC7C); $160 per voice = its hardware channel pointer. (data) ---
01B332  .dc.b 00 00 00 00 00 00 00 00 00 00 00 00 00 00 00 00 ; ................
01B342  .dc.b 00 00 00 00 00 00 00 00 00 00 00 00 00 00 00 00 ; ................
01B352  .dc.b 00 00 00 00 00 00 00 00 00 00 00 00 00 00 00 00 ; ................
01B362  .dc.b 00 00 00 00 00 00 00 00 00 00 00 00 00 00 00 00 ; ................
01B372  .dc.b 00 00 00 00 00 00 00 00 00 00 00 00 00 00 00 00 ; ................
01B382  .dc.b 00 00 00 00 82 01 00 01 82 02 00 02 82 04 00 04 ; ................
01B392  .dc.b 82 08 00 08 00 00 00 00 00 00 00 00 00 00 00 00 ; ................
01B3A2  .dc.b 00 00 00 00 00 00 00 00 00 00 00 00 00 00 00 00 ; ................
01B3B2  .dc.b 00 00 00 00 00 00 00 00 00 00 00 00 00 00 00 00 ; ................
01B3C2  .dc.b 00 00 00 00 00 00 00 00 00 00 00 00 00 00 00 00 ; ................
01B3D2  .dc.b 00 00 00 00 00 00 00 00 00 00 00 00 00 00 00 00 ; ................
01B3E2  .dc.b 00 00 00 00 00 00 00 00 00 00 00 00 00 00 00 00 ; ................
01B3F2  .dc.b 00 00 00 00 00 00 00 00 00 00 00 00 00 00 00 00 ; ................
01B402  .dc.b 00 00 00 00 00 00 00 00 00 00 00 00 00 00 00 00 ; ................
01B412  .dc.b 00 00 00 00 00 00 00 00 00 00 00 00 00 00 00 00 ; ................
01B422  .dc.b 00 00 00 00 00 00 00 00 00 00 00 00 00 00 00 00 ; ................
01B432  .dc.b 00 00 00 00 00 00 00 00 00 00 00 00 00 00 00 00 ; ................
01B442  .dc.b 00 00 00 00 C0 80 00 80 C1 00 01 00 C2 00 02 00 ; ................
01B452  .dc.b C4 00 04 00 00 00 00 00 00 00 00 00 00 00 00 00 ; ................
01B462  .dc.b 00 00 00 00 00 00 00 00 00 00 00 00 00 00 00 00 ; ................
01B472  .dc.b 00 00 00 00 00 00 00 00 00 00 00 00 00 00 00 00 ; ................
01B482  .dc.b 00 00 00 00 00 00 00 04 00 00 00 04 00 00 00 04 ; ................
01B492  .dc.b FF FF FF F4 00 DF F0 A0 00 DF F0 B0 00 DF F0 C0 ; ................
01B4A2  .dc.b 00 DF F0 D0 00 00 00 00 00 00 00 00 00 00 00 00 ; ................
01B4B2  .dc.b 00 00 00 00 00 00 00 00 00 00 00 00 00 00 00 00 ; ................
01B4C2  .dc.b 00 00 00 00 00 00 00 00 00 00 00 00 00 00 00 00 ; ................
01B4D2  .dc.b 00 00 00 00 00 00 00 00 00 00 00 00 00 00 00 00 ; ................
01B4E2  .dc.b 00 00 00 00 00 00 00 00 00 00 00 00 00 00 00 00 ; ................
01B4F2  .dc.b 00 00 00 00 00 00 00 00 00 00 00 00 00 00 00 00 ; ................
01B502  .dc.b 00 00 00 00 00 00 00 00 00 00 00 00 00 00 00 00 ; ................
01B512  .dc.b 00 00 00 00 00 00 00 00 00 00 00 00 00 00 00 00 ; ................
01B522  .dc.b 00 00 00 00 00 00 00 00 00 00 00 00 00 00 00 00 ; ................
01B532  .dc.b 00 00 00 00 00 00 00 00 00 00 00 00 00 00 00 00 ; ................
01B542  .dc.b 00 00 00 00 00 00 00 00 00 00 00 00 00 00 00 00 ; ................
01B552  .dc.b 00 00 00 00 00 00 00 00 00 00 00 00 00 00 00 00 ; ................
01B562  .dc.b 00 00 00 00 00 00 00 00 00 00 00 00 00 00 00 00 ; ................
01B572  .dc.b 00 00 00 00 00 00 00 00 00 00 00 00 00 00 00 00 ; ................
01B582  .dc.b 00 00 00 00 00 00 00 00 00 00 00 00 00 00 00 00 ; ................
01B592  .dc.b 00 00 00 00 00 00 00 00 00 00 00 00 00 00 00 00 ; ................
01B5A2  .dc.b 00 00 00 00 00 00 00 00 00 00 00 00 00 00 00 00 ; ................
01B5B2  .dc.b 00 00 00 00 00 00 00 00 00 00 00 00 00 00 00 00 ; ................
01B5C2  .dc.b 00 00 00 00 00 00 00 00 00 00 00 00 00 00 00 00 ; ................
01B5D2  .dc.b 00 00 00 00 00 00 00 00 00 00 00 00 00 00 00 00 ; ................
01B5E2  .dc.b 00 00 00 00 00 00 00 00 00 00 00 00 00 00 00 02 ; ................
01B5F2  .dc.b 00 00 00 00 00 00 00 00 00 00 00 00 00 00 00 00 ; ................
01B602  .dc.b 00 00 F4 00 00 00 F0 00 00 00 0D 5C 0C 9C 0B E8 ; ...........\....
01B612  .dc.b 0B 3C 0A 9A 0A 02 09 72 08 EA 08 6A 07 F2 07 80 ; .<.....r...j....
01B622  .dc.b 07 18 06 AE 06 4E 05 F4 05 9E 05 4D 05 01 04 B9 ; .....N.....M....
01B632  .dc.b 04 75 04 35 03 F9 03 C0 03 8C 03 58 03 2A 02 FC ; .u.5.......X.*..
01B642  .dc.b 02 D0 02 A8 02 82 02 5E 02 3B 02 1B 01 FD 01 E0 ; .......^.;......
01B652  .dc.b 01 C6 01 AC 01 94 01 7D 01 68 01 54 01 40 01 2F ; .......}.h.T.@./
01B662  .dc.b 01 1E 01 0E 00 FE 00 F0 00 E3 00 D6 00 CA 00 BF ; ................
01B672  .dc.b 00 B4 00 AA 00 A0 00 97 00 8F 00 87 00 7F 00 78 ; ...............x
01B682  .dc.b 00 71 00 D6 00 CA 00 BF 00 B4 00 AA 00 A0 00 97 ; .q..............
01B692  .dc.b 00 8F 00 87 00 7F 00 78 00 71 00 D6 00 CA 00 BF ; .......x.q......
01B6A2  .dc.b 00 B4 00 00 03 F2 00 00 00 00 00 00 00 00 00 00 ; ................
01B6B2  .dc.b 00 00 00 00 00 00 00 00 00 00 00 00 00 00 00 00 ; ................
01B6C2  .dc.b 00 00 00 00 00 00 00 00 00 00 00 00 00 00 00 00 ; ................
01B6D2  .dc.b 00 00 00 00 00 00 00 00 00 00 00 00 00 00 00 00 ; ................
01B6E2  .dc.b 00 00 00 00 00 00 00 00 00 00 00 00 00 00 00 00 ; ................
01B6F2  .dc.b 00 00 00 00 00 00 00 00 00 00 00 00 00 00 00 00 ; ................
01B702  .dc.b 00 00 00 00 00 00 00 00 00 00 00 00 00 00 00 00 ; ................
01B712  .dc.b 00 00 00 00 00 00 00 00 00 00 00 00 00 00 00 00 ; ................
01B722  .dc.b 00 00 00 00 00 00 00 00 00 00 00 00 00 00 00 00 ; ................
01B732  .dc.b 00 00 00 00 00 00 00 00 00 00 00 00 00 00 00 00 ; ................
01B742  .dc.b 00 00 00 00 00 00 00 00 00 00 00 00 00 00 00 00 ; ................
01B752  .dc.b 00 00 00 00 00 00 00 00 00 00 00 00 00 00 00 00 ; ................
01B762  .dc.b 00 00 00 00 00 00 00 00 00 00 00 00 00 00 00 00 ; ................
01B772  .dc.b 00 00 00 00 00 00 00 00 00 00 00 00 00 00       ; ..............
